Archive member included to satisfy reference by file (symbol)

/Applications/microchip/xc32/v2.15/bin/bin/../../lib/gcc/pic32c/6.2.1/../../../../pic32c/lib/v7e-m/fpv5/hard/libpic32c.a(data_init.o)
                              build/sam_e70_xult_freertos/debug/_ext/1552905064/startup_xc32.o (__pic32c_data_initialization)
/Applications/microchip/xc32/v2.15/bin/bin/../../lib/gcc/pic32c/6.2.1/v7e-m/fpv5/hard/libgcc.a(_aeabi_uldivmod.o)
                              build/sam_e70_xult_freertos/debug/_ext/1607428259/drv_ethphy.o (__aeabi_uldivmod)
/Applications/microchip/xc32/v2.15/bin/bin/../../lib/gcc/pic32c/6.2.1/v7e-m/fpv5/hard/libgcc.a(_udivmoddi4.o)
                              /Applications/microchip/xc32/v2.15/bin/bin/../../lib/gcc/pic32c/6.2.1/v7e-m/fpv5/hard/libgcc.a(_aeabi_uldivmod.o) (__udivmoddi4)
/Applications/microchip/xc32/v2.15/bin/bin/../../lib/gcc/pic32c/6.2.1/v7e-m/fpv5/hard/libgcc.a(_dvmd_tls.o)
                              /Applications/microchip/xc32/v2.15/bin/bin/../../lib/gcc/pic32c/6.2.1/v7e-m/fpv5/hard/libgcc.a(_aeabi_uldivmod.o) (__aeabi_ldiv0)
/Applications/microchip/xc32/v2.15/bin/bin/../../lib/gcc/pic32c/6.2.1/../../../../pic32c/lib/v7e-m/fpv5/hard/libg.a(lib_a-atoi.o)
                              build/sam_e70_xult_freertos/debug/_ext/810785262/tcpip_commands.o (atoi)
/Applications/microchip/xc32/v2.15/bin/bin/../../lib/gcc/pic32c/6.2.1/../../../../pic32c/lib/v7e-m/fpv5/hard/libg.a(lib_a-calloc.o)
                              build/sam_e70_xult_freertos/debug/_ext/1552905064/initialization.o (calloc)
/Applications/microchip/xc32/v2.15/bin/bin/../../lib/gcc/pic32c/6.2.1/../../../../pic32c/lib/v7e-m/fpv5/hard/libg.a(lib_a-callocr.o)
                              /Applications/microchip/xc32/v2.15/bin/bin/../../lib/gcc/pic32c/6.2.1/../../../../pic32c/lib/v7e-m/fpv5/hard/libg.a(lib_a-calloc.o) (_calloc_r)
/Applications/microchip/xc32/v2.15/bin/bin/../../lib/gcc/pic32c/6.2.1/../../../../pic32c/lib/v7e-m/fpv5/hard/libg.a(lib_a-exit.o)
                              /Applications/microchip/xc32/v2.15/bin/bin/../../lib/gcc/pic32c/6.2.1/../../../../pic32c/lib/v7e-m/fpv5/hard/crt0.o (exit)
/Applications/microchip/xc32/v2.15/bin/bin/../../lib/gcc/pic32c/6.2.1/../../../../pic32c/lib/v7e-m/fpv5/hard/libg.a(lib_a-impure.o)
                              /Applications/microchip/xc32/v2.15/bin/bin/../../lib/gcc/pic32c/6.2.1/../../../../pic32c/lib/v7e-m/fpv5/hard/libg.a(lib_a-exit.o) (_global_impure_ptr)
/Applications/microchip/xc32/v2.15/bin/bin/../../lib/gcc/pic32c/6.2.1/../../../../pic32c/lib/v7e-m/fpv5/hard/libg.a(lib_a-init.o)
                              /Applications/microchip/xc32/v2.15/bin/bin/../../lib/gcc/pic32c/6.2.1/../../../../pic32c/lib/v7e-m/fpv5/hard/crt0.o (__libc_init_array)
/Applications/microchip/xc32/v2.15/bin/bin/../../lib/gcc/pic32c/6.2.1/../../../../pic32c/lib/v7e-m/fpv5/hard/libg.a(lib_a-locale.o)
                              build/sam_e70_xult_freertos/debug/_ext/810785262/helpers.o (__locale_ctype_ptr)
/Applications/microchip/xc32/v2.15/bin/bin/../../lib/gcc/pic32c/6.2.1/../../../../pic32c/lib/v7e-m/fpv5/hard/libg.a(lib_a-malloc.o)
                              build/sam_e70_xult_freertos/debug/_ext/762686499/sys_command.o (malloc)
/Applications/microchip/xc32/v2.15/bin/bin/../../lib/gcc/pic32c/6.2.1/../../../../pic32c/lib/v7e-m/fpv5/hard/libg.a(lib_a-mallocr.o)
                              /Applications/microchip/xc32/v2.15/bin/bin/../../lib/gcc/pic32c/6.2.1/../../../../pic32c/lib/v7e-m/fpv5/hard/libg.a(lib_a-callocr.o) (_malloc_r)
/Applications/microchip/xc32/v2.15/bin/bin/../../lib/gcc/pic32c/6.2.1/../../../../pic32c/lib/v7e-m/fpv5/hard/libg.a(lib_a-mbtowc_r.o)
                              /Applications/microchip/xc32/v2.15/bin/bin/../../lib/gcc/pic32c/6.2.1/../../../../pic32c/lib/v7e-m/fpv5/hard/libg.a(lib_a-locale.o) (__ascii_mbtowc)
/Applications/microchip/xc32/v2.15/bin/bin/../../lib/gcc/pic32c/6.2.1/../../../../pic32c/lib/v7e-m/fpv5/hard/libg.a(lib_a-memcmp.o)
                              build/sam_e70_xult_freertos/debug/_ext/1619526243/drv_gmac.o (memcmp)
/Applications/microchip/xc32/v2.15/bin/bin/../../lib/gcc/pic32c/6.2.1/../../../../pic32c/lib/v7e-m/fpv5/hard/libg.a(lib_a-memcpy.o)
                              build/sam_e70_xult_freertos/debug/_ext/1619526243/drv_gmac.o (memcpy)
/Applications/microchip/xc32/v2.15/bin/bin/../../lib/gcc/pic32c/6.2.1/../../../../pic32c/lib/v7e-m/fpv5/hard/libg.a(lib_a-memset.o)
                              /Applications/microchip/xc32/v2.15/bin/bin/../../lib/gcc/pic32c/6.2.1/../../../../pic32c/lib/v7e-m/fpv5/hard/crt0.o (memset)
/Applications/microchip/xc32/v2.15/bin/bin/../../lib/gcc/pic32c/6.2.1/../../../../pic32c/lib/v7e-m/fpv5/hard/libg.a(lib_a-mlock.o)
                              /Applications/microchip/xc32/v2.15/bin/bin/../../lib/gcc/pic32c/6.2.1/../../../../pic32c/lib/v7e-m/fpv5/hard/libg.a(lib_a-mallocr.o) (__malloc_lock)
/Applications/microchip/xc32/v2.15/bin/bin/../../lib/gcc/pic32c/6.2.1/../../../../pic32c/lib/v7e-m/fpv5/hard/libg.a(lib_a-rand.o)
                              build/sam_e70_xult_freertos/debug/_ext/810785262/dns.o (rand)
/Applications/microchip/xc32/v2.15/bin/bin/../../lib/gcc/pic32c/6.2.1/../../../../pic32c/lib/v7e-m/fpv5/hard/libg.a(lib_a-sbrkr.o)
                              /Applications/microchip/xc32/v2.15/bin/bin/../../lib/gcc/pic32c/6.2.1/../../../../pic32c/lib/v7e-m/fpv5/hard/libg.a(lib_a-mallocr.o) (_sbrk_r)
/Applications/microchip/xc32/v2.15/bin/bin/../../lib/gcc/pic32c/6.2.1/../../../../pic32c/lib/v7e-m/fpv5/hard/libg.a(lib_a-snprintf.o)
                              build/sam_e70_xult_freertos/debug/_ext/1360937237/app.o (snprintf)
/Applications/microchip/xc32/v2.15/bin/bin/../../lib/gcc/pic32c/6.2.1/../../../../pic32c/lib/v7e-m/fpv5/hard/libg.a(lib_a-sprintf.o)
                              (sprintf)
/Applications/microchip/xc32/v2.15/bin/bin/../../lib/gcc/pic32c/6.2.1/../../../../pic32c/lib/v7e-m/fpv5/hard/libg.a(lib_a-strcmp.o)
                              build/sam_e70_xult_freertos/debug/_ext/810785262/dns.o (strcmp)
/Applications/microchip/xc32/v2.15/bin/bin/../../lib/gcc/pic32c/6.2.1/../../../../pic32c/lib/v7e-m/fpv5/hard/libg.a(lib_a-strcpy.o)
                              build/sam_e70_xult_freertos/debug/_ext/810785262/tcpip_commands.o (strcpy)
/Applications/microchip/xc32/v2.15/bin/bin/../../lib/gcc/pic32c/6.2.1/../../../../pic32c/lib/v7e-m/fpv5/hard/libg.a(lib_a-strlen.o)
                              build/sam_e70_xult_freertos/debug/_ext/810785262/helpers.o (strlen)
/Applications/microchip/xc32/v2.15/bin/bin/../../lib/gcc/pic32c/6.2.1/../../../../pic32c/lib/v7e-m/fpv5/hard/libg.a(lib_a-strncat.o)
                              build/sam_e70_xult_freertos/debug/_ext/1360937237/app.o (strncat)
/Applications/microchip/xc32/v2.15/bin/bin/../../lib/gcc/pic32c/6.2.1/../../../../pic32c/lib/v7e-m/fpv5/hard/libg.a(lib_a-strncpy.o)
                              build/sam_e70_xult_freertos/debug/_ext/1619526243/drv_gmac.o (strncpy)
/Applications/microchip/xc32/v2.15/bin/bin/../../lib/gcc/pic32c/6.2.1/../../../../pic32c/lib/v7e-m/fpv5/hard/libg.a(lib_a-strstr.o)
                              build/sam_e70_xult_freertos/debug/_ext/1360937237/app.o (strstr)
/Applications/microchip/xc32/v2.15/bin/bin/../../lib/gcc/pic32c/6.2.1/../../../../pic32c/lib/v7e-m/fpv5/hard/libg.a(lib_a-strtok.o)
                              build/sam_e70_xult_freertos/debug/_ext/1360937237/app.o (strtok)
/Applications/microchip/xc32/v2.15/bin/bin/../../lib/gcc/pic32c/6.2.1/../../../../pic32c/lib/v7e-m/fpv5/hard/libg.a(lib_a-strtok_r.o)
                              /Applications/microchip/xc32/v2.15/bin/bin/../../lib/gcc/pic32c/6.2.1/../../../../pic32c/lib/v7e-m/fpv5/hard/libg.a(lib_a-strtok.o) (__strtok_r)
/Applications/microchip/xc32/v2.15/bin/bin/../../lib/gcc/pic32c/6.2.1/../../../../pic32c/lib/v7e-m/fpv5/hard/libg.a(lib_a-strtol.o)
                              /Applications/microchip/xc32/v2.15/bin/bin/../../lib/gcc/pic32c/6.2.1/../../../../pic32c/lib/v7e-m/fpv5/hard/libg.a(lib_a-atoi.o) (_strtol_r)
/Applications/microchip/xc32/v2.15/bin/bin/../../lib/gcc/pic32c/6.2.1/../../../../pic32c/lib/v7e-m/fpv5/hard/libg.a(lib_a-svfprintf.o)
                              /Applications/microchip/xc32/v2.15/bin/bin/../../lib/gcc/pic32c/6.2.1/../../../../pic32c/lib/v7e-m/fpv5/hard/libg.a(lib_a-snprintf.o) (_svfprintf_r)
/Applications/microchip/xc32/v2.15/bin/bin/../../lib/gcc/pic32c/6.2.1/../../../../pic32c/lib/v7e-m/fpv5/hard/libg.a(lib_a-vsnprintf.o)
                              build/sam_e70_xult_freertos/debug/_ext/762686499/sys_debug.o (vsnprintf)
/Applications/microchip/xc32/v2.15/bin/bin/../../lib/gcc/pic32c/6.2.1/../../../../pic32c/lib/v7e-m/fpv5/hard/libg.a(lib_a-wctomb_r.o)
                              /Applications/microchip/xc32/v2.15/bin/bin/../../lib/gcc/pic32c/6.2.1/../../../../pic32c/lib/v7e-m/fpv5/hard/libg.a(lib_a-locale.o) (__ascii_wctomb)
/Applications/microchip/xc32/v2.15/bin/bin/../../lib/gcc/pic32c/6.2.1/../../../../pic32c/lib/v7e-m/fpv5/hard/libg.a(lib_a-__call_atexit.o)
                              /Applications/microchip/xc32/v2.15/bin/bin/../../lib/gcc/pic32c/6.2.1/../../../../pic32c/lib/v7e-m/fpv5/hard/libg.a(lib_a-exit.o) (__call_exitprocs)
/Applications/microchip/xc32/v2.15/bin/bin/../../lib/gcc/pic32c/6.2.1/../../../../pic32c/lib/v7e-m/fpv5/hard/libg.a(lib_a-atexit.o)
                              /Applications/microchip/xc32/v2.15/bin/bin/../../lib/gcc/pic32c/6.2.1/../../../../pic32c/lib/v7e-m/fpv5/hard/libg.a(lib_a-__call_atexit.o) (atexit)
/Applications/microchip/xc32/v2.15/bin/bin/../../lib/gcc/pic32c/6.2.1/../../../../pic32c/lib/v7e-m/fpv5/hard/libg.a(lib_a-ctype_.o)
                              /Applications/microchip/xc32/v2.15/bin/bin/../../lib/gcc/pic32c/6.2.1/../../../../pic32c/lib/v7e-m/fpv5/hard/libg.a(lib_a-locale.o) (_ctype_)
/Applications/microchip/xc32/v2.15/bin/bin/../../lib/gcc/pic32c/6.2.1/../../../../pic32c/lib/v7e-m/fpv5/hard/libg.a(lib_a-dtoa.o)
                              /Applications/microchip/xc32/v2.15/bin/bin/../../lib/gcc/pic32c/6.2.1/../../../../pic32c/lib/v7e-m/fpv5/hard/libg.a(lib_a-svfprintf.o) (_dtoa_r)
/Applications/microchip/xc32/v2.15/bin/bin/../../lib/gcc/pic32c/6.2.1/../../../../pic32c/lib/v7e-m/fpv5/hard/libg.a(lib_a-fini.o)
                              /Applications/microchip/xc32/v2.15/bin/bin/../../lib/gcc/pic32c/6.2.1/../../../../pic32c/lib/v7e-m/fpv5/hard/libg.a(lib_a-__call_atexit.o) (__libc_fini_array)
/Applications/microchip/xc32/v2.15/bin/bin/../../lib/gcc/pic32c/6.2.1/../../../../pic32c/lib/v7e-m/fpv5/hard/libg.a(lib_a-freer.o)
                              /Applications/microchip/xc32/v2.15/bin/bin/../../lib/gcc/pic32c/6.2.1/../../../../pic32c/lib/v7e-m/fpv5/hard/libg.a(lib_a-malloc.o) (_free_r)
/Applications/microchip/xc32/v2.15/bin/bin/../../lib/gcc/pic32c/6.2.1/../../../../pic32c/lib/v7e-m/fpv5/hard/libg.a(lib_a-localeconv.o)
                              /Applications/microchip/xc32/v2.15/bin/bin/../../lib/gcc/pic32c/6.2.1/../../../../pic32c/lib/v7e-m/fpv5/hard/libg.a(lib_a-svfprintf.o) (_localeconv_r)
/Applications/microchip/xc32/v2.15/bin/bin/../../lib/gcc/pic32c/6.2.1/../../../../pic32c/lib/v7e-m/fpv5/hard/libg.a(lib_a-memchr.o)
                              /Applications/microchip/xc32/v2.15/bin/bin/../../lib/gcc/pic32c/6.2.1/../../../../pic32c/lib/v7e-m/fpv5/hard/libg.a(lib_a-strstr.o) (memchr)
/Applications/microchip/xc32/v2.15/bin/bin/../../lib/gcc/pic32c/6.2.1/../../../../pic32c/lib/v7e-m/fpv5/hard/libg.a(lib_a-mprec.o)
                              /Applications/microchip/xc32/v2.15/bin/bin/../../lib/gcc/pic32c/6.2.1/../../../../pic32c/lib/v7e-m/fpv5/hard/libg.a(lib_a-dtoa.o) (_Balloc)
/Applications/microchip/xc32/v2.15/bin/bin/../../lib/gcc/pic32c/6.2.1/../../../../pic32c/lib/v7e-m/fpv5/hard/libg.a(lib_a-reent.o)
                              /Applications/microchip/xc32/v2.15/bin/bin/../../lib/gcc/pic32c/6.2.1/../../../../pic32c/lib/v7e-m/fpv5/hard/libg.a(lib_a-sbrkr.o) (errno)
/Applications/microchip/xc32/v2.15/bin/bin/../../lib/gcc/pic32c/6.2.1/../../../../pic32c/lib/v7e-m/fpv5/hard/libg.a(lib_a-s_frexp.o)
                              /Applications/microchip/xc32/v2.15/bin/bin/../../lib/gcc/pic32c/6.2.1/../../../../pic32c/lib/v7e-m/fpv5/hard/libg.a(lib_a-svfprintf.o) (frexp)
/Applications/microchip/xc32/v2.15/bin/bin/../../lib/gcc/pic32c/6.2.1/../../../../pic32c/lib/v7e-m/fpv5/hard/libg.a(lib_a-strchr.o)
                              /Applications/microchip/xc32/v2.15/bin/bin/../../lib/gcc/pic32c/6.2.1/../../../../pic32c/lib/v7e-m/fpv5/hard/libg.a(lib_a-strstr.o) (strchr)
/Applications/microchip/xc32/v2.15/bin/bin/../../lib/gcc/pic32c/6.2.1/../../../../pic32c/lib/v7e-m/fpv5/hard/libg.a(lib_a-svfiprintf.o)
                              /Applications/microchip/xc32/v2.15/bin/bin/../../lib/gcc/pic32c/6.2.1/../../../../pic32c/lib/v7e-m/fpv5/hard/libg.a(lib_a-svfprintf.o) (__ssprint_r)
/Applications/microchip/xc32/v2.15/bin/bin/../../lib/gcc/pic32c/6.2.1/../../../../pic32c/lib/v7e-m/fpv5/hard/libg.a(lib_a-__atexit.o)
                              /Applications/microchip/xc32/v2.15/bin/bin/../../lib/gcc/pic32c/6.2.1/../../../../pic32c/lib/v7e-m/fpv5/hard/libg.a(lib_a-atexit.o) (__register_exitproc)
/Applications/microchip/xc32/v2.15/bin/bin/../../lib/gcc/pic32c/6.2.1/../../../../pic32c/lib/v7e-m/fpv5/hard/libg.a(lib_a-memmove.o)
                              /Applications/microchip/xc32/v2.15/bin/bin/../../lib/gcc/pic32c/6.2.1/../../../../pic32c/lib/v7e-m/fpv5/hard/libg.a(lib_a-svfiprintf.o) (memmove)
/Applications/microchip/xc32/v2.15/bin/bin/../../lib/gcc/pic32c/6.2.1/../../../../pic32c/lib/v7e-m/fpv5/hard/libg.a(lib_a-reallocr.o)
                              /Applications/microchip/xc32/v2.15/bin/bin/../../lib/gcc/pic32c/6.2.1/../../../../pic32c/lib/v7e-m/fpv5/hard/libg.a(lib_a-svfiprintf.o) (_realloc_r)
/Applications/microchip/xc32/v2.15/bin/bin/../../lib/gcc/pic32c/6.2.1/../../../../pic32c/lib/v7e-m/fpv5/hard/libpic32c.a(sbrk.o)
                              /Applications/microchip/xc32/v2.15/bin/bin/../../lib/gcc/pic32c/6.2.1/../../../../pic32c/lib/v7e-m/fpv5/hard/libg.a(lib_a-sbrkr.o) (_sbrk)

Allocating common symbols
Common symbol       size              file

TC0_CH0_CallbackObj
                    0x8               build/sam_e70_xult_freertos/debug/_ext/1245453995/plib_tc0.o
errno               0x4               /Applications/microchip/xc32/v2.15/bin/bin/../../lib/gcc/pic32c/6.2.1/../../../../pic32c/lib/v7e-m/fpv5/hard/libg.a(lib_a-reent.o)
APP_URL_Buffer      0xff              build/sam_e70_xult_freertos/debug/_ext/1360937237/app_commands.o
appData             0x10              build/sam_e70_xult_freertos/debug/_ext/1360937237/app.o
jsonBuffer          0x400             build/sam_e70_xult_freertos/debug/_ext/1360937237/app.o
xAPP_Tasks          0x4               build/sam_e70_xult_freertos/debug/_ext/1552905064/tasks.o
sysObj              0x14              build/sam_e70_xult_freertos/debug/_ext/1552905064/initialization.o
sysDebugInstance    0x8               build/sam_e70_xult_freertos/debug/_ext/762686499/sys_debug.o
gblErrLvl           0x1               build/sam_e70_xult_freertos/debug/_ext/762686499/sys_debug.o
usart1Obj           0x30              build/sam_e70_xult_freertos/debug/_ext/901008055/plib_usart1.o
cityBuffer          0x80              build/sam_e70_xult_freertos/debug/_ext/1360937237/app.o

Microchip PIC32 Memory-Usage Report

ROM Program-Memory Usage
section                    address  length [bytes]      (dec)  Description
-------                 ----------  -------------------------  -----------
.vectors                  0x400000          0x168         360   
.text                     0x400168           0x24          36  App's exec code 
.ARM.exidx                0x40018c            0x8           8   
.text.DRV_GMAC_PowerMod   0x400194            0x4           4   
.text._svfprintf_r        0x400198         0x18f0        6384   
.rodata                   0x401a88         0x1640        5696  Read-only const 
.dinit                    0x4030c8         0x1390        5008   
.text.TCPIP_TCP_Task      0x404458          0xf24        3876   
.text._DHCPOptionProces   0x40537c            0x4           4   
.text._dtoa_r             0x405380          0xc4c        3148   
.rodata.macPIC32CHwRegD   0x405fcc          0x708        1800   
.text.TCPIP_STACK_Task    0x4066d4          0x630        1584   
.text._TcpSend            0x406d04          0x5cc        1484   
.text._Command_DNS_Serv   0x4072d0          0x56c        1388   
.text._malloc_r           0x40783c          0x550        1360   
.text.TCPIP_DHCP_Task     0x407d8c          0x4e4        1252   
.rodata                   0x408270          0x48c        1164  Read-only const 
.text.TCPIP_STACK_Initi   0x4086fc          0x410        1040   
.text.DRV_PIC32CGMAC_Li   0x408b0c          0x3c0         960   
.text.APP_Tasks           0x408ecc          0x358         856   
.text._realloc_r          0x409224          0x34c         844   
.text.SYS_CMD_Tasks       0x409570          0x314         788   
.text.TCPIP_Helper_Stri   0x409884          0x2e8         744   
.text                     0x409b6c          0x2dc         732  App's exec code 
.text.BSP_Initialize      0x409e48           0x18          24   
.text                     0x409e60          0x2dc         732  App's exec code 
.text.DRV_GMAC_Initiali   0x40a13c          0x2d4         724   
.text.TCPIP_ARP_Task      0x40a410          0x2b8         696   
.text.DRV_PIC32CGMAC_Li   0x40a6c8          0x294         660   
.rodata                   0x40a95c          0x28c         652  Read-only const 
.text._CommandArp         0x40abe8          0x260         608   
.text.TCPIP_UDP_Task      0x40ae48          0x24c         588   
.text._TCP_Open           0x40b094          0x238         568   
.text.TCPIP_UDP_Flush     0x40b2cc          0x22c         556   
.text._CommandDhcpOptio   0x40b4f8          0x220         544   
.text._DNS_Send_Query     0x40b718          0x218         536   
.text.TCPIP_DNS_ClientI   0x40b930          0x218         536   
.rodata                   0x40bb48          0x218         536  Read-only const 
.text.strstr              0x40bd60          0x218         536   
.text.TCPIP_UDP_Options   0x40bf78          0x212         530   
.text._DRV_ETHPHY_Clien   0x40c18a            0x2           2   
.text.TCPIP_COMMAND_Tas   0x40c18c          0x20c         524   
.text.two_way_long_need   0x40c398          0x1fc         508   
.text._DNS_ProcessPacke   0x40c594          0x1ec         492   
.text._Command_NetInfo    0x40c780          0x1e8         488   
.text.TCPIP_STACK_Bring   0x40c968          0x1e8         488   
.text._DHCPReceive        0x40cb50          0x1e0         480   
.text.TCPIP_ARP_Initial   0x40cd30          0x1e0         480   
.text.xTaskCreate         0x40cf10          0x1e0         480   
.text.TCPIP_IPV4_Packet   0x40d0f0          0x1d8         472   
.text.DRV_MIIM_Tasks      0x40d2c8          0x1cc         460   
.text._free_r             0x40d494          0x1cc         460   
.text._DHCPSend           0x40d660          0x1b8         440   
.text.ParseCmdBuffer      0x40d818          0x1b8         440   
.text.TCPIP_IPV4_Task     0x40d9d0          0x1b4         436   
.text.TCPIP_DHCP_Initia   0x40db84          0x1ac         428   
.text._Command_MacInfo    0x40dd30          0x198         408   
.text.TCPIP_TCP_ArrayPu   0x40dec8          0x194         404   
.text.CommandHelp         0x40e05c          0x190         400   
.text._DHCPOptionHostNa   0x40e1ec          0x18c         396   
.text.Reset_Handler       0x40e378          0x17c         380   
.text.DRV_PIC32CGMAC_Li   0x40e4f4          0x178         376   
.text.TCPIP_IPV4_Packet   0x40e66c          0x178         376   
.text._UDPOpen            0x40e7e4          0x16c         364   
.text.xQueueSemaphoreTa   0x40e950          0x15c         348   
.text.TCPIP_DNS_EntryQu   0x40eaac          0x158         344   
.text._MACDeinit          0x40ec04          0x14c         332   
.text._MacTxDiscardQueu   0x40ed50          0x144         324   
.text.TCPIP_TCP_Initial   0x40ee94          0x144         324   
.text.TCPIP_UDP_Bind      0x40efd8          0x13c         316   
.text                     0x40f114          0x134         308  App's exec code 
.text._Command_StackOnO   0x40f248          0x130         304   
.text._DNS_RESPONSE_Has   0x40f378          0x12e         302   
.text.DRV_GMAC_Reinitia   0x40f4a6            0x2           2   
.text._Command_NetworkO   0x40f4a8          0x128         296   
.text.xQueueGenericSend   0x40f5d0          0x128         296   
.text._strtol_l.isra.0    0x40f6f8          0x128         296   
.text.quorem              0x40f820          0x128         296   
.text._Command_AddressS   0x40f948          0x124         292   
.text.__multiply          0x40fa6c          0x124         292   
.text.TCPIP_DNS_ClientT   0x40fb90          0x120         288   
.text.TCPIP_UDP_Deiniti   0x40fcb0          0x120         288   
.text._DRV_ETHPHY_Setup   0x40fdd0          0x11c         284   
.text._DNS_Resolve        0x40feec          0x11c         284   
.text.USART1_InterruptH   0x410008          0x11c         284   
.text._LoadNetworkConfi   0x410124          0x11a         282   
.text._TCPIP_HEAP_Free    0x41023e          0x114         276   
.text.DRV_MIIM_Reinitia   0x410352            0x2           2   
.text._Command_HeapInfo   0x410354          0x110         272   
.text._UDPv4TxAckFnc      0x410464          0x110         272   
.text.TCPIP_UDP_Options   0x410574          0x10e         270   
.text._TCPIP_HEAP_Buffe   0x410682            0x2           2   
.text.__mdiff             0x410684          0x108         264   
.text.DRV_GMAC_Tasks      0x41078c          0x104         260   
.rodata._ctype_           0x410890          0x104         260   
.text._Command_IPAddres   0x410994          0x100         256   
.text.xTaskIncrementTic   0x410a94          0x100         256   
.text._Tcpv4TxAckFnc      0x410b94           0xfc         252   
.text.TCPIP_ARP_EntryRe   0x410c90           0xfc         252   
.text.TCPIP_Helper_Stri   0x410d8c           0xfc         252   
.text.TCPIP_UDP_Initial   0x410e88           0xfc         252   
.text.__ssprint_r         0x410f84           0xfc         252   
.text.DRV_PIC32CGMAC_Li   0x411080           0xfa         250   
.text.Console_UART_Task   0x41117a            0x2           2   
.text.DRV_PIC32CGMAC_Li   0x41117c           0xf8         248   
.text._DNS_IsNameResolv   0x411274           0xf8         248   
.text._ARPProbeAddress    0x41136c           0xec         236   
.text.TCPIP_UDP_ArrayGe   0x411458           0xec         236   
.text.DRV_GMAC_PacketRx   0x411544           0xe8         232   
.text.DRV_PIC32CGMAC_Li   0x41162c           0xe8         232   
.text.TCPIP_TCP_Deiniti   0x411714           0xe8         232   
.text.TCPIP_TCP_ArrayGe   0x4117fc           0xe8         232   
.text.xTaskResumeAll      0x4118e4           0xe8         232   
.text.strchr              0x4119cc           0xe8         232   
.text.DRV_GMAC_EventMas   0x411ab4           0xe4         228   
.text._DRV_MIIM_StartOp   0x411b98           0xe4         228   
.text._DRV_MIIM_ClientD   0x411c7c           0xe0         224   
.text.SYS_TIME_PLIBCall   0x411d5c           0xe0         224   
.text._DRV_ETHPHY_Setup   0x411e3c           0xdc         220   
.text.DRV_EXTPHY_MDIXCo   0x411f18           0xdc         220   
.text.TCPIP_ICMP_Task     0x411ff4           0xdc         220   
.text.DRV_GMAC_Paramete   0x4120d0           0x30          48   
.text                     0x412100           0xdc         220  App's exec code 
.text.DRV_PIC32CGMAC_Li   0x4121dc           0xd8         216   
.text._DNS_GetAddresses   0x4122b4           0xd8         216   
.text._TcpCloseSocket     0x41238c           0xd6         214   
.text._DRV_ETHPHY_NegRe   0x412462           0xd2         210   
.text._GetMaxSegSizeOpt   0x412534           0xcc         204   
.text.DRV_ETHPHY_Setup    0x412600           0xc8         200   
.text._DHCPStartOperati   0x4126c8           0xc8         200   
.text.TCPIP_IPV4_Select   0x412790           0xc8         200   
.text.TCPIP_HEAP_Create   0x412858           0xc8         200   
.rodata                   0x412920           0xc8         200  Read-only const 
.rodata.__mprec_tens      0x4129e8           0xc8         200   
.text.memmove             0x412ab0           0xc8         200   
.text._DHCPProcessRecei   0x412b78           0xc4         196   
.text._DRV_PHY_SMITrans   0x412c3c           0xc2         194   
.rodata.tcpipCmdTbl       0x412d00           0xc0         192   
.text.DRV_EXTPHY_MIICon   0x412dc0           0xbc         188   
.text.strcpy              0x412e7c           0xbc         188   
.text.__d2b               0x412f38           0xbc         188   
.text.TCPIP_STACK_KillS   0x412ff4           0xb8         184   
.text.xTaskPriorityInhe   0x4130ac           0xb8         184   
.text.critical_factoriz   0x413164           0xb4         180   
.text.TCPIP_Helper_IPv6   0x413218           0xb2         178   
.text.DRV_GMAC_Tasks_IS   0x4132cc           0xb0         176   
.text._TcpSocketSetIdle   0x41337c           0xb0         176   
.text.SYS_TIME_Initiali   0x41342c           0xb0         176   
.text._TCPIP_HEAP_Mallo   0x4134dc           0xac         172   
.text.SYS_TIME_TimerObj   0x413588           0xac         172   
.text.vTaskSwitchContex   0x413634           0xac         172   
.text._TcpDisconnect      0x4136e0           0xaa         170   
.text._DHCPEnable         0x41378c           0xa8         168   
.text._Command_MACAddre   0x413834           0xa8         168   
.text.TCPIP_STACK_NetUp   0x4138dc           0xa8         168   
.text._ARPSendIfPkt       0x413984           0xa4         164   
.text.TCPIP_ARP_EntryQu   0x413a28           0xa4         164   
.text.__lshift            0x413acc           0xa4         164   
.text.__register_exitpr   0x413b70           0xa4         164   
.text._DRV_ETHPHY_Setup   0x413c14           0xa0         160   
.text._DRV_ETHPHY_NegCo   0x413cb4           0xa0         160   
.text.DRV_GMAC_PacketTx   0x413d54           0xa0         160   
.text._ARPDeleteResourc   0x413df4           0xa0         160   
.text._UDPv4AllocateSkt   0x413e94           0xa0         160   
.text.TCPIP_UDP_Disconn   0x413f34           0xa0         160   
.text.DisplayNodeMsg      0x413fd4           0xa0         160   
.text.SYS_TIME_AddToLis   0x414074           0xa0         160   
.text.DRV_ETHPHY_Deinit   0x414114            0xc          12   
.text                     0x414120           0xa0         160  App's exec code 
.text.__pow5mult          0x4141c0           0xa0         160   
.text._DRV_ETHPHY_Setup   0x414260           0x9e         158   
.text.DRV_MIIM_Setup      0x414300           0x9c         156   
.text.DRV_MIIM_Operatio   0x41439c           0x9c         156   
.text.SYS_TIME_HwTimerC   0x414438           0x9c         156   
.text.memset              0x4144d4           0x9c         156   
.text._Command_PrimaryD   0x414570           0x98         152   
.text.TCPIP_IPV4_ArpHan   0x414608           0x98         152   
.text._TCPIPStackModule   0x4146a0           0x98         152   
.text.snprintf            0x414738           0x98         152   
.text.TCPIP_DHCP_InfoGe   0x4147d0           0x94         148   
.text._Command_GatewayA   0x414864           0x94         148   
.text._UDPsetPacketInfo   0x4148f8           0x94         148   
.text.prvAddCurrentTask   0x41498c           0x94         148   
.text._malloc_trim_r      0x414a20           0x94         148   
.text.TCPIP_STACK_NetAd   0x414ab4           0x92         146   
.text.Console_UART_Reso   0x414b46           0x92         146   
.text.PIO_Initialize      0x414bd8           0x90         144   
.text.vTaskPriorityDisi   0x414c68           0x90         144   
.text._DHCPSetLeaseTime   0x414cf8           0x8c         140   
.text.TCPIP_ARP_IsResol   0x414d84           0x8c         140   
.text.TCPIP_STACK_NetDo   0x414e10           0x8c         140   
.text.SYS_CMD_DELETE      0x414e9c           0x8c         140   
.text._DRV_ETHPHY_Reset   0x414f28           0x88         136   
.text._DHCPPacketFilter   0x414fb0           0x88         136   
.text.TCPIP_IPV4_DeInit   0x415038           0x88         136   
.text._OAHashFindBkt      0x4150c0           0x88         136   
.text.MPU_Initialize      0x415148           0x88         136   
.text.SYS_CMD_Initializ   0x4151d0           0x88         136   
.text.TCPIP_Commands_In   0x415258           0x84         132   
.text.TCPIP_IPV4_MacPac   0x4152dc           0x82         130   
.text.DRV_PIC32CGMAC_Li   0x415360           0x80         128   
.text.DRV_MIIM_Initiali   0x4153e0           0x80         128   
.text._DHCPClientClose    0x415460           0x80         128   
.text.TCPIP_Helper_Pack   0x4154e0           0x80         128   
.text.SendCommandPrint    0x415560           0x80         128   
.text.SYS_CMD_PRINT       0x4155e0           0x80         128   
.text.SYS_CMD_READY_TO_   0x415660           0x80         128   
.text.SYS_Initialize      0x4156e0           0x80         128   
.text.__pic32c_data_ini   0x415760           0x80         128   
.text.__multadd           0x4157e0           0x80         128   
.text.prvUnlockQueue      0x415860           0x7e         126   
.text._DRV_ETHPHY_Setup   0x4158e0           0x7c         124   
.rodata.DRV_ETHPHY_OBJE   0x41595c           0x7c         124   
.text.DRV_MIIM_Open       0x4159d8           0x7c         124   
.text._Command_DefaultI   0x415a54           0x7c         124   
.text.SYS_Tasks           0x415ad0           0x7c         124   
.text.xTaskPriorityDisi   0x415b4c           0x7c         124   
.text.frexp               0x415bc8           0x7c         124   
.text.TCPIP_Helper_Stri   0x415c44           0x7a         122   
.text._DRV_ETHPHY_NegCo   0x415cc0           0x78         120   
.text._DNS_ValidateIf     0x415d38           0x78         120   
.text._DHCPCleanup        0x415db0           0x78         120   
.text.CLK_Initialize      0x415e28           0x78         120   
.text.Console_UART_Reso   0x415ea0           0x78         120   
.text.SYS_DEBUG_Print     0x415f18           0x78         120   
.text.xTaskRemoveFromEv   0x415f90           0x78         120   
.text._DRV_GMAC_LinkSta   0x416008           0x76         118   
.text._DRV_ETHPHY_NegRe   0x41607e           0x74         116   
.text.TCPIP_DHCP_Connec   0x4160f4           0x74         116   
.text._ARPUpdateEntry     0x416168           0x74         116   
.text.TCPIP_ARP_EntryRe   0x4161dc           0x74         116   
.text._Command_BIOSName   0x416250           0x74         116   
.text.TCPIP_STACK_Bring   0x4162c4           0x74         116   
.text._TCPIP_PKT_Packet   0x416338           0x74         116   
.text.Console_UART_Read   0x4163ac           0x74         116   
.text.Console_UART_Writ   0x416420           0x74         116   
.text._vsnprintf_r        0x416494           0x74         116   
.text._TCPIP_StackSyncF   0x416508           0x72         114   
.text.TCPIP_PKT_DataSeg   0x41657a           0x72         114   
.text.prvCopyDataToQueu   0x4165ec           0x72         114   
.text.DRV_ETHPHY_Open     0x416660           0x70         112   
.text._DRV_ETHPHY_Reset   0x4166d0           0x70         112   
.text.DRV_GMAC_LibDescr   0x416740           0x70         112   
.text.TCPIP_IPV4_Initia   0x4167b0           0x70         112   
.text.Console_UART_Init   0x416820           0x70         112   
.text.SYS_CMD_ADDGRP      0x416890           0x70         112   
.text.xQueueGenericRese   0x416900           0x70         112   
.text.prvIdleTask         0x416970           0x70         112   
.text                     0x4169e0           0x6c         108  App's exec code 
.text.TCPIP_DNS_Disable   0x416a4c           0x6c         108   
.text._TcpCleanup         0x416ab8           0x6c         108   
.text._MacTxPendingPack   0x416b24           0x6a         106   
.text._DNS_AddSelection   0x416b8e           0x6a         106   
.text.TCPIP_Helper_Pack   0x416bf8           0x6a         106   
.text._DRV_GMAC_LinkSta   0x416c64           0x68         104   
.text.DRV_PIC32CGMAC_Li   0x416ccc           0x68         104   
.text._TcpSwapHeader      0x416d34           0x68         104   
.text._TcpClientSocketC   0x416d9c           0x68         104   
.text.TCPIP_ARP_CacheEn   0x416e04           0x68         104   
.text.TCPIP_OAHASH_Entr   0x416e6c           0x68         104   
.text.TCPIP_OAHASH_Entr   0x416ed4           0x68         104   
.text._TCPIPStackInsert   0x416f3c           0x68         104   
.rodata                   0x416fa4           0x68         104  Read-only const 
.text.vTaskStartSchedul   0x41700c           0x68         104   
.text.TCPIP_Helper_Calc   0x417074           0x66         102   
.text._DRV_ETHPHY_Setup   0x4170da           0x64         100   
.text.TCPIP_DHCP_Disabl   0x417140           0x64         100   
.text.TCPIP_IPV4_MacPac   0x4171a4           0x64         100   
.text.SYS_CMDIO_ADD       0x417208           0x64         100   
.rodata._DHCPRequestPar   0x41726c            0x4           4   
.text.xPortPendSVHandle   0x417270           0x64         100   
.text.strncpy             0x4172d4           0x64         100   
.text.__strtok_r          0x417338           0x64         100   
.text.TCPIP_ARP_EntryGe   0x41739c           0x62          98   
.text.Console_UART_PLIB   0x4173fe           0x62          98   
.text.TCPIP_DNS_ClientD   0x417460           0x60          96   
.text.TCPIP_DNS_GetIPAd   0x4174c0           0x60          96   
.rodata.TCPIP_STACK_MOD   0x417520           0x60          96   
.text.TCPIP_UDP_SocketI   0x417580           0x60          96   
.text._calloc_r           0x4175e0           0x60          96   
.text.memcmp              0x417640           0x60          96   
.text.__lo0bits           0x4176a0           0x60          96   
.text.DRV_ETHPHY_Initia   0x417700           0x5c          92   
.text._TCPIPStackIpAddF   0x41775c           0x5c          92   
.text.strncat             0x4177b8           0x5c          92   
.text.DRV_GMAC_Statisti   0x417814           0x5a          90   
.text._DHCPOptionProces   0x41786e           0x5a          90   
.text.TCPIP_UDP_BcastIP   0x4178c8           0x5a          90   
.text.DRV_ETHPHY_Vendor   0x417922           0x58          88   
.text.DRV_ETHPHY_Vendor   0x41797a           0x58          88   
.rodata.DRV_GMAC_Object   0x4179d4           0x58          88   
.text.DRV_PIC32CGMAC_Li   0x417a2c           0x58          88   
.text._DRV_MIIM_Release   0x417a84           0x58          88   
.text._DNS_Enable         0x417adc           0x58          88   
.text._DNS_CleanCacheEn   0x417b34           0x58          88   
.text.TCPIP_STACK_Strin   0x417b8c           0x58          88   
.text._TCPIPStackAnyNet   0x417be4           0x58          88   
.text._TCPIPStackModule   0x417c3c           0x58          88   
.text.SYS_TIME_TimerSta   0x417c94           0x58          88   
.text.xTaskCheckForTime   0x417cec           0x58          88   
.text.OSAL_SEM_Create     0x417d44           0x58          88   
.text._DRV_ETHPHY_LinkS   0x417d9c           0x56          86   
.text.TCPIP_ARP_Probe     0x417df2           0x56          86   
.text._DRV_ETHPHY_NegCo   0x417e48           0x54          84   
.text.DRV_GMAC_EventAck   0x417e9c           0x54          84   
.text._DNS_DeleteHash     0x417ef0           0x54          84   
.text.TCPIP_DNS_RemoveA   0x417f44           0x54          84   
.text._DHCPOptionWriteS   0x417f98           0x54          84   
.text._ARPNotifyClients   0x417fec           0x54          84   
.rodata                   0x418040           0x54          84  Read-only const 
.text.SYS_TIME_RemoveFr   0x418094           0x54          84   
.rodata.tcpipMACPIC32CI   0x4180e8           0x54          84   
.text._XtlEventsTcp2Eth   0x41813c           0x52          82   
.text._TcpAbort           0x41818e           0x52          82   
.text._DRV_MIIM_GetClie   0x4181e0           0x50          80   
.text.TCPIP_DNS_OAHASH_   0x418230           0x50          80   
.rodata                   0x418280           0x50          80  Read-only const 
.text._DHCPOptionWriteI   0x4182d0           0x50          80   
.text.TCPIP_Helper_IPAd   0x418320           0x50          80   
.text.SYS_CONSOLE_Initi   0x418370           0x50          80   
.text.SYS_CONSOLE_Statu   0x4183c0           0x50          80   
.text.SYS_TIME_Callback   0x418410           0x50          80   
.text.__libc_init_array   0x418460           0x50          80   
.text.TCPIP_Helper_Form   0x4184b0           0x4e          78   
.text._DRV_GMAC_LinkSta   0x4184fe           0x4c          76   
.text.DRV_MIIM_Operatio   0x41854a           0x4c          76   
.text.TCPIP_IPV4_Cleanu   0x418598           0x4c          76   
.text._TCPIP_MacEventCB   0x4185e4           0x4c          76   
.text._UDPClose           0x418630           0x4c          76   
.text.TCPIP_UDP_PutIsRe   0x41867c           0x4c          76   
.text.Console_UART_PLIB   0x4186c8           0x4c          76   
.text.sprintf             0x418714           0x4c          76   
.text._Balloc             0x418760           0x4c          76   
.text.TCPIP_UDP_Destina   0x4187ac           0x4a          74   
.text._DRV_ETHPHY_Setup   0x4187f8           0x48          72   
.text.DRV_ETHPHY_Vendor   0x418840           0x48          72   
.text.DRV_GMAC_Register   0x418888           0x48          72   
.text._TCPSendWinIncUpd   0x4188d0           0x48          72   
.text.TCPIP_DHCP_IsEnab   0x418918           0x48          72   
.rodata._DHCPOptProcTbl   0x418960           0x48          72   
.text.TCPIP_ARP_Deiniti   0x4189a8           0x48          72   
.text.TCPIP_Helper_MACA   0x4189f0           0x48          72   
.text.TCPIP_STACK_MACId   0x418a38           0x48          72   
.text._TCPIPStackSignal   0x418a80           0x48          72   
.text.NVIC_Initialize     0x418ac8           0x48          72   
.text.USART1_Write        0x418b10           0x48          72   
.text.CommandCleanup      0x418b58           0x48          72   
.rodata.TCPIP_STACK_MOD   0x418ba0           0x48          72   
.text.xPortStartSchedul   0x418be8           0x48          72   
.text._TCPIP_HEAP_Delet   0x418c30           0x46          70   
.text.TCPIP_STACK_Addre   0x418c76           0x46          70   
.text.TCPIP_UDP_ArrayPu   0x418cbc           0x46          70   
.text.DRV_GMAC_RxFilter   0x418d02           0x44          68   
.text.Helper_SingleList   0x418d46           0x44          68   
.text.hexatob             0x418d8a           0x44          68   
.text.TCPIP_ICMP_Initia   0x418dd0           0x44          68   
.text._DHCPSetTimeout     0x418e14           0x44          68   
.text._TCPIP_HEAP_MaxSi   0x418e58           0x44          68   
.text.TCPIP_Helper_Sing   0x418e9c           0x44          68   
.text.TCPIP_STACK_NetBy   0x418ee0           0x44          68   
.text._TCPIPStackModule   0x418f24           0x44          68   
.text._UDPSetNewRxPacke   0x418f68           0x44          68   
.rodata                   0x418fac           0x44          68  Read-only const 
.text.SYS_INT_SourceDis   0x418ff0           0x44          68   
.text._APP_Commands_req   0x419034           0x44          68   
.text.APP_Commands_Init   0x419078           0x44          68   
.rodata                   0x4190bc           0x44          68  Read-only const 
.text._DRV_GMAC_LinkSta   0x419100           0x42          66   
.text._TcpSocketSetSour   0x419142           0x42          66   
.text._DHCPOptionClient   0x419184           0x42          66   
.text._DRV_ETHPHY_NegRe   0x4191c6           0x40          64   
.text._DRV_ETHPHY_Setup   0x419206           0x40          64   
.rodata.DRV_MIIM_OBJECT   0x419248           0x40          64   
.text.TCPIP_DNS_RemoveE   0x419288           0x40          64   
.rodata                   0x4192c8           0x40          64  Read-only const 
.text._TCP_PortIsAvaila   0x419308           0x40          64   
.text._DHCPSetRunFail     0x419348           0x40          64   
.text.TCPIP_DHCP_Deinit   0x419388           0x40          64   
.rodata                   0x4193c8           0x40          64  Read-only const 
.text.TCPIP_STACK_NetAl   0x419408           0x40          64   
.text.TCPIP_STACK_NetHa   0x419448           0x40          64   
.text._UDPIsAvailablePo   0x419488           0x40          64   
.text.TCPIP_UDP_SocketN   0x4194c8           0x40          64   
.text.TCPIP_UDP_SourceI   0x419508           0x40          64   
.text.SYS_TIME_TimerAdd   0x419548           0x40          64   
.rodata                   0x419588           0x40          64  Read-only const 
.text.rand                0x4195c8           0x40          64   
.text.__hi0bits           0x419608           0x40          64   
.text._DNSDiscardName     0x419648           0x3e          62   
.text._TCPSetHalfFlushF   0x419686           0x3e          62   
.text._DHCPOptionProces   0x4196c4           0x3e          62   
.text.TCPIP_UDP_TxOffse   0x419702           0x3e          62   
.text._DRV_ETHPHY_Setup   0x419740           0x3c          60   
.text._DRV_ETHPHY_NegCo   0x41977c           0x3c          60   
.text.DRV_GMAC_Open       0x4197b8           0x3c          60   
.text.DRV_GMAC_Process    0x4197f4           0x3c          60   
.text._DRV_MIIM_GetOpDc   0x419830           0x3c          60   
.text._TcpSocketKill      0x41986c           0x3c          60   
.text._TCP_EphemeralPor   0x4198a8           0x3c          60   
.text._DHCPOptionProces   0x4198e4           0x3c          60   
.text._DHCPNotifyClient   0x419920           0x3c          60   
.text._TCPIPStackModule   0x41995c           0x3c          60   
.text._TCPIP_PKT_Packet   0x419998           0x3c          60   
.text._UDPAllocateEphem   0x4199d4           0x3c          60   
.text.TCPIP_UDP_OpenCli   0x419a10           0x3c          60   
.text.USART1_Initialize   0x419a4c           0x3c          60   
.text.USART1_Read         0x419a88           0x3c          60   
.text.CommandQuit         0x419ac4           0x3c          60   
.text.SYS_TIME_GetTimer   0x419b00           0x3c          60   
.text.SYS_TIME_Resource   0x419b3c           0x3c          60   
.text.SYS_TIME_Counter6   0x419b78           0x3c          60   
.rodata.dhcpMagicCookie   0x419bb4            0x4           4   
.text.SYS_TIME_MSToCoun   0x419bb8           0x3c          60   
.text.SYS_TIME_TimerDes   0x419bf4           0x3c          60   
.text.APP_Initialize      0x419c30           0x3c          60   
.text.DRV_MIIM_Register   0x419c6c           0x3a          58   
.text.DRV_MIIM_Deinitia   0x419ca6           0x3a          58   
.text._DHCPOptionProces   0x419ce0           0x3a          58   
.text.DRV_ETHPHY_LinkSt   0x419d1a           0x38          56   
.text._DRV_PHY_NegCompl   0x419d52           0x38          56   
.text._DRV_ETHPHY_LinkS   0x419d8a           0x38          56   
.text.DRV_PIC32CGMAC_Li   0x419dc4           0x38          56   
.text.TCPIP_DNS_ClientI   0x419dfc           0x38          56   
.text._TCPSetSourceAddr   0x419e34           0x38          56   
.text.TCPIP_DHCP_IsActi   0x419e6c           0x38          56   
.text.TCPIP_PKT_PacketM   0x419ea4           0x38          56   
.text.SYS_CONSOLE_Read    0x419edc           0x38          56   
.text.SYS_TIME_Resource   0x419f14           0x38          56   
.rodata.TCPIP_HOSTS_CON   0x419f4c           0x38          56   
.text.__mcmp              0x419f84           0x38          56   
.text.DRV_ETHPHY_Negoti   0x419fbc           0x36          54   
.text._TCPIPStackSetCon   0x419ff2           0x36          54   
.text.TCPIP_UDP_RxOffse   0x41a028           0x36          54   
.text.Console_UART_PopQ   0x41a05e           0x36          54   
.text.TCPIP_DNS_OAHASH_   0x41a094           0x34          52   
.rodata                   0x41a0c8           0x34          52  Read-only const 
.text._ARPSetEntry        0x41a0fc           0x34          52   
.text.TCPIP_ARP_HashEnt   0x41a130           0x34          52   
.text.TCPIP_ARP_Handler   0x41a164           0x34          52   
.text.TCPIP_Helper_Stri   0x41a198           0x34          52   
.text._TCPIP_PKT_Packet   0x41a1cc           0x34          52   
.text.vListInsert         0x41a200           0x34          52   
.text.vTaskDelay          0x41a234           0x34          52   
.text._APP_PumpDNS        0x41a268           0x34          52   
.text.__libc_fini_array   0x41a29c           0x34          52   
.text._MacPacketAck       0x41a2d0           0x32          50   
.text._DNS_NetIsValid     0x41a302           0x32          50   
.text.TCPIP_STACK_NetBi   0x41a334           0x32          50   
.text.DRV_PIC32CGMAC_Li   0x41a368           0x30          48   
.text._TCPSocketTxFreeS   0x41a398           0x30          48   
.text.TCPIP_IPV4_CheckP   0x41a3c8           0x30          48   
.text.IPv4RegisterFilte   0x41a3f8           0x30          48   
.text.fnv_32_hash         0x41a428           0x30          48   
.text.TCPIP_OAHASH_Entr   0x41a458           0x30          48   
.text.TCPIP_Helper_Prot   0x41a488           0x30          48   
.text.TCPIP_Helper_Prot   0x41a4b8           0x30          48   
.text.TCPIP_PKT_Initial   0x41a4e8           0x30          48   
.text.TCPIP_UDP_Close     0x41a518           0x30          48   
.text.USART1_ErrorGet     0x41a548           0x30          48   
.text.SYS_TIME_UpdateTi   0x41a578           0x30          48   
.text.xPortSysTickHandl   0x41a5a8           0x30          48   
.text.xQueueGenericCrea   0x41a5d8           0x30          48   
.text                     0x41a608           0x30          48  App's exec code 
.text.DRV_ETHPHY_Reset    0x41a638           0x2e          46   
.text.DRV_ETHPHY_Negoti   0x41a666           0x2e          46   
.text.DRV_MIIM_Deregist   0x41a694           0x2e          46   
.text._DHCPOptionProces   0x41a6c2           0x2e          46   
.text._DHCPOptionProces   0x41a6f0           0x2e          46   
.text._DHCPOptionProces   0x41a71e           0x2e          46   
.text._ARPRemoveEntry     0x41a74c           0x2e          46   
.text.TCPIP_STACK_DNSSe   0x41a77a           0x2e          46   
.text._TxSktGetLockedV4   0x41a7a8           0x2e          46   
.text._DRV_ETHPHY_Clien   0x41a7d8           0x2c          44   
.text.DRV_ETHPHY_Restar   0x41a804           0x2c          44   
.text._DRV_ETHPHY_Clien   0x41a830           0x2c          44   
.text._DRV_ETHPHY_Clien   0x41a85c           0x2c          44   
.text._DRV_ETHPHY_Clien   0x41a888           0x2c          44   
.text._DRV_ETHPHY_Clien   0x41a8b4           0x2c          44   
.text._DRV_ETHPHY_Clien   0x41a8e0           0x2c          44   
.text._DRV_ETHPHY_Setup   0x41a90c           0x2c          44   
.text._DRV_GMAC_LinkSta   0x41a938           0x2c          44   
.text._DNSClientCleanup   0x41a964           0x2c          44   
.text.TCPIP_Helper_Prot   0x41a990           0x2c          44   
.text.TCPIP_STACK_Initi   0x41a9bc           0x2c          44   
.text.TCPIP_STACK_Addre   0x41a9e8           0x2c          44   
.text.TCPIP_STACK_IsBca   0x41aa14           0x2c          44   
.text._TCPIPStackModule   0x41aa40           0x2c          44   
.text.SYS_CONSOLE_Write   0x41aa6c           0x2c          44   
.text.TCPIP_STACK_Init    0x41aa98           0x2c          44   
.text.pxPortInitialiseS   0x41aac4           0x2c          44   
.text.prvResetNextTaskU   0x41aaf0           0x2c          44   
.text.__ascii_mbtowc      0x41ab1c           0x2c          44   
.text.strtol              0x41ab48           0x2c          44   
.text._sbrk               0x41ab74           0x2c          44   
.text._DRV_GMAC_LinkSta   0x41aba0           0x2a          42   
.text._DRV_MIIM_GetObje   0x41abca           0x2a          42   
.text.TCPIP_Helper_Prot   0x41abf4           0x2a          42   
.text.TCPIP_Helper_Prot   0x41ac1e           0x2a          42   
.text._DRV_ETHPHY_Clien   0x41ac48           0x28          40   
.rodata._DRV_PHY_Client   0x41ac70           0x28          40   
.text.DRV_GMAC_ConfigGe   0x41ac98           0x28          40   
.text.DRV_GMAC_LinkChec   0x41acc0           0x28          40   
.text.DRV_MIIM_Status     0x41ace8           0x28          40   
.text._DNSGetData         0x41ad10           0x28          40   
.text.TCPIP_ICMP_Deinit   0x41ad38           0x28          40   
.text._TcpSocketChk       0x41ad60           0x28          40   
.text._TcpFlush           0x41ad88           0x28          40   
.text._DHCPOptionWriteP   0x41adb0           0x28          40   
.text._TCPIP_STACK_Tick   0x41add8           0x28          40   
.text._TCPIPSignalEntry   0x41ae00           0x28          40   
.text.TCPIP_STACK_NetMA   0x41ae28           0x28          40   
.text.TCPIP_STACK_NetMA   0x41ae50           0x28          40   
.text.TCPIP_STACK_NetIs   0x41ae78           0x28          40   
.text._TCPIPStackSignal   0x41aea0           0x28          40   
.text._TCPIP_PKT_Socket   0x41aec8           0x28          40   
.text._UDPSocketDcpt      0x41aef0           0x28          40   
.text._UDPFreeTxResourc   0x41af18           0x28          40   
.text._UDPUpdatePacketL   0x41af40           0x28          40   
.text.TCPIP_UDP_GetIsRe   0x41af68           0x28          40   
.text.TCPIP_UDP_SignalH   0x41af90           0x28          40   
.text.TC0_CH0_TimerInit   0x41afb8           0x28          40   
.text.SYS_CONSOLE_Flush   0x41afe0           0x28          40   
.text.Console_UART_Stat   0x41b008           0x28          40   
.text.ReadCommandCharac   0x41b030           0x28          40   
.text.SendCommandCharac   0x41b058           0x28          40   
.rodata.tcpipARPInitDat   0x41b080           0x28          40   
.text.prvPortStartFirst   0x41b0a8           0x28          40   
.text.vPortSetupTimerIn   0x41b0d0           0x28          40   
.text.uxListRemove        0x41b0f8           0x28          40   
.rodata.__mprec_bigtens   0x41b120           0x28          40   
.text.TCPIP_STACK_DNSSe   0x41b148           0x26          38   
.text.TCPIP_STACK_Addre   0x41b16e           0x26          38   
.text._UDPFreeRxQueue     0x41b194           0x26          38   
.text.DRV_ETHPHY_HWConf   0x41b1bc           0x24          36   
.text._DRV_ETHPHY_NegRe   0x41b1e0           0x24          36   
.text._DRV_ETHPHY_NegRe   0x41b204           0x24          36   
.rodata                   0x41b228           0x24          36  Read-only const 
.text.DRV_PIC32CGMAC_Li   0x41b24c           0x24          36   
.text._DHCPOptionProces   0x41b270           0x24          36   
.text._DHCPOptionWriteM   0x41b294           0x24          36   
.text.TCPIP_DHCP_Reques   0x41b2b8           0x24          36   
.text._ARPAllocateTxPac   0x41b2dc           0x24          36   
.text._ARPRemoveCacheEn   0x41b300           0x24          36   
.text.TCPIP_ARP_Handler   0x41b324           0x24          36   
.text.TCPIP_Commands_De   0x41b348           0x24          36   
.text.Ipv4DeRegisterFil   0x41b36c           0x24          36   
.rodata._tcpip_heap_obj   0x41b390           0x24          36   
.text.TCPIP_OAHASH_Init   0x41b3b4           0x24          36   
.text.TCPIP_STACK_IPAdd   0x41b3d8           0x24          36   
.text._TCPIPStackHandle   0x41b3fc           0x24          36   
.text.TC0_CH0_Interrupt   0x41b420           0x24          36   
.text.Console_UART_Flus   0x41b444           0x24          36   
.text.SYS_CMDIO_GET_HAN   0x41b468           0x24          36   
.rodata._builtinCmdTbl    0x41b48c           0x24          36   
.text.prvTaskExitError    0x41b4b0           0x24          36   
.rodata._DRV_PHY_LinkSt   0x41b4d4            0xc          12   
.text.vPortSVCHandler     0x41b4e0           0x24          36   
.text.vPortEnterCritica   0x41b504           0x24          36   
.text.xQueueCreateMutex   0x41b528           0x24          36   
.text._sbrk_r             0x41b54c           0x24          36   
.text.DRV_ETHPHY_Reinit   0x41b570           0x22          34   
.text.TCPIP_TCP_IsConne   0x41b592           0x22          34   
.text._TCPIP_HEAP_LastE   0x41b5b4           0x22          34   
.text.TCPIP_Helper_Prot   0x41b5d6           0x22          34   
.text.TCPIP_STACK_NetAd   0x41b5f8           0x22          34   
.text.TCPIP_STACK_NetAd   0x41b61a           0x22          34   
.text.TCPIP_UDP_Discard   0x41b63c           0x22          34   
.text.DRV_ETHPHY_Tasks    0x41b660           0x20          32   
.text.DRV_ETHPHY_Close    0x41b680           0x20          32   
.text._DRV_ETHPHY_Clien   0x41b6a0           0x20          32   
.text._DRV_ETHPHY_NegRe   0x41b6c0           0x20          32   
.text._DRV_ETHPHY_Setup   0x41b6e0           0x20          32   
.text.DRV_PIC32CGMAC_Li   0x41b700           0x20          32   
.text.DRV_PIC32CGMAC_Si   0x41b720           0x20          32   
.text.Helper_SingleList   0x41b740           0x20          32   
.text.TCPIP_DNS_OAHASH_   0x41b760           0x20          32   
.text.TCPIP_DHCP_Enable   0x41b780           0x20          32   
.text.TCPIP_DHCP_Renew    0x41b7a0           0x20          32   
.text._SwapARPPacket      0x41b7c0           0x20          32   
.text.TCPIP_Helper_Sing   0x41b7e0           0x20          32   
.text.TCPIP_Helper_Prot   0x41b800           0x20          32   
.rodata.TCPIP_MAC_POWER   0x41b820           0x20          32   
.text.TCPIP_STACK_NetDe   0x41b840           0x20          32   
.text.TCPIP_STACK_Index   0x41b860           0x20          32   
.text.TCPIP_STACK_Deini   0x41b880           0x20          32   
.text.TCPIP_Notificatio   0x41b8a0           0x20          32   
.rodata                   0x41b8c0           0x20          32  Read-only const 
.text.TCPIP_UDP_Destina   0x41b8e0           0x20          32   
.rodata.sysConsoleUARTD   0x41b900           0x20          32   
.text.SYS_DEBUG_Initial   0x41b920           0x20          32   
.text.SYS_INT_SourceRes   0x41b940           0x20          32   
.text.SYS_TIME_GetElaps   0x41b960           0x20          32   
.rodata.tcpipPhyInitDat   0x41b980           0x20          32   
.text.pvPortMalloc        0x41b9a0           0x20          32   
.text.vsnprintf           0x41b9c0           0x20          32   
.text.DRV_ETHPHY_Client   0x41b9e0           0x1e          30   
.text._TCPIsGetReady      0x41b9fe           0x1e          30   
.text.TCPIP_STACK_NetAd   0x41ba1c           0x1e          30   
.text.TCPIP_STACK_Netwo   0x41ba3a           0x1e          30   
.text.TCPIP_PKT_Payload   0x41ba58           0x1e          30   
.text.OSAL_SEM_Pend       0x41ba76           0x1e          30   
.text.OSAL_MUTEX_Lock     0x41ba94           0x1e          30   
.rodata._DRV_PHY_SetupP   0x41bab4           0x1c          28   
.text.TCPIP_DNS_IsResol   0x41bad0           0x1c          28   
.rodata._DHCPOptWriteTb   0x41baec           0x1c          28   
.text._ARPTxAckFnc        0x41bb08           0x1c          28   
.text.TCPIP_IPV4_MaxDat   0x41bb24           0x1c          28   
.rodata.__func__.14104    0x41bb40           0x1c          28   
.text._TCPIP_HEAP_FreeS   0x41bb5c           0x1c          28   
.text._TCPIP_HEAP_Callo   0x41bb78           0x1c          28   
.text.TCPIP_Helper_Sing   0x41bb94           0x1c          28   
.text.TCPIP_Helper_Prot   0x41bbb0           0x1c          28   
.text._TCPIPSignalEntry   0x41bbcc           0x1c          28   
.text.TCPIP_STACK_Statu   0x41bbe8           0x1c          28   
.text.TCPIP_STACK_NetAd   0x41bc04           0x1c          28   
.text.TCPIP_STACK_NetIs   0x41bc20           0x1c          28   
.text.TCPIP_STACK_NetAd   0x41bc3c           0x1c          28   
.text.TCPIP_STACK_NetMa   0x41bc58           0x1c          28   
.text.TCPIP_STACK_NetIs   0x41bc74           0x1c          28   
.text.TCPIP_STACK_NetAd   0x41bc90           0x1c          28   
.text.TCPIP_Notificatio   0x41bcac           0x1c          28   
.text.TCPIP_Notificatio   0x41bcc8           0x1c          28   
.text.TCPIP_UDP_TxPoint   0x41bce4           0x1c          28   
.text.SYS_TIME_Counter6   0x41bd00           0x1c          28   
.text.SYS_TMR_CallbackP   0x41bd1c           0x1c          28   
.rodata.sysTimePlibAPI    0x41bd38           0x1c          28   
.text.vTaskPlaceOnEvent   0x41bd54           0x1c          28   
.text.pvTaskIncrementMu   0x41bd70           0x1c          28   
.text.__locale_ctype_pt   0x41bd8c           0x1c          28   
.text.__ascii_wctomb      0x41bda8           0x1c          28   
.text._localeconv_r       0x41bdc4           0x1c          28   
.text._DRV_ETHPHY_NegCo   0x41bde0           0x1a          26   
.text.DRV_PIC32CGMAC_Si   0x41bdfa           0x1a          26   
.text.Helper_SingleList   0x41be14           0x1a          26   
.text.DRV_MIIM_Read       0x41be2e           0x1a          26   
.text.DRV_MIIM_Write      0x41be48           0x1a          26   
.text.DRV_MIIM_Scan       0x41be62           0x1a          26   
.text.TCPIP_TCP_ClientO   0x41be7c           0x1a          26   
.text.TCPIP_TCP_PutIsRe   0x41be96           0x1a          26   
.text.TCPIP_Helper_Sing   0x41beb0           0x1a          26   
.text.TCPIP_STACK_NetIs   0x41beca           0x1a          26   
.text._UDPTxPktValid      0x41bee4           0x1a          26   
.text.DRV_ETHPHY_PhyAdd   0x41befe           0x18          24   
.text._DRV_PHY_SMIReadS   0x41bf16           0x18          24   
.text._DRV_PHY_SMIWrite   0x41bf2e           0x18          24   
.text._DRV_ETHPHY_Reset   0x41bf46           0x18          24   
.rodata._DRV_PHY_NegCom   0x41bf60           0x18          24   
.text.DRV_PIC32CGMAC_Si   0x41bf78           0x18          24   
.text.DRV_MIIM_Close      0x41bf90           0x18          24   
.rodata.__func__.14139    0x41bfa8           0x18          24   
.rodata.__func__.14157    0x41bfc0           0x18          24   
.rodata.__func__.14408    0x41bfd8           0x18          24   
.text.TCPIP_ICMP_Cleanu   0x41bff0           0x18          24   
.text.TCPIP_ARP_HashKey   0x41c008           0x18          24   
.text.TCPIP_HEAP_Create   0x41c020           0x18          24   
.text.TCPIP_OAHASH_Entr   0x41c038           0x18          24   
.text.TCPIP_STACK_NetAd   0x41c050           0x18          24   
.text.TCPIP_STACK_NetAd   0x41c068           0x18          24   
.text.TCPIP_STACK_NetAd   0x41c080           0x18          24   
.text.TCPIP_STACK_NetMa   0x41c098           0x18          24   
.text.TCPIP_STACK_NetMA   0x41c0b0           0x18          24   
.text.TCPIP_STACK_HeapH   0x41c0c8           0x18          24   
.rodata.TCPIP_FRAME_PRO   0x41c0e0           0x18          24   
.text.Console_UART_Regi   0x41c0f8           0x18          24   
.text.CommandReset        0x41c110           0x18          24   
.text.SendCommandMessag   0x41c128           0x18          24   
.rodata.sysConsoleApi     0x41c140           0x18          24   
.text._TCPIP_STACK_Task   0x41c158           0x18          24   
.text._DRV_MIIM_Task      0x41c170           0x18          24   
.rodata.sysConsole0UART   0x41c188           0x18          24   
.rodata.tcpipDNSClientI   0x41c1a0           0x18          24   
.text.vPortFree           0x41c1b8           0x18          24   
.text.vListInsertEnd      0x41c1d0           0x18          24   
.text.vTaskInternalSetT   0x41c1e8           0x18          24   
.text.OSAL_CRIT_Enter     0x41c200           0x18          24   
.text.OSAL_SEM_Post       0x41c218           0x18          24   
.text.OSAL_MUTEX_Create   0x41c230           0x18          24   
.text.OSAL_MUTEX_Unlock   0x41c248           0x18          24   
.rodata.appCmdTbl         0x41c260           0x18          24   
.text.DRV_ETHPHY_Vendor   0x41c278           0x16          22   
.text.DRV_MIIM_ClientSt   0x41c28e           0x16          22   
.text._DNSSocketRxSigna   0x41c2a4           0x16          22   
.text._TCP_TxPktValid     0x41c2ba           0x16          22   
.text._DHCPSocketRxSign   0x41c2d0           0x16          22   
.text._TCPIP_HEAP_Size    0x41c2e6           0x16          22   
.text._TCPIP_HEAP_HighW   0x41c2fc           0x16          22   
.text.TCPIP_STACK_Addre   0x41c312           0x16          22   
.text._TCPIPStackPacket   0x41c328           0x16          22   
.text.vApplicationStack   0x41c33e           0x16          22   
.text.vApplicationMallo   0x41c354           0x16          22   
.text.vListInitialise     0x41c36a           0x16          22   
.text.prvIsQueueEmpty     0x41c380           0x16          22   
.text.xQueueCreateCount   0x41c396           0x16          22   
.text.OSAL_CRIT_Leave     0x41c3ac           0x16          22   
.text._DRV_ETHPHY_NegRe   0x41c3c2           0x14          20   
.text._DRV_ETHPHY_NegRe   0x41c3d6           0x14          20   
.text._DRV_ETHPHY_NegCo   0x41c3ea           0x14          20   
.text._DRV_ETHPHY_LinkS   0x41c3fe           0x14          20   
.rodata._DRV_PHY_NegRes   0x41c414           0x14          20   
.rodata._DRV_GMAC_LinkS   0x41c428           0x14          20   
.text._DHCPOptionWriteE   0x41c43c           0x14          20   
.text.TCPIP_OAHASH_Entr   0x41c450           0x14          20   
.rodata.sysConsole0UART   0x41c464           0x14          20   
.rodata.sysConsole0UART   0x41c478           0x14          20   
.text.vPortEnableVFP      0x41c48c           0x14          20   
.text.vPortExitCritical   0x41c4a0           0x14          20   
.rodata                   0x41c4b4           0x14          20  Read-only const 
.text.register_fini       0x41c4c8           0x14          20   
.rodata                   0x41c4dc           0x14          20  Read-only const 
.text._Bfree              0x41c4f0           0x14          20   
.text.__i2b               0x41c504           0x14          20   
.text.DRV_GMAC_Status     0x41c518           0x12          18   
.text.DRV_GMAC_Close      0x41c52a           0x12          18   
.text.DRV_GMAC_Deinitia   0x41c53c           0x12          18   
.text.TCPIP_TCP_GetIsRe   0x41c54e           0x12          18   
.text.TCPIP_STACK_NetNa   0x41c560           0x12          18   
.text.IsCommandReady      0x41c572           0x12          18   
.text.SYS_INT_Disable     0x41c584           0x12          18   
.text.SYS_INT_Restore     0x41c596           0x12          18   
.text.OSAL_SEM_Delete     0x41c5a8           0x12          18   
.rodata._DRV_PHY_SetupP   0x41c5bc           0x10          16   
.rodata.DRV_ETHPHY_OBJE   0x41c5cc           0x10          16   
.text.TCPIP_DNS_GetIPv4   0x41c5dc           0x10          16   
.text.TCPIP_DNS_GetIPv6   0x41c5ec           0x10          16   
.text.TCPIP_Notificatio   0x41c5fc           0x10          16   
.text.sy_time_h2_adapte   0x41c60c           0x10          16   
.text._APP_Tasks          0x41c61c           0x10          16   
.text._SYS_CMD_Tasks      0x41c62c           0x10          16   
.rodata.tcpipDHCPInitDa   0x41c63c           0x10          16   
.text.vTaskSuspendAll     0x41c64c           0x10          16   
.text.calloc              0x41c65c           0x10          16   
.text.malloc              0x41c66c           0x10          16   
.text.free                0x41c67c           0x10          16   
.text.strtok              0x41c68c           0x10          16   
.rodata.blanks.8352       0x41c69c           0x10          16   
.rodata.zeroes.8353       0x41c6ac           0x10          16   
.text.DRV_ETHPHY_Status   0x41c6bc            0xe          14   
.text.DRV_ETHPHY_Client   0x41c6ca            0xe          14   
.text.DRV_ETHPHY_Client   0x41c6d8            0xe          14   
.text.DRV_ETHPHY_Vendor   0x41c6e6            0xe          14   
.text.btohexa_low         0x41c6f4            0xe          14   
.text.TCPIP_Helper_Chec   0x41c702            0xe          14   
.text.TCPIP_STACK_NetIn   0x41c710            0xe          14   
.text.TCPIP_STACK_NetIx   0x41c71e            0xe          14   
.text._TCPIPStackSignal   0x41c72c            0xe          14   
.text.main                0x41c73a            0xe          14   
.rodata._DRV_PHY_NegRes   0x41c748            0xc          12   
.rodata._DRV_PHY_ResetP   0x41c754            0xc          12   
.text._DRV_GMAC_GetTxOc   0x41c760            0xc          12   
.text._DRV_GMAC_GetTxOc   0x41c76c            0xc          12   
.text._DRV_GMAC_GetTxFr   0x41c778            0xc          12   
.text._DRV_GMAC_GetTxBC   0x41c784            0xc          12   
.text._DRV_GMAC_GetTxMC   0x41c790            0xc          12   
.text._DRV_GMAC_GetTxPa   0x41c79c            0xc          12   
.text._DRV_GMAC_GetTx64   0x41c7a8            0xc          12   
.text._DRV_GMAC_GetTx12   0x41c7b4            0xc          12   
.text._DRV_GMAC_GetTx25   0x41c7c0            0xc          12   
.text._DRV_GMAC_GetTx51   0x41c7cc            0xc          12   
.text._DRV_GMAC_GetTx10   0x41c7d8            0xc          12   
.text._DRV_GMAC_GetTx15   0x41c7e4            0xc          12   
.text._DRV_GMAC_GetTxGT   0x41c7f0            0xc          12   
.text._DRV_GMAC_GetTxUn   0x41c7fc            0xc          12   
.text._DRV_GMAC_GetTxSi   0x41c808            0xc          12   
.text._DRV_GMAC_GetTxMu   0x41c814            0xc          12   
.text._DRV_GMAC_GetTxEx   0x41c820            0xc          12   
.text._DRV_GMAC_GetTxLa   0x41c82c            0xc          12   
.text._DRV_GMAC_GetTxDe   0x41c838            0xc          12   
.text._DRV_GMAC_GetTxCS   0x41c844            0xc          12   
.text._DRV_GMAC_GetRxOc   0x41c850            0xc          12   
.text._DRV_GMAC_GetRxOc   0x41c85c            0xc          12   
.text._DRV_GMAC_GetRxFr   0x41c868            0xc          12   
.text._DRV_GMAC_GetRxBC   0x41c874            0xc          12   
.text._DRV_GMAC_GetRxMC   0x41c880            0xc          12   
.text._DRV_GMAC_GetRxPa   0x41c88c            0xc          12   
.text._DRV_GMAC_GetRx64   0x41c898            0xc          12   
.text._DRV_GMAC_GetRx12   0x41c8a4            0xc          12   
.text._DRV_GMAC_GetRx25   0x41c8b0            0xc          12   
.text._DRV_GMAC_GetRx51   0x41c8bc            0xc          12   
.text._DRV_GMAC_GetRx10   0x41c8c8            0xc          12   
.text._DRV_GMAC_GetRx15   0x41c8d4            0xc          12   
.text._DRV_GMAC_GetRxGT   0x41c8e0            0xc          12   
.text._DRV_GMAC_GetRxUn   0x41c8ec            0xc          12   
.text._DRV_GMAC_GetRxOv   0x41c8f8            0xc          12   
.text._DRV_GMAC_GetRxJa   0x41c904            0xc          12   
.text._DRV_GMAC_GetRxFC   0x41c910            0xc          12   
.text._DRV_GMAC_GetRxLF   0x41c91c            0xc          12   
.text._DRV_GMAC_GetRxSy   0x41c928            0xc          12   
.text._DRV_GMAC_GetRxAl   0x41c934            0xc          12   
.text._DRV_GMAC_GetRxRe   0x41c940            0xc          12   
.text._DRV_GMAC_GetRxOv   0x41c94c            0xc          12   
.text._DRV_GMAC_GetRxIP   0x41c958            0xc          12   
.text._DRV_GMAC_GetRxTC   0x41c964            0xc          12   
.text._DRV_GMAC_GetRxUD   0x41c970            0xc          12   
.text.btohexa_high        0x41c97c            0xc          12   
.text.TCPIP_DNS_OAHASH_   0x41c988            0xc          12   
.text.TCPIP_DNS_Enable    0x41c994            0xc          12   
.text.TCPIP_ARP_HashKey   0x41c9a0            0xc          12   
.text.TCPIP_STACK_NetDe   0x41c9ac            0xc          12   
.text.TCPIP_STACK_Numbe   0x41c9b8            0xc          12   
.rodata.TCPIP_STACK_IF_   0x41c9c4            0xc          12   
.text.TCPIP_PKT_Deiniti   0x41c9d0            0xc          12   
.text.TC0_CH0_TimerStar   0x41c9dc            0xc          12   
.text.TC0_CH0_TimerStop   0x41c9e8            0xc          12   
.text.TC0_CH0_TimerPeri   0x41c9f4            0xc          12   
.text.TC0_CH0_TimerComp   0x41ca00            0xc          12   
.text.TC0_CH0_TimerCoun   0x41ca0c            0xc          12   
.text.TC0_CH0_TimerCall   0x41ca18            0xc          12   
.text.USART1_WriteCallb   0x41ca24            0xc          12   
.text.USART1_ReadCallba   0x41ca30            0xc          12   
.text.SYS_DEBUG_ErrorLe   0x41ca3c            0xc          12   
.text.SYS_CMD_MESSAGE     0x41ca48            0xc          12   
.text.SYS_TIME_Frequenc   0x41ca54            0xc          12   
.rodata.sysConsole0Init   0x41ca60            0xc          12   
.text.vTaskMissedYield    0x41ca6c            0xc          12   
.text.atexit              0x41ca78            0xc          12   
.rodata.p05.7179          0x41ca84            0xc          12   
.text.GMAC_InterruptHan   0x41ca90            0xa          10   
.text.TCPIP_DNS_Resolve   0x41ca9a            0xa          10   
.text._Command_ZcllOnOf   0x41caa4            0xa          10   
.text._Command_DHCPSOnO   0x41caae            0xa          10   
.text.TCPIP_Helper_Sing   0x41cab8            0xa          10   
.text.TCPIP_STACK_NetBI   0x41cac2            0xa          10   
.text._TCPIPStackAddres   0x41cacc            0xa          10   
.text.TCPIP_UDP_ClientO   0x41cad6            0xa          10   
.text._DRV_ETHPHY_Clien   0x41cae0            0x8           8   
.text.DRV_EXTPHY_SMIClo   0x41cae8            0x8           8   
.text.DRV_GMAC_EventPen   0x41caf0            0x8           8   
.text.TCPIP_HEAP_Malloc   0x41caf8            0x8           8   
.text.TCPIP_HEAP_Calloc   0x41cb00            0x8           8   
.text.TCPIP_HEAP_FreeOu   0x41cb08            0x8           8   
.text.TCPIP_STACK_Gatew   0x41cb10            0x8           8   
.text.TCPIP_STACK_Prima   0x41cb18            0x8           8   
.text.TCPIP_STACK_Secon   0x41cb20            0x8           8   
.text.TCPIP_STACK_NetGe   0x41cb28            0x8           8   
.text.TCPIP_Notificatio   0x41cb30            0x8           8   
.text.TCPIP_UDP_TxPutIs   0x41cb38            0x8           8   
.text.TC0_CH0_TimerFreq   0x41cb40            0x8           8   
.rodata.drvMiimInitData   0x41cb48            0x8           8   
.rodata.sysTimeInitData   0x41cb50            0x8           8   
.rodata.tcpipTCPInitDat   0x41cb58            0x8           8   
.rodata.tcpipUDPInitDat   0x41cb60            0x8           8   
.text.vQueueDelete        0x41cb68            0x8           8   
.rodata                   0x41cb70            0x8           8  Read-only const 
.text.atoi                0x41cb78            0x8           8   
.text.__locale_ctype_pt   0x41cb80            0x8           8   
.text.DRV_ETHPHY_SMIRea   0x41cb88            0x6           6   
.text.DRV_ETHPHY_SMIWri   0x41cb8e            0x6           6   
.text.DRV_ETHPHY_SMISca   0x41cb94            0x6           6   
.text.DRV_ETHPHY_SMISca   0x41cb9a            0x6           6   
.text.DRV_ETHPHY_SMISca   0x41cba0            0x6           6   
.text.DRV_ETHPHY_SMISca   0x41cba6            0x6           6   
.text.DRV_ETHPHY_SMISta   0x41cbac            0x6           6   
.text.DRV_ETHPHY_SMIClo   0x41cbb2            0x6           6   
.text.TCPIP_ARP_HashKey   0x41cbb8            0x6           6   
.text.vListInitialiseIt   0x41cbbe            0x6           6   
.text.TCPIP_IPV4_IsFrag   0x41cbc4            0x4           4   
.text.GetCommandCharact   0x41cbc8            0x4           4   
.rodata._seqDownArrow     0x41cbcc            0x4           4   
.rodata._seqLeftArrow     0x41cbd0            0x4           4   
.rodata._seqRightArrow    0x41cbd4            0x4           4   
.rodata._seqUpArrow       0x41cbd8            0x4           4   
.rodata.debugInit         0x41cbdc            0x4           4   
.rodata.sysCmdInit        0x41cbe0            0x4           4   
.text.Dummy_Handler       0x41cbe4            0x4           4   
.text.NonMaskableInt_Ha   0x41cbe8            0x4           4   
.text.HardFault_Handler   0x41cbec            0x4           4   
.text.DebugMonitor_Hand   0x41cbf0            0x4           4   
.text.MemoryManagement_   0x41cbf4            0x4           4   
.text.BusFault_Handler    0x41cbf8            0x4           4   
.text.UsageFault_Handle   0x41cbfc            0x4           4   
.text                     0x41cc00            0x4           4  App's exec code 
.rodata._global_impure_   0x41cc04            0x4           4   
.text.__malloc_lock       0x41cc08            0x4           4   
.text.__malloc_unlock     0x41cc0c            0x4           4   
      Total ROM used  :     0x1cbde      117726  5.6% of 0x200000
        --------------------------------------------------------------------------
         Total Program Memory used  :     0x1cbde      117726  5.6% of 0x200000
        --------------------------------------------------------------------------


RAM Data-Memory Usage
section                    address  length [bytes]      (dec)  Description
-------                 ----------  -------------------------  -----------
.bss                    0x20400000          0x5f0        1520  Uninitialized data 
.data.__malloc_av_      0x204005f0          0x408        1032   
.data._gmac_drv_dcpt    0x204009f8          0x304         772   
.bss.TCPIP_STACK_MODULE 0x20400cfc          0x250         592   
.bss.sysConsole0UARTWrQ 0x20400f4c          0x208         520   
.data.__global_locale   0x20401154          0x16c         364   
.bss.tmpBuf             0x204012c0           0xc8         200   
.bss.timers             0x20401388           0xa0         160   
.bss.gDrvMIIMObj        0x20401428           0x94         148   
.bss.TCPIP_MODULES_QUEU 0x204014bc           0x90         144   
.bss.saveCmd.7379       0x2040154c           0x81         129   
.bss.tcpipCmdStat       0x204015cd            0x1           1   
.bss.tcpDefTxSize       0x204015ce            0x2           2   
.bss._usrCmdTbl         0x204015d0           0x80         128   
.bss.readBuff           0x20401650           0x80         128   
.bss.gDrvETHPHYObj      0x204016d0           0x64         100   
.bss.gConsoleUartData   0x20401734           0x64         100   
.bss.pxReadyTasksLists  0x20401798           0x64         100   
.bss.sysConsole0UARTRdQ 0x204017fc           0x58          88   
.bss.arpMod             0x20401854           0x48          72   
.bss.gSystemCounterObj  0x2040189c           0x38          56   
.bss.gDnsDcpt           0x204018d4           0x28          40   
.bss.__malloc_current_m 0x204018fc           0x28          40   
.bss.dnslookupTargetHos 0x20401924           0x1f          31   
.bss.discard_flag.13927 0x20401943            0x1           1   
.bss                    0x20401944           0x1c          28  Uninitialized data 
.bss._cmdAppData        0x20401960           0x18          24   
.bss.dhcpRegisteredUser 0x20401978           0x14          20   
.bss.cmdTcpipInitData   0x2040198c           0x14          20   
.bss.ipv4ArpQueue       0x204019a0           0x14          20   
.bss.ipv4PacketFilters  0x204019b4           0x14          20   
.bss.tcpip_init_data    0x204019c8           0x14          20   
.data.tcpipHeapConfig   0x204019dc           0x14          20   
.bss.xDelayedTaskList1  0x204019f0           0x14          20   
.bss.xDelayedTaskList2  0x20401a04           0x14          20   
.bss.xPendingReadyList  0x20401a18           0x14          20   
.bss.xSuspendedTaskList 0x20401a2c           0x14          20   
.bss.xTasksWaitingTermi 0x20401a40           0x14          20   
.bss.tcpip_heap_config  0x20401a54           0x10          16   
.bss.consoleDeviceInsta 0x20401a64            0xc          12   
.bss.cmdIODevList       0x20401a70            0xc          12   
.bss._cmdList           0x20401a7c            0x8           8   
.data.dwLastIP.13363    0x20401a84            0x8           8   
.data.arpBcastAdd       0x20401a8c            0x6           6   
.bss.tcpDefRxSize       0x20401a92            0x2           2   
.bss._hEventMac         0x20401a94            0x4           4   
.bss._MIIMStayAssertLoo 0x20401a98            0x4           4   
.bss._DNSStayAssertLoop 0x20401a9c            0x4           4   
.bss._DNSStayCondLoop   0x20401aa0            0x4           4   
.bss.dnsInitCount       0x20401aa4            0x4           4   
.bss.pgDnsDcpt          0x20401aa8            0x4           4   
.bss.icmpInitCount      0x20401aac            0x4           4   
.bss.signalHandle       0x20401ab0            0x4           4   
.bss.TCBStubs           0x20401ab4            0x4           4   
.bss.TcpSockets         0x20401ab8            0x4           4   
.bss.tcpHeapH           0x20401abc            0x4           4   
.bss.tcpInitCount       0x20401ac0            0x4           4   
.bss.tcpLockCount       0x20401ac4            0x4           4   
.bss.tcpSemaphore       0x20401ac8            0x4           4   
.bss.tcpSignalHandle    0x20401acc            0x4           4   
.bss.DHCPClients        0x20401ad0            0x4           4   
.bss.dhcpFilterHandle   0x20401ad4            0x4           4   
.bss.dhcpInitCount      0x20401ad8            0x4           4   
.bss.dhcpInterfaces     0x20401adc            0x4           4   
.bss.dhcpMemH           0x20401ae0            0x4           4   
.bss.dhcpSecondCount    0x20401ae4            0x4           4   
.bss.dhcpSignalHandle   0x20401ae8            0x4           4   
.bss.dnsLookUpStartTick 0x20401aec            0x4           4   
.bss.dnsLookupCmdIoPara 0x20401af0            0x4           4   
.bss.initialNetIfs      0x20401af4            0x4           4   
.bss.pCmdTcpipInitData  0x20401af8            0x4           4   
.bss.pTcpipCmdDevice    0x20401afc            0x4           4   
.bss.tcpipCmdSignalHand 0x20401b00            0x4           4   
.bss._IPv4StayAssertLoo 0x20401b04            0x4           4   
.bss.ipv4ArpHandle      0x20401b08            0x4           4   
.bss.ipv4MemH           0x20401b0c            0x4           4   
.bss.signalHandle       0x20401b10            0x4           4   
.bss.newTcpipErrorEvent 0x20401b14            0x4           4   
.bss.newTcpipStackEvent 0x20401b18            0x4           4   
.bss.newTcpipTickAvlbl  0x20401b1c            0x4           4   
.bss.stackAsyncSignalCo 0x20401b20            0x4           4   
.bss.stackTaskRate      0x20401b24            0x4           4   
.bss.tcpipDefIf         0x20401b28            0x4           4   
.bss.tcpipNetIf         0x20401b2c            0x4           4   
.bss.totTcpipEventsCnt  0x20401b30            0x4           4   
.data.tcpip_stack_tickH 0x20401b34            0x4           4   
.bss.pktMemH            0x20401b38            0x4           4   
.bss.UDPSocketDcpt      0x20401b3c            0x4           4   
.bss.nUdpSockets        0x20401b40            0x4           4   
.bss.signalHandle       0x20401b44            0x4           4   
.bss.udpInitCount       0x20401b48            0x4           4   
.bss.udpMemH            0x20401b4c            0x4           4   
.bss.userSem            0x20401b50            0x4           4   
.bss._pCurrCmdN         0x20401b54            0x4           4   
.bss.printBuffPtr       0x20401b58            0x4           4   
.bss.systemAdaptObj     0x20401b5c            0x4           4   
.bss.cmd.13380          0x20401b60            0x4           4   
.data.uxCriticalNesting 0x20401b64            0x4           4   
.bss.pxCurrentTCB       0x20401b68            0x4           4   
.bss.pxDelayedTaskList  0x20401b6c            0x4           4   
.bss.pxOverflowDelayedT 0x20401b70            0x4           4   
.bss.uxCurrentNumberOfT 0x20401b74            0x4           4   
.bss.uxDeletedTasksWait 0x20401b78            0x4           4   
.bss.uxPendedTicks      0x20401b7c            0x4           4   
.bss.uxSchedulerSuspend 0x20401b80            0x4           4   
.bss.uxTaskNumber       0x20401b84            0x4           4   
.bss.uxTopReadyPriority 0x20401b88            0x4           4   
.bss.xIdleTaskHandle    0x20401b8c            0x4           4   
.bss.xNextTaskUnblockTi 0x20401b90            0x4           4   
.bss.xNumOfOverflows    0x20401b94            0x4           4   
.bss.xSchedulerRunning  0x20401b98            0x4           4   
.bss.xTickCount         0x20401b9c            0x4           4   
.bss.xYieldPending      0x20401ba0            0x4           4   
.data._impure_ptr       0x20401ba4            0x4           4   
.bss.__malloc_max_sbrke 0x20401ba8            0x4           4   
.bss.__malloc_max_total 0x20401bac            0x4           4   
.bss.__malloc_top_pad   0x20401bb0            0x4           4   
.data.__malloc_sbrk_bas 0x20401bb4            0x4           4   
.data.__malloc_trim_thr 0x20401bb8            0x4           4   
.bss                    0x20401bbc            0x4           4  Uninitialized data 
.bss.dhcpClientPort     0x20401bc0            0x2           2   
.bss.dhcpClientSocket   0x20401bc2            0x2           2   
.bss.dhcpServerPort     0x20401bc4            0x2           2   
.bss.ipv4Identifier     0x20401bc6            0x2           2   
.bss.ipv4InitCount      0x20401bc8            0x2           2   
.bss.udpDefTxSize       0x20401bca            0x2           2   
.data.gSysTimeTokenCoun 0x20401bcc            0x2           2   
.data.dnsType           0x20401bce            0x1           1   
.bss.ipv4FilterType     0x20401bcf            0x1           1   
.bss.tcpip_stack_status 0x20401bd0            0x1           1   
.bss.gmac_dcpt_array    0x2045f000           0xf0         240   
.bss.printBuff          0x2045f0f0          0xa00        2560   
.data.impure_data       0x2045faf0          0x428        1064   
.bss.printBuffer        0x2045ff18           0xc8         200   
.bss.tcpip_stack_ctrl_d 0x2045ffe0           0x20          32   
         Total RAM used  :      0x2bd1       11217  2.9% of 0x60000
        --------------------------------------------------------------------------
            Total Data Memory used  :      0x2bd1       11217  2.9% of 0x60000
        --------------------------------------------------------------------------


Dynamic Data-Memory Reservation
section                    address  length [bytes]      (dec)  Description
-------                 ----------  -------------------------  -----------
heap                    0x20401bd8        0x17ac0       96960  Reserved for heap 
stack                   0x204196b0        0x45948      285000  Reserved for stack 

        --------------------------------------------------------------------------

Discarded input sections

 .text          0x0000000000000000        0x0 /Applications/microchip/xc32/v2.15/bin/bin/../../lib/gcc/pic32c/6.2.1/v7e-m/fpv5/hard/crti.o
 .data          0x0000000000000000        0x0 /Applications/microchip/xc32/v2.15/bin/bin/../../lib/gcc/pic32c/6.2.1/v7e-m/fpv5/hard/crti.o
 .bss           0x0000000000000000        0x0 /Applications/microchip/xc32/v2.15/bin/bin/../../lib/gcc/pic32c/6.2.1/v7e-m/fpv5/hard/crti.o
 .data          0x0000000000000000        0x4 /Applications/microchip/xc32/v2.15/bin/bin/../../lib/gcc/pic32c/6.2.1/v7e-m/fpv5/hard/crtbegin.o
 .text          0x0000000000000000       0x74 /Applications/microchip/xc32/v2.15/bin/bin/../../lib/gcc/pic32c/6.2.1/../../../../pic32c/lib/v7e-m/fpv5/hard/crt0.o
 .data          0x0000000000000000        0x0 /Applications/microchip/xc32/v2.15/bin/bin/../../lib/gcc/pic32c/6.2.1/../../../../pic32c/lib/v7e-m/fpv5/hard/crt0.o
 .bss           0x0000000000000000        0x0 /Applications/microchip/xc32/v2.15/bin/bin/../../lib/gcc/pic32c/6.2.1/../../../../pic32c/lib/v7e-m/fpv5/hard/crt0.o
 .ARM.extab     0x0000000000000000        0x0 /Applications/microchip/xc32/v2.15/bin/bin/../../lib/gcc/pic32c/6.2.1/../../../../pic32c/lib/v7e-m/fpv5/hard/crt0.o
 .ARM.exidx     0x0000000000000000        0x8 /Applications/microchip/xc32/v2.15/bin/bin/../../lib/gcc/pic32c/6.2.1/../../../../pic32c/lib/v7e-m/fpv5/hard/crt0.o
 .ARM.attributes
                0x0000000000000000       0x1e /Applications/microchip/xc32/v2.15/bin/bin/../../lib/gcc/pic32c/6.2.1/../../../../pic32c/lib/v7e-m/fpv5/hard/crt0.o
 .text          0x0000000000000000        0x0 build/sam_e70_xult_freertos/debug/_ext/683629640/bsp.o
 .data          0x0000000000000000        0x0 build/sam_e70_xult_freertos/debug/_ext/683629640/bsp.o
 .bss           0x0000000000000000        0x0 build/sam_e70_xult_freertos/debug/_ext/683629640/bsp.o
 .text          0x0000000000000000        0x0 build/sam_e70_xult_freertos/debug/_ext/1607428259/drv_ethphy.o
 .data          0x0000000000000000        0x0 build/sam_e70_xult_freertos/debug/_ext/1607428259/drv_ethphy.o
 .bss           0x0000000000000000        0x0 build/sam_e70_xult_freertos/debug/_ext/1607428259/drv_ethphy.o
 .bss._PhyStayAssertLoop
                0x0000000000000000        0x4 build/sam_e70_xult_freertos/debug/_ext/1607428259/drv_ethphy.o
 .bss._PhyStayCondLoop
                0x0000000000000000        0x4 build/sam_e70_xult_freertos/debug/_ext/1607428259/drv_ethphy.o
 .text          0x0000000000000000        0x0 build/sam_e70_xult_freertos/debug/_ext/1607428259/drv_extphy_smsc8740.o
 .data          0x0000000000000000        0x0 build/sam_e70_xult_freertos/debug/_ext/1607428259/drv_extphy_smsc8740.o
 .bss           0x0000000000000000        0x0 build/sam_e70_xult_freertos/debug/_ext/1607428259/drv_extphy_smsc8740.o
 .text          0x0000000000000000        0x0 build/sam_e70_xult_freertos/debug/_ext/1619526243/drv_gmac.o
 .data          0x0000000000000000        0x0 build/sam_e70_xult_freertos/debug/_ext/1619526243/drv_gmac.o
 .bss           0x0000000000000000        0x0 build/sam_e70_xult_freertos/debug/_ext/1619526243/drv_gmac.o
 .text          0x0000000000000000        0x0 build/sam_e70_xult_freertos/debug/_ext/1619526243/drv_gmac_lib_samE7x_V7x.o
 .data          0x0000000000000000        0x0 build/sam_e70_xult_freertos/debug/_ext/1619526243/drv_gmac_lib_samE7x_V7x.o
 .bss           0x0000000000000000        0x0 build/sam_e70_xult_freertos/debug/_ext/1619526243/drv_gmac_lib_samE7x_V7x.o
 .text          0x0000000000000000        0x0 build/sam_e70_xult_freertos/debug/_ext/511568427/drv_miim.o
 .data          0x0000000000000000        0x0 build/sam_e70_xult_freertos/debug/_ext/511568427/drv_miim.o
 .bss           0x0000000000000000        0x0 build/sam_e70_xult_freertos/debug/_ext/511568427/drv_miim.o
 .text.Helper_SingleListInitialize
                0x0000000000000000        0xa build/sam_e70_xult_freertos/debug/_ext/511568427/drv_miim.o
 .bss._MIIMStayCondLoop
                0x0000000000000000        0x4 build/sam_e70_xult_freertos/debug/_ext/511568427/drv_miim.o
 .text          0x0000000000000000        0x0 build/sam_e70_xult_freertos/debug/_ext/810785262/helpers.o
 .data          0x0000000000000000        0x0 build/sam_e70_xult_freertos/debug/_ext/810785262/helpers.o
 .bss           0x0000000000000000        0x0 build/sam_e70_xult_freertos/debug/_ext/810785262/helpers.o
 .text.uitoa    0x0000000000000000       0x60 build/sam_e70_xult_freertos/debug/_ext/810785262/helpers.o
 .text.strncpy_m
                0x0000000000000000       0x70 build/sam_e70_xult_freertos/debug/_ext/810785262/helpers.o
 .text.stricmp  0x0000000000000000       0x6a build/sam_e70_xult_freertos/debug/_ext/810785262/helpers.o
 .text          0x0000000000000000        0x0 build/sam_e70_xult_freertos/debug/_ext/810785262/dns.o
 .data          0x0000000000000000        0x0 build/sam_e70_xult_freertos/debug/_ext/810785262/dns.o
 .bss           0x0000000000000000        0x0 build/sam_e70_xult_freertos/debug/_ext/810785262/dns.o
 .text.TCPIP_DNS_Send_Query
                0x0000000000000000        0xa build/sam_e70_xult_freertos/debug/_ext/810785262/dns.o
 .text.TCPIP_DNS_IsNameResolved
                0x0000000000000000        0xa build/sam_e70_xult_freertos/debug/_ext/810785262/dns.o
 .text.TCPIP_DNS_IsEnabled
                0x0000000000000000       0x1e build/sam_e70_xult_freertos/debug/_ext/810785262/dns.o
 .text          0x0000000000000000        0x0 build/sam_e70_xult_freertos/debug/_ext/810785262/icmp.o
 .data          0x0000000000000000        0x0 build/sam_e70_xult_freertos/debug/_ext/810785262/icmp.o
 .bss           0x0000000000000000        0x0 build/sam_e70_xult_freertos/debug/_ext/810785262/icmp.o
 .text          0x0000000000000000        0x0 build/sam_e70_xult_freertos/debug/_ext/810785262/tcp.o
 .data          0x0000000000000000        0x0 build/sam_e70_xult_freertos/debug/_ext/810785262/tcp.o
 .bss           0x0000000000000000        0x0 build/sam_e70_xult_freertos/debug/_ext/810785262/tcp.o
 .text.TCPIP_TCP_SocketTraceSet
                0x0000000000000000        0x4 build/sam_e70_xult_freertos/debug/_ext/810785262/tcp.o
 .text.TCPIP_TCP_ServerOpen
                0x0000000000000000       0xa8 build/sam_e70_xult_freertos/debug/_ext/810785262/tcp.o
 .text.TCPIP_TCP_WasReset
                0x0000000000000000       0x2a build/sam_e70_xult_freertos/debug/_ext/810785262/tcp.o
 .text.TCPIP_TCP_Disconnect
                0x0000000000000000       0x1a build/sam_e70_xult_freertos/debug/_ext/810785262/tcp.o
 .text.TCPIP_TCP_Abort
                0x0000000000000000       0x14 build/sam_e70_xult_freertos/debug/_ext/810785262/tcp.o
 .text.TCPIP_TCP_Connect
                0x0000000000000000       0x2e build/sam_e70_xult_freertos/debug/_ext/810785262/tcp.o
 .text.TCPIP_TCP_Close
                0x0000000000000000       0x3c build/sam_e70_xult_freertos/debug/_ext/810785262/tcp.o
 .text.TCPIP_TCP_SocketsNumberGet
                0x0000000000000000        0xc build/sam_e70_xult_freertos/debug/_ext/810785262/tcp.o
 .text.TCPIP_TCP_Flush
                0x0000000000000000       0x24 build/sam_e70_xult_freertos/debug/_ext/810785262/tcp.o
 .text.TCPIP_TCP_Put
                0x0000000000000000       0x18 build/sam_e70_xult_freertos/debug/_ext/810785262/tcp.o
 .text.TCPIP_TCP_StringPut
                0x0000000000000000       0x1a build/sam_e70_xult_freertos/debug/_ext/810785262/tcp.o
 .text.TCPIP_TCP_FifoTxFullGet
                0x0000000000000000       0x3c build/sam_e70_xult_freertos/debug/_ext/810785262/tcp.o
 .text.TCPIP_TCP_SocketInfoGet
                0x0000000000000000       0x6e build/sam_e70_xult_freertos/debug/_ext/810785262/tcp.o
 .text.TCPIP_TCP_FifoTxFreeGet
                0x0000000000000000       0x20 build/sam_e70_xult_freertos/debug/_ext/810785262/tcp.o
 .text.TCPIP_TCP_Discard
                0x0000000000000000       0x26 build/sam_e70_xult_freertos/debug/_ext/810785262/tcp.o
 .text.TCPIP_TCP_Get
                0x0000000000000000        0xa build/sam_e70_xult_freertos/debug/_ext/810785262/tcp.o
 .text.TCPIP_TCP_FifoRxFreeGet
                0x0000000000000000       0x1e build/sam_e70_xult_freertos/debug/_ext/810785262/tcp.o
 .text.TCPIP_TCP_ArrayPeek
                0x0000000000000000       0x62 build/sam_e70_xult_freertos/debug/_ext/810785262/tcp.o
 .text.TCPIP_TCP_Peek
                0x0000000000000000       0x1a build/sam_e70_xult_freertos/debug/_ext/810785262/tcp.o
 .text.TCPIP_TCP_ArrayFind
                0x0000000000000000      0x262 build/sam_e70_xult_freertos/debug/_ext/810785262/tcp.o
 .text.TCPIP_TCP_Find
                0x0000000000000000       0x20 build/sam_e70_xult_freertos/debug/_ext/810785262/tcp.o
 .text.TCPIP_TCP_FifoSizeAdjust
                0x0000000000000000      0x2fc build/sam_e70_xult_freertos/debug/_ext/810785262/tcp.o
 .text.TCPIP_TCP_SocketNetSet
                0x0000000000000000       0x2a build/sam_e70_xult_freertos/debug/_ext/810785262/tcp.o
 .text.TCPIP_TCP_SocketNetGet
                0x0000000000000000       0x10 build/sam_e70_xult_freertos/debug/_ext/810785262/tcp.o
 .text.TCPIP_TCP_Bind
                0x0000000000000000       0xce build/sam_e70_xult_freertos/debug/_ext/810785262/tcp.o
 .text.TCPIP_TCP_OptionsSet
                0x0000000000000000      0x106 build/sam_e70_xult_freertos/debug/_ext/810785262/tcp.o
 .text.TCPIP_TCP_OptionsGet
                0x0000000000000000       0xb2 build/sam_e70_xult_freertos/debug/_ext/810785262/tcp.o
 .text.TCPIP_TCP_DestinationIPAddressSet
                0x0000000000000000       0x4e build/sam_e70_xult_freertos/debug/_ext/810785262/tcp.o
 .text.TCPIP_TCP_RemoteBind
                0x0000000000000000       0x4e build/sam_e70_xult_freertos/debug/_ext/810785262/tcp.o
 .text.TCPIP_TCP_SourceIPAddressSet
                0x0000000000000000       0x2e build/sam_e70_xult_freertos/debug/_ext/810785262/tcp.o
 .text.TCPIP_TCP_SignalHandlerRegister
                0x0000000000000000       0x2c build/sam_e70_xult_freertos/debug/_ext/810785262/tcp.o
 .text.TCPIP_TCP_SignalHandlerDeregister
                0x0000000000000000       0x24 build/sam_e70_xult_freertos/debug/_ext/810785262/tcp.o
 .text.TCPIP_TCP_IsReady
                0x0000000000000000        0x4 build/sam_e70_xult_freertos/debug/_ext/810785262/tcp.o
 .text          0x0000000000000000        0x0 build/sam_e70_xult_freertos/debug/_ext/810785262/dhcp.o
 .data          0x0000000000000000        0x0 build/sam_e70_xult_freertos/debug/_ext/810785262/dhcp.o
 .bss           0x0000000000000000        0x0 build/sam_e70_xult_freertos/debug/_ext/810785262/dhcp.o
 .text.TCPIP_DHCP_IsBound
                0x0000000000000000       0x48 build/sam_e70_xult_freertos/debug/_ext/810785262/dhcp.o
 .text.TCPIP_DHCP_IsServerDetected
                0x0000000000000000       0x48 build/sam_e70_xult_freertos/debug/_ext/810785262/dhcp.o
 .text.TCPIP_DHCP_RequestTimeoutSet
                0x0000000000000000       0x58 build/sam_e70_xult_freertos/debug/_ext/810785262/dhcp.o
 .text.TCPIP_DHCP_HandlerRegister
                0x0000000000000000       0x34 build/sam_e70_xult_freertos/debug/_ext/810785262/dhcp.o
 .text.TCPIP_DHCP_HandlerDeRegister
                0x0000000000000000       0x24 build/sam_e70_xult_freertos/debug/_ext/810785262/dhcp.o
 .text.TCPIP_DHCP_HostNameCallbackRegister
                0x0000000000000000       0x54 build/sam_e70_xult_freertos/debug/_ext/810785262/dhcp.o
 .text          0x0000000000000000        0x0 build/sam_e70_xult_freertos/debug/_ext/810785262/arp.o
 .data          0x0000000000000000        0x0 build/sam_e70_xult_freertos/debug/_ext/810785262/arp.o
 .bss           0x0000000000000000        0x0 build/sam_e70_xult_freertos/debug/_ext/810785262/arp.o
 .text.TCPIP_ARP_Resolve
                0x0000000000000000       0x46 build/sam_e70_xult_freertos/debug/_ext/810785262/arp.o
 .text.TCPIP_ARP_EntrySet
                0x0000000000000000       0xe4 build/sam_e70_xult_freertos/debug/_ext/810785262/arp.o
 .text.TCPIP_ARP_EntryRemoveAll
                0x0000000000000000       0x84 build/sam_e70_xult_freertos/debug/_ext/810785262/arp.o
 .text.TCPIP_ARP_CacheThresholdSet
                0x0000000000000000       0x50 build/sam_e70_xult_freertos/debug/_ext/810785262/arp.o
 .text          0x0000000000000000        0x0 build/sam_e70_xult_freertos/debug/_ext/810785262/tcpip_commands.o
 .data          0x0000000000000000        0x0 build/sam_e70_xult_freertos/debug/_ext/810785262/tcpip_commands.o
 .bss           0x0000000000000000        0x0 build/sam_e70_xult_freertos/debug/_ext/810785262/tcpip_commands.o
 .text          0x0000000000000000        0x0 build/sam_e70_xult_freertos/debug/_ext/810785262/ipv4.o
 .data          0x0000000000000000        0x0 build/sam_e70_xult_freertos/debug/_ext/810785262/ipv4.o
 .bss           0x0000000000000000        0x0 build/sam_e70_xult_freertos/debug/_ext/810785262/ipv4.o
 .text.TCPIP_IPV4_PacketFilterSet
                0x0000000000000000       0x24 build/sam_e70_xult_freertos/debug/_ext/810785262/ipv4.o
 .text.TCPIP_IPV4_PacketFilterClear
                0x0000000000000000       0x24 build/sam_e70_xult_freertos/debug/_ext/810785262/ipv4.o
 .text.TCPIP_IPV4_PacketAlloc
                0x0000000000000000       0x7a build/sam_e70_xult_freertos/debug/_ext/810785262/ipv4.o
 .text.TCPIP_IPV4_PacketOptionFieldSet
                0x0000000000000000       0x36 build/sam_e70_xult_freertos/debug/_ext/810785262/ipv4.o
 .text.TCPIP_IPV4_PacketOptionListGet
                0x0000000000000000       0x62 build/sam_e70_xult_freertos/debug/_ext/810785262/ipv4.o
 .text.TCPIP_IPV4_PacketOptionGet
                0x0000000000000000       0x7c build/sam_e70_xult_freertos/debug/_ext/810785262/ipv4.o
 .text          0x0000000000000000        0x0 build/sam_e70_xult_freertos/debug/_ext/810785262/tcpip_heap_alloc.o
 .data          0x0000000000000000        0x0 build/sam_e70_xult_freertos/debug/_ext/810785262/tcpip_heap_alloc.o
 .bss           0x0000000000000000        0x0 build/sam_e70_xult_freertos/debug/_ext/810785262/tcpip_heap_alloc.o
 .text._TCPIP_HEAP_PointerMapCached
                0x0000000000000000        0x2 build/sam_e70_xult_freertos/debug/_ext/810785262/tcpip_heap_alloc.o
 .text          0x0000000000000000        0x0 build/sam_e70_xult_freertos/debug/_ext/810785262/tcpip_heap_internal.o
 .data          0x0000000000000000        0x0 build/sam_e70_xult_freertos/debug/_ext/810785262/tcpip_heap_internal.o
 .bss           0x0000000000000000        0x0 build/sam_e70_xult_freertos/debug/_ext/810785262/tcpip_heap_internal.o
 .text          0x0000000000000000        0x0 build/sam_e70_xult_freertos/debug/_ext/810785262/hash_fnv.o
 .data          0x0000000000000000        0x0 build/sam_e70_xult_freertos/debug/_ext/810785262/hash_fnv.o
 .bss           0x0000000000000000        0x0 build/sam_e70_xult_freertos/debug/_ext/810785262/hash_fnv.o
 .text.fnv_32a_hash
                0x0000000000000000       0x30 build/sam_e70_xult_freertos/debug/_ext/810785262/hash_fnv.o
 .text          0x0000000000000000        0x0 build/sam_e70_xult_freertos/debug/_ext/810785262/oahash.o
 .data          0x0000000000000000        0x0 build/sam_e70_xult_freertos/debug/_ext/810785262/oahash.o
 .bss           0x0000000000000000        0x0 build/sam_e70_xult_freertos/debug/_ext/810785262/oahash.o
 .text          0x0000000000000000        0x0 build/sam_e70_xult_freertos/debug/_ext/810785262/tcpip_helpers.o
 .data          0x0000000000000000        0x0 build/sam_e70_xult_freertos/debug/_ext/810785262/tcpip_helpers.o
 .bss           0x0000000000000000        0x0 build/sam_e70_xult_freertos/debug/_ext/810785262/tcpip_helpers.o
 .text._TCPIP_Helper_SecurePortEntry
                0x0000000000000000       0x38 build/sam_e70_xult_freertos/debug/_ext/810785262/tcpip_helpers.o
 .text.TCPIP_Helper_IsPrivateAddress
                0x0000000000000000       0x2c build/sam_e70_xult_freertos/debug/_ext/810785262/tcpip_helpers.o
 .text.TCPIP_Helper_PowerModeToString
                0x0000000000000000       0x18 build/sam_e70_xult_freertos/debug/_ext/810785262/tcpip_helpers.o
 .text.TCPIP_Helper_Base64Decode
                0x0000000000000000       0xea build/sam_e70_xult_freertos/debug/_ext/810785262/tcpip_helpers.o
 .text.TCPIP_Helper_Base64Encode
                0x0000000000000000      0x104 build/sam_e70_xult_freertos/debug/_ext/810785262/tcpip_helpers.o
 .text.TCPIP_Helper_FindCommonPrefix
                0x0000000000000000       0x4e build/sam_e70_xult_freertos/debug/_ext/810785262/tcpip_helpers.o
 .text.TCPIP_Helper_SingleListHeadAdd
                0x0000000000000000       0x16 build/sam_e70_xult_freertos/debug/_ext/810785262/tcpip_helpers.o
 .text.TCPIP_Helper_SingleListMidAdd
                0x0000000000000000        0xe build/sam_e70_xult_freertos/debug/_ext/810785262/tcpip_helpers.o
 .text.TCPIP_Helper_SingleListNextRemove
                0x0000000000000000       0x26 build/sam_e70_xult_freertos/debug/_ext/810785262/tcpip_helpers.o
 .text.TCPIP_Helper_SingleListFind
                0x0000000000000000       0x20 build/sam_e70_xult_freertos/debug/_ext/810785262/tcpip_helpers.o
 .text.TCPIP_Helper_ProtectedSingleListHeadAdd
                0x0000000000000000       0x2a build/sam_e70_xult_freertos/debug/_ext/810785262/tcpip_helpers.o
 .text.TCPIP_Helper_ProtectedSingleListMidAdd
                0x0000000000000000       0x30 build/sam_e70_xult_freertos/debug/_ext/810785262/tcpip_helpers.o
 .text.TCPIP_Helper_ProtectedSingleListNextRemove
                0x0000000000000000       0x30 build/sam_e70_xult_freertos/debug/_ext/810785262/tcpip_helpers.o
 .text.TCPIP_Helper_ProtectedSingleListAppend
                0x0000000000000000       0x2a build/sam_e70_xult_freertos/debug/_ext/810785262/tcpip_helpers.o
 .text.TCPIP_Helper_DoubleListInitialize
                0x0000000000000000        0xa build/sam_e70_xult_freertos/debug/_ext/810785262/tcpip_helpers.o
 .text.TCPIP_Helper_DoubleListHeadAdd
                0x0000000000000000       0x22 build/sam_e70_xult_freertos/debug/_ext/810785262/tcpip_helpers.o
 .text.TCPIP_Helper_DoubleListTailAdd
                0x0000000000000000       0x24 build/sam_e70_xult_freertos/debug/_ext/810785262/tcpip_helpers.o
 .text.TCPIP_Helper_DoubleListMidAdd
                0x0000000000000000       0x14 build/sam_e70_xult_freertos/debug/_ext/810785262/tcpip_helpers.o
 .text.TCPIP_Helper_DoubleListHeadRemove
                0x0000000000000000       0x24 build/sam_e70_xult_freertos/debug/_ext/810785262/tcpip_helpers.o
 .text.TCPIP_Helper_DoubleListTailRemove
                0x0000000000000000       0x24 build/sam_e70_xult_freertos/debug/_ext/810785262/tcpip_helpers.o
 .text.TCPIP_Helper_DoubleListMidRemove
                0x0000000000000000       0x14 build/sam_e70_xult_freertos/debug/_ext/810785262/tcpip_helpers.o
 .text.TCPIP_Helper_DoubleListNodeRemove
                0x0000000000000000       0x20 build/sam_e70_xult_freertos/debug/_ext/810785262/tcpip_helpers.o
 .text.TCPIP_Helper_DoubleListFind
                0x0000000000000000       0x20 build/sam_e70_xult_freertos/debug/_ext/810785262/tcpip_helpers.o
 .text.TCPIP_Helper_ProtectedDoubleListInitialize
                0x0000000000000000       0x22 build/sam_e70_xult_freertos/debug/_ext/810785262/tcpip_helpers.o
 .text.TCPIP_Helper_ProtectedDoubleListDeinitialize
                0x0000000000000000       0x30 build/sam_e70_xult_freertos/debug/_ext/810785262/tcpip_helpers.o
 .text.TCPIP_Helper_ProtectedDoubleListHeadAdd
                0x0000000000000000       0x2a build/sam_e70_xult_freertos/debug/_ext/810785262/tcpip_helpers.o
 .text.TCPIP_Helper_ProtectedDoubleListTailAdd
                0x0000000000000000       0x2a build/sam_e70_xult_freertos/debug/_ext/810785262/tcpip_helpers.o
 .text.TCPIP_Helper_ProtectedDoubleListMidAdd
                0x0000000000000000       0x2e build/sam_e70_xult_freertos/debug/_ext/810785262/tcpip_helpers.o
 .text.TCPIP_Helper_ProtectedDoubleListHeadRemove
                0x0000000000000000       0x2c build/sam_e70_xult_freertos/debug/_ext/810785262/tcpip_helpers.o
 .text.TCPIP_Helper_ProtectedDoubleListTailRemove
                0x0000000000000000       0x2c build/sam_e70_xult_freertos/debug/_ext/810785262/tcpip_helpers.o
 .text.TCPIP_Helper_ProtectedDoubleListMidRemove
                0x0000000000000000       0x2a build/sam_e70_xult_freertos/debug/_ext/810785262/tcpip_helpers.o
 .text.TCPIP_Helper_ProtectedDoubleListNodeRemove
                0x0000000000000000       0x2a build/sam_e70_xult_freertos/debug/_ext/810785262/tcpip_helpers.o
 .text.TCPIP_Helper_ProtectedDoubleListRemoveAll
                0x0000000000000000       0x2a build/sam_e70_xult_freertos/debug/_ext/810785262/tcpip_helpers.o
 .text.TCPIP_Helper_ProtectedDoubleListLock
                0x0000000000000000       0x14 build/sam_e70_xult_freertos/debug/_ext/810785262/tcpip_helpers.o
 .text.TCPIP_Helper_ProtectedDoubleListUnlock
                0x0000000000000000       0x10 build/sam_e70_xult_freertos/debug/_ext/810785262/tcpip_helpers.o
 .text.TCPIP_Helper_TCPSecurePortGet
                0x0000000000000000       0x16 build/sam_e70_xult_freertos/debug/_ext/810785262/tcpip_helpers.o
 .text.TCPIP_Helper_UDPSecurePortGet
                0x0000000000000000       0x16 build/sam_e70_xult_freertos/debug/_ext/810785262/tcpip_helpers.o
 .text.TCPIP_Helper_SecurePortGetByIndex
                0x0000000000000000       0x34 build/sam_e70_xult_freertos/debug/_ext/810785262/tcpip_helpers.o
 .text.TCPIP_Helper_SecurePortSet
                0x0000000000000000       0x5e build/sam_e70_xult_freertos/debug/_ext/810785262/tcpip_helpers.o
 .data.tcpSecurePortTbl
                0x0000000000000000       0x28 build/sam_e70_xult_freertos/debug/_ext/810785262/tcpip_helpers.o
 .text          0x0000000000000000        0x0 build/sam_e70_xult_freertos/debug/_ext/810785262/tcpip_manager.o
 .data          0x0000000000000000        0x0 build/sam_e70_xult_freertos/debug/_ext/810785262/tcpip_manager.o
 .bss           0x0000000000000000        0x0 build/sam_e70_xult_freertos/debug/_ext/810785262/tcpip_manager.o
 .text._NetConfigStringToBuffer
                0x0000000000000000       0x54 build/sam_e70_xult_freertos/debug/_ext/810785262/tcpip_manager.o
 .text.TCPIP_STACK_NetMulticastGet
                0x0000000000000000        0x4 build/sam_e70_xult_freertos/debug/_ext/810785262/tcpip_manager.o
 .text.TCPIP_STACK_NetMulticastSet
                0x0000000000000000        0x4 build/sam_e70_xult_freertos/debug/_ext/810785262/tcpip_manager.o
 .text.TCPIP_STACK_MacToNet
                0x0000000000000000       0x3c build/sam_e70_xult_freertos/debug/_ext/810785262/tcpip_manager.o
 .text.TCPIP_STACK_MacToNetIndex
                0x0000000000000000       0x44 build/sam_e70_xult_freertos/debug/_ext/810785262/tcpip_manager.o
 .text.TCPIP_STACK_MACObjectGet
                0x0000000000000000        0xa build/sam_e70_xult_freertos/debug/_ext/810785262/tcpip_manager.o
 .text.TCPIP_STACK_NetAddressDnsSecond
                0x0000000000000000       0x18 build/sam_e70_xult_freertos/debug/_ext/810785262/tcpip_manager.o
 .text.TCPIP_STACK_NetAddressDnsSecondSet
                0x0000000000000000       0x1c build/sam_e70_xult_freertos/debug/_ext/810785262/tcpip_manager.o
 .text.TCPIP_STACK_NetMACIdGet
                0x0000000000000000       0x18 build/sam_e70_xult_freertos/debug/_ext/810785262/tcpip_manager.o
 .text.TCPIP_STACK_ModuleConfigGet
                0x0000000000000000       0x4c build/sam_e70_xult_freertos/debug/_ext/810785262/tcpip_manager.o
 .text.TCPIP_STACK_NetConfigGet
                0x0000000000000000       0x44 build/sam_e70_xult_freertos/debug/_ext/810785262/tcpip_manager.o
 .text.TCPIP_STACK_NetConfigSet
                0x0000000000000000      0x1b2 build/sam_e70_xult_freertos/debug/_ext/810785262/tcpip_manager.o
 .text.TCPIP_STACK_MACIdToString
                0x0000000000000000       0x3c build/sam_e70_xult_freertos/debug/_ext/810785262/tcpip_manager.o
 .text.TCPIP_STACK_EventsPendingGet
                0x0000000000000000       0x20 build/sam_e70_xult_freertos/debug/_ext/810785262/tcpip_manager.o
 .text.TCPIP_STACK_NetStaticIPv6AddressGet
                0x0000000000000000        0x4 build/sam_e70_xult_freertos/debug/_ext/810785262/tcpip_manager.o
 .text.TCPIP_STACK_NetDefaultIPv6GatewayGet
                0x0000000000000000        0x4 build/sam_e70_xult_freertos/debug/_ext/810785262/tcpip_manager.o
 .text.TCPIP_STACK_AddressIsOfNetUp
                0x0000000000000000       0x34 build/sam_e70_xult_freertos/debug/_ext/810785262/tcpip_manager.o
 .text.TCPIP_STACK_NetMACId
                0x0000000000000000        0xc build/sam_e70_xult_freertos/debug/_ext/810785262/tcpip_manager.o
 .text.TCPIP_STACK_NetToMAC
                0x0000000000000000        0xa build/sam_e70_xult_freertos/debug/_ext/810785262/tcpip_manager.o
 .text.TCPIP_STACK_VersionGet
                0x0000000000000000        0x8 build/sam_e70_xult_freertos/debug/_ext/810785262/tcpip_manager.o
 .text.TCPIP_STACK_VersionStrGet
                0x0000000000000000        0x8 build/sam_e70_xult_freertos/debug/_ext/810785262/tcpip_manager.o
 .text.TCPIP_MODULE_SignalFunctionRegister
                0x0000000000000000       0x3c build/sam_e70_xult_freertos/debug/_ext/810785262/tcpip_manager.o
 .text.TCPIP_MODULE_SignalFunctionDeregister
                0x0000000000000000        0xe build/sam_e70_xult_freertos/debug/_ext/810785262/tcpip_manager.o
 .text.TCPIP_MODULE_SignalGet
                0x0000000000000000       0x2c build/sam_e70_xult_freertos/debug/_ext/810785262/tcpip_manager.o
 .text.TCPIP_STACK_HEAP_Size
                0x0000000000000000        0xe build/sam_e70_xult_freertos/debug/_ext/810785262/tcpip_manager.o
 .text.TCPIP_STACK_HEAP_MaxSize
                0x0000000000000000        0xe build/sam_e70_xult_freertos/debug/_ext/810785262/tcpip_manager.o
 .text.TCPIP_STACK_HEAP_FreeSize
                0x0000000000000000        0xe build/sam_e70_xult_freertos/debug/_ext/810785262/tcpip_manager.o
 .text.TCPIP_STACK_HEAP_HighWatermark
                0x0000000000000000        0xe build/sam_e70_xult_freertos/debug/_ext/810785262/tcpip_manager.o
 .text.TCPIP_STACK_HEAP_LastError
                0x0000000000000000       0x10 build/sam_e70_xult_freertos/debug/_ext/810785262/tcpip_manager.o
 .text._TCPIPStackHeapConfig
                0x0000000000000000        0x8 build/sam_e70_xult_freertos/debug/_ext/810785262/tcpip_manager.o
 .text          0x0000000000000000        0x0 build/sam_e70_xult_freertos/debug/_ext/810785262/tcpip_notify.o
 .data          0x0000000000000000        0x0 build/sam_e70_xult_freertos/debug/_ext/810785262/tcpip_notify.o
 .bss           0x0000000000000000        0x0 build/sam_e70_xult_freertos/debug/_ext/810785262/tcpip_notify.o
 .text          0x0000000000000000        0x0 build/sam_e70_xult_freertos/debug/_ext/810785262/tcpip_packet.o
 .data          0x0000000000000000        0x0 build/sam_e70_xult_freertos/debug/_ext/810785262/tcpip_packet.o
 .bss           0x0000000000000000        0x0 build/sam_e70_xult_freertos/debug/_ext/810785262/tcpip_packet.o
 .text.TCPIP_PKT_SegmentAppend
                0x0000000000000000       0x14 build/sam_e70_xult_freertos/debug/_ext/810785262/tcpip_packet.o
 .text._TCPIP_PKT_SegmentAlloc
                0x0000000000000000       0x60 build/sam_e70_xult_freertos/debug/_ext/810785262/tcpip_packet.o
 .text._TCPIP_PKT_SegmentFree
                0x0000000000000000       0x1c build/sam_e70_xult_freertos/debug/_ext/810785262/tcpip_packet.o
 .text          0x0000000000000000        0x0 build/sam_e70_xult_freertos/debug/_ext/810785262/udp.o
 .data          0x0000000000000000        0x0 build/sam_e70_xult_freertos/debug/_ext/810785262/udp.o
 .bss           0x0000000000000000        0x0 build/sam_e70_xult_freertos/debug/_ext/810785262/udp.o
 .text.TCPIP_UDP_OpenServerSkt
                0x0000000000000000       0xc8 build/sam_e70_xult_freertos/debug/_ext/810785262/udp.o
 .text.TCPIP_UDP_ServerOpen
                0x0000000000000000        0xa build/sam_e70_xult_freertos/debug/_ext/810785262/udp.o
 .text.TCPIP_UDP_IsConnected
                0x0000000000000000       0x2c build/sam_e70_xult_freertos/debug/_ext/810785262/udp.o
 .text.TCPIP_UDP_Put
                0x0000000000000000       0x18 build/sam_e70_xult_freertos/debug/_ext/810785262/udp.o
 .text.TCPIP_UDP_StringPut
                0x0000000000000000       0x2a build/sam_e70_xult_freertos/debug/_ext/810785262/udp.o
 .text.TCPIP_UDP_TxCountGet
                0x0000000000000000       0x22 build/sam_e70_xult_freertos/debug/_ext/810785262/udp.o
 .text.TCPIP_UDP_Get
                0x0000000000000000        0xa build/sam_e70_xult_freertos/debug/_ext/810785262/udp.o
 .text.TCPIP_UDP_SocketNetGet
                0x0000000000000000       0x10 build/sam_e70_xult_freertos/debug/_ext/810785262/udp.o
 .text.TCPIP_UDP_RemoteBind
                0x0000000000000000       0xa6 build/sam_e70_xult_freertos/debug/_ext/810785262/udp.o
 .text.TCPIP_UDP_SetSplitPayload
                0x0000000000000000       0x56 build/sam_e70_xult_freertos/debug/_ext/810785262/udp.o
 .text.TCPIP_UDP_SignalHandlerDeregister
                0x0000000000000000       0x24 build/sam_e70_xult_freertos/debug/_ext/810785262/udp.o
 .text.TCPIP_UDP_SocketsNumberGet
                0x0000000000000000        0xc build/sam_e70_xult_freertos/debug/_ext/810785262/udp.o
 .text          0x0000000000000000        0x0 build/sam_e70_xult_freertos/debug/_ext/45647770/plib_clk.o
 .data          0x0000000000000000        0x0 build/sam_e70_xult_freertos/debug/_ext/45647770/plib_clk.o
 .bss           0x0000000000000000        0x0 build/sam_e70_xult_freertos/debug/_ext/45647770/plib_clk.o
 .text          0x0000000000000000        0x0 build/sam_e70_xult_freertos/debug/_ext/45638026/plib_mpu.o
 .data          0x0000000000000000        0x0 build/sam_e70_xult_freertos/debug/_ext/45638026/plib_mpu.o
 .bss           0x0000000000000000        0x0 build/sam_e70_xult_freertos/debug/_ext/45638026/plib_mpu.o
 .text          0x0000000000000000        0x0 build/sam_e70_xult_freertos/debug/_ext/1414743522/plib_nvic.o
 .data          0x0000000000000000        0x0 build/sam_e70_xult_freertos/debug/_ext/1414743522/plib_nvic.o
 .bss           0x0000000000000000        0x0 build/sam_e70_xult_freertos/debug/_ext/1414743522/plib_nvic.o
 .text          0x0000000000000000        0x0 build/sam_e70_xult_freertos/debug/_ext/45635366/plib_pio.o
 .data          0x0000000000000000        0x0 build/sam_e70_xult_freertos/debug/_ext/45635366/plib_pio.o
 .bss           0x0000000000000000        0x0 build/sam_e70_xult_freertos/debug/_ext/45635366/plib_pio.o
 .text.PIO_PortRead
                0x0000000000000000        0x4 build/sam_e70_xult_freertos/debug/_ext/45635366/plib_pio.o
 .text.PIO_PortWrite
                0x0000000000000000        0xc build/sam_e70_xult_freertos/debug/_ext/45635366/plib_pio.o
 .text.PIO_PortLatchRead
                0x0000000000000000        0x4 build/sam_e70_xult_freertos/debug/_ext/45635366/plib_pio.o
 .text.PIO_PortSet
                0x0000000000000000        0x4 build/sam_e70_xult_freertos/debug/_ext/45635366/plib_pio.o
 .text.PIO_PortClear
                0x0000000000000000        0x4 build/sam_e70_xult_freertos/debug/_ext/45635366/plib_pio.o
 .text.PIO_PortToggle
                0x0000000000000000        0x8 build/sam_e70_xult_freertos/debug/_ext/45635366/plib_pio.o
 .text.PIO_PortInputEnable
                0x0000000000000000        0x4 build/sam_e70_xult_freertos/debug/_ext/45635366/plib_pio.o
 .text.PIO_PortOutputEnable
                0x0000000000000000        0x4 build/sam_e70_xult_freertos/debug/_ext/45635366/plib_pio.o
 .text          0x0000000000000000        0x0 build/sam_e70_xult_freertos/debug/_ext/1245453995/plib_tc0.o
 .data          0x0000000000000000        0x0 build/sam_e70_xult_freertos/debug/_ext/1245453995/plib_tc0.o
 .bss           0x0000000000000000        0x0 build/sam_e70_xult_freertos/debug/_ext/1245453995/plib_tc0.o
 .text.TC0_CH0_TimerPeriodGet
                0x0000000000000000        0xc build/sam_e70_xult_freertos/debug/_ext/1245453995/plib_tc0.o
 .text          0x0000000000000000        0x0 build/sam_e70_xult_freertos/debug/_ext/901008055/plib_usart1.o
 .data          0x0000000000000000        0x0 build/sam_e70_xult_freertos/debug/_ext/901008055/plib_usart1.o
 .bss           0x0000000000000000        0x0 build/sam_e70_xult_freertos/debug/_ext/901008055/plib_usart1.o
 .text.USART1_SerialSetup
                0x0000000000000000       0x74 build/sam_e70_xult_freertos/debug/_ext/901008055/plib_usart1.o
 .text.USART1_WriteIsBusy
                0x0000000000000000        0xc build/sam_e70_xult_freertos/debug/_ext/901008055/plib_usart1.o
 .text.USART1_ReadIsBusy
                0x0000000000000000        0xc build/sam_e70_xult_freertos/debug/_ext/901008055/plib_usart1.o
 .text.USART1_WriteCountGet
                0x0000000000000000        0xc build/sam_e70_xult_freertos/debug/_ext/901008055/plib_usart1.o
 .text.USART1_ReadCountGet
                0x0000000000000000        0xc build/sam_e70_xult_freertos/debug/_ext/901008055/plib_usart1.o
 .text          0x0000000000000000        0x0 build/sam_e70_xult_freertos/debug/_ext/146190766/xc32_monitor.o
 .data          0x0000000000000000        0x0 build/sam_e70_xult_freertos/debug/_ext/146190766/xc32_monitor.o
 .bss           0x0000000000000000        0x0 build/sam_e70_xult_freertos/debug/_ext/146190766/xc32_monitor.o
 .text._mon_getc
                0x0000000000000000        0x4 build/sam_e70_xult_freertos/debug/_ext/146190766/xc32_monitor.o
 .text._mon_putc
                0x0000000000000000        0x2 build/sam_e70_xult_freertos/debug/_ext/146190766/xc32_monitor.o
 .debug_info    0x0000000000000000      0x247 build/sam_e70_xult_freertos/debug/_ext/146190766/xc32_monitor.o
 .debug_abbrev  0x0000000000000000       0x75 build/sam_e70_xult_freertos/debug/_ext/146190766/xc32_monitor.o
 .debug_loc     0x0000000000000000       0x21 build/sam_e70_xult_freertos/debug/_ext/146190766/xc32_monitor.o
 .debug_aranges
                0x0000000000000000       0x28 build/sam_e70_xult_freertos/debug/_ext/146190766/xc32_monitor.o
 .debug_ranges  0x0000000000000000       0x18 build/sam_e70_xult_freertos/debug/_ext/146190766/xc32_monitor.o
 .debug_line    0x0000000000000000       0x78 build/sam_e70_xult_freertos/debug/_ext/146190766/xc32_monitor.o
 .debug_str     0x0000000000000000        0x0 build/sam_e70_xult_freertos/debug/_ext/146190766/xc32_monitor.o
 .comment       0x0000000000000000       0x3d build/sam_e70_xult_freertos/debug/_ext/146190766/xc32_monitor.o
 .debug_frame   0x0000000000000000       0x30 build/sam_e70_xult_freertos/debug/_ext/146190766/xc32_monitor.o
 .ARM.attributes
                0x0000000000000000       0x37 build/sam_e70_xult_freertos/debug/_ext/146190766/xc32_monitor.o
 .text          0x0000000000000000        0x0 build/sam_e70_xult_freertos/debug/_ext/992551865/sys_cache.o
 .data          0x0000000000000000        0x0 build/sam_e70_xult_freertos/debug/_ext/992551865/sys_cache.o
 .bss           0x0000000000000000        0x0 build/sam_e70_xult_freertos/debug/_ext/992551865/sys_cache.o
 .text.SYS_CACHE_EnableCaches
                0x0000000000000000       0xa4 build/sam_e70_xult_freertos/debug/_ext/992551865/sys_cache.o
 .text.SYS_CACHE_DisableCaches
                0x0000000000000000       0x9c build/sam_e70_xult_freertos/debug/_ext/992551865/sys_cache.o
 .text.SYS_CACHE_EnableICache
                0x0000000000000000       0x38 build/sam_e70_xult_freertos/debug/_ext/992551865/sys_cache.o
 .text.SYS_CACHE_DisableICache
                0x0000000000000000       0x30 build/sam_e70_xult_freertos/debug/_ext/992551865/sys_cache.o
 .text.SYS_CACHE_InvalidateICache
                0x0000000000000000       0x28 build/sam_e70_xult_freertos/debug/_ext/992551865/sys_cache.o
 .text.SYS_CACHE_EnableDCache
                0x0000000000000000       0x74 build/sam_e70_xult_freertos/debug/_ext/992551865/sys_cache.o
 .text.SYS_CACHE_DisableDCache
                0x0000000000000000       0x74 build/sam_e70_xult_freertos/debug/_ext/992551865/sys_cache.o
 .text.SYS_CACHE_InvalidateDCache
                0x0000000000000000       0x68 build/sam_e70_xult_freertos/debug/_ext/992551865/sys_cache.o
 .text.SYS_CACHE_CleanDCache
                0x0000000000000000       0x68 build/sam_e70_xult_freertos/debug/_ext/992551865/sys_cache.o
 .text.SYS_CACHE_CleanInvalidateDCache
                0x0000000000000000       0x68 build/sam_e70_xult_freertos/debug/_ext/992551865/sys_cache.o
 .text.SYS_CACHE_InvalidateDCache_by_Addr
                0x0000000000000000       0x30 build/sam_e70_xult_freertos/debug/_ext/992551865/sys_cache.o
 .text.SYS_CACHE_CleanDCache_by_Addr
                0x0000000000000000       0x30 build/sam_e70_xult_freertos/debug/_ext/992551865/sys_cache.o
 .text.SYS_CACHE_CleanInvalidateDCache_by_Addr
                0x0000000000000000       0x30 build/sam_e70_xult_freertos/debug/_ext/992551865/sys_cache.o
 .debug_info    0x0000000000000000     0x1397 build/sam_e70_xult_freertos/debug/_ext/992551865/sys_cache.o
 .debug_abbrev  0x0000000000000000      0x181 build/sam_e70_xult_freertos/debug/_ext/992551865/sys_cache.o
 .debug_loc     0x0000000000000000      0x4ac build/sam_e70_xult_freertos/debug/_ext/992551865/sys_cache.o
 .debug_aranges
                0x0000000000000000       0x80 build/sam_e70_xult_freertos/debug/_ext/992551865/sys_cache.o
 .debug_ranges  0x0000000000000000       0x70 build/sam_e70_xult_freertos/debug/_ext/992551865/sys_cache.o
 .debug_line    0x0000000000000000      0x418 build/sam_e70_xult_freertos/debug/_ext/992551865/sys_cache.o
 .debug_str     0x0000000000000000       0x25 build/sam_e70_xult_freertos/debug/_ext/992551865/sys_cache.o
 .comment       0x0000000000000000       0x3d build/sam_e70_xult_freertos/debug/_ext/992551865/sys_cache.o
 .debug_frame   0x0000000000000000      0x150 build/sam_e70_xult_freertos/debug/_ext/992551865/sys_cache.o
 .ARM.attributes
                0x0000000000000000       0x37 build/sam_e70_xult_freertos/debug/_ext/992551865/sys_cache.o
 .text          0x0000000000000000        0x0 build/sam_e70_xult_freertos/debug/_ext/762686499/sys_console.o
 .data          0x0000000000000000        0x0 build/sam_e70_xult_freertos/debug/_ext/762686499/sys_console.o
 .bss           0x0000000000000000        0x0 build/sam_e70_xult_freertos/debug/_ext/762686499/sys_console.o
 .text.SYS_CONSOLE_Tasks
                0x0000000000000000       0x2c build/sam_e70_xult_freertos/debug/_ext/762686499/sys_console.o
 .text.SYS_CONSOLE_RegisterCallback
                0x0000000000000000       0x28 build/sam_e70_xult_freertos/debug/_ext/762686499/sys_console.o
 .text          0x0000000000000000        0x0 build/sam_e70_xult_freertos/debug/_ext/762686499/sys_console_uart.o
 .data          0x0000000000000000        0x0 build/sam_e70_xult_freertos/debug/_ext/762686499/sys_console_uart.o
 .bss           0x0000000000000000        0x0 build/sam_e70_xult_freertos/debug/_ext/762686499/sys_console_uart.o
 .text          0x0000000000000000        0x0 build/sam_e70_xult_freertos/debug/_ext/762686499/sys_debug.o
 .data          0x0000000000000000        0x0 build/sam_e70_xult_freertos/debug/_ext/762686499/sys_debug.o
 .bss           0x0000000000000000        0x0 build/sam_e70_xult_freertos/debug/_ext/762686499/sys_debug.o
 .text.SYS_DEBUG_Tasks
                0x0000000000000000        0x2 build/sam_e70_xult_freertos/debug/_ext/762686499/sys_debug.o
 .text.SYS_DEBUG_Status
                0x0000000000000000        0xc build/sam_e70_xult_freertos/debug/_ext/762686499/sys_debug.o
 .text.SYS_DEBUG_Message
                0x0000000000000000       0x1c build/sam_e70_xult_freertos/debug/_ext/762686499/sys_debug.o
 .text.SYS_DEBUG_ErrorLevelSet
                0x0000000000000000        0xc build/sam_e70_xult_freertos/debug/_ext/762686499/sys_debug.o
 .text          0x0000000000000000        0x0 build/sam_e70_xult_freertos/debug/_ext/762686499/sys_command.o
 .data          0x0000000000000000        0x0 build/sam_e70_xult_freertos/debug/_ext/762686499/sys_command.o
 .bss           0x0000000000000000        0x0 build/sam_e70_xult_freertos/debug/_ext/762686499/sys_command.o
 .text.SYS_CMD_RegisterCallback
                0x0000000000000000       0x2c build/sam_e70_xult_freertos/debug/_ext/762686499/sys_command.o
 .text.SYS_CMD_READY_TO_WRITE
                0x0000000000000000       0x48 build/sam_e70_xult_freertos/debug/_ext/762686499/sys_command.o
 .text          0x0000000000000000        0x0 build/sam_e70_xult_freertos/debug/_ext/1775855163/sys_int.o
 .data          0x0000000000000000        0x0 build/sam_e70_xult_freertos/debug/_ext/1775855163/sys_int.o
 .bss           0x0000000000000000        0x0 build/sam_e70_xult_freertos/debug/_ext/1775855163/sys_int.o
 .text.SYS_INT_Enable
                0x0000000000000000        0x8 build/sam_e70_xult_freertos/debug/_ext/1775855163/sys_int.o
 .text          0x0000000000000000        0x0 build/sam_e70_xult_freertos/debug/_ext/912870411/sys_time.o
 .data          0x0000000000000000        0x0 build/sam_e70_xult_freertos/debug/_ext/912870411/sys_time.o
 .bss           0x0000000000000000        0x0 build/sam_e70_xult_freertos/debug/_ext/912870411/sys_time.o
 .text.SYS_TIME_Deinitialize
                0x0000000000000000       0x30 build/sam_e70_xult_freertos/debug/_ext/912870411/sys_time.o
 .text.SYS_TIME_Status
                0x0000000000000000       0x14 build/sam_e70_xult_freertos/debug/_ext/912870411/sys_time.o
 .text.SYS_TIME_CounterGet
                0x0000000000000000        0x8 build/sam_e70_xult_freertos/debug/_ext/912870411/sys_time.o
 .text.SYS_TIME_CounterSet
                0x0000000000000000       0x20 build/sam_e70_xult_freertos/debug/_ext/912870411/sys_time.o
 .text.SYS_TIME_CountToUS
                0x0000000000000000       0x34 build/sam_e70_xult_freertos/debug/_ext/912870411/sys_time.o
 .text.SYS_TIME_CountToMS
                0x0000000000000000       0x34 build/sam_e70_xult_freertos/debug/_ext/912870411/sys_time.o
 .text.SYS_TIME_USToCount
                0x0000000000000000       0x3c build/sam_e70_xult_freertos/debug/_ext/912870411/sys_time.o
 .text.SYS_TIME_TimerCreate
                0x0000000000000000       0x1c build/sam_e70_xult_freertos/debug/_ext/912870411/sys_time.o
 .text.SYS_TIME_TimerReload
                0x0000000000000000       0x8c build/sam_e70_xult_freertos/debug/_ext/912870411/sys_time.o
 .text.SYS_TIME_TimerStop
                0x0000000000000000       0x3c build/sam_e70_xult_freertos/debug/_ext/912870411/sys_time.o
 .text.SYS_TIME_TimerCounterGet
                0x0000000000000000       0x78 build/sam_e70_xult_freertos/debug/_ext/912870411/sys_time.o
 .text.SYS_TIME_TimerPeriodHasExpired
                0x0000000000000000       0x28 build/sam_e70_xult_freertos/debug/_ext/912870411/sys_time.o
 .text.SYS_TIME_DelayUS
                0x0000000000000000       0x3c build/sam_e70_xult_freertos/debug/_ext/912870411/sys_time.o
 .text.SYS_TIME_DelayMS
                0x0000000000000000       0x3c build/sam_e70_xult_freertos/debug/_ext/912870411/sys_time.o
 .text.SYS_TIME_DelayIsComplete
                0x0000000000000000       0x18 build/sam_e70_xult_freertos/debug/_ext/912870411/sys_time.o
 .text.SYS_TIME_CallbackRegisterUS
                0x0000000000000000       0x50 build/sam_e70_xult_freertos/debug/_ext/912870411/sys_time.o
 .text          0x0000000000000000        0x0 build/sam_e70_xult_freertos/debug/_ext/231871610/sys_time_h2_adapter.o
 .data          0x0000000000000000        0x0 build/sam_e70_xult_freertos/debug/_ext/231871610/sys_time_h2_adapter.o
 .bss           0x0000000000000000        0x0 build/sam_e70_xult_freertos/debug/_ext/231871610/sys_time_h2_adapter.o
 .text          0x0000000000000000        0x0 build/sam_e70_xult_freertos/debug/_ext/1552905064/tasks.o
 .data          0x0000000000000000        0x0 build/sam_e70_xult_freertos/debug/_ext/1552905064/tasks.o
 .bss           0x0000000000000000        0x0 build/sam_e70_xult_freertos/debug/_ext/1552905064/tasks.o
 .text          0x0000000000000000        0x0 build/sam_e70_xult_freertos/debug/_ext/1552905064/initialization.o
 .data          0x0000000000000000        0x0 build/sam_e70_xult_freertos/debug/_ext/1552905064/initialization.o
 .bss           0x0000000000000000        0x0 build/sam_e70_xult_freertos/debug/_ext/1552905064/initialization.o
 .rodata.tcpipICMPInitData
                0x0000000000000000        0x4 build/sam_e70_xult_freertos/debug/_ext/1552905064/initialization.o
 .text          0x0000000000000000        0x0 build/sam_e70_xult_freertos/debug/_ext/1552905064/interrupts.o
 .data          0x0000000000000000        0x0 build/sam_e70_xult_freertos/debug/_ext/1552905064/interrupts.o
 .bss           0x0000000000000000        0x0 build/sam_e70_xult_freertos/debug/_ext/1552905064/interrupts.o
 .text          0x0000000000000000        0x0 build/sam_e70_xult_freertos/debug/_ext/1552905064/exceptions.o
 .data          0x0000000000000000        0x0 build/sam_e70_xult_freertos/debug/_ext/1552905064/exceptions.o
 .bss           0x0000000000000000        0x0 build/sam_e70_xult_freertos/debug/_ext/1552905064/exceptions.o
 .text          0x0000000000000000        0x0 build/sam_e70_xult_freertos/debug/_ext/1552905064/startup_xc32.o
 .data          0x0000000000000000        0x0 build/sam_e70_xult_freertos/debug/_ext/1552905064/startup_xc32.o
 .bss           0x0000000000000000        0x0 build/sam_e70_xult_freertos/debug/_ext/1552905064/startup_xc32.o
 .text          0x0000000000000000        0x0 build/sam_e70_xult_freertos/debug/_ext/1552905064/libc_syscalls.o
 .data          0x0000000000000000        0x0 build/sam_e70_xult_freertos/debug/_ext/1552905064/libc_syscalls.o
 .bss           0x0000000000000000        0x0 build/sam_e70_xult_freertos/debug/_ext/1552905064/libc_syscalls.o
 .text._exit    0x0000000000000000        0x2 build/sam_e70_xult_freertos/debug/_ext/1552905064/libc_syscalls.o
 .debug_info    0x0000000000000000      0xe60 build/sam_e70_xult_freertos/debug/_ext/1552905064/libc_syscalls.o
 .debug_abbrev  0x0000000000000000      0x1a8 build/sam_e70_xult_freertos/debug/_ext/1552905064/libc_syscalls.o
 .debug_aranges
                0x0000000000000000       0x20 build/sam_e70_xult_freertos/debug/_ext/1552905064/libc_syscalls.o
 .debug_ranges  0x0000000000000000       0x10 build/sam_e70_xult_freertos/debug/_ext/1552905064/libc_syscalls.o
 .debug_line    0x0000000000000000      0x1d1 build/sam_e70_xult_freertos/debug/_ext/1552905064/libc_syscalls.o
 .debug_str     0x0000000000000000        0xe build/sam_e70_xult_freertos/debug/_ext/1552905064/libc_syscalls.o
 .comment       0x0000000000000000       0x3d build/sam_e70_xult_freertos/debug/_ext/1552905064/libc_syscalls.o
 .debug_frame   0x0000000000000000       0x20 build/sam_e70_xult_freertos/debug/_ext/1552905064/libc_syscalls.o
 .ARM.attributes
                0x0000000000000000       0x37 build/sam_e70_xult_freertos/debug/_ext/1552905064/libc_syscalls.o
 .text          0x0000000000000000        0x0 build/sam_e70_xult_freertos/debug/_ext/1552905064/freertos_hooks.o
 .data          0x0000000000000000        0x0 build/sam_e70_xult_freertos/debug/_ext/1552905064/freertos_hooks.o
 .bss           0x0000000000000000        0x0 build/sam_e70_xult_freertos/debug/_ext/1552905064/freertos_hooks.o
 .text.vApplicationIdleHook
                0x0000000000000000        0x2 build/sam_e70_xult_freertos/debug/_ext/1552905064/freertos_hooks.o
 .text.vApplicationTickHook
                0x0000000000000000        0x2 build/sam_e70_xult_freertos/debug/_ext/1552905064/freertos_hooks.o
 .text.vAssertCalled
                0x0000000000000000       0x1c build/sam_e70_xult_freertos/debug/_ext/1552905064/freertos_hooks.o
 .text          0x0000000000000000        0x0 build/sam_e70_xult_freertos/debug/_ext/977623654/port.o
 .data          0x0000000000000000        0x0 build/sam_e70_xult_freertos/debug/_ext/977623654/port.o
 .bss           0x0000000000000000        0x0 build/sam_e70_xult_freertos/debug/_ext/977623654/port.o
 .text.vPortEndScheduler
                0x0000000000000000        0x2 build/sam_e70_xult_freertos/debug/_ext/977623654/port.o
 .text          0x0000000000000000        0x0 build/sam_e70_xult_freertos/debug/_ext/1665200909/heap_3.o
 .data          0x0000000000000000        0x0 build/sam_e70_xult_freertos/debug/_ext/1665200909/heap_3.o
 .bss           0x0000000000000000        0x0 build/sam_e70_xult_freertos/debug/_ext/1665200909/heap_3.o
 .text          0x0000000000000000        0x0 build/sam_e70_xult_freertos/debug/_ext/404212886/croutine.o
 .data          0x0000000000000000        0x0 build/sam_e70_xult_freertos/debug/_ext/404212886/croutine.o
 .bss           0x0000000000000000        0x0 build/sam_e70_xult_freertos/debug/_ext/404212886/croutine.o
 .debug_info    0x0000000000000000      0x28c build/sam_e70_xult_freertos/debug/_ext/404212886/croutine.o
 .debug_abbrev  0x0000000000000000       0x1b build/sam_e70_xult_freertos/debug/_ext/404212886/croutine.o
 .debug_aranges
                0x0000000000000000       0x18 build/sam_e70_xult_freertos/debug/_ext/404212886/croutine.o
 .debug_line    0x0000000000000000       0x1d build/sam_e70_xult_freertos/debug/_ext/404212886/croutine.o
 .debug_str     0x0000000000000000        0x0 build/sam_e70_xult_freertos/debug/_ext/404212886/croutine.o
 .comment       0x0000000000000000       0x3d build/sam_e70_xult_freertos/debug/_ext/404212886/croutine.o
 .ARM.attributes
                0x0000000000000000       0x37 build/sam_e70_xult_freertos/debug/_ext/404212886/croutine.o
 .text          0x0000000000000000        0x0 build/sam_e70_xult_freertos/debug/_ext/404212886/list.o
 .data          0x0000000000000000        0x0 build/sam_e70_xult_freertos/debug/_ext/404212886/list.o
 .bss           0x0000000000000000        0x0 build/sam_e70_xult_freertos/debug/_ext/404212886/list.o
 .text          0x0000000000000000        0x0 build/sam_e70_xult_freertos/debug/_ext/404212886/queue.o
 .data          0x0000000000000000        0x0 build/sam_e70_xult_freertos/debug/_ext/404212886/queue.o
 .bss           0x0000000000000000        0x0 build/sam_e70_xult_freertos/debug/_ext/404212886/queue.o
 .text.prvCopyDataFromQueue
                0x0000000000000000       0x24 build/sam_e70_xult_freertos/debug/_ext/404212886/queue.o
 .text.xQueueGenericSendFromISR
                0x0000000000000000       0x6e build/sam_e70_xult_freertos/debug/_ext/404212886/queue.o
 .text.xQueueGiveFromISR
                0x0000000000000000       0x64 build/sam_e70_xult_freertos/debug/_ext/404212886/queue.o
 .text.xQueueReceive
                0x0000000000000000      0x114 build/sam_e70_xult_freertos/debug/_ext/404212886/queue.o
 .text.xQueuePeek
                0x0000000000000000      0x110 build/sam_e70_xult_freertos/debug/_ext/404212886/queue.o
 .text.xQueueReceiveFromISR
                0x0000000000000000       0x72 build/sam_e70_xult_freertos/debug/_ext/404212886/queue.o
 .text.xQueuePeekFromISR
                0x0000000000000000       0x34 build/sam_e70_xult_freertos/debug/_ext/404212886/queue.o
 .text.uxQueueMessagesWaiting
                0x0000000000000000       0x12 build/sam_e70_xult_freertos/debug/_ext/404212886/queue.o
 .text.uxQueueSpacesAvailable
                0x0000000000000000       0x16 build/sam_e70_xult_freertos/debug/_ext/404212886/queue.o
 .text.uxQueueMessagesWaitingFromISR
                0x0000000000000000        0x4 build/sam_e70_xult_freertos/debug/_ext/404212886/queue.o
 .text.xQueueIsQueueEmptyFromISR
                0x0000000000000000        0xa build/sam_e70_xult_freertos/debug/_ext/404212886/queue.o
 .text.xQueueIsQueueFullFromISR
                0x0000000000000000        0xe build/sam_e70_xult_freertos/debug/_ext/404212886/queue.o
 .text          0x0000000000000000        0x0 build/sam_e70_xult_freertos/debug/_ext/404212886/FreeRTOS_tasks.o
 .data          0x0000000000000000        0x0 build/sam_e70_xult_freertos/debug/_ext/404212886/FreeRTOS_tasks.o
 .bss           0x0000000000000000        0x0 build/sam_e70_xult_freertos/debug/_ext/404212886/FreeRTOS_tasks.o
 .text.prvTaskIsTaskSuspended
                0x0000000000000000       0x28 build/sam_e70_xult_freertos/debug/_ext/404212886/FreeRTOS_tasks.o
 .text.vTaskDelete
                0x0000000000000000       0xcc build/sam_e70_xult_freertos/debug/_ext/404212886/FreeRTOS_tasks.o
 .text.uxTaskPriorityGet
                0x0000000000000000       0x20 build/sam_e70_xult_freertos/debug/_ext/404212886/FreeRTOS_tasks.o
 .text.uxTaskPriorityGetFromISR
                0x0000000000000000       0x2c build/sam_e70_xult_freertos/debug/_ext/404212886/FreeRTOS_tasks.o
 .text.vTaskPrioritySet
                0x0000000000000000       0xd0 build/sam_e70_xult_freertos/debug/_ext/404212886/FreeRTOS_tasks.o
 .text.vTaskResume
                0x0000000000000000       0x78 build/sam_e70_xult_freertos/debug/_ext/404212886/FreeRTOS_tasks.o
 .text.xTaskResumeFromISR
                0x0000000000000000       0x8c build/sam_e70_xult_freertos/debug/_ext/404212886/FreeRTOS_tasks.o
 .text.vTaskEndScheduler
                0x0000000000000000       0x28 build/sam_e70_xult_freertos/debug/_ext/404212886/FreeRTOS_tasks.o
 .text.xTaskGetTickCount
                0x0000000000000000        0xc build/sam_e70_xult_freertos/debug/_ext/404212886/FreeRTOS_tasks.o
 .text.xTaskGetTickCountFromISR
                0x0000000000000000        0xc build/sam_e70_xult_freertos/debug/_ext/404212886/FreeRTOS_tasks.o
 .text.uxTaskGetNumberOfTasks
                0x0000000000000000        0xc build/sam_e70_xult_freertos/debug/_ext/404212886/FreeRTOS_tasks.o
 .text.pcTaskGetName
                0x0000000000000000       0x14 build/sam_e70_xult_freertos/debug/_ext/404212886/FreeRTOS_tasks.o
 .text.vTaskDelayUntil
                0x0000000000000000       0x68 build/sam_e70_xult_freertos/debug/_ext/404212886/FreeRTOS_tasks.o
 .text.vTaskSuspend
                0x0000000000000000       0xd0 build/sam_e70_xult_freertos/debug/_ext/404212886/FreeRTOS_tasks.o
 .text.vTaskPlaceOnUnorderedEventList
                0x0000000000000000       0x24 build/sam_e70_xult_freertos/debug/_ext/404212886/FreeRTOS_tasks.o
 .text.vTaskRemoveFromUnorderedEventList
                0x0000000000000000       0x58 build/sam_e70_xult_freertos/debug/_ext/404212886/FreeRTOS_tasks.o
 .text.vTaskSetTimeOutState
                0x0000000000000000       0x24 build/sam_e70_xult_freertos/debug/_ext/404212886/FreeRTOS_tasks.o
 .text.xTaskGetCurrentTaskHandle
                0x0000000000000000        0xc build/sam_e70_xult_freertos/debug/_ext/404212886/FreeRTOS_tasks.o
 .text.uxTaskResetEventItemValue
                0x0000000000000000       0x18 build/sam_e70_xult_freertos/debug/_ext/404212886/FreeRTOS_tasks.o
 .text.ulTaskNotifyTake
                0x0000000000000000       0x78 build/sam_e70_xult_freertos/debug/_ext/404212886/FreeRTOS_tasks.o
 .text.xTaskNotifyWait
                0x0000000000000000       0x98 build/sam_e70_xult_freertos/debug/_ext/404212886/FreeRTOS_tasks.o
 .text.xTaskGenericNotify
                0x0000000000000000       0xb4 build/sam_e70_xult_freertos/debug/_ext/404212886/FreeRTOS_tasks.o
 .text.xTaskGenericNotifyFromISR
                0x0000000000000000       0xd8 build/sam_e70_xult_freertos/debug/_ext/404212886/FreeRTOS_tasks.o
 .text.vTaskNotifyGiveFromISR
                0x0000000000000000       0xa8 build/sam_e70_xult_freertos/debug/_ext/404212886/FreeRTOS_tasks.o
 .text.xTaskNotifyStateClear
                0x0000000000000000       0x34 build/sam_e70_xult_freertos/debug/_ext/404212886/FreeRTOS_tasks.o
 .text          0x0000000000000000        0x0 build/sam_e70_xult_freertos/debug/_ext/404212886/timers.o
 .data          0x0000000000000000        0x0 build/sam_e70_xult_freertos/debug/_ext/404212886/timers.o
 .bss           0x0000000000000000        0x0 build/sam_e70_xult_freertos/debug/_ext/404212886/timers.o
 .debug_info    0x0000000000000000      0xdb8 build/sam_e70_xult_freertos/debug/_ext/404212886/timers.o
 .debug_abbrev  0x0000000000000000      0x171 build/sam_e70_xult_freertos/debug/_ext/404212886/timers.o
 .debug_aranges
                0x0000000000000000       0x18 build/sam_e70_xult_freertos/debug/_ext/404212886/timers.o
 .debug_line    0x0000000000000000       0xfe build/sam_e70_xult_freertos/debug/_ext/404212886/timers.o
 .debug_str     0x0000000000000000        0xe build/sam_e70_xult_freertos/debug/_ext/404212886/timers.o
 .comment       0x0000000000000000       0x3d build/sam_e70_xult_freertos/debug/_ext/404212886/timers.o
 .ARM.attributes
                0x0000000000000000       0x37 build/sam_e70_xult_freertos/debug/_ext/404212886/timers.o
 .text          0x0000000000000000        0x0 build/sam_e70_xult_freertos/debug/_ext/404212886/event_groups.o
 .data          0x0000000000000000        0x0 build/sam_e70_xult_freertos/debug/_ext/404212886/event_groups.o
 .bss           0x0000000000000000        0x0 build/sam_e70_xult_freertos/debug/_ext/404212886/event_groups.o
 .text.xEventGroupCreate
                0x0000000000000000       0x1a build/sam_e70_xult_freertos/debug/_ext/404212886/event_groups.o
 .text.xEventGroupWaitBits
                0x0000000000000000       0xc0 build/sam_e70_xult_freertos/debug/_ext/404212886/event_groups.o
 .text.xEventGroupClearBits
                0x0000000000000000       0x1a build/sam_e70_xult_freertos/debug/_ext/404212886/event_groups.o
 .text.xEventGroupGetBitsFromISR
                0x0000000000000000       0x20 build/sam_e70_xult_freertos/debug/_ext/404212886/event_groups.o
 .text.xEventGroupSetBits
                0x0000000000000000       0x74 build/sam_e70_xult_freertos/debug/_ext/404212886/event_groups.o
 .text.xEventGroupSync
                0x0000000000000000       0x94 build/sam_e70_xult_freertos/debug/_ext/404212886/event_groups.o
 .text.vEventGroupDelete
                0x0000000000000000       0x2a build/sam_e70_xult_freertos/debug/_ext/404212886/event_groups.o
 .text.vEventGroupSetBitsCallback
                0x0000000000000000        0x8 build/sam_e70_xult_freertos/debug/_ext/404212886/event_groups.o
 .text.vEventGroupClearBitsCallback
                0x0000000000000000        0x8 build/sam_e70_xult_freertos/debug/_ext/404212886/event_groups.o
 .debug_info    0x0000000000000000     0x18cd build/sam_e70_xult_freertos/debug/_ext/404212886/event_groups.o
 .debug_abbrev  0x0000000000000000      0x3a8 build/sam_e70_xult_freertos/debug/_ext/404212886/event_groups.o
 .debug_loc     0x0000000000000000      0x921 build/sam_e70_xult_freertos/debug/_ext/404212886/event_groups.o
 .debug_aranges
                0x0000000000000000       0x60 build/sam_e70_xult_freertos/debug/_ext/404212886/event_groups.o
 .debug_ranges  0x0000000000000000       0x98 build/sam_e70_xult_freertos/debug/_ext/404212886/event_groups.o
 .debug_line    0x0000000000000000      0x3a1 build/sam_e70_xult_freertos/debug/_ext/404212886/event_groups.o
 .debug_str     0x0000000000000000      0x1ba build/sam_e70_xult_freertos/debug/_ext/404212886/event_groups.o
 .comment       0x0000000000000000       0x3d build/sam_e70_xult_freertos/debug/_ext/404212886/event_groups.o
 .debug_frame   0x0000000000000000      0x100 build/sam_e70_xult_freertos/debug/_ext/404212886/event_groups.o
 .ARM.attributes
                0x0000000000000000       0x37 build/sam_e70_xult_freertos/debug/_ext/404212886/event_groups.o
 .text          0x0000000000000000        0x0 build/sam_e70_xult_freertos/debug/_ext/404212886/stream_buffer.o
 .data          0x0000000000000000        0x0 build/sam_e70_xult_freertos/debug/_ext/404212886/stream_buffer.o
 .bss           0x0000000000000000        0x0 build/sam_e70_xult_freertos/debug/_ext/404212886/stream_buffer.o
 .text.prvBytesInBuffer
                0x0000000000000000       0x12 build/sam_e70_xult_freertos/debug/_ext/404212886/stream_buffer.o
 .text.prvWriteBytesToBuffer
                0x0000000000000000       0x44 build/sam_e70_xult_freertos/debug/_ext/404212886/stream_buffer.o
 .text.prvWriteMessageToBuffer
                0x0000000000000000       0x44 build/sam_e70_xult_freertos/debug/_ext/404212886/stream_buffer.o
 .text.prvReadBytesFromBuffer
                0x0000000000000000       0x50 build/sam_e70_xult_freertos/debug/_ext/404212886/stream_buffer.o
 .text.prvReadMessageFromBuffer
                0x0000000000000000       0x44 build/sam_e70_xult_freertos/debug/_ext/404212886/stream_buffer.o
 .text.xStreamBufferGenericCreate
                0x0000000000000000       0x36 build/sam_e70_xult_freertos/debug/_ext/404212886/stream_buffer.o
 .text.vStreamBufferDelete
                0x0000000000000000       0x1a build/sam_e70_xult_freertos/debug/_ext/404212886/stream_buffer.o
 .text.xStreamBufferReset
                0x0000000000000000       0x4a build/sam_e70_xult_freertos/debug/_ext/404212886/stream_buffer.o
 .text.xStreamBufferSetTriggerLevel
                0x0000000000000000       0x16 build/sam_e70_xult_freertos/debug/_ext/404212886/stream_buffer.o
 .text.xStreamBufferSpacesAvailable
                0x0000000000000000       0x14 build/sam_e70_xult_freertos/debug/_ext/404212886/stream_buffer.o
 .text.xStreamBufferBytesAvailable
                0x0000000000000000        0x8 build/sam_e70_xult_freertos/debug/_ext/404212886/stream_buffer.o
 .text.xStreamBufferSend
                0x0000000000000000       0xbc build/sam_e70_xult_freertos/debug/_ext/404212886/stream_buffer.o
 .text.xStreamBufferSendFromISR
                0x0000000000000000       0x7a build/sam_e70_xult_freertos/debug/_ext/404212886/stream_buffer.o
 .text.xStreamBufferReceive
                0x0000000000000000       0x9c build/sam_e70_xult_freertos/debug/_ext/404212886/stream_buffer.o
 .text.xStreamBufferReceiveFromISR
                0x0000000000000000       0x70 build/sam_e70_xult_freertos/debug/_ext/404212886/stream_buffer.o
 .text.xStreamBufferIsEmpty
                0x0000000000000000        0xe build/sam_e70_xult_freertos/debug/_ext/404212886/stream_buffer.o
 .text.xStreamBufferIsFull
                0x0000000000000000       0x18 build/sam_e70_xult_freertos/debug/_ext/404212886/stream_buffer.o
 .text.xStreamBufferSendCompletedFromISR
                0x0000000000000000       0x42 build/sam_e70_xult_freertos/debug/_ext/404212886/stream_buffer.o
 .text.xStreamBufferReceiveCompletedFromISR
                0x0000000000000000       0x42 build/sam_e70_xult_freertos/debug/_ext/404212886/stream_buffer.o
 .debug_info    0x0000000000000000     0x2290 build/sam_e70_xult_freertos/debug/_ext/404212886/stream_buffer.o
 .debug_abbrev  0x0000000000000000      0x3cc build/sam_e70_xult_freertos/debug/_ext/404212886/stream_buffer.o
 .debug_loc     0x0000000000000000     0x12f2 build/sam_e70_xult_freertos/debug/_ext/404212886/stream_buffer.o
 .debug_aranges
                0x0000000000000000       0xb0 build/sam_e70_xult_freertos/debug/_ext/404212886/stream_buffer.o
 .debug_ranges  0x0000000000000000       0xb8 build/sam_e70_xult_freertos/debug/_ext/404212886/stream_buffer.o
 .debug_line    0x0000000000000000      0x4c3 build/sam_e70_xult_freertos/debug/_ext/404212886/stream_buffer.o
 .debug_str     0x0000000000000000      0x23d build/sam_e70_xult_freertos/debug/_ext/404212886/stream_buffer.o
 .comment       0x0000000000000000       0x3d build/sam_e70_xult_freertos/debug/_ext/404212886/stream_buffer.o
 .debug_frame   0x0000000000000000      0x258 build/sam_e70_xult_freertos/debug/_ext/404212886/stream_buffer.o
 .ARM.attributes
                0x0000000000000000       0x37 build/sam_e70_xult_freertos/debug/_ext/404212886/stream_buffer.o
 .text          0x0000000000000000        0x0 build/sam_e70_xult_freertos/debug/_ext/281930714/osal_freertos.o
 .data          0x0000000000000000        0x0 build/sam_e70_xult_freertos/debug/_ext/281930714/osal_freertos.o
 .bss           0x0000000000000000        0x0 build/sam_e70_xult_freertos/debug/_ext/281930714/osal_freertos.o
 .text.OSAL_SEM_PostISR
                0x0000000000000000       0x3c build/sam_e70_xult_freertos/debug/_ext/281930714/osal_freertos.o
 .text.OSAL_SEM_GetCount
                0x0000000000000000       0x12 build/sam_e70_xult_freertos/debug/_ext/281930714/osal_freertos.o
 .text.OSAL_MUTEX_Delete
                0x0000000000000000       0x1a build/sam_e70_xult_freertos/debug/_ext/281930714/osal_freertos.o
 .text.OSAL_Initialize
                0x0000000000000000        0x4 build/sam_e70_xult_freertos/debug/_ext/281930714/osal_freertos.o
 .text          0x0000000000000000        0x0 build/sam_e70_xult_freertos/debug/_ext/1360937237/app_commands.o
 .data          0x0000000000000000        0x0 build/sam_e70_xult_freertos/debug/_ext/1360937237/app_commands.o
 .bss           0x0000000000000000        0x0 build/sam_e70_xult_freertos/debug/_ext/1360937237/app_commands.o
 .text          0x0000000000000000        0x0 build/sam_e70_xult_freertos/debug/_ext/1360937237/app.o
 .data          0x0000000000000000        0x0 build/sam_e70_xult_freertos/debug/_ext/1360937237/app.o
 .bss           0x0000000000000000        0x0 build/sam_e70_xult_freertos/debug/_ext/1360937237/app.o
 .text          0x0000000000000000        0x0 build/sam_e70_xult_freertos/debug/_ext/1360937237/main.o
 .data          0x0000000000000000        0x0 build/sam_e70_xult_freertos/debug/_ext/1360937237/main.o
 .bss           0x0000000000000000        0x0 build/sam_e70_xult_freertos/debug/_ext/1360937237/main.o
 .text          0x0000000000000000        0x0 /Applications/microchip/xc32/v2.15/bin/bin/../../lib/gcc/pic32c/6.2.1/../../../../pic32c/lib/v7e-m/fpv5/hard/libpic32c.a(data_init.o)
 .data          0x0000000000000000        0x0 /Applications/microchip/xc32/v2.15/bin/bin/../../lib/gcc/pic32c/6.2.1/../../../../pic32c/lib/v7e-m/fpv5/hard/libpic32c.a(data_init.o)
 .bss           0x0000000000000000        0x0 /Applications/microchip/xc32/v2.15/bin/bin/../../lib/gcc/pic32c/6.2.1/../../../../pic32c/lib/v7e-m/fpv5/hard/libpic32c.a(data_init.o)
 .data          0x0000000000000000        0x0 /Applications/microchip/xc32/v2.15/bin/bin/../../lib/gcc/pic32c/6.2.1/v7e-m/fpv5/hard/libgcc.a(_aeabi_uldivmod.o)
 .bss           0x0000000000000000        0x0 /Applications/microchip/xc32/v2.15/bin/bin/../../lib/gcc/pic32c/6.2.1/v7e-m/fpv5/hard/libgcc.a(_aeabi_uldivmod.o)
 .data          0x0000000000000000        0x0 /Applications/microchip/xc32/v2.15/bin/bin/../../lib/gcc/pic32c/6.2.1/v7e-m/fpv5/hard/libgcc.a(_udivmoddi4.o)
 .bss           0x0000000000000000        0x0 /Applications/microchip/xc32/v2.15/bin/bin/../../lib/gcc/pic32c/6.2.1/v7e-m/fpv5/hard/libgcc.a(_udivmoddi4.o)
 .ARM.extab     0x0000000000000000        0x0 /Applications/microchip/xc32/v2.15/bin/bin/../../lib/gcc/pic32c/6.2.1/v7e-m/fpv5/hard/libgcc.a(_udivmoddi4.o)
 .data          0x0000000000000000        0x0 /Applications/microchip/xc32/v2.15/bin/bin/../../lib/gcc/pic32c/6.2.1/v7e-m/fpv5/hard/libgcc.a(_dvmd_tls.o)
 .bss           0x0000000000000000        0x0 /Applications/microchip/xc32/v2.15/bin/bin/../../lib/gcc/pic32c/6.2.1/v7e-m/fpv5/hard/libgcc.a(_dvmd_tls.o)
 .text          0x0000000000000000        0x0 /Applications/microchip/xc32/v2.15/bin/bin/../../lib/gcc/pic32c/6.2.1/../../../../pic32c/lib/v7e-m/fpv5/hard/libg.a(lib_a-atoi.o)
 .data          0x0000000000000000        0x0 /Applications/microchip/xc32/v2.15/bin/bin/../../lib/gcc/pic32c/6.2.1/../../../../pic32c/lib/v7e-m/fpv5/hard/libg.a(lib_a-atoi.o)
 .bss           0x0000000000000000        0x0 /Applications/microchip/xc32/v2.15/bin/bin/../../lib/gcc/pic32c/6.2.1/../../../../pic32c/lib/v7e-m/fpv5/hard/libg.a(lib_a-atoi.o)
 .text._atoi_r  0x0000000000000000        0x8 /Applications/microchip/xc32/v2.15/bin/bin/../../lib/gcc/pic32c/6.2.1/../../../../pic32c/lib/v7e-m/fpv5/hard/libg.a(lib_a-atoi.o)
 .text          0x0000000000000000        0x0 /Applications/microchip/xc32/v2.15/bin/bin/../../lib/gcc/pic32c/6.2.1/../../../../pic32c/lib/v7e-m/fpv5/hard/libg.a(lib_a-calloc.o)
 .data          0x0000000000000000        0x0 /Applications/microchip/xc32/v2.15/bin/bin/../../lib/gcc/pic32c/6.2.1/../../../../pic32c/lib/v7e-m/fpv5/hard/libg.a(lib_a-calloc.o)
 .bss           0x0000000000000000        0x0 /Applications/microchip/xc32/v2.15/bin/bin/../../lib/gcc/pic32c/6.2.1/../../../../pic32c/lib/v7e-m/fpv5/hard/libg.a(lib_a-calloc.o)
 .text          0x0000000000000000        0x0 /Applications/microchip/xc32/v2.15/bin/bin/../../lib/gcc/pic32c/6.2.1/../../../../pic32c/lib/v7e-m/fpv5/hard/libg.a(lib_a-callocr.o)
 .data          0x0000000000000000        0x0 /Applications/microchip/xc32/v2.15/bin/bin/../../lib/gcc/pic32c/6.2.1/../../../../pic32c/lib/v7e-m/fpv5/hard/libg.a(lib_a-callocr.o)
 .bss           0x0000000000000000        0x0 /Applications/microchip/xc32/v2.15/bin/bin/../../lib/gcc/pic32c/6.2.1/../../../../pic32c/lib/v7e-m/fpv5/hard/libg.a(lib_a-callocr.o)
 .text          0x0000000000000000        0x0 /Applications/microchip/xc32/v2.15/bin/bin/../../lib/gcc/pic32c/6.2.1/../../../../pic32c/lib/v7e-m/fpv5/hard/libg.a(lib_a-exit.o)
 .data          0x0000000000000000        0x0 /Applications/microchip/xc32/v2.15/bin/bin/../../lib/gcc/pic32c/6.2.1/../../../../pic32c/lib/v7e-m/fpv5/hard/libg.a(lib_a-exit.o)
 .bss           0x0000000000000000        0x0 /Applications/microchip/xc32/v2.15/bin/bin/../../lib/gcc/pic32c/6.2.1/../../../../pic32c/lib/v7e-m/fpv5/hard/libg.a(lib_a-exit.o)
 .text.exit     0x0000000000000000       0x20 /Applications/microchip/xc32/v2.15/bin/bin/../../lib/gcc/pic32c/6.2.1/../../../../pic32c/lib/v7e-m/fpv5/hard/libg.a(lib_a-exit.o)
 .debug_frame   0x0000000000000000       0x28 /Applications/microchip/xc32/v2.15/bin/bin/../../lib/gcc/pic32c/6.2.1/../../../../pic32c/lib/v7e-m/fpv5/hard/libg.a(lib_a-exit.o)
 .ARM.attributes
                0x0000000000000000       0x32 /Applications/microchip/xc32/v2.15/bin/bin/../../lib/gcc/pic32c/6.2.1/../../../../pic32c/lib/v7e-m/fpv5/hard/libg.a(lib_a-exit.o)
 .text          0x0000000000000000        0x0 /Applications/microchip/xc32/v2.15/bin/bin/../../lib/gcc/pic32c/6.2.1/../../../../pic32c/lib/v7e-m/fpv5/hard/libg.a(lib_a-impure.o)
 .data          0x0000000000000000        0x0 /Applications/microchip/xc32/v2.15/bin/bin/../../lib/gcc/pic32c/6.2.1/../../../../pic32c/lib/v7e-m/fpv5/hard/libg.a(lib_a-impure.o)
 .bss           0x0000000000000000        0x0 /Applications/microchip/xc32/v2.15/bin/bin/../../lib/gcc/pic32c/6.2.1/../../../../pic32c/lib/v7e-m/fpv5/hard/libg.a(lib_a-impure.o)
 .text          0x0000000000000000        0x0 /Applications/microchip/xc32/v2.15/bin/bin/../../lib/gcc/pic32c/6.2.1/../../../../pic32c/lib/v7e-m/fpv5/hard/libg.a(lib_a-init.o)
 .data          0x0000000000000000        0x0 /Applications/microchip/xc32/v2.15/bin/bin/../../lib/gcc/pic32c/6.2.1/../../../../pic32c/lib/v7e-m/fpv5/hard/libg.a(lib_a-init.o)
 .bss           0x0000000000000000        0x0 /Applications/microchip/xc32/v2.15/bin/bin/../../lib/gcc/pic32c/6.2.1/../../../../pic32c/lib/v7e-m/fpv5/hard/libg.a(lib_a-init.o)
 .text          0x0000000000000000        0x0 /Applications/microchip/xc32/v2.15/bin/bin/../../lib/gcc/pic32c/6.2.1/../../../../pic32c/lib/v7e-m/fpv5/hard/libg.a(lib_a-locale.o)
 .data          0x0000000000000000        0x0 /Applications/microchip/xc32/v2.15/bin/bin/../../lib/gcc/pic32c/6.2.1/../../../../pic32c/lib/v7e-m/fpv5/hard/libg.a(lib_a-locale.o)
 .bss           0x0000000000000000        0x0 /Applications/microchip/xc32/v2.15/bin/bin/../../lib/gcc/pic32c/6.2.1/../../../../pic32c/lib/v7e-m/fpv5/hard/libg.a(lib_a-locale.o)
 .text._setlocale_r
                0x0000000000000000       0x40 /Applications/microchip/xc32/v2.15/bin/bin/../../lib/gcc/pic32c/6.2.1/../../../../pic32c/lib/v7e-m/fpv5/hard/libg.a(lib_a-locale.o)
 .text.__locale_mb_cur_max
                0x0000000000000000       0x1c /Applications/microchip/xc32/v2.15/bin/bin/../../lib/gcc/pic32c/6.2.1/../../../../pic32c/lib/v7e-m/fpv5/hard/libg.a(lib_a-locale.o)
 .text.setlocale
                0x0000000000000000       0x10 /Applications/microchip/xc32/v2.15/bin/bin/../../lib/gcc/pic32c/6.2.1/../../../../pic32c/lib/v7e-m/fpv5/hard/libg.a(lib_a-locale.o)
 .bss._PathLocale
                0x0000000000000000        0x4 /Applications/microchip/xc32/v2.15/bin/bin/../../lib/gcc/pic32c/6.2.1/../../../../pic32c/lib/v7e-m/fpv5/hard/libg.a(lib_a-locale.o)
 .text          0x0000000000000000        0x0 /Applications/microchip/xc32/v2.15/bin/bin/../../lib/gcc/pic32c/6.2.1/../../../../pic32c/lib/v7e-m/fpv5/hard/libg.a(lib_a-malloc.o)
 .data          0x0000000000000000        0x0 /Applications/microchip/xc32/v2.15/bin/bin/../../lib/gcc/pic32c/6.2.1/../../../../pic32c/lib/v7e-m/fpv5/hard/libg.a(lib_a-malloc.o)
 .bss           0x0000000000000000        0x0 /Applications/microchip/xc32/v2.15/bin/bin/../../lib/gcc/pic32c/6.2.1/../../../../pic32c/lib/v7e-m/fpv5/hard/libg.a(lib_a-malloc.o)
 .text          0x0000000000000000        0x0 /Applications/microchip/xc32/v2.15/bin/bin/../../lib/gcc/pic32c/6.2.1/../../../../pic32c/lib/v7e-m/fpv5/hard/libg.a(lib_a-mallocr.o)
 .data          0x0000000000000000        0x0 /Applications/microchip/xc32/v2.15/bin/bin/../../lib/gcc/pic32c/6.2.1/../../../../pic32c/lib/v7e-m/fpv5/hard/libg.a(lib_a-mallocr.o)
 .bss           0x0000000000000000        0x0 /Applications/microchip/xc32/v2.15/bin/bin/../../lib/gcc/pic32c/6.2.1/../../../../pic32c/lib/v7e-m/fpv5/hard/libg.a(lib_a-mallocr.o)
 .text          0x0000000000000000        0x0 /Applications/microchip/xc32/v2.15/bin/bin/../../lib/gcc/pic32c/6.2.1/../../../../pic32c/lib/v7e-m/fpv5/hard/libg.a(lib_a-mbtowc_r.o)
 .data          0x0000000000000000        0x0 /Applications/microchip/xc32/v2.15/bin/bin/../../lib/gcc/pic32c/6.2.1/../../../../pic32c/lib/v7e-m/fpv5/hard/libg.a(lib_a-mbtowc_r.o)
 .bss           0x0000000000000000        0x0 /Applications/microchip/xc32/v2.15/bin/bin/../../lib/gcc/pic32c/6.2.1/../../../../pic32c/lib/v7e-m/fpv5/hard/libg.a(lib_a-mbtowc_r.o)
 .text._mbtowc_r
                0x0000000000000000       0x24 /Applications/microchip/xc32/v2.15/bin/bin/../../lib/gcc/pic32c/6.2.1/../../../../pic32c/lib/v7e-m/fpv5/hard/libg.a(lib_a-mbtowc_r.o)
 .text          0x0000000000000000        0x0 /Applications/microchip/xc32/v2.15/bin/bin/../../lib/gcc/pic32c/6.2.1/../../../../pic32c/lib/v7e-m/fpv5/hard/libg.a(lib_a-memcmp.o)
 .data          0x0000000000000000        0x0 /Applications/microchip/xc32/v2.15/bin/bin/../../lib/gcc/pic32c/6.2.1/../../../../pic32c/lib/v7e-m/fpv5/hard/libg.a(lib_a-memcmp.o)
 .bss           0x0000000000000000        0x0 /Applications/microchip/xc32/v2.15/bin/bin/../../lib/gcc/pic32c/6.2.1/../../../../pic32c/lib/v7e-m/fpv5/hard/libg.a(lib_a-memcmp.o)
 .data          0x0000000000000000        0x0 /Applications/microchip/xc32/v2.15/bin/bin/../../lib/gcc/pic32c/6.2.1/../../../../pic32c/lib/v7e-m/fpv5/hard/libg.a(lib_a-memcpy.o)
 .bss           0x0000000000000000        0x0 /Applications/microchip/xc32/v2.15/bin/bin/../../lib/gcc/pic32c/6.2.1/../../../../pic32c/lib/v7e-m/fpv5/hard/libg.a(lib_a-memcpy.o)
 .text          0x0000000000000000        0x0 /Applications/microchip/xc32/v2.15/bin/bin/../../lib/gcc/pic32c/6.2.1/../../../../pic32c/lib/v7e-m/fpv5/hard/libg.a(lib_a-memset.o)
 .data          0x0000000000000000        0x0 /Applications/microchip/xc32/v2.15/bin/bin/../../lib/gcc/pic32c/6.2.1/../../../../pic32c/lib/v7e-m/fpv5/hard/libg.a(lib_a-memset.o)
 .bss           0x0000000000000000        0x0 /Applications/microchip/xc32/v2.15/bin/bin/../../lib/gcc/pic32c/6.2.1/../../../../pic32c/lib/v7e-m/fpv5/hard/libg.a(lib_a-memset.o)
 .text          0x0000000000000000        0x0 /Applications/microchip/xc32/v2.15/bin/bin/../../lib/gcc/pic32c/6.2.1/../../../../pic32c/lib/v7e-m/fpv5/hard/libg.a(lib_a-mlock.o)
 .data          0x0000000000000000        0x0 /Applications/microchip/xc32/v2.15/bin/bin/../../lib/gcc/pic32c/6.2.1/../../../../pic32c/lib/v7e-m/fpv5/hard/libg.a(lib_a-mlock.o)
 .bss           0x0000000000000000        0x0 /Applications/microchip/xc32/v2.15/bin/bin/../../lib/gcc/pic32c/6.2.1/../../../../pic32c/lib/v7e-m/fpv5/hard/libg.a(lib_a-mlock.o)
 .text          0x0000000000000000        0x0 /Applications/microchip/xc32/v2.15/bin/bin/../../lib/gcc/pic32c/6.2.1/../../../../pic32c/lib/v7e-m/fpv5/hard/libg.a(lib_a-rand.o)
 .data          0x0000000000000000        0x0 /Applications/microchip/xc32/v2.15/bin/bin/../../lib/gcc/pic32c/6.2.1/../../../../pic32c/lib/v7e-m/fpv5/hard/libg.a(lib_a-rand.o)
 .bss           0x0000000000000000        0x0 /Applications/microchip/xc32/v2.15/bin/bin/../../lib/gcc/pic32c/6.2.1/../../../../pic32c/lib/v7e-m/fpv5/hard/libg.a(lib_a-rand.o)
 .text.srand    0x0000000000000000       0x14 /Applications/microchip/xc32/v2.15/bin/bin/../../lib/gcc/pic32c/6.2.1/../../../../pic32c/lib/v7e-m/fpv5/hard/libg.a(lib_a-rand.o)
 .text          0x0000000000000000        0x0 /Applications/microchip/xc32/v2.15/bin/bin/../../lib/gcc/pic32c/6.2.1/../../../../pic32c/lib/v7e-m/fpv5/hard/libg.a(lib_a-sbrkr.o)
 .data          0x0000000000000000        0x0 /Applications/microchip/xc32/v2.15/bin/bin/../../lib/gcc/pic32c/6.2.1/../../../../pic32c/lib/v7e-m/fpv5/hard/libg.a(lib_a-sbrkr.o)
 .bss           0x0000000000000000        0x0 /Applications/microchip/xc32/v2.15/bin/bin/../../lib/gcc/pic32c/6.2.1/../../../../pic32c/lib/v7e-m/fpv5/hard/libg.a(lib_a-sbrkr.o)
 .text          0x0000000000000000        0x0 /Applications/microchip/xc32/v2.15/bin/bin/../../lib/gcc/pic32c/6.2.1/../../../../pic32c/lib/v7e-m/fpv5/hard/libg.a(lib_a-snprintf.o)
 .data          0x0000000000000000        0x0 /Applications/microchip/xc32/v2.15/bin/bin/../../lib/gcc/pic32c/6.2.1/../../../../pic32c/lib/v7e-m/fpv5/hard/libg.a(lib_a-snprintf.o)
 .bss           0x0000000000000000        0x0 /Applications/microchip/xc32/v2.15/bin/bin/../../lib/gcc/pic32c/6.2.1/../../../../pic32c/lib/v7e-m/fpv5/hard/libg.a(lib_a-snprintf.o)
 .text._snprintf_r
                0x0000000000000000       0x90 /Applications/microchip/xc32/v2.15/bin/bin/../../lib/gcc/pic32c/6.2.1/../../../../pic32c/lib/v7e-m/fpv5/hard/libg.a(lib_a-snprintf.o)
 .text          0x0000000000000000        0x0 /Applications/microchip/xc32/v2.15/bin/bin/../../lib/gcc/pic32c/6.2.1/../../../../pic32c/lib/v7e-m/fpv5/hard/libg.a(lib_a-sprintf.o)
 .data          0x0000000000000000        0x0 /Applications/microchip/xc32/v2.15/bin/bin/../../lib/gcc/pic32c/6.2.1/../../../../pic32c/lib/v7e-m/fpv5/hard/libg.a(lib_a-sprintf.o)
 .bss           0x0000000000000000        0x0 /Applications/microchip/xc32/v2.15/bin/bin/../../lib/gcc/pic32c/6.2.1/../../../../pic32c/lib/v7e-m/fpv5/hard/libg.a(lib_a-sprintf.o)
 .text._sprintf_r
                0x0000000000000000       0x44 /Applications/microchip/xc32/v2.15/bin/bin/../../lib/gcc/pic32c/6.2.1/../../../../pic32c/lib/v7e-m/fpv5/hard/libg.a(lib_a-sprintf.o)
 .data          0x0000000000000000        0x0 /Applications/microchip/xc32/v2.15/bin/bin/../../lib/gcc/pic32c/6.2.1/../../../../pic32c/lib/v7e-m/fpv5/hard/libg.a(lib_a-strcmp.o)
 .bss           0x0000000000000000        0x0 /Applications/microchip/xc32/v2.15/bin/bin/../../lib/gcc/pic32c/6.2.1/../../../../pic32c/lib/v7e-m/fpv5/hard/libg.a(lib_a-strcmp.o)
 .text          0x0000000000000000        0x0 /Applications/microchip/xc32/v2.15/bin/bin/../../lib/gcc/pic32c/6.2.1/../../../../pic32c/lib/v7e-m/fpv5/hard/libg.a(lib_a-strcpy.o)
 .data          0x0000000000000000        0x0 /Applications/microchip/xc32/v2.15/bin/bin/../../lib/gcc/pic32c/6.2.1/../../../../pic32c/lib/v7e-m/fpv5/hard/libg.a(lib_a-strcpy.o)
 .bss           0x0000000000000000        0x0 /Applications/microchip/xc32/v2.15/bin/bin/../../lib/gcc/pic32c/6.2.1/../../../../pic32c/lib/v7e-m/fpv5/hard/libg.a(lib_a-strcpy.o)
 .data          0x0000000000000000        0x0 /Applications/microchip/xc32/v2.15/bin/bin/../../lib/gcc/pic32c/6.2.1/../../../../pic32c/lib/v7e-m/fpv5/hard/libg.a(lib_a-strlen.o)
 .bss           0x0000000000000000        0x0 /Applications/microchip/xc32/v2.15/bin/bin/../../lib/gcc/pic32c/6.2.1/../../../../pic32c/lib/v7e-m/fpv5/hard/libg.a(lib_a-strlen.o)
 .text          0x0000000000000000        0x0 /Applications/microchip/xc32/v2.15/bin/bin/../../lib/gcc/pic32c/6.2.1/../../../../pic32c/lib/v7e-m/fpv5/hard/libg.a(lib_a-strncat.o)
 .data          0x0000000000000000        0x0 /Applications/microchip/xc32/v2.15/bin/bin/../../lib/gcc/pic32c/6.2.1/../../../../pic32c/lib/v7e-m/fpv5/hard/libg.a(lib_a-strncat.o)
 .bss           0x0000000000000000        0x0 /Applications/microchip/xc32/v2.15/bin/bin/../../lib/gcc/pic32c/6.2.1/../../../../pic32c/lib/v7e-m/fpv5/hard/libg.a(lib_a-strncat.o)
 .text          0x0000000000000000        0x0 /Applications/microchip/xc32/v2.15/bin/bin/../../lib/gcc/pic32c/6.2.1/../../../../pic32c/lib/v7e-m/fpv5/hard/libg.a(lib_a-strncpy.o)
 .data          0x0000000000000000        0x0 /Applications/microchip/xc32/v2.15/bin/bin/../../lib/gcc/pic32c/6.2.1/../../../../pic32c/lib/v7e-m/fpv5/hard/libg.a(lib_a-strncpy.o)
 .bss           0x0000000000000000        0x0 /Applications/microchip/xc32/v2.15/bin/bin/../../lib/gcc/pic32c/6.2.1/../../../../pic32c/lib/v7e-m/fpv5/hard/libg.a(lib_a-strncpy.o)
 .text          0x0000000000000000        0x0 /Applications/microchip/xc32/v2.15/bin/bin/../../lib/gcc/pic32c/6.2.1/../../../../pic32c/lib/v7e-m/fpv5/hard/libg.a(lib_a-strstr.o)
 .data          0x0000000000000000        0x0 /Applications/microchip/xc32/v2.15/bin/bin/../../lib/gcc/pic32c/6.2.1/../../../../pic32c/lib/v7e-m/fpv5/hard/libg.a(lib_a-strstr.o)
 .bss           0x0000000000000000        0x0 /Applications/microchip/xc32/v2.15/bin/bin/../../lib/gcc/pic32c/6.2.1/../../../../pic32c/lib/v7e-m/fpv5/hard/libg.a(lib_a-strstr.o)
 .text          0x0000000000000000        0x0 /Applications/microchip/xc32/v2.15/bin/bin/../../lib/gcc/pic32c/6.2.1/../../../../pic32c/lib/v7e-m/fpv5/hard/libg.a(lib_a-strtok.o)
 .data          0x0000000000000000        0x0 /Applications/microchip/xc32/v2.15/bin/bin/../../lib/gcc/pic32c/6.2.1/../../../../pic32c/lib/v7e-m/fpv5/hard/libg.a(lib_a-strtok.o)
 .bss           0x0000000000000000        0x0 /Applications/microchip/xc32/v2.15/bin/bin/../../lib/gcc/pic32c/6.2.1/../../../../pic32c/lib/v7e-m/fpv5/hard/libg.a(lib_a-strtok.o)
 .text          0x0000000000000000        0x0 /Applications/microchip/xc32/v2.15/bin/bin/../../lib/gcc/pic32c/6.2.1/../../../../pic32c/lib/v7e-m/fpv5/hard/libg.a(lib_a-strtok_r.o)
 .data          0x0000000000000000        0x0 /Applications/microchip/xc32/v2.15/bin/bin/../../lib/gcc/pic32c/6.2.1/../../../../pic32c/lib/v7e-m/fpv5/hard/libg.a(lib_a-strtok_r.o)
 .bss           0x0000000000000000        0x0 /Applications/microchip/xc32/v2.15/bin/bin/../../lib/gcc/pic32c/6.2.1/../../../../pic32c/lib/v7e-m/fpv5/hard/libg.a(lib_a-strtok_r.o)
 .text.strtok_r
                0x0000000000000000        0x8 /Applications/microchip/xc32/v2.15/bin/bin/../../lib/gcc/pic32c/6.2.1/../../../../pic32c/lib/v7e-m/fpv5/hard/libg.a(lib_a-strtok_r.o)
 .text          0x0000000000000000        0x0 /Applications/microchip/xc32/v2.15/bin/bin/../../lib/gcc/pic32c/6.2.1/../../../../pic32c/lib/v7e-m/fpv5/hard/libg.a(lib_a-strtol.o)
 .data          0x0000000000000000        0x0 /Applications/microchip/xc32/v2.15/bin/bin/../../lib/gcc/pic32c/6.2.1/../../../../pic32c/lib/v7e-m/fpv5/hard/libg.a(lib_a-strtol.o)
 .bss           0x0000000000000000        0x0 /Applications/microchip/xc32/v2.15/bin/bin/../../lib/gcc/pic32c/6.2.1/../../../../pic32c/lib/v7e-m/fpv5/hard/libg.a(lib_a-strtol.o)
 .text._strtol_r
                0x0000000000000000       0x24 /Applications/microchip/xc32/v2.15/bin/bin/../../lib/gcc/pic32c/6.2.1/../../../../pic32c/lib/v7e-m/fpv5/hard/libg.a(lib_a-strtol.o)
 .text.strtol_l
                0x0000000000000000       0x20 /Applications/microchip/xc32/v2.15/bin/bin/../../lib/gcc/pic32c/6.2.1/../../../../pic32c/lib/v7e-m/fpv5/hard/libg.a(lib_a-strtol.o)
 .text          0x0000000000000000        0x0 /Applications/microchip/xc32/v2.15/bin/bin/../../lib/gcc/pic32c/6.2.1/../../../../pic32c/lib/v7e-m/fpv5/hard/libg.a(lib_a-svfprintf.o)
 .data          0x0000000000000000        0x0 /Applications/microchip/xc32/v2.15/bin/bin/../../lib/gcc/pic32c/6.2.1/../../../../pic32c/lib/v7e-m/fpv5/hard/libg.a(lib_a-svfprintf.o)
 .bss           0x0000000000000000        0x0 /Applications/microchip/xc32/v2.15/bin/bin/../../lib/gcc/pic32c/6.2.1/../../../../pic32c/lib/v7e-m/fpv5/hard/libg.a(lib_a-svfprintf.o)
 .text          0x0000000000000000        0x0 /Applications/microchip/xc32/v2.15/bin/bin/../../lib/gcc/pic32c/6.2.1/../../../../pic32c/lib/v7e-m/fpv5/hard/libg.a(lib_a-vsnprintf.o)
 .data          0x0000000000000000        0x0 /Applications/microchip/xc32/v2.15/bin/bin/../../lib/gcc/pic32c/6.2.1/../../../../pic32c/lib/v7e-m/fpv5/hard/libg.a(lib_a-vsnprintf.o)
 .bss           0x0000000000000000        0x0 /Applications/microchip/xc32/v2.15/bin/bin/../../lib/gcc/pic32c/6.2.1/../../../../pic32c/lib/v7e-m/fpv5/hard/libg.a(lib_a-vsnprintf.o)
 .text          0x0000000000000000        0x0 /Applications/microchip/xc32/v2.15/bin/bin/../../lib/gcc/pic32c/6.2.1/../../../../pic32c/lib/v7e-m/fpv5/hard/libg.a(lib_a-wctomb_r.o)
 .data          0x0000000000000000        0x0 /Applications/microchip/xc32/v2.15/bin/bin/../../lib/gcc/pic32c/6.2.1/../../../../pic32c/lib/v7e-m/fpv5/hard/libg.a(lib_a-wctomb_r.o)
 .bss           0x0000000000000000        0x0 /Applications/microchip/xc32/v2.15/bin/bin/../../lib/gcc/pic32c/6.2.1/../../../../pic32c/lib/v7e-m/fpv5/hard/libg.a(lib_a-wctomb_r.o)
 .text._wctomb_r
                0x0000000000000000       0x24 /Applications/microchip/xc32/v2.15/bin/bin/../../lib/gcc/pic32c/6.2.1/../../../../pic32c/lib/v7e-m/fpv5/hard/libg.a(lib_a-wctomb_r.o)
 .text          0x0000000000000000        0x0 /Applications/microchip/xc32/v2.15/bin/bin/../../lib/gcc/pic32c/6.2.1/../../../../pic32c/lib/v7e-m/fpv5/hard/libg.a(lib_a-__call_atexit.o)
 .data          0x0000000000000000        0x0 /Applications/microchip/xc32/v2.15/bin/bin/../../lib/gcc/pic32c/6.2.1/../../../../pic32c/lib/v7e-m/fpv5/hard/libg.a(lib_a-__call_atexit.o)
 .bss           0x0000000000000000        0x0 /Applications/microchip/xc32/v2.15/bin/bin/../../lib/gcc/pic32c/6.2.1/../../../../pic32c/lib/v7e-m/fpv5/hard/libg.a(lib_a-__call_atexit.o)
 .text.__call_exitprocs
                0x0000000000000000       0xd4 /Applications/microchip/xc32/v2.15/bin/bin/../../lib/gcc/pic32c/6.2.1/../../../../pic32c/lib/v7e-m/fpv5/hard/libg.a(lib_a-__call_atexit.o)
 .text          0x0000000000000000        0x0 /Applications/microchip/xc32/v2.15/bin/bin/../../lib/gcc/pic32c/6.2.1/../../../../pic32c/lib/v7e-m/fpv5/hard/libg.a(lib_a-atexit.o)
 .data          0x0000000000000000        0x0 /Applications/microchip/xc32/v2.15/bin/bin/../../lib/gcc/pic32c/6.2.1/../../../../pic32c/lib/v7e-m/fpv5/hard/libg.a(lib_a-atexit.o)
 .bss           0x0000000000000000        0x0 /Applications/microchip/xc32/v2.15/bin/bin/../../lib/gcc/pic32c/6.2.1/../../../../pic32c/lib/v7e-m/fpv5/hard/libg.a(lib_a-atexit.o)
 .text          0x0000000000000000        0x0 /Applications/microchip/xc32/v2.15/bin/bin/../../lib/gcc/pic32c/6.2.1/../../../../pic32c/lib/v7e-m/fpv5/hard/libg.a(lib_a-ctype_.o)
 .data          0x0000000000000000        0x0 /Applications/microchip/xc32/v2.15/bin/bin/../../lib/gcc/pic32c/6.2.1/../../../../pic32c/lib/v7e-m/fpv5/hard/libg.a(lib_a-ctype_.o)
 .bss           0x0000000000000000        0x0 /Applications/microchip/xc32/v2.15/bin/bin/../../lib/gcc/pic32c/6.2.1/../../../../pic32c/lib/v7e-m/fpv5/hard/libg.a(lib_a-ctype_.o)
 .text          0x0000000000000000        0x0 /Applications/microchip/xc32/v2.15/bin/bin/../../lib/gcc/pic32c/6.2.1/../../../../pic32c/lib/v7e-m/fpv5/hard/libg.a(lib_a-dtoa.o)
 .data          0x0000000000000000        0x0 /Applications/microchip/xc32/v2.15/bin/bin/../../lib/gcc/pic32c/6.2.1/../../../../pic32c/lib/v7e-m/fpv5/hard/libg.a(lib_a-dtoa.o)
 .bss           0x0000000000000000        0x0 /Applications/microchip/xc32/v2.15/bin/bin/../../lib/gcc/pic32c/6.2.1/../../../../pic32c/lib/v7e-m/fpv5/hard/libg.a(lib_a-dtoa.o)
 .text          0x0000000000000000        0x0 /Applications/microchip/xc32/v2.15/bin/bin/../../lib/gcc/pic32c/6.2.1/../../../../pic32c/lib/v7e-m/fpv5/hard/libg.a(lib_a-fini.o)
 .data          0x0000000000000000        0x0 /Applications/microchip/xc32/v2.15/bin/bin/../../lib/gcc/pic32c/6.2.1/../../../../pic32c/lib/v7e-m/fpv5/hard/libg.a(lib_a-fini.o)
 .bss           0x0000000000000000        0x0 /Applications/microchip/xc32/v2.15/bin/bin/../../lib/gcc/pic32c/6.2.1/../../../../pic32c/lib/v7e-m/fpv5/hard/libg.a(lib_a-fini.o)
 .text          0x0000000000000000        0x0 /Applications/microchip/xc32/v2.15/bin/bin/../../lib/gcc/pic32c/6.2.1/../../../../pic32c/lib/v7e-m/fpv5/hard/libg.a(lib_a-freer.o)
 .data          0x0000000000000000        0x0 /Applications/microchip/xc32/v2.15/bin/bin/../../lib/gcc/pic32c/6.2.1/../../../../pic32c/lib/v7e-m/fpv5/hard/libg.a(lib_a-freer.o)
 .bss           0x0000000000000000        0x0 /Applications/microchip/xc32/v2.15/bin/bin/../../lib/gcc/pic32c/6.2.1/../../../../pic32c/lib/v7e-m/fpv5/hard/libg.a(lib_a-freer.o)
 .text          0x0000000000000000        0x0 /Applications/microchip/xc32/v2.15/bin/bin/../../lib/gcc/pic32c/6.2.1/../../../../pic32c/lib/v7e-m/fpv5/hard/libg.a(lib_a-localeconv.o)
 .data          0x0000000000000000        0x0 /Applications/microchip/xc32/v2.15/bin/bin/../../lib/gcc/pic32c/6.2.1/../../../../pic32c/lib/v7e-m/fpv5/hard/libg.a(lib_a-localeconv.o)
 .bss           0x0000000000000000        0x0 /Applications/microchip/xc32/v2.15/bin/bin/../../lib/gcc/pic32c/6.2.1/../../../../pic32c/lib/v7e-m/fpv5/hard/libg.a(lib_a-localeconv.o)
 .text.__localeconv_l
                0x0000000000000000        0x4 /Applications/microchip/xc32/v2.15/bin/bin/../../lib/gcc/pic32c/6.2.1/../../../../pic32c/lib/v7e-m/fpv5/hard/libg.a(lib_a-localeconv.o)
 .text.localeconv
                0x0000000000000000       0x1c /Applications/microchip/xc32/v2.15/bin/bin/../../lib/gcc/pic32c/6.2.1/../../../../pic32c/lib/v7e-m/fpv5/hard/libg.a(lib_a-localeconv.o)
 .data          0x0000000000000000        0x0 /Applications/microchip/xc32/v2.15/bin/bin/../../lib/gcc/pic32c/6.2.1/../../../../pic32c/lib/v7e-m/fpv5/hard/libg.a(lib_a-memchr.o)
 .bss           0x0000000000000000        0x0 /Applications/microchip/xc32/v2.15/bin/bin/../../lib/gcc/pic32c/6.2.1/../../../../pic32c/lib/v7e-m/fpv5/hard/libg.a(lib_a-memchr.o)
 .text          0x0000000000000000        0x0 /Applications/microchip/xc32/v2.15/bin/bin/../../lib/gcc/pic32c/6.2.1/../../../../pic32c/lib/v7e-m/fpv5/hard/libg.a(lib_a-mprec.o)
 .data          0x0000000000000000        0x0 /Applications/microchip/xc32/v2.15/bin/bin/../../lib/gcc/pic32c/6.2.1/../../../../pic32c/lib/v7e-m/fpv5/hard/libg.a(lib_a-mprec.o)
 .bss           0x0000000000000000        0x0 /Applications/microchip/xc32/v2.15/bin/bin/../../lib/gcc/pic32c/6.2.1/../../../../pic32c/lib/v7e-m/fpv5/hard/libg.a(lib_a-mprec.o)
 .text.__s2b    0x0000000000000000       0x9c /Applications/microchip/xc32/v2.15/bin/bin/../../lib/gcc/pic32c/6.2.1/../../../../pic32c/lib/v7e-m/fpv5/hard/libg.a(lib_a-mprec.o)
 .text.__ulp    0x0000000000000000       0x54 /Applications/microchip/xc32/v2.15/bin/bin/../../lib/gcc/pic32c/6.2.1/../../../../pic32c/lib/v7e-m/fpv5/hard/libg.a(lib_a-mprec.o)
 .text.__b2d    0x0000000000000000       0xc4 /Applications/microchip/xc32/v2.15/bin/bin/../../lib/gcc/pic32c/6.2.1/../../../../pic32c/lib/v7e-m/fpv5/hard/libg.a(lib_a-mprec.o)
 .text.__ratio  0x0000000000000000       0x60 /Applications/microchip/xc32/v2.15/bin/bin/../../lib/gcc/pic32c/6.2.1/../../../../pic32c/lib/v7e-m/fpv5/hard/libg.a(lib_a-mprec.o)
 .text._mprec_log10
                0x0000000000000000       0x28 /Applications/microchip/xc32/v2.15/bin/bin/../../lib/gcc/pic32c/6.2.1/../../../../pic32c/lib/v7e-m/fpv5/hard/libg.a(lib_a-mprec.o)
 .text.__copybits
                0x0000000000000000       0x48 /Applications/microchip/xc32/v2.15/bin/bin/../../lib/gcc/pic32c/6.2.1/../../../../pic32c/lib/v7e-m/fpv5/hard/libg.a(lib_a-mprec.o)
 .text.__any_on
                0x0000000000000000       0x60 /Applications/microchip/xc32/v2.15/bin/bin/../../lib/gcc/pic32c/6.2.1/../../../../pic32c/lib/v7e-m/fpv5/hard/libg.a(lib_a-mprec.o)
 .rodata.__mprec_tinytens
                0x0000000000000000       0x28 /Applications/microchip/xc32/v2.15/bin/bin/../../lib/gcc/pic32c/6.2.1/../../../../pic32c/lib/v7e-m/fpv5/hard/libg.a(lib_a-mprec.o)
 .text          0x0000000000000000        0x0 /Applications/microchip/xc32/v2.15/bin/bin/../../lib/gcc/pic32c/6.2.1/../../../../pic32c/lib/v7e-m/fpv5/hard/libg.a(lib_a-reent.o)
 .data          0x0000000000000000        0x0 /Applications/microchip/xc32/v2.15/bin/bin/../../lib/gcc/pic32c/6.2.1/../../../../pic32c/lib/v7e-m/fpv5/hard/libg.a(lib_a-reent.o)
 .bss           0x0000000000000000        0x0 /Applications/microchip/xc32/v2.15/bin/bin/../../lib/gcc/pic32c/6.2.1/../../../../pic32c/lib/v7e-m/fpv5/hard/libg.a(lib_a-reent.o)
 .text.cleanup_glue
                0x0000000000000000       0x1c /Applications/microchip/xc32/v2.15/bin/bin/../../lib/gcc/pic32c/6.2.1/../../../../pic32c/lib/v7e-m/fpv5/hard/libg.a(lib_a-reent.o)
 .text._reclaim_reent
                0x0000000000000000       0x88 /Applications/microchip/xc32/v2.15/bin/bin/../../lib/gcc/pic32c/6.2.1/../../../../pic32c/lib/v7e-m/fpv5/hard/libg.a(lib_a-reent.o)
 .text          0x0000000000000000        0x0 /Applications/microchip/xc32/v2.15/bin/bin/../../lib/gcc/pic32c/6.2.1/../../../../pic32c/lib/v7e-m/fpv5/hard/libg.a(lib_a-s_frexp.o)
 .data          0x0000000000000000        0x0 /Applications/microchip/xc32/v2.15/bin/bin/../../lib/gcc/pic32c/6.2.1/../../../../pic32c/lib/v7e-m/fpv5/hard/libg.a(lib_a-s_frexp.o)
 .bss           0x0000000000000000        0x0 /Applications/microchip/xc32/v2.15/bin/bin/../../lib/gcc/pic32c/6.2.1/../../../../pic32c/lib/v7e-m/fpv5/hard/libg.a(lib_a-s_frexp.o)
 .text          0x0000000000000000        0x0 /Applications/microchip/xc32/v2.15/bin/bin/../../lib/gcc/pic32c/6.2.1/../../../../pic32c/lib/v7e-m/fpv5/hard/libg.a(lib_a-strchr.o)
 .data          0x0000000000000000        0x0 /Applications/microchip/xc32/v2.15/bin/bin/../../lib/gcc/pic32c/6.2.1/../../../../pic32c/lib/v7e-m/fpv5/hard/libg.a(lib_a-strchr.o)
 .bss           0x0000000000000000        0x0 /Applications/microchip/xc32/v2.15/bin/bin/../../lib/gcc/pic32c/6.2.1/../../../../pic32c/lib/v7e-m/fpv5/hard/libg.a(lib_a-strchr.o)
 .text          0x0000000000000000        0x0 /Applications/microchip/xc32/v2.15/bin/bin/../../lib/gcc/pic32c/6.2.1/../../../../pic32c/lib/v7e-m/fpv5/hard/libg.a(lib_a-svfiprintf.o)
 .data          0x0000000000000000        0x0 /Applications/microchip/xc32/v2.15/bin/bin/../../lib/gcc/pic32c/6.2.1/../../../../pic32c/lib/v7e-m/fpv5/hard/libg.a(lib_a-svfiprintf.o)
 .bss           0x0000000000000000        0x0 /Applications/microchip/xc32/v2.15/bin/bin/../../lib/gcc/pic32c/6.2.1/../../../../pic32c/lib/v7e-m/fpv5/hard/libg.a(lib_a-svfiprintf.o)
 .text._svfiprintf_r
                0x0000000000000000      0xb28 /Applications/microchip/xc32/v2.15/bin/bin/../../lib/gcc/pic32c/6.2.1/../../../../pic32c/lib/v7e-m/fpv5/hard/libg.a(lib_a-svfiprintf.o)
 .rodata        0x0000000000000000       0x30 /Applications/microchip/xc32/v2.15/bin/bin/../../lib/gcc/pic32c/6.2.1/../../../../pic32c/lib/v7e-m/fpv5/hard/libg.a(lib_a-svfiprintf.o)
 .rodata.blanks.8331
                0x0000000000000000       0x10 /Applications/microchip/xc32/v2.15/bin/bin/../../lib/gcc/pic32c/6.2.1/../../../../pic32c/lib/v7e-m/fpv5/hard/libg.a(lib_a-svfiprintf.o)
 .rodata.zeroes.8332
                0x0000000000000000       0x10 /Applications/microchip/xc32/v2.15/bin/bin/../../lib/gcc/pic32c/6.2.1/../../../../pic32c/lib/v7e-m/fpv5/hard/libg.a(lib_a-svfiprintf.o)
 .text          0x0000000000000000        0x0 /Applications/microchip/xc32/v2.15/bin/bin/../../lib/gcc/pic32c/6.2.1/../../../../pic32c/lib/v7e-m/fpv5/hard/libg.a(lib_a-__atexit.o)
 .data          0x0000000000000000        0x0 /Applications/microchip/xc32/v2.15/bin/bin/../../lib/gcc/pic32c/6.2.1/../../../../pic32c/lib/v7e-m/fpv5/hard/libg.a(lib_a-__atexit.o)
 .bss           0x0000000000000000        0x0 /Applications/microchip/xc32/v2.15/bin/bin/../../lib/gcc/pic32c/6.2.1/../../../../pic32c/lib/v7e-m/fpv5/hard/libg.a(lib_a-__atexit.o)
 .text          0x0000000000000000        0x0 /Applications/microchip/xc32/v2.15/bin/bin/../../lib/gcc/pic32c/6.2.1/../../../../pic32c/lib/v7e-m/fpv5/hard/libg.a(lib_a-memmove.o)
 .data          0x0000000000000000        0x0 /Applications/microchip/xc32/v2.15/bin/bin/../../lib/gcc/pic32c/6.2.1/../../../../pic32c/lib/v7e-m/fpv5/hard/libg.a(lib_a-memmove.o)
 .bss           0x0000000000000000        0x0 /Applications/microchip/xc32/v2.15/bin/bin/../../lib/gcc/pic32c/6.2.1/../../../../pic32c/lib/v7e-m/fpv5/hard/libg.a(lib_a-memmove.o)
 .text          0x0000000000000000        0x0 /Applications/microchip/xc32/v2.15/bin/bin/../../lib/gcc/pic32c/6.2.1/../../../../pic32c/lib/v7e-m/fpv5/hard/libg.a(lib_a-reallocr.o)
 .data          0x0000000000000000        0x0 /Applications/microchip/xc32/v2.15/bin/bin/../../lib/gcc/pic32c/6.2.1/../../../../pic32c/lib/v7e-m/fpv5/hard/libg.a(lib_a-reallocr.o)
 .bss           0x0000000000000000        0x0 /Applications/microchip/xc32/v2.15/bin/bin/../../lib/gcc/pic32c/6.2.1/../../../../pic32c/lib/v7e-m/fpv5/hard/libg.a(lib_a-reallocr.o)
 .text          0x0000000000000000        0x0 /Applications/microchip/xc32/v2.15/bin/bin/../../lib/gcc/pic32c/6.2.1/../../../../pic32c/lib/v7e-m/fpv5/hard/libpic32c.a(sbrk.o)
 .data          0x0000000000000000        0x0 /Applications/microchip/xc32/v2.15/bin/bin/../../lib/gcc/pic32c/6.2.1/../../../../pic32c/lib/v7e-m/fpv5/hard/libpic32c.a(sbrk.o)
 .text          0x0000000000000000        0x0 /Applications/microchip/xc32/v2.15/bin/bin/../../lib/gcc/pic32c/6.2.1/v7e-m/fpv5/hard/crtend.o
 .data          0x0000000000000000        0x0 /Applications/microchip/xc32/v2.15/bin/bin/../../lib/gcc/pic32c/6.2.1/v7e-m/fpv5/hard/crtend.o
 .bss           0x0000000000000000        0x0 /Applications/microchip/xc32/v2.15/bin/bin/../../lib/gcc/pic32c/6.2.1/v7e-m/fpv5/hard/crtend.o
 .eh_frame      0x0000000000000000        0x4 /Applications/microchip/xc32/v2.15/bin/bin/../../lib/gcc/pic32c/6.2.1/v7e-m/fpv5/hard/crtend.o
 .jcr           0x0000000000000000        0x4 /Applications/microchip/xc32/v2.15/bin/bin/../../lib/gcc/pic32c/6.2.1/v7e-m/fpv5/hard/crtend.o
 .ARM.attributes
                0x0000000000000000       0x32 /Applications/microchip/xc32/v2.15/bin/bin/../../lib/gcc/pic32c/6.2.1/v7e-m/fpv5/hard/crtend.o
 .text          0x0000000000000000        0x0 /Applications/microchip/xc32/v2.15/bin/bin/../../lib/gcc/pic32c/6.2.1/v7e-m/fpv5/hard/crtn.o
 .data          0x0000000000000000        0x0 /Applications/microchip/xc32/v2.15/bin/bin/../../lib/gcc/pic32c/6.2.1/v7e-m/fpv5/hard/crtn.o
 .bss           0x0000000000000000        0x0 /Applications/microchip/xc32/v2.15/bin/bin/../../lib/gcc/pic32c/6.2.1/v7e-m/fpv5/hard/crtn.o

Memory Configuration

Name             Origin             Length             Attributes
rom              0x0000000000400000 0x0000000000200000 xr
ram              0x0000000020400000 0x0000000000060000 xrw
itcm             0x0000000000000000 0x0000000000000000 xrw
dtcm             0x0000000020000000 0x0000000000000000 xrw
*default*        0x0000000000000000 0xffffffffffffffff
tcm              0x0000000000000000 0xffffffffffffffff

Linker script and memory map

LOAD /Applications/microchip/xc32/v2.15/bin/bin/../../lib/gcc/pic32c/6.2.1/v7e-m/fpv5/hard/crti.o
LOAD /Applications/microchip/xc32/v2.15/bin/bin/../../lib/gcc/pic32c/6.2.1/v7e-m/fpv5/hard/crtbegin.o
LOAD /Applications/microchip/xc32/v2.15/bin/bin/../../lib/gcc/pic32c/6.2.1/../../../../pic32c/lib/v7e-m/fpv5/hard/crt0.o
LOAD build/sam_e70_xult_freertos/debug/_ext/683629640/bsp.o
LOAD build/sam_e70_xult_freertos/debug/_ext/1607428259/drv_ethphy.o
LOAD build/sam_e70_xult_freertos/debug/_ext/1607428259/drv_extphy_smsc8740.o
LOAD build/sam_e70_xult_freertos/debug/_ext/1619526243/drv_gmac.o
LOAD build/sam_e70_xult_freertos/debug/_ext/1619526243/drv_gmac_lib_samE7x_V7x.o
LOAD build/sam_e70_xult_freertos/debug/_ext/511568427/drv_miim.o
LOAD build/sam_e70_xult_freertos/debug/_ext/810785262/helpers.o
LOAD build/sam_e70_xult_freertos/debug/_ext/810785262/dns.o
LOAD build/sam_e70_xult_freertos/debug/_ext/810785262/icmp.o
LOAD build/sam_e70_xult_freertos/debug/_ext/810785262/tcp.o
LOAD build/sam_e70_xult_freertos/debug/_ext/810785262/dhcp.o
LOAD build/sam_e70_xult_freertos/debug/_ext/810785262/arp.o
LOAD build/sam_e70_xult_freertos/debug/_ext/810785262/tcpip_commands.o
LOAD build/sam_e70_xult_freertos/debug/_ext/810785262/ipv4.o
LOAD build/sam_e70_xult_freertos/debug/_ext/810785262/tcpip_heap_alloc.o
LOAD build/sam_e70_xult_freertos/debug/_ext/810785262/tcpip_heap_internal.o
LOAD build/sam_e70_xult_freertos/debug/_ext/810785262/hash_fnv.o
LOAD build/sam_e70_xult_freertos/debug/_ext/810785262/oahash.o
LOAD build/sam_e70_xult_freertos/debug/_ext/810785262/tcpip_helpers.o
LOAD build/sam_e70_xult_freertos/debug/_ext/810785262/tcpip_manager.o
LOAD build/sam_e70_xult_freertos/debug/_ext/810785262/tcpip_notify.o
LOAD build/sam_e70_xult_freertos/debug/_ext/810785262/tcpip_packet.o
LOAD build/sam_e70_xult_freertos/debug/_ext/810785262/udp.o
LOAD build/sam_e70_xult_freertos/debug/_ext/45647770/plib_clk.o
LOAD build/sam_e70_xult_freertos/debug/_ext/45638026/plib_mpu.o
LOAD build/sam_e70_xult_freertos/debug/_ext/1414743522/plib_nvic.o
LOAD build/sam_e70_xult_freertos/debug/_ext/45635366/plib_pio.o
LOAD build/sam_e70_xult_freertos/debug/_ext/1245453995/plib_tc0.o
LOAD build/sam_e70_xult_freertos/debug/_ext/901008055/plib_usart1.o
LOAD build/sam_e70_xult_freertos/debug/_ext/146190766/xc32_monitor.o
LOAD build/sam_e70_xult_freertos/debug/_ext/992551865/sys_cache.o
LOAD build/sam_e70_xult_freertos/debug/_ext/762686499/sys_console.o
LOAD build/sam_e70_xult_freertos/debug/_ext/762686499/sys_console_uart.o
LOAD build/sam_e70_xult_freertos/debug/_ext/762686499/sys_debug.o
LOAD build/sam_e70_xult_freertos/debug/_ext/762686499/sys_command.o
LOAD build/sam_e70_xult_freertos/debug/_ext/1775855163/sys_int.o
LOAD build/sam_e70_xult_freertos/debug/_ext/912870411/sys_time.o
LOAD build/sam_e70_xult_freertos/debug/_ext/231871610/sys_time_h2_adapter.o
LOAD build/sam_e70_xult_freertos/debug/_ext/1552905064/tasks.o
LOAD build/sam_e70_xult_freertos/debug/_ext/1552905064/initialization.o
LOAD build/sam_e70_xult_freertos/debug/_ext/1552905064/interrupts.o
LOAD build/sam_e70_xult_freertos/debug/_ext/1552905064/exceptions.o
LOAD build/sam_e70_xult_freertos/debug/_ext/1552905064/startup_xc32.o
LOAD build/sam_e70_xult_freertos/debug/_ext/1552905064/libc_syscalls.o
LOAD build/sam_e70_xult_freertos/debug/_ext/1552905064/freertos_hooks.o
LOAD build/sam_e70_xult_freertos/debug/_ext/977623654/port.o
LOAD build/sam_e70_xult_freertos/debug/_ext/1665200909/heap_3.o
LOAD build/sam_e70_xult_freertos/debug/_ext/404212886/croutine.o
LOAD build/sam_e70_xult_freertos/debug/_ext/404212886/list.o
LOAD build/sam_e70_xult_freertos/debug/_ext/404212886/queue.o
LOAD build/sam_e70_xult_freertos/debug/_ext/404212886/FreeRTOS_tasks.o
LOAD build/sam_e70_xult_freertos/debug/_ext/404212886/timers.o
LOAD build/sam_e70_xult_freertos/debug/_ext/404212886/event_groups.o
LOAD build/sam_e70_xult_freertos/debug/_ext/404212886/stream_buffer.o
LOAD build/sam_e70_xult_freertos/debug/_ext/281930714/osal_freertos.o
LOAD build/sam_e70_xult_freertos/debug/_ext/1360937237/app_commands.o
LOAD build/sam_e70_xult_freertos/debug/_ext/1360937237/app.o
LOAD build/sam_e70_xult_freertos/debug/_ext/1360937237/main.o
                0x0000000000000001                __MPLAB_BUILD = 0x1
                0x0000000000000001                __ICD2RAM = 0x1
                0x0000000000000001                __MPLAB_DEBUG = 0x1
                0x0000000000000001                __DEBUG = 0x1
                0x0000000000017ac0                _min_heap_size = 0x17ac0
START GROUP
LOAD /Applications/microchip/xc32/v2.15/bin/bin/../../lib/gcc/pic32c/6.2.1/../../../../pic32c/lib/v7e-m/fpv5/hard/libpic32c.a
LOAD /Applications/microchip/xc32/v2.15/bin/bin/../../lib/gcc/pic32c/6.2.1/v7e-m/fpv5/hard/libgcc.a
LOAD /Applications/microchip/xc32/v2.15/bin/bin/../../lib/gcc/pic32c/6.2.1/../../../../pic32c/lib/v7e-m/fpv5/hard/libg.a
LOAD /Applications/microchip/xc32/v2.15/bin/bin/../../lib/gcc/pic32c/6.2.1/../../../../pic32c/lib/v7e-m/fpv5/hard/libc.a
LOAD /Applications/microchip/xc32/v2.15/bin/bin/../../lib/gcc/pic32c/6.2.1/../../../../pic32c/lib/v7e-m/fpv5/hard/libm.a
END GROUP
LOAD /Applications/microchip/xc32/v2.15/bin/bin/../../lib/gcc/pic32c/6.2.1/v7e-m/fpv5/hard/crtend.o
LOAD /Applications/microchip/xc32/v2.15/bin/bin/../../lib/gcc/pic32c/6.2.1/v7e-m/fpv5/hard/crtn.o
                0x0000000000600000                __rom_end = (ORIGIN (rom) + LENGTH (rom))
                0x0000000020460000                __ram_end = (ORIGIN (ram) + LENGTH (ram))

.vectors        0x0000000000400000      0x168
                0x0000000000400000                . = ALIGN (0x4)
                0x0000000000400000                _sfixed = .
 *(.vectors .vectors.* .vectors_default .vectors_default.*)
 .vectors       0x0000000000400000      0x168 build/sam_e70_xult_freertos/debug/_ext/1552905064/interrupts.o
                0x0000000000400000                exception_table
 *(.isr_vector)
 *(.reset*)
 *(.after_vectors)

.text           0x0000000000400168       0x24
                0x0000000000400168                . = ALIGN (0x4)
 *(.glue_7t)
 .glue_7t       0x0000000000400168        0x0 linker stubs
 *(.glue_7)
 .glue_7        0x0000000000400168        0x0 linker stubs
 *(.gnu.linkonce.r.*)
 *(.ARM.extab* .gnu.linkonce.armextab.*)
                0x0000000000400168                . = ALIGN (0x4)
 *(.init)
 .init          0x0000000000400168        0x4 /Applications/microchip/xc32/v2.15/bin/bin/../../lib/gcc/pic32c/6.2.1/v7e-m/fpv5/hard/crti.o
                0x0000000000400168                _init
 .init          0x000000000040016c        0x8 /Applications/microchip/xc32/v2.15/bin/bin/../../lib/gcc/pic32c/6.2.1/v7e-m/fpv5/hard/crtn.o
                0x0000000000400174                . = ALIGN (0x4)
                0x0000000000400174                __preinit_array_start = .
 *(.preinit_array)
                0x0000000000400174                __preinit_array_end = .
                0x0000000000400174                . = ALIGN (0x4)
                0x0000000000400174                __init_array_start = .
 *(SORT(.init_array.*))
 .init_array.00000
                0x0000000000400174        0x4 /Applications/microchip/xc32/v2.15/bin/bin/../../lib/gcc/pic32c/6.2.1/../../../../pic32c/lib/v7e-m/fpv5/hard/libg.a(lib_a-__call_atexit.o)
 *(.init_array)
 .init_array    0x0000000000400178        0x4 /Applications/microchip/xc32/v2.15/bin/bin/../../lib/gcc/pic32c/6.2.1/v7e-m/fpv5/hard/crtbegin.o
                0x000000000040017c                __init_array_end = .
                0x000000000040017c                . = ALIGN (0x4)
 *crtbegin.o(.ctors)
 *(EXCLUDE_FILE(*crtend.o) .ctors)
 *(SORT(.ctors.*))
 *crtend.o(.ctors)
                0x000000000040017c                . = ALIGN (0x4)
 *(.fini)
 .fini          0x000000000040017c        0x4 /Applications/microchip/xc32/v2.15/bin/bin/../../lib/gcc/pic32c/6.2.1/v7e-m/fpv5/hard/crti.o
                0x000000000040017c                _fini
 .fini          0x0000000000400180        0x8 /Applications/microchip/xc32/v2.15/bin/bin/../../lib/gcc/pic32c/6.2.1/v7e-m/fpv5/hard/crtn.o
                0x0000000000400188                . = ALIGN (0x4)
                0x0000000000400188                __fini_array_start = .
 *(.fini_array)
 .fini_array    0x0000000000400188        0x4 /Applications/microchip/xc32/v2.15/bin/bin/../../lib/gcc/pic32c/6.2.1/v7e-m/fpv5/hard/crtbegin.o
 *(SORT(.fini_array.*))
                0x000000000040018c                __fini_array_end = .
 *crtbegin.o(.dtors)
 *(EXCLUDE_FILE(*crtend.o) .dtors)
 *(SORT(.dtors.*))
 *crtend.o(.dtors)
                0x000000000040018c                . = ALIGN (0x4)
                0x000000000040018c                _efixed = .
                [!provide]                        PROVIDE (__exidx_start, .)

.ARM.exidx      0x000000000040018c        0x8
 *(.ARM.exidx* .gnu.linkonce.armexidx.*)
 .ARM.exidx     0x000000000040018c        0x8 /Applications/microchip/xc32/v2.15/bin/bin/../../lib/gcc/pic32c/6.2.1/v7e-m/fpv5/hard/libgcc.a(_udivmoddi4.o)
                [!provide]                        PROVIDE (__exidx_end, .)
                0x0000000000400194                . = ALIGN (0x4)
                0x0000000000400194                _etext = .

.bss            0x0000000020400000      0x5f0
                0x0000000020400000                . = ALIGN (0x4)
                0x0000000020400000                __bss_start__ = .
                0x0000000020400000                _sbss = .
                0x0000000020400000                _szero = .
 *(COMMON)
 COMMON         0x0000000020400000        0x8 build/sam_e70_xult_freertos/debug/_ext/1245453995/plib_tc0.o
                0x0000000020400000                TC0_CH0_CallbackObj
 COMMON         0x0000000020400008       0x30 build/sam_e70_xult_freertos/debug/_ext/901008055/plib_usart1.o
                0x0000000020400008                usart1Obj
 COMMON         0x0000000020400038        0x9 build/sam_e70_xult_freertos/debug/_ext/762686499/sys_debug.o
                0x0000000020400038                sysDebugInstance
                0x0000000020400040                gblErrLvl
 *fill*         0x0000000020400041        0x3 
 COMMON         0x0000000020400044        0x4 build/sam_e70_xult_freertos/debug/_ext/1552905064/tasks.o
                0x0000000020400044                xAPP_Tasks
 COMMON         0x0000000020400048       0x14 build/sam_e70_xult_freertos/debug/_ext/1552905064/initialization.o
                0x0000000020400048                sysObj
 COMMON         0x000000002040005c       0xff build/sam_e70_xult_freertos/debug/_ext/1360937237/app_commands.o
                0x000000002040005c                APP_URL_Buffer
 *fill*         0x000000002040015b        0x1 
 COMMON         0x000000002040015c      0x490 build/sam_e70_xult_freertos/debug/_ext/1360937237/app.o
                0x000000002040015c                appData
                0x000000002040016c                jsonBuffer
                0x000000002040056c                cityBuffer
 COMMON         0x00000000204005ec        0x4 /Applications/microchip/xc32/v2.15/bin/bin/../../lib/gcc/pic32c/6.2.1/../../../../pic32c/lib/v7e-m/fpv5/hard/libg.a(lib_a-reent.o)
                0x00000000204005ec                errno
                0x00000000204005f0                . = ALIGN (0x4)
                0x00000000204005f0                __bss_end__ = .
                0x00000000204005f0                _ebss = .
                0x00000000204005f0                _ezero = .
                0x00000000204005f0                . = ALIGN (0x4)
                0x00000000204005f0                _end = .
                0x000000002045ffff                _ram_end_ = ((ORIGIN (ram) + LENGTH (ram)) - 0x1)
OUTPUT(dist/sam_e70_xult_freertos/debug/sam_e70_xult_freertos.X.debug.elf elf32-littlearm)
LOAD stack
LOAD data_init

.ARM.attributes
                0x0000000000000000       0x2e
 .ARM.attributes
                0x0000000000000000       0x20 /Applications/microchip/xc32/v2.15/bin/bin/../../lib/gcc/pic32c/6.2.1/v7e-m/fpv5/hard/crti.o
 .ARM.attributes
                0x0000000000000020       0x32 /Applications/microchip/xc32/v2.15/bin/bin/../../lib/gcc/pic32c/6.2.1/v7e-m/fpv5/hard/crtbegin.o
 .ARM.attributes
                0x0000000000000052       0x37 build/sam_e70_xult_freertos/debug/_ext/683629640/bsp.o
 .ARM.attributes
                0x0000000000000089       0x37 build/sam_e70_xult_freertos/debug/_ext/1607428259/drv_ethphy.o
 .ARM.attributes
                0x00000000000000c0       0x37 build/sam_e70_xult_freertos/debug/_ext/1607428259/drv_extphy_smsc8740.o
 .ARM.attributes
                0x00000000000000f7       0x37 build/sam_e70_xult_freertos/debug/_ext/1619526243/drv_gmac.o
 .ARM.attributes
                0x000000000000012e       0x37 build/sam_e70_xult_freertos/debug/_ext/1619526243/drv_gmac_lib_samE7x_V7x.o
 .ARM.attributes
                0x0000000000000165       0x37 build/sam_e70_xult_freertos/debug/_ext/511568427/drv_miim.o
 .ARM.attributes
                0x000000000000019c       0x37 build/sam_e70_xult_freertos/debug/_ext/810785262/helpers.o
 .ARM.attributes
                0x00000000000001d3       0x37 build/sam_e70_xult_freertos/debug/_ext/810785262/dns.o
 .ARM.attributes
                0x000000000000020a       0x37 build/sam_e70_xult_freertos/debug/_ext/810785262/icmp.o
 .ARM.attributes
                0x0000000000000241       0x37 build/sam_e70_xult_freertos/debug/_ext/810785262/tcp.o
 .ARM.attributes
                0x0000000000000278       0x37 build/sam_e70_xult_freertos/debug/_ext/810785262/dhcp.o
 .ARM.attributes
                0x00000000000002af       0x37 build/sam_e70_xult_freertos/debug/_ext/810785262/arp.o
 .ARM.attributes
                0x00000000000002e6       0x37 build/sam_e70_xult_freertos/debug/_ext/810785262/tcpip_commands.o
 .ARM.attributes
                0x000000000000031d       0x37 build/sam_e70_xult_freertos/debug/_ext/810785262/ipv4.o
 .ARM.attributes
                0x0000000000000354       0x37 build/sam_e70_xult_freertos/debug/_ext/810785262/tcpip_heap_alloc.o
 .ARM.attributes
                0x000000000000038b       0x37 build/sam_e70_xult_freertos/debug/_ext/810785262/tcpip_heap_internal.o
 .ARM.attributes
                0x00000000000003c2       0x37 build/sam_e70_xult_freertos/debug/_ext/810785262/hash_fnv.o
 .ARM.attributes
                0x00000000000003f9       0x37 build/sam_e70_xult_freertos/debug/_ext/810785262/oahash.o
 .ARM.attributes
                0x0000000000000430       0x37 build/sam_e70_xult_freertos/debug/_ext/810785262/tcpip_helpers.o
 .ARM.attributes
                0x0000000000000467       0x37 build/sam_e70_xult_freertos/debug/_ext/810785262/tcpip_manager.o
 .ARM.attributes
                0x000000000000049e       0x37 build/sam_e70_xult_freertos/debug/_ext/810785262/tcpip_notify.o
 .ARM.attributes
                0x00000000000004d5       0x37 build/sam_e70_xult_freertos/debug/_ext/810785262/tcpip_packet.o
 .ARM.attributes
                0x000000000000050c       0x37 build/sam_e70_xult_freertos/debug/_ext/810785262/udp.o
 .ARM.attributes
                0x0000000000000543       0x37 build/sam_e70_xult_freertos/debug/_ext/45647770/plib_clk.o
 .ARM.attributes
                0x000000000000057a       0x37 build/sam_e70_xult_freertos/debug/_ext/45638026/plib_mpu.o
 .ARM.attributes
                0x00000000000005b1       0x37 build/sam_e70_xult_freertos/debug/_ext/1414743522/plib_nvic.o
 .ARM.attributes
                0x00000000000005e8       0x37 build/sam_e70_xult_freertos/debug/_ext/45635366/plib_pio.o
 .ARM.attributes
                0x000000000000061f       0x37 build/sam_e70_xult_freertos/debug/_ext/1245453995/plib_tc0.o
 .ARM.attributes
                0x0000000000000656       0x37 build/sam_e70_xult_freertos/debug/_ext/901008055/plib_usart1.o
 .ARM.attributes
                0x000000000000068d       0x37 build/sam_e70_xult_freertos/debug/_ext/762686499/sys_console.o
 .ARM.attributes
                0x00000000000006c4       0x37 build/sam_e70_xult_freertos/debug/_ext/762686499/sys_console_uart.o
 .ARM.attributes
                0x00000000000006fb       0x37 build/sam_e70_xult_freertos/debug/_ext/762686499/sys_debug.o
 .ARM.attributes
                0x0000000000000732       0x37 build/sam_e70_xult_freertos/debug/_ext/762686499/sys_command.o
 .ARM.attributes
                0x0000000000000769       0x37 build/sam_e70_xult_freertos/debug/_ext/1775855163/sys_int.o
 .ARM.attributes
                0x00000000000007a0       0x37 build/sam_e70_xult_freertos/debug/_ext/912870411/sys_time.o
 .ARM.attributes
                0x00000000000007d7       0x37 build/sam_e70_xult_freertos/debug/_ext/231871610/sys_time_h2_adapter.o
 .ARM.attributes
                0x000000000000080e       0x37 build/sam_e70_xult_freertos/debug/_ext/1552905064/tasks.o
 .ARM.attributes
                0x0000000000000845       0x37 build/sam_e70_xult_freertos/debug/_ext/1552905064/initialization.o
 .ARM.attributes
                0x000000000000087c       0x37 build/sam_e70_xult_freertos/debug/_ext/1552905064/interrupts.o
 .ARM.attributes
                0x00000000000008b3       0x37 build/sam_e70_xult_freertos/debug/_ext/1552905064/exceptions.o
 .ARM.attributes
                0x00000000000008ea       0x37 build/sam_e70_xult_freertos/debug/_ext/1552905064/startup_xc32.o
 .ARM.attributes
                0x0000000000000921       0x37 build/sam_e70_xult_freertos/debug/_ext/1552905064/freertos_hooks.o
 .ARM.attributes
                0x0000000000000958       0x37 build/sam_e70_xult_freertos/debug/_ext/977623654/port.o
 .ARM.attributes
                0x000000000000098f       0x37 build/sam_e70_xult_freertos/debug/_ext/1665200909/heap_3.o
 .ARM.attributes
                0x00000000000009c6       0x37 build/sam_e70_xult_freertos/debug/_ext/404212886/list.o
 .ARM.attributes
                0x00000000000009fd       0x37 build/sam_e70_xult_freertos/debug/_ext/404212886/queue.o
 .ARM.attributes
                0x0000000000000a34       0x37 build/sam_e70_xult_freertos/debug/_ext/404212886/FreeRTOS_tasks.o
 .ARM.attributes
                0x0000000000000a6b       0x37 build/sam_e70_xult_freertos/debug/_ext/281930714/osal_freertos.o
 .ARM.attributes
                0x0000000000000aa2       0x37 build/sam_e70_xult_freertos/debug/_ext/1360937237/app_commands.o
 .ARM.attributes
                0x0000000000000ad9       0x37 build/sam_e70_xult_freertos/debug/_ext/1360937237/app.o
 .ARM.attributes
                0x0000000000000b10       0x37 build/sam_e70_xult_freertos/debug/_ext/1360937237/main.o
 .ARM.attributes
                0x0000000000000b47       0x32 /Applications/microchip/xc32/v2.15/bin/bin/../../lib/gcc/pic32c/6.2.1/../../../../pic32c/lib/v7e-m/fpv5/hard/libpic32c.a(data_init.o)
 .ARM.attributes
                0x0000000000000b79       0x20 /Applications/microchip/xc32/v2.15/bin/bin/../../lib/gcc/pic32c/6.2.1/v7e-m/fpv5/hard/libgcc.a(_aeabi_uldivmod.o)
 .ARM.attributes
                0x0000000000000b99       0x32 /Applications/microchip/xc32/v2.15/bin/bin/../../lib/gcc/pic32c/6.2.1/v7e-m/fpv5/hard/libgcc.a(_udivmoddi4.o)
 .ARM.attributes
                0x0000000000000bcb       0x20 /Applications/microchip/xc32/v2.15/bin/bin/../../lib/gcc/pic32c/6.2.1/v7e-m/fpv5/hard/libgcc.a(_dvmd_tls.o)
 .ARM.attributes
                0x0000000000000beb       0x32 /Applications/microchip/xc32/v2.15/bin/bin/../../lib/gcc/pic32c/6.2.1/../../../../pic32c/lib/v7e-m/fpv5/hard/libg.a(lib_a-atoi.o)
 .ARM.attributes
                0x0000000000000c1d       0x32 /Applications/microchip/xc32/v2.15/bin/bin/../../lib/gcc/pic32c/6.2.1/../../../../pic32c/lib/v7e-m/fpv5/hard/libg.a(lib_a-calloc.o)
 .ARM.attributes
                0x0000000000000c4f       0x32 /Applications/microchip/xc32/v2.15/bin/bin/../../lib/gcc/pic32c/6.2.1/../../../../pic32c/lib/v7e-m/fpv5/hard/libg.a(lib_a-callocr.o)
 .ARM.attributes
                0x0000000000000c81       0x32 /Applications/microchip/xc32/v2.15/bin/bin/../../lib/gcc/pic32c/6.2.1/../../../../pic32c/lib/v7e-m/fpv5/hard/libg.a(lib_a-impure.o)
 .ARM.attributes
                0x0000000000000cb3       0x32 /Applications/microchip/xc32/v2.15/bin/bin/../../lib/gcc/pic32c/6.2.1/../../../../pic32c/lib/v7e-m/fpv5/hard/libg.a(lib_a-init.o)
 .ARM.attributes
                0x0000000000000ce5       0x32 /Applications/microchip/xc32/v2.15/bin/bin/../../lib/gcc/pic32c/6.2.1/../../../../pic32c/lib/v7e-m/fpv5/hard/libg.a(lib_a-locale.o)
 .ARM.attributes
                0x0000000000000d17       0x32 /Applications/microchip/xc32/v2.15/bin/bin/../../lib/gcc/pic32c/6.2.1/../../../../pic32c/lib/v7e-m/fpv5/hard/libg.a(lib_a-malloc.o)
 .ARM.attributes
                0x0000000000000d49       0x32 /Applications/microchip/xc32/v2.15/bin/bin/../../lib/gcc/pic32c/6.2.1/../../../../pic32c/lib/v7e-m/fpv5/hard/libg.a(lib_a-mallocr.o)
 .ARM.attributes
                0x0000000000000d7b       0x32 /Applications/microchip/xc32/v2.15/bin/bin/../../lib/gcc/pic32c/6.2.1/../../../../pic32c/lib/v7e-m/fpv5/hard/libg.a(lib_a-mbtowc_r.o)
 .ARM.attributes
                0x0000000000000dad       0x32 /Applications/microchip/xc32/v2.15/bin/bin/../../lib/gcc/pic32c/6.2.1/../../../../pic32c/lib/v7e-m/fpv5/hard/libg.a(lib_a-memcmp.o)
 .ARM.attributes
                0x0000000000000ddf       0x1e /Applications/microchip/xc32/v2.15/bin/bin/../../lib/gcc/pic32c/6.2.1/../../../../pic32c/lib/v7e-m/fpv5/hard/libg.a(lib_a-memcpy.o)
 .ARM.attributes
                0x0000000000000dfd       0x32 /Applications/microchip/xc32/v2.15/bin/bin/../../lib/gcc/pic32c/6.2.1/../../../../pic32c/lib/v7e-m/fpv5/hard/libg.a(lib_a-memset.o)
 .ARM.attributes
                0x0000000000000e2f       0x32 /Applications/microchip/xc32/v2.15/bin/bin/../../lib/gcc/pic32c/6.2.1/../../../../pic32c/lib/v7e-m/fpv5/hard/libg.a(lib_a-mlock.o)
 .ARM.attributes
                0x0000000000000e61       0x32 /Applications/microchip/xc32/v2.15/bin/bin/../../lib/gcc/pic32c/6.2.1/../../../../pic32c/lib/v7e-m/fpv5/hard/libg.a(lib_a-rand.o)
 .ARM.attributes
                0x0000000000000e93       0x32 /Applications/microchip/xc32/v2.15/bin/bin/../../lib/gcc/pic32c/6.2.1/../../../../pic32c/lib/v7e-m/fpv5/hard/libg.a(lib_a-sbrkr.o)
 .ARM.attributes
                0x0000000000000ec5       0x32 /Applications/microchip/xc32/v2.15/bin/bin/../../lib/gcc/pic32c/6.2.1/../../../../pic32c/lib/v7e-m/fpv5/hard/libg.a(lib_a-snprintf.o)
 .ARM.attributes
                0x0000000000000ef7       0x32 /Applications/microchip/xc32/v2.15/bin/bin/../../lib/gcc/pic32c/6.2.1/../../../../pic32c/lib/v7e-m/fpv5/hard/libg.a(lib_a-sprintf.o)
 .ARM.attributes
                0x0000000000000f29       0x1e /Applications/microchip/xc32/v2.15/bin/bin/../../lib/gcc/pic32c/6.2.1/../../../../pic32c/lib/v7e-m/fpv5/hard/libg.a(lib_a-strcmp.o)
 .ARM.attributes
                0x0000000000000f47       0x32 /Applications/microchip/xc32/v2.15/bin/bin/../../lib/gcc/pic32c/6.2.1/../../../../pic32c/lib/v7e-m/fpv5/hard/libg.a(lib_a-strcpy.o)
 .ARM.attributes
                0x0000000000000f79       0x1e /Applications/microchip/xc32/v2.15/bin/bin/../../lib/gcc/pic32c/6.2.1/../../../../pic32c/lib/v7e-m/fpv5/hard/libg.a(lib_a-strlen.o)
 .ARM.attributes
                0x0000000000000f97       0x32 /Applications/microchip/xc32/v2.15/bin/bin/../../lib/gcc/pic32c/6.2.1/../../../../pic32c/lib/v7e-m/fpv5/hard/libg.a(lib_a-strncat.o)
 .ARM.attributes
                0x0000000000000fc9       0x32 /Applications/microchip/xc32/v2.15/bin/bin/../../lib/gcc/pic32c/6.2.1/../../../../pic32c/lib/v7e-m/fpv5/hard/libg.a(lib_a-strncpy.o)
 .ARM.attributes
                0x0000000000000ffb       0x32 /Applications/microchip/xc32/v2.15/bin/bin/../../lib/gcc/pic32c/6.2.1/../../../../pic32c/lib/v7e-m/fpv5/hard/libg.a(lib_a-strstr.o)
 .ARM.attributes
                0x000000000000102d       0x32 /Applications/microchip/xc32/v2.15/bin/bin/../../lib/gcc/pic32c/6.2.1/../../../../pic32c/lib/v7e-m/fpv5/hard/libg.a(lib_a-strtok.o)
 .ARM.attributes
                0x000000000000105f       0x32 /Applications/microchip/xc32/v2.15/bin/bin/../../lib/gcc/pic32c/6.2.1/../../../../pic32c/lib/v7e-m/fpv5/hard/libg.a(lib_a-strtok_r.o)
 .ARM.attributes
                0x0000000000001091       0x32 /Applications/microchip/xc32/v2.15/bin/bin/../../lib/gcc/pic32c/6.2.1/../../../../pic32c/lib/v7e-m/fpv5/hard/libg.a(lib_a-strtol.o)
 .ARM.attributes
                0x00000000000010c3       0x32 /Applications/microchip/xc32/v2.15/bin/bin/../../lib/gcc/pic32c/6.2.1/../../../../pic32c/lib/v7e-m/fpv5/hard/libg.a(lib_a-svfprintf.o)
 .ARM.attributes
                0x00000000000010f5       0x32 /Applications/microchip/xc32/v2.15/bin/bin/../../lib/gcc/pic32c/6.2.1/../../../../pic32c/lib/v7e-m/fpv5/hard/libg.a(lib_a-vsnprintf.o)
 .ARM.attributes
                0x0000000000001127       0x32 /Applications/microchip/xc32/v2.15/bin/bin/../../lib/gcc/pic32c/6.2.1/../../../../pic32c/lib/v7e-m/fpv5/hard/libg.a(lib_a-wctomb_r.o)
 .ARM.attributes
                0x0000000000001159       0x32 /Applications/microchip/xc32/v2.15/bin/bin/../../lib/gcc/pic32c/6.2.1/../../../../pic32c/lib/v7e-m/fpv5/hard/libg.a(lib_a-__call_atexit.o)
 .ARM.attributes
                0x000000000000118b       0x32 /Applications/microchip/xc32/v2.15/bin/bin/../../lib/gcc/pic32c/6.2.1/../../../../pic32c/lib/v7e-m/fpv5/hard/libg.a(lib_a-atexit.o)
 .ARM.attributes
                0x00000000000011bd       0x32 /Applications/microchip/xc32/v2.15/bin/bin/../../lib/gcc/pic32c/6.2.1/../../../../pic32c/lib/v7e-m/fpv5/hard/libg.a(lib_a-ctype_.o)
 .ARM.attributes
                0x00000000000011ef       0x32 /Applications/microchip/xc32/v2.15/bin/bin/../../lib/gcc/pic32c/6.2.1/../../../../pic32c/lib/v7e-m/fpv5/hard/libg.a(lib_a-dtoa.o)
 .ARM.attributes
                0x0000000000001221       0x32 /Applications/microchip/xc32/v2.15/bin/bin/../../lib/gcc/pic32c/6.2.1/../../../../pic32c/lib/v7e-m/fpv5/hard/libg.a(lib_a-fini.o)
 .ARM.attributes
                0x0000000000001253       0x32 /Applications/microchip/xc32/v2.15/bin/bin/../../lib/gcc/pic32c/6.2.1/../../../../pic32c/lib/v7e-m/fpv5/hard/libg.a(lib_a-freer.o)
 .ARM.attributes
                0x0000000000001285       0x32 /Applications/microchip/xc32/v2.15/bin/bin/../../lib/gcc/pic32c/6.2.1/../../../../pic32c/lib/v7e-m/fpv5/hard/libg.a(lib_a-localeconv.o)
 .ARM.attributes
                0x00000000000012b7       0x1e /Applications/microchip/xc32/v2.15/bin/bin/../../lib/gcc/pic32c/6.2.1/../../../../pic32c/lib/v7e-m/fpv5/hard/libg.a(lib_a-memchr.o)
 .ARM.attributes
                0x00000000000012d5       0x32 /Applications/microchip/xc32/v2.15/bin/bin/../../lib/gcc/pic32c/6.2.1/../../../../pic32c/lib/v7e-m/fpv5/hard/libg.a(lib_a-mprec.o)
 .ARM.attributes
                0x0000000000001307       0x32 /Applications/microchip/xc32/v2.15/bin/bin/../../lib/gcc/pic32c/6.2.1/../../../../pic32c/lib/v7e-m/fpv5/hard/libg.a(lib_a-reent.o)
 .ARM.attributes
                0x0000000000001339       0x32 /Applications/microchip/xc32/v2.15/bin/bin/../../lib/gcc/pic32c/6.2.1/../../../../pic32c/lib/v7e-m/fpv5/hard/libg.a(lib_a-s_frexp.o)
 .ARM.attributes
                0x000000000000136b       0x32 /Applications/microchip/xc32/v2.15/bin/bin/../../lib/gcc/pic32c/6.2.1/../../../../pic32c/lib/v7e-m/fpv5/hard/libg.a(lib_a-strchr.o)
 .ARM.attributes
                0x000000000000139d       0x32 /Applications/microchip/xc32/v2.15/bin/bin/../../lib/gcc/pic32c/6.2.1/../../../../pic32c/lib/v7e-m/fpv5/hard/libg.a(lib_a-svfiprintf.o)
 .ARM.attributes
                0x00000000000013cf       0x32 /Applications/microchip/xc32/v2.15/bin/bin/../../lib/gcc/pic32c/6.2.1/../../../../pic32c/lib/v7e-m/fpv5/hard/libg.a(lib_a-__atexit.o)
 .ARM.attributes
                0x0000000000001401       0x32 /Applications/microchip/xc32/v2.15/bin/bin/../../lib/gcc/pic32c/6.2.1/../../../../pic32c/lib/v7e-m/fpv5/hard/libg.a(lib_a-memmove.o)
 .ARM.attributes
                0x0000000000001433       0x32 /Applications/microchip/xc32/v2.15/bin/bin/../../lib/gcc/pic32c/6.2.1/../../../../pic32c/lib/v7e-m/fpv5/hard/libg.a(lib_a-reallocr.o)
 .ARM.attributes
                0x0000000000001465       0x32 /Applications/microchip/xc32/v2.15/bin/bin/../../lib/gcc/pic32c/6.2.1/../../../../pic32c/lib/v7e-m/fpv5/hard/libpic32c.a(sbrk.o)
 .ARM.attributes
                0x0000000000001497       0x20 /Applications/microchip/xc32/v2.15/bin/bin/../../lib/gcc/pic32c/6.2.1/v7e-m/fpv5/hard/crtn.o

.debug_info     0x0000000000000000    0xdfb76
 .debug_info    0x0000000000000000     0x14e2 build/sam_e70_xult_freertos/debug/_ext/683629640/bsp.o
 .debug_info    0x00000000000014e2     0x85f0 build/sam_e70_xult_freertos/debug/_ext/1607428259/drv_ethphy.o
 .debug_info    0x0000000000009ad2     0x31d5 build/sam_e70_xult_freertos/debug/_ext/1607428259/drv_extphy_smsc8740.o
 .debug_info    0x000000000000cca7     0xa744 build/sam_e70_xult_freertos/debug/_ext/1619526243/drv_gmac.o
 .debug_info    0x00000000000173eb     0x8d24 build/sam_e70_xult_freertos/debug/_ext/1619526243/drv_gmac_lib_samE7x_V7x.o
 .debug_info    0x000000000002010f     0x538d build/sam_e70_xult_freertos/debug/_ext/511568427/drv_miim.o
 .debug_info    0x000000000002549c     0x11b1 build/sam_e70_xult_freertos/debug/_ext/810785262/helpers.o
 .debug_info    0x000000000002664d     0x92c8 build/sam_e70_xult_freertos/debug/_ext/810785262/dns.o
 .debug_info    0x000000000002f915     0x55b9 build/sam_e70_xult_freertos/debug/_ext/810785262/icmp.o
 .debug_info    0x0000000000034ece     0xc93a build/sam_e70_xult_freertos/debug/_ext/810785262/tcp.o
 .debug_info    0x0000000000041808     0xae97 build/sam_e70_xult_freertos/debug/_ext/810785262/dhcp.o
 .debug_info    0x000000000004c69f     0x867a build/sam_e70_xult_freertos/debug/_ext/810785262/arp.o
 .debug_info    0x0000000000054d19     0xa389 build/sam_e70_xult_freertos/debug/_ext/810785262/tcpip_commands.o
 .debug_info    0x000000000005f0a2     0x7fd7 build/sam_e70_xult_freertos/debug/_ext/810785262/ipv4.o
 .debug_info    0x0000000000067079     0x462d build/sam_e70_xult_freertos/debug/_ext/810785262/tcpip_heap_alloc.o
 .debug_info    0x000000000006b6a6     0x4f8f build/sam_e70_xult_freertos/debug/_ext/810785262/tcpip_heap_internal.o
 .debug_info    0x0000000000070635      0xf17 build/sam_e70_xult_freertos/debug/_ext/810785262/hash_fnv.o
 .debug_info    0x000000000007154c     0x1591 build/sam_e70_xult_freertos/debug/_ext/810785262/oahash.o
 .debug_info    0x0000000000072add     0x6e96 build/sam_e70_xult_freertos/debug/_ext/810785262/tcpip_helpers.o
 .debug_info    0x0000000000079973     0xcaec build/sam_e70_xult_freertos/debug/_ext/810785262/tcpip_manager.o
 .debug_info    0x000000000008645f     0x44a9 build/sam_e70_xult_freertos/debug/_ext/810785262/tcpip_notify.o
 .debug_info    0x000000000008a908     0x54c1 build/sam_e70_xult_freertos/debug/_ext/810785262/tcpip_packet.o
 .debug_info    0x000000000008fdc9     0xa473 build/sam_e70_xult_freertos/debug/_ext/810785262/udp.o
 .debug_info    0x000000000009a23c      0x8bc build/sam_e70_xult_freertos/debug/_ext/45647770/plib_clk.o
 .debug_info    0x000000000009aaf8      0x8ba build/sam_e70_xult_freertos/debug/_ext/45638026/plib_mpu.o
 .debug_info    0x000000000009b3b2      0xf94 build/sam_e70_xult_freertos/debug/_ext/1414743522/plib_nvic.o
 .debug_info    0x000000000009c346      0xe9a build/sam_e70_xult_freertos/debug/_ext/45635366/plib_pio.o
 .debug_info    0x000000000009d1e0      0x90e build/sam_e70_xult_freertos/debug/_ext/1245453995/plib_tc0.o
 .debug_info    0x000000000009daee      0xedc build/sam_e70_xult_freertos/debug/_ext/901008055/plib_usart1.o
 .debug_info    0x000000000009e9ca     0x191b build/sam_e70_xult_freertos/debug/_ext/762686499/sys_console.o
 .debug_info    0x00000000000a02e5     0x5d95 build/sam_e70_xult_freertos/debug/_ext/762686499/sys_console_uart.o
 .debug_info    0x00000000000a607a     0x1470 build/sam_e70_xult_freertos/debug/_ext/762686499/sys_debug.o
 .debug_info    0x00000000000a74ea     0x2e3d build/sam_e70_xult_freertos/debug/_ext/762686499/sys_command.o
 .debug_info    0x00000000000aa327      0xc94 build/sam_e70_xult_freertos/debug/_ext/1775855163/sys_int.o
 .debug_info    0x00000000000aafbb     0x347c build/sam_e70_xult_freertos/debug/_ext/912870411/sys_time.o
 .debug_info    0x00000000000ae437      0x513 build/sam_e70_xult_freertos/debug/_ext/231871610/sys_time_h2_adapter.o
 .debug_info    0x00000000000ae94a     0x4803 build/sam_e70_xult_freertos/debug/_ext/1552905064/tasks.o
 .debug_info    0x00000000000b314d     0x70db build/sam_e70_xult_freertos/debug/_ext/1552905064/initialization.o
 .debug_info    0x00000000000ba228     0x4f54 build/sam_e70_xult_freertos/debug/_ext/1552905064/interrupts.o
 .debug_info    0x00000000000bf17c     0x452d build/sam_e70_xult_freertos/debug/_ext/1552905064/exceptions.o
 .debug_info    0x00000000000c36a9     0x4e36 build/sam_e70_xult_freertos/debug/_ext/1552905064/startup_xc32.o
 .debug_info    0x00000000000c84df      0x4af build/sam_e70_xult_freertos/debug/_ext/1552905064/freertos_hooks.o
 .debug_info    0x00000000000c898e      0x6e9 build/sam_e70_xult_freertos/debug/_ext/977623654/port.o
 .debug_info    0x00000000000c9077      0xf1d build/sam_e70_xult_freertos/debug/_ext/1665200909/heap_3.o
 .debug_info    0x00000000000c9f94     0x10db build/sam_e70_xult_freertos/debug/_ext/404212886/list.o
 .debug_info    0x00000000000cb06f     0x2802 build/sam_e70_xult_freertos/debug/_ext/404212886/queue.o
 .debug_info    0x00000000000cd871     0x3566 build/sam_e70_xult_freertos/debug/_ext/404212886/FreeRTOS_tasks.o
 .debug_info    0x00000000000d0dd7      0xa47 build/sam_e70_xult_freertos/debug/_ext/281930714/osal_freertos.o
 .debug_info    0x00000000000d181e     0x4b61 build/sam_e70_xult_freertos/debug/_ext/1360937237/app_commands.o
 .debug_info    0x00000000000d637f     0x5378 build/sam_e70_xult_freertos/debug/_ext/1360937237/app.o
 .debug_info    0x00000000000db6f7     0x447f build/sam_e70_xult_freertos/debug/_ext/1360937237/main.o

.debug_abbrev   0x0000000000000000     0xafe3
 .debug_abbrev  0x0000000000000000      0x1a3 build/sam_e70_xult_freertos/debug/_ext/683629640/bsp.o
 .debug_abbrev  0x00000000000001a3      0x582 build/sam_e70_xult_freertos/debug/_ext/1607428259/drv_ethphy.o
 .debug_abbrev  0x0000000000000725      0x2d0 build/sam_e70_xult_freertos/debug/_ext/1607428259/drv_extphy_smsc8740.o
 .debug_abbrev  0x00000000000009f5      0x618 build/sam_e70_xult_freertos/debug/_ext/1619526243/drv_gmac.o
 .debug_abbrev  0x000000000000100d      0x540 build/sam_e70_xult_freertos/debug/_ext/1619526243/drv_gmac_lib_samE7x_V7x.o
 .debug_abbrev  0x000000000000154d      0x683 build/sam_e70_xult_freertos/debug/_ext/511568427/drv_miim.o
 .debug_abbrev  0x0000000000001bd0      0x2ae build/sam_e70_xult_freertos/debug/_ext/810785262/helpers.o
 .debug_abbrev  0x0000000000001e7e      0x5e9 build/sam_e70_xult_freertos/debug/_ext/810785262/dns.o
 .debug_abbrev  0x0000000000002467      0x40a build/sam_e70_xult_freertos/debug/_ext/810785262/icmp.o
 .debug_abbrev  0x0000000000002871      0x5a6 build/sam_e70_xult_freertos/debug/_ext/810785262/tcp.o
 .debug_abbrev  0x0000000000002e17      0x592 build/sam_e70_xult_freertos/debug/_ext/810785262/dhcp.o
 .debug_abbrev  0x00000000000033a9      0x54c build/sam_e70_xult_freertos/debug/_ext/810785262/arp.o
 .debug_abbrev  0x00000000000038f5      0x4c3 build/sam_e70_xult_freertos/debug/_ext/810785262/tcpip_commands.o
 .debug_abbrev  0x0000000000003db8      0x50b build/sam_e70_xult_freertos/debug/_ext/810785262/ipv4.o
 .debug_abbrev  0x00000000000042c3      0x299 build/sam_e70_xult_freertos/debug/_ext/810785262/tcpip_heap_alloc.o
 .debug_abbrev  0x000000000000455c      0x3f2 build/sam_e70_xult_freertos/debug/_ext/810785262/tcpip_heap_internal.o
 .debug_abbrev  0x000000000000494e      0x1d0 build/sam_e70_xult_freertos/debug/_ext/810785262/hash_fnv.o
 .debug_abbrev  0x0000000000004b1e      0x34c build/sam_e70_xult_freertos/debug/_ext/810785262/oahash.o
 .debug_abbrev  0x0000000000004e6a      0x4fc build/sam_e70_xult_freertos/debug/_ext/810785262/tcpip_helpers.o
 .debug_abbrev  0x0000000000005366      0x621 build/sam_e70_xult_freertos/debug/_ext/810785262/tcpip_manager.o
 .debug_abbrev  0x0000000000005987      0x2eb build/sam_e70_xult_freertos/debug/_ext/810785262/tcpip_notify.o
 .debug_abbrev  0x0000000000005c72      0x48f build/sam_e70_xult_freertos/debug/_ext/810785262/tcpip_packet.o
 .debug_abbrev  0x0000000000006101      0x5bc build/sam_e70_xult_freertos/debug/_ext/810785262/udp.o
 .debug_abbrev  0x00000000000066bd       0xfa build/sam_e70_xult_freertos/debug/_ext/45647770/plib_clk.o
 .debug_abbrev  0x00000000000067b7       0xcd build/sam_e70_xult_freertos/debug/_ext/45638026/plib_mpu.o
 .debug_abbrev  0x0000000000006884      0x179 build/sam_e70_xult_freertos/debug/_ext/1414743522/plib_nvic.o
 .debug_abbrev  0x00000000000069fd      0x160 build/sam_e70_xult_freertos/debug/_ext/45635366/plib_pio.o
 .debug_abbrev  0x0000000000006b5d      0x182 build/sam_e70_xult_freertos/debug/_ext/1245453995/plib_tc0.o
 .debug_abbrev  0x0000000000006cdf      0x2c4 build/sam_e70_xult_freertos/debug/_ext/901008055/plib_usart1.o
 .debug_abbrev  0x0000000000006fa3      0x299 build/sam_e70_xult_freertos/debug/_ext/762686499/sys_console.o
 .debug_abbrev  0x000000000000723c      0x51a build/sam_e70_xult_freertos/debug/_ext/762686499/sys_console_uart.o
 .debug_abbrev  0x0000000000007756      0x2cb build/sam_e70_xult_freertos/debug/_ext/762686499/sys_debug.o
 .debug_abbrev  0x0000000000007a21      0x4d4 build/sam_e70_xult_freertos/debug/_ext/762686499/sys_command.o
 .debug_abbrev  0x0000000000007ef5      0x200 build/sam_e70_xult_freertos/debug/_ext/1775855163/sys_int.o
 .debug_abbrev  0x00000000000080f5      0x572 build/sam_e70_xult_freertos/debug/_ext/912870411/sys_time.o
 .debug_abbrev  0x0000000000008667      0x128 build/sam_e70_xult_freertos/debug/_ext/231871610/sys_time_h2_adapter.o
 .debug_abbrev  0x000000000000878f      0x2ba build/sam_e70_xult_freertos/debug/_ext/1552905064/tasks.o
 .debug_abbrev  0x0000000000008a49      0x32a build/sam_e70_xult_freertos/debug/_ext/1552905064/initialization.o
 .debug_abbrev  0x0000000000008d73      0x247 build/sam_e70_xult_freertos/debug/_ext/1552905064/interrupts.o
 .debug_abbrev  0x0000000000008fba      0x236 build/sam_e70_xult_freertos/debug/_ext/1552905064/exceptions.o
 .debug_abbrev  0x00000000000091f0      0x366 build/sam_e70_xult_freertos/debug/_ext/1552905064/startup_xc32.o
 .debug_abbrev  0x0000000000009556      0x11f build/sam_e70_xult_freertos/debug/_ext/1552905064/freertos_hooks.o
 .debug_abbrev  0x0000000000009675      0x1f2 build/sam_e70_xult_freertos/debug/_ext/977623654/port.o
 .debug_abbrev  0x0000000000009867      0x241 build/sam_e70_xult_freertos/debug/_ext/1665200909/heap_3.o
 .debug_abbrev  0x0000000000009aa8      0x231 build/sam_e70_xult_freertos/debug/_ext/404212886/list.o
 .debug_abbrev  0x0000000000009cd9      0x402 build/sam_e70_xult_freertos/debug/_ext/404212886/queue.o
 .debug_abbrev  0x000000000000a0db      0x494 build/sam_e70_xult_freertos/debug/_ext/404212886/FreeRTOS_tasks.o
 .debug_abbrev  0x000000000000a56f      0x19d build/sam_e70_xult_freertos/debug/_ext/281930714/osal_freertos.o
 .debug_abbrev  0x000000000000a70c      0x30c build/sam_e70_xult_freertos/debug/_ext/1360937237/app_commands.o
 .debug_abbrev  0x000000000000aa18      0x35b build/sam_e70_xult_freertos/debug/_ext/1360937237/app.o
 .debug_abbrev  0x000000000000ad73      0x270 build/sam_e70_xult_freertos/debug/_ext/1360937237/main.o

.debug_aranges  0x0000000000000000     0x2268
 .debug_aranges
                0x0000000000000000       0x20 build/sam_e70_xult_freertos/debug/_ext/683629640/bsp.o
 .debug_aranges
                0x0000000000000020      0x278 build/sam_e70_xult_freertos/debug/_ext/1607428259/drv_ethphy.o
 .debug_aranges
                0x0000000000000298       0x30 build/sam_e70_xult_freertos/debug/_ext/1607428259/drv_extphy_smsc8740.o
 .debug_aranges
                0x00000000000002c8      0x280 build/sam_e70_xult_freertos/debug/_ext/1619526243/drv_gmac.o
 .debug_aranges
                0x0000000000000548       0xb0 build/sam_e70_xult_freertos/debug/_ext/1619526243/drv_gmac_lib_samE7x_V7x.o
 .debug_aranges
                0x00000000000005f8       0xe8 build/sam_e70_xult_freertos/debug/_ext/511568427/drv_miim.o
 .debug_aranges
                0x00000000000006e0       0x48 build/sam_e70_xult_freertos/debug/_ext/810785262/helpers.o
 .debug_aranges
                0x0000000000000728      0x140 build/sam_e70_xult_freertos/debug/_ext/810785262/dns.o
 .debug_aranges
                0x0000000000000868       0x38 build/sam_e70_xult_freertos/debug/_ext/810785262/icmp.o
 .debug_aranges
                0x00000000000008a0      0x220 build/sam_e70_xult_freertos/debug/_ext/810785262/tcp.o
 .debug_aranges
                0x0000000000000ac0      0x188 build/sam_e70_xult_freertos/debug/_ext/810785262/dhcp.o
 .debug_aranges
                0x0000000000000c48      0x110 build/sam_e70_xult_freertos/debug/_ext/810785262/arp.o
 .debug_aranges
                0x0000000000000d58       0xb8 build/sam_e70_xult_freertos/debug/_ext/810785262/tcpip_commands.o
 .debug_aranges
                0x0000000000000e10       0xc0 build/sam_e70_xult_freertos/debug/_ext/810785262/ipv4.o
 .debug_aranges
                0x0000000000000ed0       0x48 build/sam_e70_xult_freertos/debug/_ext/810785262/tcpip_heap_alloc.o
 .debug_aranges
                0x0000000000000f18       0x68 build/sam_e70_xult_freertos/debug/_ext/810785262/tcpip_heap_internal.o
 .debug_aranges
                0x0000000000000f80       0x28 build/sam_e70_xult_freertos/debug/_ext/810785262/hash_fnv.o
 .debug_aranges
                0x0000000000000fa8       0x50 build/sam_e70_xult_freertos/debug/_ext/810785262/oahash.o
 .debug_aranges
                0x0000000000000ff8      0x218 build/sam_e70_xult_freertos/debug/_ext/810785262/tcpip_helpers.o
 .debug_aranges
                0x0000000000001210      0x378 build/sam_e70_xult_freertos/debug/_ext/810785262/tcpip_manager.o
 .debug_aranges
                0x0000000000001588       0x40 build/sam_e70_xult_freertos/debug/_ext/810785262/tcpip_notify.o
 .debug_aranges
                0x00000000000015c8       0x78 build/sam_e70_xult_freertos/debug/_ext/810785262/tcpip_packet.o
 .debug_aranges
                0x0000000000001640      0x1c0 build/sam_e70_xult_freertos/debug/_ext/810785262/udp.o
 .debug_aranges
                0x0000000000001800       0x20 build/sam_e70_xult_freertos/debug/_ext/45647770/plib_clk.o
 .debug_aranges
                0x0000000000001820       0x20 build/sam_e70_xult_freertos/debug/_ext/45638026/plib_mpu.o
 .debug_aranges
                0x0000000000001840       0x20 build/sam_e70_xult_freertos/debug/_ext/1414743522/plib_nvic.o
 .debug_aranges
                0x0000000000001860       0x60 build/sam_e70_xult_freertos/debug/_ext/45635366/plib_pio.o
 .debug_aranges
                0x00000000000018c0       0x68 build/sam_e70_xult_freertos/debug/_ext/1245453995/plib_tc0.o
 .debug_aranges
                0x0000000000001928       0x78 build/sam_e70_xult_freertos/debug/_ext/901008055/plib_usart1.o
 .debug_aranges
                0x00000000000019a0       0x50 build/sam_e70_xult_freertos/debug/_ext/762686499/sys_console.o
 .debug_aranges
                0x00000000000019f0       0x78 build/sam_e70_xult_freertos/debug/_ext/762686499/sys_console_uart.o
 .debug_aranges
                0x0000000000001a68       0x50 build/sam_e70_xult_freertos/debug/_ext/762686499/sys_debug.o
 .debug_aranges
                0x0000000000001ab8       0xd0 build/sam_e70_xult_freertos/debug/_ext/762686499/sys_command.o
 .debug_aranges
                0x0000000000001b88       0x40 build/sam_e70_xult_freertos/debug/_ext/1775855163/sys_int.o
 .debug_aranges
                0x0000000000001bc8      0x130 build/sam_e70_xult_freertos/debug/_ext/912870411/sys_time.o
 .debug_aranges
                0x0000000000001cf8       0x28 build/sam_e70_xult_freertos/debug/_ext/231871610/sys_time_h2_adapter.o
 .debug_aranges
                0x0000000000001d20       0x40 build/sam_e70_xult_freertos/debug/_ext/1552905064/tasks.o
 .debug_aranges
                0x0000000000001d60       0x28 build/sam_e70_xult_freertos/debug/_ext/1552905064/initialization.o
 .debug_aranges
                0x0000000000001d88       0x20 build/sam_e70_xult_freertos/debug/_ext/1552905064/interrupts.o
 .debug_aranges
                0x0000000000001da8       0x48 build/sam_e70_xult_freertos/debug/_ext/1552905064/exceptions.o
 .debug_aranges
                0x0000000000001df0       0x20 build/sam_e70_xult_freertos/debug/_ext/1552905064/startup_xc32.o
 .debug_aranges
                0x0000000000001e10       0x40 build/sam_e70_xult_freertos/debug/_ext/1552905064/freertos_hooks.o
 .debug_aranges
                0x0000000000001e50       0x78 build/sam_e70_xult_freertos/debug/_ext/977623654/port.o
 .debug_aranges
                0x0000000000001ec8       0x28 build/sam_e70_xult_freertos/debug/_ext/1665200909/heap_3.o
 .debug_aranges
                0x0000000000001ef0       0x40 build/sam_e70_xult_freertos/debug/_ext/404212886/list.o
 .debug_aranges
                0x0000000000001f30       0xc8 build/sam_e70_xult_freertos/debug/_ext/404212886/queue.o
 .debug_aranges
                0x0000000000001ff8      0x178 build/sam_e70_xult_freertos/debug/_ext/404212886/FreeRTOS_tasks.o
 .debug_aranges
                0x0000000000002170       0x80 build/sam_e70_xult_freertos/debug/_ext/281930714/osal_freertos.o
 .debug_aranges
                0x00000000000021f0       0x28 build/sam_e70_xult_freertos/debug/_ext/1360937237/app_commands.o
 .debug_aranges
                0x0000000000002218       0x30 build/sam_e70_xult_freertos/debug/_ext/1360937237/app.o
 .debug_aranges
                0x0000000000002248       0x20 build/sam_e70_xult_freertos/debug/_ext/1360937237/main.o

.debug_ranges   0x0000000000000000     0x3780
 .debug_ranges  0x0000000000000000       0x10 build/sam_e70_xult_freertos/debug/_ext/683629640/bsp.o
 .debug_ranges  0x0000000000000010      0x2e0 build/sam_e70_xult_freertos/debug/_ext/1607428259/drv_ethphy.o
 .debug_ranges  0x00000000000002f0       0x20 build/sam_e70_xult_freertos/debug/_ext/1607428259/drv_extphy_smsc8740.o
 .debug_ranges  0x0000000000000310      0x320 build/sam_e70_xult_freertos/debug/_ext/1619526243/drv_gmac.o
 .debug_ranges  0x0000000000000630      0x118 build/sam_e70_xult_freertos/debug/_ext/1619526243/drv_gmac_lib_samE7x_V7x.o
 .debug_ranges  0x0000000000000748      0x348 build/sam_e70_xult_freertos/debug/_ext/511568427/drv_miim.o
 .debug_ranges  0x0000000000000a90       0x38 build/sam_e70_xult_freertos/debug/_ext/810785262/helpers.o
 .debug_ranges  0x0000000000000ac8      0x238 build/sam_e70_xult_freertos/debug/_ext/810785262/dns.o
 .debug_ranges  0x0000000000000d00       0x40 build/sam_e70_xult_freertos/debug/_ext/810785262/icmp.o
 .debug_ranges  0x0000000000000d40      0x700 build/sam_e70_xult_freertos/debug/_ext/810785262/tcp.o
 .debug_ranges  0x0000000000001440      0x2f0 build/sam_e70_xult_freertos/debug/_ext/810785262/dhcp.o
 .debug_ranges  0x0000000000001730      0x1c0 build/sam_e70_xult_freertos/debug/_ext/810785262/arp.o
 .debug_ranges  0x00000000000018f0      0x148 build/sam_e70_xult_freertos/debug/_ext/810785262/tcpip_commands.o
 .debug_ranges  0x0000000000001a38      0x230 build/sam_e70_xult_freertos/debug/_ext/810785262/ipv4.o
 .debug_ranges  0x0000000000001c68       0x38 build/sam_e70_xult_freertos/debug/_ext/810785262/tcpip_heap_alloc.o
 .debug_ranges  0x0000000000001ca0       0x58 build/sam_e70_xult_freertos/debug/_ext/810785262/tcpip_heap_internal.o
 .debug_ranges  0x0000000000001cf8       0x18 build/sam_e70_xult_freertos/debug/_ext/810785262/hash_fnv.o
 .debug_ranges  0x0000000000001d10       0x40 build/sam_e70_xult_freertos/debug/_ext/810785262/oahash.o
 .debug_ranges  0x0000000000001d50      0x258 build/sam_e70_xult_freertos/debug/_ext/810785262/tcpip_helpers.o
 .debug_ranges  0x0000000000001fa8      0x6b8 build/sam_e70_xult_freertos/debug/_ext/810785262/tcpip_manager.o
 .debug_ranges  0x0000000000002660       0x30 build/sam_e70_xult_freertos/debug/_ext/810785262/tcpip_notify.o
 .debug_ranges  0x0000000000002690       0x80 build/sam_e70_xult_freertos/debug/_ext/810785262/tcpip_packet.o
 .debug_ranges  0x0000000000002710      0x3f0 build/sam_e70_xult_freertos/debug/_ext/810785262/udp.o
 .debug_ranges  0x0000000000002b00       0x10 build/sam_e70_xult_freertos/debug/_ext/45647770/plib_clk.o
 .debug_ranges  0x0000000000002b10       0x10 build/sam_e70_xult_freertos/debug/_ext/45638026/plib_mpu.o
 .debug_ranges  0x0000000000002b20       0x10 build/sam_e70_xult_freertos/debug/_ext/1414743522/plib_nvic.o
 .debug_ranges  0x0000000000002b30       0x50 build/sam_e70_xult_freertos/debug/_ext/45635366/plib_pio.o
 .debug_ranges  0x0000000000002b80       0x58 build/sam_e70_xult_freertos/debug/_ext/1245453995/plib_tc0.o
 .debug_ranges  0x0000000000002bd8       0x80 build/sam_e70_xult_freertos/debug/_ext/901008055/plib_usart1.o
 .debug_ranges  0x0000000000002c58       0x40 build/sam_e70_xult_freertos/debug/_ext/762686499/sys_console.o
 .debug_ranges  0x0000000000002c98       0xc8 build/sam_e70_xult_freertos/debug/_ext/762686499/sys_console_uart.o
 .debug_ranges  0x0000000000002d60       0x40 build/sam_e70_xult_freertos/debug/_ext/762686499/sys_debug.o
 .debug_ranges  0x0000000000002da0      0x1a8 build/sam_e70_xult_freertos/debug/_ext/762686499/sys_command.o
 .debug_ranges  0x0000000000002f48       0x30 build/sam_e70_xult_freertos/debug/_ext/1775855163/sys_int.o
 .debug_ranges  0x0000000000002f78      0x168 build/sam_e70_xult_freertos/debug/_ext/912870411/sys_time.o
 .debug_ranges  0x00000000000030e0       0x18 build/sam_e70_xult_freertos/debug/_ext/231871610/sys_time_h2_adapter.o
 .debug_ranges  0x00000000000030f8       0x30 build/sam_e70_xult_freertos/debug/_ext/1552905064/tasks.o
 .debug_ranges  0x0000000000003128       0x18 build/sam_e70_xult_freertos/debug/_ext/1552905064/initialization.o
 .debug_ranges  0x0000000000003140       0x10 build/sam_e70_xult_freertos/debug/_ext/1552905064/interrupts.o
 .debug_ranges  0x0000000000003150       0x38 build/sam_e70_xult_freertos/debug/_ext/1552905064/exceptions.o
 .debug_ranges  0x0000000000003188       0x10 build/sam_e70_xult_freertos/debug/_ext/1552905064/startup_xc32.o
 .debug_ranges  0x0000000000003198       0x30 build/sam_e70_xult_freertos/debug/_ext/1552905064/freertos_hooks.o
 .debug_ranges  0x00000000000031c8       0x68 build/sam_e70_xult_freertos/debug/_ext/977623654/port.o
 .debug_ranges  0x0000000000003230       0x18 build/sam_e70_xult_freertos/debug/_ext/1665200909/heap_3.o
 .debug_ranges  0x0000000000003248       0x30 build/sam_e70_xult_freertos/debug/_ext/404212886/list.o
 .debug_ranges  0x0000000000003278      0x1b8 build/sam_e70_xult_freertos/debug/_ext/404212886/queue.o
 .debug_ranges  0x0000000000003430      0x250 build/sam_e70_xult_freertos/debug/_ext/404212886/FreeRTOS_tasks.o
 .debug_ranges  0x0000000000003680       0x70 build/sam_e70_xult_freertos/debug/_ext/281930714/osal_freertos.o
 .debug_ranges  0x00000000000036f0       0x18 build/sam_e70_xult_freertos/debug/_ext/1360937237/app_commands.o
 .debug_ranges  0x0000000000003708       0x68 build/sam_e70_xult_freertos/debug/_ext/1360937237/app.o
 .debug_ranges  0x0000000000003770       0x10 build/sam_e70_xult_freertos/debug/_ext/1360937237/main.o

.debug_line     0x0000000000000000    0x13f92
 .debug_line    0x0000000000000000      0x201 build/sam_e70_xult_freertos/debug/_ext/683629640/bsp.o
 .debug_line    0x0000000000000201      0xed7 build/sam_e70_xult_freertos/debug/_ext/1607428259/drv_ethphy.o
 .debug_line    0x00000000000010d8      0x358 build/sam_e70_xult_freertos/debug/_ext/1607428259/drv_extphy_smsc8740.o
 .debug_line    0x0000000000001430      0xe2a build/sam_e70_xult_freertos/debug/_ext/1619526243/drv_gmac.o
 .debug_line    0x000000000000225a      0x976 build/sam_e70_xult_freertos/debug/_ext/1619526243/drv_gmac_lib_samE7x_V7x.o
 .debug_line    0x0000000000002bd0      0x8ef build/sam_e70_xult_freertos/debug/_ext/511568427/drv_miim.o
 .debug_line    0x00000000000034bf      0x275 build/sam_e70_xult_freertos/debug/_ext/810785262/helpers.o
 .debug_line    0x0000000000003734      0xb8f build/sam_e70_xult_freertos/debug/_ext/810785262/dns.o
 .debug_line    0x00000000000042c3      0x491 build/sam_e70_xult_freertos/debug/_ext/810785262/icmp.o
 .debug_line    0x0000000000004754     0x17f1 build/sam_e70_xult_freertos/debug/_ext/810785262/tcp.o
 .debug_line    0x0000000000005f45      0xe2f build/sam_e70_xult_freertos/debug/_ext/810785262/dhcp.o
 .debug_line    0x0000000000006d74      0xae5 build/sam_e70_xult_freertos/debug/_ext/810785262/arp.o
 .debug_line    0x0000000000007859      0xa11 build/sam_e70_xult_freertos/debug/_ext/810785262/tcpip_commands.o
 .debug_line    0x000000000000826a      0xa20 build/sam_e70_xult_freertos/debug/_ext/810785262/ipv4.o
 .debug_line    0x0000000000008c8a      0x3ef build/sam_e70_xult_freertos/debug/_ext/810785262/tcpip_heap_alloc.o
 .debug_line    0x0000000000009079      0x5bf build/sam_e70_xult_freertos/debug/_ext/810785262/tcpip_heap_internal.o
 .debug_line    0x0000000000009638      0x1d1 build/sam_e70_xult_freertos/debug/_ext/810785262/hash_fnv.o
 .debug_line    0x0000000000009809      0x29c build/sam_e70_xult_freertos/debug/_ext/810785262/oahash.o
 .debug_line    0x0000000000009aa5      0xc5c build/sam_e70_xult_freertos/debug/_ext/810785262/tcpip_helpers.o
 .debug_line    0x000000000000a701     0x151c build/sam_e70_xult_freertos/debug/_ext/810785262/tcpip_manager.o
 .debug_line    0x000000000000bc1d      0x48a build/sam_e70_xult_freertos/debug/_ext/810785262/tcpip_notify.o
 .debug_line    0x000000000000c0a7      0x53f build/sam_e70_xult_freertos/debug/_ext/810785262/tcpip_packet.o
 .debug_line    0x000000000000c5e6      0xf98 build/sam_e70_xult_freertos/debug/_ext/810785262/udp.o
 .debug_line    0x000000000000d57e      0x17e build/sam_e70_xult_freertos/debug/_ext/45647770/plib_clk.o
 .debug_line    0x000000000000d6fc      0x15d build/sam_e70_xult_freertos/debug/_ext/45638026/plib_mpu.o
 .debug_line    0x000000000000d859      0x1a1 build/sam_e70_xult_freertos/debug/_ext/1414743522/plib_nvic.o
 .debug_line    0x000000000000d9fa      0x221 build/sam_e70_xult_freertos/debug/_ext/45635366/plib_pio.o
 .debug_line    0x000000000000dc1b      0x21c build/sam_e70_xult_freertos/debug/_ext/1245453995/plib_tc0.o
 .debug_line    0x000000000000de37      0x30f build/sam_e70_xult_freertos/debug/_ext/901008055/plib_usart1.o
 .debug_line    0x000000000000e146      0x333 build/sam_e70_xult_freertos/debug/_ext/762686499/sys_console.o
 .debug_line    0x000000000000e479      0x67f build/sam_e70_xult_freertos/debug/_ext/762686499/sys_console_uart.o
 .debug_line    0x000000000000eaf8      0x2fc build/sam_e70_xult_freertos/debug/_ext/762686499/sys_debug.o
 .debug_line    0x000000000000edf4      0x61d build/sam_e70_xult_freertos/debug/_ext/762686499/sys_command.o
 .debug_line    0x000000000000f411      0x246 build/sam_e70_xult_freertos/debug/_ext/1775855163/sys_int.o
 .debug_line    0x000000000000f657      0x7d1 build/sam_e70_xult_freertos/debug/_ext/912870411/sys_time.o
 .debug_line    0x000000000000fe28      0x19d build/sam_e70_xult_freertos/debug/_ext/231871610/sys_time_h2_adapter.o
 .debug_line    0x000000000000ffc5      0x4be build/sam_e70_xult_freertos/debug/_ext/1552905064/tasks.o
 .debug_line    0x0000000000010483      0x736 build/sam_e70_xult_freertos/debug/_ext/1552905064/initialization.o
 .debug_line    0x0000000000010bb9      0x3d1 build/sam_e70_xult_freertos/debug/_ext/1552905064/interrupts.o
 .debug_line    0x0000000000010f8a      0x3f5 build/sam_e70_xult_freertos/debug/_ext/1552905064/exceptions.o
 .debug_line    0x000000000001137f      0x4f5 build/sam_e70_xult_freertos/debug/_ext/1552905064/startup_xc32.o
 .debug_line    0x0000000000011874      0x1cd build/sam_e70_xult_freertos/debug/_ext/1552905064/freertos_hooks.o
 .debug_line    0x0000000000011a41      0x26b build/sam_e70_xult_freertos/debug/_ext/977623654/port.o
 .debug_line    0x0000000000011cac      0x1ac build/sam_e70_xult_freertos/debug/_ext/1665200909/heap_3.o
 .debug_line    0x0000000000011e58      0x292 build/sam_e70_xult_freertos/debug/_ext/404212886/list.o
 .debug_line    0x00000000000120ea      0x64d build/sam_e70_xult_freertos/debug/_ext/404212886/queue.o
 .debug_line    0x0000000000012737      0x8fa build/sam_e70_xult_freertos/debug/_ext/404212886/FreeRTOS_tasks.o
 .debug_line    0x0000000000013031      0x2f3 build/sam_e70_xult_freertos/debug/_ext/281930714/osal_freertos.o
 .debug_line    0x0000000000013324      0x3f5 build/sam_e70_xult_freertos/debug/_ext/1360937237/app_commands.o
 .debug_line    0x0000000000013719      0x4d7 build/sam_e70_xult_freertos/debug/_ext/1360937237/app.o
 .debug_line    0x0000000000013bf0      0x3a2 build/sam_e70_xult_freertos/debug/_ext/1360937237/main.o

.debug_str      0x0000000000000000     0x4ceb
 .debug_str     0x0000000000000000        0xe build/sam_e70_xult_freertos/debug/_ext/683629640/bsp.o
 .debug_str     0x000000000000000e      0x52c build/sam_e70_xult_freertos/debug/_ext/1607428259/drv_ethphy.o
 .debug_str     0x000000000000053a       0x4d build/sam_e70_xult_freertos/debug/_ext/1607428259/drv_extphy_smsc8740.o
 .debug_str     0x0000000000000587      0x3af build/sam_e70_xult_freertos/debug/_ext/1619526243/drv_gmac.o
 .debug_str     0x0000000000000936      0x13c build/sam_e70_xult_freertos/debug/_ext/1619526243/drv_gmac_lib_samE7x_V7x.o
 .debug_str     0x0000000000000a72      0x2a8 build/sam_e70_xult_freertos/debug/_ext/511568427/drv_miim.o
 .debug_str     0x0000000000000d1a       0x21 build/sam_e70_xult_freertos/debug/_ext/810785262/helpers.o
 .debug_str     0x0000000000000d3b      0x4d1 build/sam_e70_xult_freertos/debug/_ext/810785262/dns.o
 .debug_str     0x000000000000120c      0x14e build/sam_e70_xult_freertos/debug/_ext/810785262/icmp.o
 .debug_str     0x000000000000135a      0x40b build/sam_e70_xult_freertos/debug/_ext/810785262/tcp.o
 .debug_str     0x0000000000001765      0x632 build/sam_e70_xult_freertos/debug/_ext/810785262/dhcp.o
 .debug_str     0x0000000000001d97      0x4bc build/sam_e70_xult_freertos/debug/_ext/810785262/arp.o
 .debug_str     0x0000000000002253      0x771 build/sam_e70_xult_freertos/debug/_ext/810785262/tcpip_commands.o
 .debug_str     0x00000000000029c4      0x568 build/sam_e70_xult_freertos/debug/_ext/810785262/ipv4.o
 .debug_str     0x0000000000002f2c       0x6d build/sam_e70_xult_freertos/debug/_ext/810785262/tcpip_heap_alloc.o
 .debug_str     0x0000000000002f99       0x90 build/sam_e70_xult_freertos/debug/_ext/810785262/tcpip_heap_internal.o
 .debug_str     0x0000000000003029        0xe build/sam_e70_xult_freertos/debug/_ext/810785262/hash_fnv.o
 .debug_str     0x0000000000003037       0x18 build/sam_e70_xult_freertos/debug/_ext/810785262/oahash.o
 .debug_str     0x000000000000304f      0x11e build/sam_e70_xult_freertos/debug/_ext/810785262/tcpip_helpers.o
 .debug_str     0x000000000000316d      0x51a build/sam_e70_xult_freertos/debug/_ext/810785262/tcpip_manager.o
 .debug_str     0x0000000000003687       0xfe build/sam_e70_xult_freertos/debug/_ext/810785262/tcpip_notify.o
 .debug_str     0x0000000000003785       0x49 build/sam_e70_xult_freertos/debug/_ext/810785262/tcpip_packet.o
 .debug_str     0x00000000000037ce      0x3c9 build/sam_e70_xult_freertos/debug/_ext/810785262/udp.o
 .debug_str     0x0000000000003b97        0xa build/sam_e70_xult_freertos/debug/_ext/45647770/plib_clk.o
 .debug_str     0x0000000000003ba1        0x0 build/sam_e70_xult_freertos/debug/_ext/45638026/plib_mpu.o
 .debug_str     0x0000000000003ba1       0x28 build/sam_e70_xult_freertos/debug/_ext/1414743522/plib_nvic.o
 .debug_str     0x0000000000003bc9       0x46 build/sam_e70_xult_freertos/debug/_ext/45635366/plib_pio.o
 .debug_str     0x0000000000003c0f        0xa build/sam_e70_xult_freertos/debug/_ext/1245453995/plib_tc0.o
 .debug_str     0x0000000000003c19       0x10 build/sam_e70_xult_freertos/debug/_ext/901008055/plib_usart1.o
 .debug_str     0x0000000000003c29       0x27 build/sam_e70_xult_freertos/debug/_ext/762686499/sys_console.o
 .debug_str     0x0000000000003c50      0x113 build/sam_e70_xult_freertos/debug/_ext/762686499/sys_console_uart.o
 .debug_str     0x0000000000003d63       0x2a build/sam_e70_xult_freertos/debug/_ext/762686499/sys_debug.o
 .debug_str     0x0000000000003d8d       0xc3 build/sam_e70_xult_freertos/debug/_ext/762686499/sys_command.o
 .debug_str     0x0000000000003e50       0x10 build/sam_e70_xult_freertos/debug/_ext/1775855163/sys_int.o
 .debug_str     0x0000000000003e60      0x16e build/sam_e70_xult_freertos/debug/_ext/912870411/sys_time.o
 .debug_str     0x0000000000003fce       0x25 build/sam_e70_xult_freertos/debug/_ext/231871610/sys_time_h2_adapter.o
 .debug_str     0x0000000000003ff3       0x9c build/sam_e70_xult_freertos/debug/_ext/1552905064/tasks.o
 .debug_str     0x000000000000408f      0x19e build/sam_e70_xult_freertos/debug/_ext/1552905064/initialization.o
 .debug_str     0x000000000000422d       0x2c build/sam_e70_xult_freertos/debug/_ext/1552905064/interrupts.o
 .debug_str     0x0000000000004259       0x2c build/sam_e70_xult_freertos/debug/_ext/1552905064/exceptions.o
 .debug_str     0x0000000000004285       0xa6 build/sam_e70_xult_freertos/debug/_ext/1552905064/startup_xc32.o
 .debug_str     0x000000000000432b       0x25 build/sam_e70_xult_freertos/debug/_ext/1552905064/freertos_hooks.o
 .debug_str     0x0000000000004350       0x26 build/sam_e70_xult_freertos/debug/_ext/977623654/port.o
 .debug_str     0x0000000000004376       0x4a build/sam_e70_xult_freertos/debug/_ext/1665200909/heap_3.o
 .debug_str     0x00000000000043c0       0x39 build/sam_e70_xult_freertos/debug/_ext/404212886/list.o
 .debug_str     0x00000000000043f9      0x283 build/sam_e70_xult_freertos/debug/_ext/404212886/queue.o
 .debug_str     0x000000000000467c      0x288 build/sam_e70_xult_freertos/debug/_ext/404212886/FreeRTOS_tasks.o
 .debug_str     0x0000000000004904      0x124 build/sam_e70_xult_freertos/debug/_ext/281930714/osal_freertos.o
 .debug_str     0x0000000000004a28       0x82 build/sam_e70_xult_freertos/debug/_ext/1360937237/app_commands.o
 .debug_str     0x0000000000004aaa      0x1fc build/sam_e70_xult_freertos/debug/_ext/1360937237/app.o
 .debug_str     0x0000000000004ca6       0x45 build/sam_e70_xult_freertos/debug/_ext/1360937237/main.o

.comment        0x0000000000000000       0x3c
 .comment       0x0000000000000000       0x3c build/sam_e70_xult_freertos/debug/_ext/683629640/bsp.o
                                         0x3d (size before relaxing)
 .comment       0x000000000000003c       0x3d build/sam_e70_xult_freertos/debug/_ext/1607428259/drv_ethphy.o
 .comment       0x000000000000003c       0x3d build/sam_e70_xult_freertos/debug/_ext/1607428259/drv_extphy_smsc8740.o
 .comment       0x000000000000003c       0x3d build/sam_e70_xult_freertos/debug/_ext/1619526243/drv_gmac.o
 .comment       0x000000000000003c       0x3d build/sam_e70_xult_freertos/debug/_ext/1619526243/drv_gmac_lib_samE7x_V7x.o
 .comment       0x000000000000003c       0x3d build/sam_e70_xult_freertos/debug/_ext/511568427/drv_miim.o
 .comment       0x000000000000003c       0x3d build/sam_e70_xult_freertos/debug/_ext/810785262/helpers.o
 .comment       0x000000000000003c       0x3d build/sam_e70_xult_freertos/debug/_ext/810785262/dns.o
 .comment       0x000000000000003c       0x3d build/sam_e70_xult_freertos/debug/_ext/810785262/icmp.o
 .comment       0x000000000000003c       0x3d build/sam_e70_xult_freertos/debug/_ext/810785262/tcp.o
 .comment       0x000000000000003c       0x3d build/sam_e70_xult_freertos/debug/_ext/810785262/dhcp.o
 .comment       0x000000000000003c       0x3d build/sam_e70_xult_freertos/debug/_ext/810785262/arp.o
 .comment       0x000000000000003c       0x3d build/sam_e70_xult_freertos/debug/_ext/810785262/tcpip_commands.o
 .comment       0x000000000000003c       0x3d build/sam_e70_xult_freertos/debug/_ext/810785262/ipv4.o
 .comment       0x000000000000003c       0x3d build/sam_e70_xult_freertos/debug/_ext/810785262/tcpip_heap_alloc.o
 .comment       0x000000000000003c       0x3d build/sam_e70_xult_freertos/debug/_ext/810785262/tcpip_heap_internal.o
 .comment       0x000000000000003c       0x3d build/sam_e70_xult_freertos/debug/_ext/810785262/hash_fnv.o
 .comment       0x000000000000003c       0x3d build/sam_e70_xult_freertos/debug/_ext/810785262/oahash.o
 .comment       0x000000000000003c       0x3d build/sam_e70_xult_freertos/debug/_ext/810785262/tcpip_helpers.o
 .comment       0x000000000000003c       0x3d build/sam_e70_xult_freertos/debug/_ext/810785262/tcpip_manager.o
 .comment       0x000000000000003c       0x3d build/sam_e70_xult_freertos/debug/_ext/810785262/tcpip_notify.o
 .comment       0x000000000000003c       0x3d build/sam_e70_xult_freertos/debug/_ext/810785262/tcpip_packet.o
 .comment       0x000000000000003c       0x3d build/sam_e70_xult_freertos/debug/_ext/810785262/udp.o
 .comment       0x000000000000003c       0x3d build/sam_e70_xult_freertos/debug/_ext/45647770/plib_clk.o
 .comment       0x000000000000003c       0x3d build/sam_e70_xult_freertos/debug/_ext/45638026/plib_mpu.o
 .comment       0x000000000000003c       0x3d build/sam_e70_xult_freertos/debug/_ext/1414743522/plib_nvic.o
 .comment       0x000000000000003c       0x3d build/sam_e70_xult_freertos/debug/_ext/45635366/plib_pio.o
 .comment       0x000000000000003c       0x3d build/sam_e70_xult_freertos/debug/_ext/1245453995/plib_tc0.o
 .comment       0x000000000000003c       0x3d build/sam_e70_xult_freertos/debug/_ext/901008055/plib_usart1.o
 .comment       0x000000000000003c       0x3d build/sam_e70_xult_freertos/debug/_ext/762686499/sys_console.o
 .comment       0x000000000000003c       0x3d build/sam_e70_xult_freertos/debug/_ext/762686499/sys_console_uart.o
 .comment       0x000000000000003c       0x3d build/sam_e70_xult_freertos/debug/_ext/762686499/sys_debug.o
 .comment       0x000000000000003c       0x3d build/sam_e70_xult_freertos/debug/_ext/762686499/sys_command.o
 .comment       0x000000000000003c       0x3d build/sam_e70_xult_freertos/debug/_ext/1775855163/sys_int.o
 .comment       0x000000000000003c       0x3d build/sam_e70_xult_freertos/debug/_ext/912870411/sys_time.o
 .comment       0x000000000000003c       0x3d build/sam_e70_xult_freertos/debug/_ext/231871610/sys_time_h2_adapter.o
 .comment       0x000000000000003c       0x3d build/sam_e70_xult_freertos/debug/_ext/1552905064/tasks.o
 .comment       0x000000000000003c       0x3d build/sam_e70_xult_freertos/debug/_ext/1552905064/initialization.o
 .comment       0x000000000000003c       0x3d build/sam_e70_xult_freertos/debug/_ext/1552905064/interrupts.o
 .comment       0x000000000000003c       0x3d build/sam_e70_xult_freertos/debug/_ext/1552905064/exceptions.o
 .comment       0x000000000000003c       0x3d build/sam_e70_xult_freertos/debug/_ext/1552905064/startup_xc32.o
 .comment       0x000000000000003c       0x3d build/sam_e70_xult_freertos/debug/_ext/1552905064/freertos_hooks.o
 .comment       0x000000000000003c       0x3d build/sam_e70_xult_freertos/debug/_ext/977623654/port.o
 .comment       0x000000000000003c       0x3d build/sam_e70_xult_freertos/debug/_ext/1665200909/heap_3.o
 .comment       0x000000000000003c       0x3d build/sam_e70_xult_freertos/debug/_ext/404212886/list.o
 .comment       0x000000000000003c       0x3d build/sam_e70_xult_freertos/debug/_ext/404212886/queue.o
 .comment       0x000000000000003c       0x3d build/sam_e70_xult_freertos/debug/_ext/404212886/FreeRTOS_tasks.o
 .comment       0x000000000000003c       0x3d build/sam_e70_xult_freertos/debug/_ext/281930714/osal_freertos.o
 .comment       0x000000000000003c       0x3d build/sam_e70_xult_freertos/debug/_ext/1360937237/app_commands.o
 .comment       0x000000000000003c       0x3d build/sam_e70_xult_freertos/debug/_ext/1360937237/app.o
 .comment       0x000000000000003c       0x3d build/sam_e70_xult_freertos/debug/_ext/1360937237/main.o

.debug_frame    0x0000000000000000     0x75b4
 .debug_frame   0x0000000000000000       0x20 build/sam_e70_xult_freertos/debug/_ext/683629640/bsp.o
 .debug_frame   0x0000000000000020      0x728 build/sam_e70_xult_freertos/debug/_ext/1607428259/drv_ethphy.o
 .debug_frame   0x0000000000000748       0x70 build/sam_e70_xult_freertos/debug/_ext/1607428259/drv_extphy_smsc8740.o
 .debug_frame   0x00000000000007b8      0x670 build/sam_e70_xult_freertos/debug/_ext/1619526243/drv_gmac.o
 .debug_frame   0x0000000000000e28      0x230 build/sam_e70_xult_freertos/debug/_ext/1619526243/drv_gmac_lib_samE7x_V7x.o
 .debug_frame   0x0000000000001058      0x2c8 build/sam_e70_xult_freertos/debug/_ext/511568427/drv_miim.o
 .debug_frame   0x0000000000001320       0xd8 build/sam_e70_xult_freertos/debug/_ext/810785262/helpers.o
 .debug_frame   0x00000000000013f8      0x490 build/sam_e70_xult_freertos/debug/_ext/810785262/dns.o
 .debug_frame   0x0000000000001888       0x84 build/sam_e70_xult_freertos/debug/_ext/810785262/icmp.o
 .debug_frame   0x000000000000190c      0x76c build/sam_e70_xult_freertos/debug/_ext/810785262/tcp.o
 .debug_frame   0x0000000000002078      0x52c build/sam_e70_xult_freertos/debug/_ext/810785262/dhcp.o
 .debug_frame   0x00000000000025a4      0x4dc build/sam_e70_xult_freertos/debug/_ext/810785262/arp.o
 .debug_frame   0x0000000000002a80      0x304 build/sam_e70_xult_freertos/debug/_ext/810785262/tcpip_commands.o
 .debug_frame   0x0000000000002d84      0x2ac build/sam_e70_xult_freertos/debug/_ext/810785262/ipv4.o
 .debug_frame   0x0000000000003030       0x9c build/sam_e70_xult_freertos/debug/_ext/810785262/tcpip_heap_alloc.o
 .debug_frame   0x00000000000030cc      0x138 build/sam_e70_xult_freertos/debug/_ext/810785262/tcpip_heap_internal.o
 .debug_frame   0x0000000000003204       0x30 build/sam_e70_xult_freertos/debug/_ext/810785262/hash_fnv.o
 .debug_frame   0x0000000000003234       0xc0 build/sam_e70_xult_freertos/debug/_ext/810785262/oahash.o
 .debug_frame   0x00000000000032f4      0x6dc build/sam_e70_xult_freertos/debug/_ext/810785262/tcpip_helpers.o
 .debug_frame   0x00000000000039d0      0xaa8 build/sam_e70_xult_freertos/debug/_ext/810785262/tcpip_manager.o
 .debug_frame   0x0000000000004478       0x94 build/sam_e70_xult_freertos/debug/_ext/810785262/tcpip_notify.o
 .debug_frame   0x000000000000450c      0x150 build/sam_e70_xult_freertos/debug/_ext/810785262/tcpip_packet.o
 .debug_frame   0x000000000000465c      0x678 build/sam_e70_xult_freertos/debug/_ext/810785262/udp.o
 .debug_frame   0x0000000000004cd4       0x20 build/sam_e70_xult_freertos/debug/_ext/45647770/plib_clk.o
 .debug_frame   0x0000000000004cf4       0x20 build/sam_e70_xult_freertos/debug/_ext/45638026/plib_mpu.o
 .debug_frame   0x0000000000004d14       0x20 build/sam_e70_xult_freertos/debug/_ext/1414743522/plib_nvic.o
 .debug_frame   0x0000000000004d34       0xa0 build/sam_e70_xult_freertos/debug/_ext/45635366/plib_pio.o
 .debug_frame   0x0000000000004dd4       0xb8 build/sam_e70_xult_freertos/debug/_ext/1245453995/plib_tc0.o
 .debug_frame   0x0000000000004e8c      0x114 build/sam_e70_xult_freertos/debug/_ext/901008055/plib_usart1.o
 .debug_frame   0x0000000000004fa0       0xcc build/sam_e70_xult_freertos/debug/_ext/762686499/sys_console.o
 .debug_frame   0x000000000000506c      0x174 build/sam_e70_xult_freertos/debug/_ext/762686499/sys_console_uart.o
 .debug_frame   0x00000000000051e0       0xb4 build/sam_e70_xult_freertos/debug/_ext/762686499/sys_debug.o
 .debug_frame   0x0000000000005294      0x2e0 build/sam_e70_xult_freertos/debug/_ext/762686499/sys_command.o
 .debug_frame   0x0000000000005574       0x6c build/sam_e70_xult_freertos/debug/_ext/1775855163/sys_int.o
 .debug_frame   0x00000000000055e0      0x3bc build/sam_e70_xult_freertos/debug/_ext/912870411/sys_time.o
 .debug_frame   0x000000000000599c       0x40 build/sam_e70_xult_freertos/debug/_ext/231871610/sys_time_h2_adapter.o
 .debug_frame   0x00000000000059dc       0x94 build/sam_e70_xult_freertos/debug/_ext/1552905064/tasks.o
 .debug_frame   0x0000000000005a70       0x44 build/sam_e70_xult_freertos/debug/_ext/1552905064/initialization.o
 .debug_frame   0x0000000000005ab4       0x20 build/sam_e70_xult_freertos/debug/_ext/1552905064/interrupts.o
 .debug_frame   0x0000000000005ad4       0x70 build/sam_e70_xult_freertos/debug/_ext/1552905064/exceptions.o
 .debug_frame   0x0000000000005b44       0x30 build/sam_e70_xult_freertos/debug/_ext/1552905064/startup_xc32.o
 .debug_frame   0x0000000000005b74       0x6c build/sam_e70_xult_freertos/debug/_ext/1552905064/freertos_hooks.o
 .debug_frame   0x0000000000005be0       0xe8 build/sam_e70_xult_freertos/debug/_ext/977623654/port.o
 .debug_frame   0x0000000000005cc8       0x44 build/sam_e70_xult_freertos/debug/_ext/1665200909/heap_3.o
 .debug_frame   0x0000000000005d0c       0x6c build/sam_e70_xult_freertos/debug/_ext/404212886/list.o
 .debug_frame   0x0000000000005d78      0x280 build/sam_e70_xult_freertos/debug/_ext/404212886/queue.o
 .debug_frame   0x0000000000005ff8      0x488 build/sam_e70_xult_freertos/debug/_ext/404212886/FreeRTOS_tasks.o
 .debug_frame   0x0000000000006480      0x150 build/sam_e70_xult_freertos/debug/_ext/281930714/osal_freertos.o
 .debug_frame   0x00000000000065d0       0x44 build/sam_e70_xult_freertos/debug/_ext/1360937237/app_commands.o
 .debug_frame   0x0000000000006614       0x7c build/sam_e70_xult_freertos/debug/_ext/1360937237/app.o
 .debug_frame   0x0000000000006690       0x28 build/sam_e70_xult_freertos/debug/_ext/1360937237/main.o
 .debug_frame   0x00000000000066b8       0x2c /Applications/microchip/xc32/v2.15/bin/bin/../../lib/gcc/pic32c/6.2.1/../../../../pic32c/lib/v7e-m/fpv5/hard/libpic32c.a(data_init.o)
 .debug_frame   0x00000000000066e4       0x2c /Applications/microchip/xc32/v2.15/bin/bin/../../lib/gcc/pic32c/6.2.1/v7e-m/fpv5/hard/libgcc.a(_aeabi_uldivmod.o)
 .debug_frame   0x0000000000006710       0x34 /Applications/microchip/xc32/v2.15/bin/bin/../../lib/gcc/pic32c/6.2.1/v7e-m/fpv5/hard/libgcc.a(_udivmoddi4.o)
 .debug_frame   0x0000000000006744       0x30 /Applications/microchip/xc32/v2.15/bin/bin/../../lib/gcc/pic32c/6.2.1/../../../../pic32c/lib/v7e-m/fpv5/hard/libg.a(lib_a-atoi.o)
 .debug_frame   0x0000000000006774       0x20 /Applications/microchip/xc32/v2.15/bin/bin/../../lib/gcc/pic32c/6.2.1/../../../../pic32c/lib/v7e-m/fpv5/hard/libg.a(lib_a-calloc.o)
 .debug_frame   0x0000000000006794       0x28 /Applications/microchip/xc32/v2.15/bin/bin/../../lib/gcc/pic32c/6.2.1/../../../../pic32c/lib/v7e-m/fpv5/hard/libg.a(lib_a-callocr.o)
 .debug_frame   0x00000000000067bc       0x2c /Applications/microchip/xc32/v2.15/bin/bin/../../lib/gcc/pic32c/6.2.1/../../../../pic32c/lib/v7e-m/fpv5/hard/libg.a(lib_a-init.o)
 .debug_frame   0x00000000000067e8       0x6c /Applications/microchip/xc32/v2.15/bin/bin/../../lib/gcc/pic32c/6.2.1/../../../../pic32c/lib/v7e-m/fpv5/hard/libg.a(lib_a-locale.o)
 .debug_frame   0x0000000000006854       0x30 /Applications/microchip/xc32/v2.15/bin/bin/../../lib/gcc/pic32c/6.2.1/../../../../pic32c/lib/v7e-m/fpv5/hard/libg.a(lib_a-malloc.o)
 .debug_frame   0x0000000000006884       0x58 /Applications/microchip/xc32/v2.15/bin/bin/../../lib/gcc/pic32c/6.2.1/../../../../pic32c/lib/v7e-m/fpv5/hard/libg.a(lib_a-mallocr.o)
 .debug_frame   0x00000000000068dc       0x4c /Applications/microchip/xc32/v2.15/bin/bin/../../lib/gcc/pic32c/6.2.1/../../../../pic32c/lib/v7e-m/fpv5/hard/libg.a(lib_a-mbtowc_r.o)
 .debug_frame   0x0000000000006928       0x3c /Applications/microchip/xc32/v2.15/bin/bin/../../lib/gcc/pic32c/6.2.1/../../../../pic32c/lib/v7e-m/fpv5/hard/libg.a(lib_a-memcmp.o)
 .debug_frame   0x0000000000006964       0x34 /Applications/microchip/xc32/v2.15/bin/bin/../../lib/gcc/pic32c/6.2.1/../../../../pic32c/lib/v7e-m/fpv5/hard/libg.a(lib_a-memset.o)
 .debug_frame   0x0000000000006998       0x30 /Applications/microchip/xc32/v2.15/bin/bin/../../lib/gcc/pic32c/6.2.1/../../../../pic32c/lib/v7e-m/fpv5/hard/libg.a(lib_a-mlock.o)
 .debug_frame   0x00000000000069c8       0x3c /Applications/microchip/xc32/v2.15/bin/bin/../../lib/gcc/pic32c/6.2.1/../../../../pic32c/lib/v7e-m/fpv5/hard/libg.a(lib_a-rand.o)
 .debug_frame   0x0000000000006a04       0x2c /Applications/microchip/xc32/v2.15/bin/bin/../../lib/gcc/pic32c/6.2.1/../../../../pic32c/lib/v7e-m/fpv5/hard/libg.a(lib_a-sbrkr.o)
 .debug_frame   0x0000000000006a30       0xd0 /Applications/microchip/xc32/v2.15/bin/bin/../../lib/gcc/pic32c/6.2.1/../../../../pic32c/lib/v7e-m/fpv5/hard/libg.a(lib_a-snprintf.o)
 .debug_frame   0x0000000000006b00       0x84 /Applications/microchip/xc32/v2.15/bin/bin/../../lib/gcc/pic32c/6.2.1/../../../../pic32c/lib/v7e-m/fpv5/hard/libg.a(lib_a-sprintf.o)
 .debug_frame   0x0000000000006b84       0x68 /Applications/microchip/xc32/v2.15/bin/bin/../../lib/gcc/pic32c/6.2.1/../../../../pic32c/lib/v7e-m/fpv5/hard/libg.a(lib_a-strcmp.o)
 .debug_frame   0x0000000000006bec       0x20 /Applications/microchip/xc32/v2.15/bin/bin/../../lib/gcc/pic32c/6.2.1/../../../../pic32c/lib/v7e-m/fpv5/hard/libg.a(lib_a-strcpy.o)
 .debug_frame   0x0000000000006c0c       0x30 /Applications/microchip/xc32/v2.15/bin/bin/../../lib/gcc/pic32c/6.2.1/../../../../pic32c/lib/v7e-m/fpv5/hard/libg.a(lib_a-strncat.o)
 .debug_frame   0x0000000000006c3c       0x34 /Applications/microchip/xc32/v2.15/bin/bin/../../lib/gcc/pic32c/6.2.1/../../../../pic32c/lib/v7e-m/fpv5/hard/libg.a(lib_a-strncpy.o)
 .debug_frame   0x0000000000006c70       0xd8 /Applications/microchip/xc32/v2.15/bin/bin/../../lib/gcc/pic32c/6.2.1/../../../../pic32c/lib/v7e-m/fpv5/hard/libg.a(lib_a-strstr.o)
 .debug_frame   0x0000000000006d48       0x20 /Applications/microchip/xc32/v2.15/bin/bin/../../lib/gcc/pic32c/6.2.1/../../../../pic32c/lib/v7e-m/fpv5/hard/libg.a(lib_a-strtok.o)
 .debug_frame   0x0000000000006d68       0x48 /Applications/microchip/xc32/v2.15/bin/bin/../../lib/gcc/pic32c/6.2.1/../../../../pic32c/lib/v7e-m/fpv5/hard/libg.a(lib_a-strtok_r.o)
 .debug_frame   0x0000000000006db0       0x98 /Applications/microchip/xc32/v2.15/bin/bin/../../lib/gcc/pic32c/6.2.1/../../../../pic32c/lib/v7e-m/fpv5/hard/libg.a(lib_a-strtol.o)
 .debug_frame   0x0000000000006e48       0x68 /Applications/microchip/xc32/v2.15/bin/bin/../../lib/gcc/pic32c/6.2.1/../../../../pic32c/lib/v7e-m/fpv5/hard/libg.a(lib_a-svfprintf.o)
 .debug_frame   0x0000000000006eb0       0x60 /Applications/microchip/xc32/v2.15/bin/bin/../../lib/gcc/pic32c/6.2.1/../../../../pic32c/lib/v7e-m/fpv5/hard/libg.a(lib_a-vsnprintf.o)
 .debug_frame   0x0000000000006f10       0x3c /Applications/microchip/xc32/v2.15/bin/bin/../../lib/gcc/pic32c/6.2.1/../../../../pic32c/lib/v7e-m/fpv5/hard/libg.a(lib_a-wctomb_r.o)
 .debug_frame   0x0000000000006f4c       0x50 /Applications/microchip/xc32/v2.15/bin/bin/../../lib/gcc/pic32c/6.2.1/../../../../pic32c/lib/v7e-m/fpv5/hard/libg.a(lib_a-__call_atexit.o)
 .debug_frame   0x0000000000006f9c       0x20 /Applications/microchip/xc32/v2.15/bin/bin/../../lib/gcc/pic32c/6.2.1/../../../../pic32c/lib/v7e-m/fpv5/hard/libg.a(lib_a-atexit.o)
 .debug_frame   0x0000000000006fbc       0x84 /Applications/microchip/xc32/v2.15/bin/bin/../../lib/gcc/pic32c/6.2.1/../../../../pic32c/lib/v7e-m/fpv5/hard/libg.a(lib_a-dtoa.o)
 .debug_frame   0x0000000000007040       0x34 /Applications/microchip/xc32/v2.15/bin/bin/../../lib/gcc/pic32c/6.2.1/../../../../pic32c/lib/v7e-m/fpv5/hard/libg.a(lib_a-fini.o)
 .debug_frame   0x0000000000007074       0x74 /Applications/microchip/xc32/v2.15/bin/bin/../../lib/gcc/pic32c/6.2.1/../../../../pic32c/lib/v7e-m/fpv5/hard/libg.a(lib_a-freer.o)
 .debug_frame   0x00000000000070e8       0x40 /Applications/microchip/xc32/v2.15/bin/bin/../../lib/gcc/pic32c/6.2.1/../../../../pic32c/lib/v7e-m/fpv5/hard/libg.a(lib_a-localeconv.o)
 .debug_frame   0x0000000000007128      0x248 /Applications/microchip/xc32/v2.15/bin/bin/../../lib/gcc/pic32c/6.2.1/../../../../pic32c/lib/v7e-m/fpv5/hard/libg.a(lib_a-mprec.o)
 .debug_frame   0x0000000000007370       0x58 /Applications/microchip/xc32/v2.15/bin/bin/../../lib/gcc/pic32c/6.2.1/../../../../pic32c/lib/v7e-m/fpv5/hard/libg.a(lib_a-reent.o)
 .debug_frame   0x00000000000073c8       0x38 /Applications/microchip/xc32/v2.15/bin/bin/../../lib/gcc/pic32c/6.2.1/../../../../pic32c/lib/v7e-m/fpv5/hard/libg.a(lib_a-s_frexp.o)
 .debug_frame   0x0000000000007400       0x50 /Applications/microchip/xc32/v2.15/bin/bin/../../lib/gcc/pic32c/6.2.1/../../../../pic32c/lib/v7e-m/fpv5/hard/libg.a(lib_a-strchr.o)
 .debug_frame   0x0000000000007450       0x78 /Applications/microchip/xc32/v2.15/bin/bin/../../lib/gcc/pic32c/6.2.1/../../../../pic32c/lib/v7e-m/fpv5/hard/libg.a(lib_a-svfiprintf.o)
 .debug_frame   0x00000000000074c8       0x34 /Applications/microchip/xc32/v2.15/bin/bin/../../lib/gcc/pic32c/6.2.1/../../../../pic32c/lib/v7e-m/fpv5/hard/libg.a(lib_a-__atexit.o)
 .debug_frame   0x00000000000074fc       0x30 /Applications/microchip/xc32/v2.15/bin/bin/../../lib/gcc/pic32c/6.2.1/../../../../pic32c/lib/v7e-m/fpv5/hard/libg.a(lib_a-memmove.o)
 .debug_frame   0x000000000000752c       0x68 /Applications/microchip/xc32/v2.15/bin/bin/../../lib/gcc/pic32c/6.2.1/../../../../pic32c/lib/v7e-m/fpv5/hard/libg.a(lib_a-reallocr.o)
 .debug_frame   0x0000000000007594       0x20 /Applications/microchip/xc32/v2.15/bin/bin/../../lib/gcc/pic32c/6.2.1/../../../../pic32c/lib/v7e-m/fpv5/hard/libpic32c.a(sbrk.o)

.debug_loc      0x0000000000000000    0x3385f
 .debug_loc     0x0000000000000000     0x38cb build/sam_e70_xult_freertos/debug/_ext/1607428259/drv_ethphy.o
 .debug_loc     0x00000000000038cb      0x29b build/sam_e70_xult_freertos/debug/_ext/1607428259/drv_extphy_smsc8740.o
 .debug_loc     0x0000000000003b66     0x1e66 build/sam_e70_xult_freertos/debug/_ext/1619526243/drv_gmac.o
 .debug_loc     0x00000000000059cc     0x1a8f build/sam_e70_xult_freertos/debug/_ext/1619526243/drv_gmac_lib_samE7x_V7x.o
 .debug_loc     0x000000000000745b     0x2421 build/sam_e70_xult_freertos/debug/_ext/511568427/drv_miim.o
 .debug_loc     0x000000000000987c      0x4be build/sam_e70_xult_freertos/debug/_ext/810785262/helpers.o
 .debug_loc     0x0000000000009d3a     0x2cf8 build/sam_e70_xult_freertos/debug/_ext/810785262/dns.o
 .debug_loc     0x000000000000ca32      0x37c build/sam_e70_xult_freertos/debug/_ext/810785262/icmp.o
 .debug_loc     0x000000000000cdae     0x65a2 build/sam_e70_xult_freertos/debug/_ext/810785262/tcp.o
 .debug_loc     0x0000000000013350     0x2d25 build/sam_e70_xult_freertos/debug/_ext/810785262/dhcp.o
 .debug_loc     0x0000000000016075     0x2a93 build/sam_e70_xult_freertos/debug/_ext/810785262/arp.o
 .debug_loc     0x0000000000018b08     0x217c build/sam_e70_xult_freertos/debug/_ext/810785262/tcpip_commands.o
 .debug_loc     0x000000000001ac84     0x209e build/sam_e70_xult_freertos/debug/_ext/810785262/ipv4.o
 .debug_loc     0x000000000001cd22      0x1fe build/sam_e70_xult_freertos/debug/_ext/810785262/tcpip_heap_alloc.o
 .debug_loc     0x000000000001cf20      0xad5 build/sam_e70_xult_freertos/debug/_ext/810785262/tcpip_heap_internal.o
 .debug_loc     0x000000000001d9f5      0x278 build/sam_e70_xult_freertos/debug/_ext/810785262/hash_fnv.o
 .debug_loc     0x000000000001dc6d      0x3ce build/sam_e70_xult_freertos/debug/_ext/810785262/oahash.o
 .debug_loc     0x000000000001e03b     0x2c37 build/sam_e70_xult_freertos/debug/_ext/810785262/tcpip_helpers.o
 .debug_loc     0x0000000000020c72     0x5513 build/sam_e70_xult_freertos/debug/_ext/810785262/tcpip_manager.o
 .debug_loc     0x0000000000026185      0x2dc build/sam_e70_xult_freertos/debug/_ext/810785262/tcpip_notify.o
 .debug_loc     0x0000000000026461      0xa29 build/sam_e70_xult_freertos/debug/_ext/810785262/tcpip_packet.o
 .debug_loc     0x0000000000026e8a     0x3eb3 build/sam_e70_xult_freertos/debug/_ext/810785262/udp.o
 .debug_loc     0x000000000002ad3d      0x11c build/sam_e70_xult_freertos/debug/_ext/1414743522/plib_nvic.o
 .debug_loc     0x000000000002ae59       0x84 build/sam_e70_xult_freertos/debug/_ext/45635366/plib_pio.o
 .debug_loc     0x000000000002aedd       0x42 build/sam_e70_xult_freertos/debug/_ext/1245453995/plib_tc0.o
 .debug_loc     0x000000000002af1f      0x4ea build/sam_e70_xult_freertos/debug/_ext/901008055/plib_usart1.o
 .debug_loc     0x000000000002b409      0x676 build/sam_e70_xult_freertos/debug/_ext/762686499/sys_console.o
 .debug_loc     0x000000000002ba7f      0xb14 build/sam_e70_xult_freertos/debug/_ext/762686499/sys_console_uart.o
 .debug_loc     0x000000000002c593      0x142 build/sam_e70_xult_freertos/debug/_ext/762686499/sys_debug.o
 .debug_loc     0x000000000002c6d5     0x1257 build/sam_e70_xult_freertos/debug/_ext/762686499/sys_command.o
 .debug_loc     0x000000000002d92c       0xe9 build/sam_e70_xult_freertos/debug/_ext/1775855163/sys_int.o
 .debug_loc     0x000000000002da15     0x1e63 build/sam_e70_xult_freertos/debug/_ext/912870411/sys_time.o
 .debug_loc     0x000000000002f878       0xde build/sam_e70_xult_freertos/debug/_ext/231871610/sys_time_h2_adapter.o
 .debug_loc     0x000000000002f956      0x13c build/sam_e70_xult_freertos/debug/_ext/1552905064/tasks.o
 .debug_loc     0x000000000002fa92       0x79 build/sam_e70_xult_freertos/debug/_ext/1552905064/initialization.o
 .debug_loc     0x000000000002fb0b       0x6d build/sam_e70_xult_freertos/debug/_ext/1552905064/startup_xc32.o
 .debug_loc     0x000000000002fb78       0x7a build/sam_e70_xult_freertos/debug/_ext/1552905064/freertos_hooks.o
 .debug_loc     0x000000000002fbf2      0x122 build/sam_e70_xult_freertos/debug/_ext/977623654/port.o
 .debug_loc     0x000000000002fd14       0xbf build/sam_e70_xult_freertos/debug/_ext/1665200909/heap_3.o
 .debug_loc     0x000000000002fdd3       0x9c build/sam_e70_xult_freertos/debug/_ext/404212886/list.o
 .debug_loc     0x000000000002fe6f     0x12d2 build/sam_e70_xult_freertos/debug/_ext/404212886/queue.o
 .debug_loc     0x0000000000031141     0x1c07 build/sam_e70_xult_freertos/debug/_ext/404212886/FreeRTOS_tasks.o
 .debug_loc     0x0000000000032d48      0x5b4 build/sam_e70_xult_freertos/debug/_ext/281930714/osal_freertos.o
 .debug_loc     0x00000000000332fc      0x143 build/sam_e70_xult_freertos/debug/_ext/1360937237/app_commands.o
 .debug_loc     0x000000000003343f      0x400 build/sam_e70_xult_freertos/debug/_ext/1360937237/app.o
 .debug_loc     0x000000000003383f       0x20 build/sam_e70_xult_freertos/debug/_ext/1360937237/main.o

.stack          0x00000000204196b0      0x100
 .stack         0x00000000204196b0      0x100 stack

.bss.gmac_dcpt_array%1
                0x000000002045f000       0xf0
 .bss.gmac_dcpt_array
                0x000000002045f000       0xf0 build/sam_e70_xult_freertos/debug/_ext/1619526243/drv_gmac_lib_samE7x_V7x.o
                0x000000002045f000                gmac_dcpt_array

.bss.printBuff%2
                0x000000002045f0f0      0xa00
 .bss.printBuff
                0x000000002045f0f0      0xa00 build/sam_e70_xult_freertos/debug/_ext/762686499/sys_command.o

.data.impure_data%3
                0x000000002045faf0      0x428
 .data.impure_data
                0x000000002045faf0      0x428 /Applications/microchip/xc32/v2.15/bin/bin/../../lib/gcc/pic32c/6.2.1/../../../../pic32c/lib/v7e-m/fpv5/hard/libg.a(lib_a-impure.o)

.data.__malloc_av_%4
                0x00000000204005f0      0x408
 .data.__malloc_av_
                0x00000000204005f0      0x408 /Applications/microchip/xc32/v2.15/bin/bin/../../lib/gcc/pic32c/6.2.1/../../../../pic32c/lib/v7e-m/fpv5/hard/libg.a(lib_a-mallocr.o)
                0x00000000204005f0                __malloc_av_

.data._gmac_drv_dcpt%5
                0x00000000204009f8      0x304
 .data._gmac_drv_dcpt
                0x00000000204009f8      0x304 build/sam_e70_xult_freertos/debug/_ext/1619526243/drv_gmac.o

.bss.TCPIP_STACK_MODULE_SIGNAL_TBL%6
                0x0000000020400cfc      0x250
 .bss.TCPIP_STACK_MODULE_SIGNAL_TBL
                0x0000000020400cfc      0x250 build/sam_e70_xult_freertos/debug/_ext/810785262/tcpip_manager.o

.bss.sysConsole0UARTWrQueueElements%7
                0x0000000020400f4c      0x208
 .bss.sysConsole0UARTWrQueueElements
                0x0000000020400f4c      0x208 build/sam_e70_xult_freertos/debug/_ext/1552905064/initialization.o

.data.__global_locale%8
                0x0000000020401154      0x16c
 .data.__global_locale
                0x0000000020401154      0x16c /Applications/microchip/xc32/v2.15/bin/bin/../../lib/gcc/pic32c/6.2.1/../../../../pic32c/lib/v7e-m/fpv5/hard/libg.a(lib_a-locale.o)
                0x0000000020401154                __global_locale

.bss.printBuffer%9
                0x000000002045ff18       0xc8
 .bss.printBuffer
                0x000000002045ff18       0xc8 build/sam_e70_xult_freertos/debug/_ext/762686499/sys_debug.o

.bss.tmpBuf%10  0x00000000204012c0       0xc8
 .bss.tmpBuf    0x00000000204012c0       0xc8 build/sam_e70_xult_freertos/debug/_ext/762686499/sys_debug.o

.bss.timers%11  0x0000000020401388       0xa0
 .bss.timers    0x0000000020401388       0xa0 build/sam_e70_xult_freertos/debug/_ext/912870411/sys_time.o

.bss.gDrvMIIMObj%12
                0x0000000020401428       0x94
 .bss.gDrvMIIMObj
                0x0000000020401428       0x94 build/sam_e70_xult_freertos/debug/_ext/511568427/drv_miim.o

.bss.TCPIP_MODULES_QUEUE_TBL%13
                0x00000000204014bc       0x90
 .bss.TCPIP_MODULES_QUEUE_TBL
                0x00000000204014bc       0x90 build/sam_e70_xult_freertos/debug/_ext/810785262/tcpip_manager.o

.bss.saveCmd.7379%14
                0x000000002040154c       0x81
 .bss.saveCmd.7379
                0x000000002040154c       0x81 build/sam_e70_xult_freertos/debug/_ext/762686499/sys_command.o

.bss._usrCmdTbl%15
                0x00000000204015d0       0x80
 .bss._usrCmdTbl
                0x00000000204015d0       0x80 build/sam_e70_xult_freertos/debug/_ext/762686499/sys_command.o

.bss.readBuff%16
                0x0000000020401650       0x80
 .bss.readBuff  0x0000000020401650       0x80 build/sam_e70_xult_freertos/debug/_ext/762686499/sys_command.o

.bss.gDrvETHPHYObj%17
                0x00000000204016d0       0x64
 .bss.gDrvETHPHYObj
                0x00000000204016d0       0x64 build/sam_e70_xult_freertos/debug/_ext/1607428259/drv_ethphy.o

.bss.gConsoleUartData%18
                0x0000000020401734       0x64
 .bss.gConsoleUartData
                0x0000000020401734       0x64 build/sam_e70_xult_freertos/debug/_ext/762686499/sys_console_uart.o

.bss.pxReadyTasksLists%19
                0x0000000020401798       0x64
 .bss.pxReadyTasksLists
                0x0000000020401798       0x64 build/sam_e70_xult_freertos/debug/_ext/404212886/FreeRTOS_tasks.o

.bss.sysConsole0UARTRdQueueElements%20
                0x00000000204017fc       0x58
 .bss.sysConsole0UARTRdQueueElements
                0x00000000204017fc       0x58 build/sam_e70_xult_freertos/debug/_ext/1552905064/initialization.o

.bss.arpMod%21  0x0000000020401854       0x48
 .bss.arpMod    0x0000000020401854       0x48 build/sam_e70_xult_freertos/debug/_ext/810785262/arp.o

.bss.gSystemCounterObj%22
                0x000000002040189c       0x38
 .bss.gSystemCounterObj
                0x000000002040189c       0x38 build/sam_e70_xult_freertos/debug/_ext/912870411/sys_time.o

.bss.gDnsDcpt%23
                0x00000000204018d4       0x28
 .bss.gDnsDcpt  0x00000000204018d4       0x28 build/sam_e70_xult_freertos/debug/_ext/810785262/dns.o

.bss.__malloc_current_mallinfo%24
                0x00000000204018fc       0x28
 .bss.__malloc_current_mallinfo
                0x00000000204018fc       0x28 /Applications/microchip/xc32/v2.15/bin/bin/../../lib/gcc/pic32c/6.2.1/../../../../pic32c/lib/v7e-m/fpv5/hard/libg.a(lib_a-mallocr.o)
                0x00000000204018fc                __malloc_current_mallinfo

.bss.tcpip_stack_ctrl_data%25
                0x000000002045ffe0       0x20
 .bss.tcpip_stack_ctrl_data
                0x000000002045ffe0       0x20 build/sam_e70_xult_freertos/debug/_ext/810785262/tcpip_manager.o

.bss.dnslookupTargetHost%26
                0x0000000020401924       0x1f
 .bss.dnslookupTargetHost
                0x0000000020401924       0x1f build/sam_e70_xult_freertos/debug/_ext/810785262/tcpip_commands.o

.bss%27         0x0000000020401944       0x1c
 .bss           0x0000000020401944       0x1c /Applications/microchip/xc32/v2.15/bin/bin/../../lib/gcc/pic32c/6.2.1/v7e-m/fpv5/hard/crtbegin.o

.bss._cmdAppData%28
                0x0000000020401960       0x18
 .bss._cmdAppData
                0x0000000020401960       0x18 build/sam_e70_xult_freertos/debug/_ext/762686499/sys_command.o

.bss.dhcpRegisteredUsers%29
                0x0000000020401978       0x14
 .bss.dhcpRegisteredUsers
                0x0000000020401978       0x14 build/sam_e70_xult_freertos/debug/_ext/810785262/dhcp.o

.bss.cmdTcpipInitData%30
                0x000000002040198c       0x14
 .bss.cmdTcpipInitData
                0x000000002040198c       0x14 build/sam_e70_xult_freertos/debug/_ext/810785262/tcpip_commands.o

.bss.ipv4ArpQueue%31
                0x00000000204019a0       0x14
 .bss.ipv4ArpQueue
                0x00000000204019a0       0x14 build/sam_e70_xult_freertos/debug/_ext/810785262/ipv4.o

.bss.ipv4PacketFilters%32
                0x00000000204019b4       0x14
 .bss.ipv4PacketFilters
                0x00000000204019b4       0x14 build/sam_e70_xult_freertos/debug/_ext/810785262/ipv4.o

.bss.tcpip_init_data%33
                0x00000000204019c8       0x14
 .bss.tcpip_init_data
                0x00000000204019c8       0x14 build/sam_e70_xult_freertos/debug/_ext/810785262/tcpip_manager.o

.data.tcpipHeapConfig%34
                0x00000000204019dc       0x14
 .data.tcpipHeapConfig
                0x00000000204019dc       0x14 build/sam_e70_xult_freertos/debug/_ext/1552905064/initialization.o
                0x00000000204019dc                tcpipHeapConfig

.bss.xDelayedTaskList1%35
                0x00000000204019f0       0x14
 .bss.xDelayedTaskList1
                0x00000000204019f0       0x14 build/sam_e70_xult_freertos/debug/_ext/404212886/FreeRTOS_tasks.o

.bss.xDelayedTaskList2%36
                0x0000000020401a04       0x14
 .bss.xDelayedTaskList2
                0x0000000020401a04       0x14 build/sam_e70_xult_freertos/debug/_ext/404212886/FreeRTOS_tasks.o

.bss.xPendingReadyList%37
                0x0000000020401a18       0x14
 .bss.xPendingReadyList
                0x0000000020401a18       0x14 build/sam_e70_xult_freertos/debug/_ext/404212886/FreeRTOS_tasks.o

.bss.xSuspendedTaskList%38
                0x0000000020401a2c       0x14
 .bss.xSuspendedTaskList
                0x0000000020401a2c       0x14 build/sam_e70_xult_freertos/debug/_ext/404212886/FreeRTOS_tasks.o

.bss.xTasksWaitingTermination%39
                0x0000000020401a40       0x14
 .bss.xTasksWaitingTermination
                0x0000000020401a40       0x14 build/sam_e70_xult_freertos/debug/_ext/404212886/FreeRTOS_tasks.o

.bss.tcpip_heap_config%40
                0x0000000020401a54       0x10
 .bss.tcpip_heap_config
                0x0000000020401a54       0x10 build/sam_e70_xult_freertos/debug/_ext/810785262/tcpip_manager.o

.bss.consoleDeviceInstance%41
                0x0000000020401a64        0xc
 .bss.consoleDeviceInstance
                0x0000000020401a64        0xc build/sam_e70_xult_freertos/debug/_ext/762686499/sys_console.o

.bss.cmdIODevList%42
                0x0000000020401a70        0xc
 .bss.cmdIODevList
                0x0000000020401a70        0xc build/sam_e70_xult_freertos/debug/_ext/762686499/sys_command.o

.bss._cmdList%43
                0x0000000020401a7c        0x8
 .bss._cmdList  0x0000000020401a7c        0x8 build/sam_e70_xult_freertos/debug/_ext/762686499/sys_command.o

.data.dwLastIP.13363%44
                0x0000000020401a84        0x8
 .data.dwLastIP.13363
                0x0000000020401a84        0x8 build/sam_e70_xult_freertos/debug/_ext/1360937237/app.o

.data.arpBcastAdd%45
                0x0000000020401a8c        0x6
 .data.arpBcastAdd
                0x0000000020401a8c        0x6 build/sam_e70_xult_freertos/debug/_ext/810785262/arp.o

.bss._hEventMac%46
                0x0000000020401a94        0x4
 .bss._hEventMac
                0x0000000020401a94        0x4 build/sam_e70_xult_freertos/debug/_ext/1619526243/drv_gmac.o

.bss._MIIMStayAssertLoop%47
                0x0000000020401a98        0x4
 .bss._MIIMStayAssertLoop
                0x0000000020401a98        0x4 build/sam_e70_xult_freertos/debug/_ext/511568427/drv_miim.o
                0x0000000020401a98                _MIIMStayAssertLoop

.bss._DNSStayAssertLoop%48
                0x0000000020401a9c        0x4
 .bss._DNSStayAssertLoop
                0x0000000020401a9c        0x4 build/sam_e70_xult_freertos/debug/_ext/810785262/dns.o
                0x0000000020401a9c                _DNSStayAssertLoop

.bss._DNSStayCondLoop%49
                0x0000000020401aa0        0x4
 .bss._DNSStayCondLoop
                0x0000000020401aa0        0x4 build/sam_e70_xult_freertos/debug/_ext/810785262/dns.o
                0x0000000020401aa0                _DNSStayCondLoop

.bss.dnsInitCount%50
                0x0000000020401aa4        0x4
 .bss.dnsInitCount
                0x0000000020401aa4        0x4 build/sam_e70_xult_freertos/debug/_ext/810785262/dns.o

.bss.pgDnsDcpt%51
                0x0000000020401aa8        0x4
 .bss.pgDnsDcpt
                0x0000000020401aa8        0x4 build/sam_e70_xult_freertos/debug/_ext/810785262/dns.o

.bss.icmpInitCount%52
                0x0000000020401aac        0x4
 .bss.icmpInitCount
                0x0000000020401aac        0x4 build/sam_e70_xult_freertos/debug/_ext/810785262/icmp.o

.bss.signalHandle%53
                0x0000000020401ab0        0x4
 .bss.signalHandle
                0x0000000020401ab0        0x4 build/sam_e70_xult_freertos/debug/_ext/810785262/icmp.o

.bss.TCBStubs%54
                0x0000000020401ab4        0x4
 .bss.TCBStubs  0x0000000020401ab4        0x4 build/sam_e70_xult_freertos/debug/_ext/810785262/tcp.o

.bss.TcpSockets%55
                0x0000000020401ab8        0x4
 .bss.TcpSockets
                0x0000000020401ab8        0x4 build/sam_e70_xult_freertos/debug/_ext/810785262/tcp.o

.bss.tcpHeapH%56
                0x0000000020401abc        0x4
 .bss.tcpHeapH  0x0000000020401abc        0x4 build/sam_e70_xult_freertos/debug/_ext/810785262/tcp.o

.bss.tcpInitCount%57
                0x0000000020401ac0        0x4
 .bss.tcpInitCount
                0x0000000020401ac0        0x4 build/sam_e70_xult_freertos/debug/_ext/810785262/tcp.o

.bss.tcpLockCount%58
                0x0000000020401ac4        0x4
 .bss.tcpLockCount
                0x0000000020401ac4        0x4 build/sam_e70_xult_freertos/debug/_ext/810785262/tcp.o

.bss.tcpSemaphore%59
                0x0000000020401ac8        0x4
 .bss.tcpSemaphore
                0x0000000020401ac8        0x4 build/sam_e70_xult_freertos/debug/_ext/810785262/tcp.o

.bss.tcpSignalHandle%60
                0x0000000020401acc        0x4
 .bss.tcpSignalHandle
                0x0000000020401acc        0x4 build/sam_e70_xult_freertos/debug/_ext/810785262/tcp.o

.bss.DHCPClients%61
                0x0000000020401ad0        0x4
 .bss.DHCPClients
                0x0000000020401ad0        0x4 build/sam_e70_xult_freertos/debug/_ext/810785262/dhcp.o

.bss.dhcpFilterHandle%62
                0x0000000020401ad4        0x4
 .bss.dhcpFilterHandle
                0x0000000020401ad4        0x4 build/sam_e70_xult_freertos/debug/_ext/810785262/dhcp.o

.bss.dhcpInitCount%63
                0x0000000020401ad8        0x4
 .bss.dhcpInitCount
                0x0000000020401ad8        0x4 build/sam_e70_xult_freertos/debug/_ext/810785262/dhcp.o

.bss.dhcpInterfaces%64
                0x0000000020401adc        0x4
 .bss.dhcpInterfaces
                0x0000000020401adc        0x4 build/sam_e70_xult_freertos/debug/_ext/810785262/dhcp.o

.bss.dhcpMemH%65
                0x0000000020401ae0        0x4
 .bss.dhcpMemH  0x0000000020401ae0        0x4 build/sam_e70_xult_freertos/debug/_ext/810785262/dhcp.o

.bss.dhcpSecondCount%66
                0x0000000020401ae4        0x4
 .bss.dhcpSecondCount
                0x0000000020401ae4        0x4 build/sam_e70_xult_freertos/debug/_ext/810785262/dhcp.o

.bss.dhcpSignalHandle%67
                0x0000000020401ae8        0x4
 .bss.dhcpSignalHandle
                0x0000000020401ae8        0x4 build/sam_e70_xult_freertos/debug/_ext/810785262/dhcp.o

.bss.dnsLookUpStartTick%68
                0x0000000020401aec        0x4
 .bss.dnsLookUpStartTick
                0x0000000020401aec        0x4 build/sam_e70_xult_freertos/debug/_ext/810785262/tcpip_commands.o

.bss.dnsLookupCmdIoParam%69
                0x0000000020401af0        0x4
 .bss.dnsLookupCmdIoParam
                0x0000000020401af0        0x4 build/sam_e70_xult_freertos/debug/_ext/810785262/tcpip_commands.o

.bss.initialNetIfs%70
                0x0000000020401af4        0x4
 .bss.initialNetIfs
                0x0000000020401af4        0x4 build/sam_e70_xult_freertos/debug/_ext/810785262/tcpip_commands.o

.bss.pCmdTcpipInitData%71
                0x0000000020401af8        0x4
 .bss.pCmdTcpipInitData
                0x0000000020401af8        0x4 build/sam_e70_xult_freertos/debug/_ext/810785262/tcpip_commands.o

.bss.pTcpipCmdDevice%72
                0x0000000020401afc        0x4
 .bss.pTcpipCmdDevice
                0x0000000020401afc        0x4 build/sam_e70_xult_freertos/debug/_ext/810785262/tcpip_commands.o

.bss.tcpipCmdSignalHandle%73
                0x0000000020401b00        0x4
 .bss.tcpipCmdSignalHandle
                0x0000000020401b00        0x4 build/sam_e70_xult_freertos/debug/_ext/810785262/tcpip_commands.o

.bss._IPv4StayAssertLoop%74
                0x0000000020401b04        0x4
 .bss._IPv4StayAssertLoop
                0x0000000020401b04        0x4 build/sam_e70_xult_freertos/debug/_ext/810785262/ipv4.o
                0x0000000020401b04                _IPv4StayAssertLoop

.bss.ipv4ArpHandle%75
                0x0000000020401b08        0x4
 .bss.ipv4ArpHandle
                0x0000000020401b08        0x4 build/sam_e70_xult_freertos/debug/_ext/810785262/ipv4.o

.bss.ipv4MemH%76
                0x0000000020401b0c        0x4
 .bss.ipv4MemH  0x0000000020401b0c        0x4 build/sam_e70_xult_freertos/debug/_ext/810785262/ipv4.o

.bss.signalHandle%77
                0x0000000020401b10        0x4
 .bss.signalHandle
                0x0000000020401b10        0x4 build/sam_e70_xult_freertos/debug/_ext/810785262/ipv4.o

.bss.newTcpipErrorEventCnt%78
                0x0000000020401b14        0x4
 .bss.newTcpipErrorEventCnt
                0x0000000020401b14        0x4 build/sam_e70_xult_freertos/debug/_ext/810785262/tcpip_manager.o

.bss.newTcpipStackEventCnt%79
                0x0000000020401b18        0x4
 .bss.newTcpipStackEventCnt
                0x0000000020401b18        0x4 build/sam_e70_xult_freertos/debug/_ext/810785262/tcpip_manager.o

.bss.newTcpipTickAvlbl%80
                0x0000000020401b1c        0x4
 .bss.newTcpipTickAvlbl
                0x0000000020401b1c        0x4 build/sam_e70_xult_freertos/debug/_ext/810785262/tcpip_manager.o

.bss.stackAsyncSignalCount%81
                0x0000000020401b20        0x4
 .bss.stackAsyncSignalCount
                0x0000000020401b20        0x4 build/sam_e70_xult_freertos/debug/_ext/810785262/tcpip_manager.o

.bss.stackTaskRate%82
                0x0000000020401b24        0x4
 .bss.stackTaskRate
                0x0000000020401b24        0x4 build/sam_e70_xult_freertos/debug/_ext/810785262/tcpip_manager.o

.bss.tcpipDefIf%83
                0x0000000020401b28        0x4
 .bss.tcpipDefIf
                0x0000000020401b28        0x4 build/sam_e70_xult_freertos/debug/_ext/810785262/tcpip_manager.o

.bss.tcpipNetIf%84
                0x0000000020401b2c        0x4
 .bss.tcpipNetIf
                0x0000000020401b2c        0x4 build/sam_e70_xult_freertos/debug/_ext/810785262/tcpip_manager.o

.bss.totTcpipEventsCnt%85
                0x0000000020401b30        0x4
 .bss.totTcpipEventsCnt
                0x0000000020401b30        0x4 build/sam_e70_xult_freertos/debug/_ext/810785262/tcpip_manager.o

.data.tcpip_stack_tickH%86
                0x0000000020401b34        0x4
 .data.tcpip_stack_tickH
                0x0000000020401b34        0x4 build/sam_e70_xult_freertos/debug/_ext/810785262/tcpip_manager.o

.bss.pktMemH%87
                0x0000000020401b38        0x4
 .bss.pktMemH   0x0000000020401b38        0x4 build/sam_e70_xult_freertos/debug/_ext/810785262/tcpip_packet.o

.bss.UDPSocketDcpt%88
                0x0000000020401b3c        0x4
 .bss.UDPSocketDcpt
                0x0000000020401b3c        0x4 build/sam_e70_xult_freertos/debug/_ext/810785262/udp.o

.bss.nUdpSockets%89
                0x0000000020401b40        0x4
 .bss.nUdpSockets
                0x0000000020401b40        0x4 build/sam_e70_xult_freertos/debug/_ext/810785262/udp.o

.bss.signalHandle%90
                0x0000000020401b44        0x4
 .bss.signalHandle
                0x0000000020401b44        0x4 build/sam_e70_xult_freertos/debug/_ext/810785262/udp.o

.bss.udpInitCount%91
                0x0000000020401b48        0x4
 .bss.udpInitCount
                0x0000000020401b48        0x4 build/sam_e70_xult_freertos/debug/_ext/810785262/udp.o

.bss.udpMemH%92
                0x0000000020401b4c        0x4
 .bss.udpMemH   0x0000000020401b4c        0x4 build/sam_e70_xult_freertos/debug/_ext/810785262/udp.o

.bss.userSem%93
                0x0000000020401b50        0x4
 .bss.userSem   0x0000000020401b50        0x4 build/sam_e70_xult_freertos/debug/_ext/810785262/udp.o

.bss._pCurrCmdN%94
                0x0000000020401b54        0x4
 .bss._pCurrCmdN
                0x0000000020401b54        0x4 build/sam_e70_xult_freertos/debug/_ext/762686499/sys_command.o

.bss.printBuffPtr%95
                0x0000000020401b58        0x4
 .bss.printBuffPtr
                0x0000000020401b58        0x4 build/sam_e70_xult_freertos/debug/_ext/762686499/sys_command.o

.bss.systemAdaptObj%96
                0x0000000020401b5c        0x4
 .bss.systemAdaptObj
                0x0000000020401b5c        0x4 build/sam_e70_xult_freertos/debug/_ext/231871610/sys_time_h2_adapter.o

.bss.cmd.13380%97
                0x0000000020401b60        0x4
 .bss.cmd.13380
                0x0000000020401b60        0x4 build/sam_e70_xult_freertos/debug/_ext/1552905064/startup_xc32.o

.data.uxCriticalNesting%98
                0x0000000020401b64        0x4
 .data.uxCriticalNesting
                0x0000000020401b64        0x4 build/sam_e70_xult_freertos/debug/_ext/977623654/port.o

.bss.pxCurrentTCB%99
                0x0000000020401b68        0x4
 .bss.pxCurrentTCB
                0x0000000020401b68        0x4 build/sam_e70_xult_freertos/debug/_ext/404212886/FreeRTOS_tasks.o
                0x0000000020401b68                pxCurrentTCB

.bss.pxDelayedTaskList%100
                0x0000000020401b6c        0x4
 .bss.pxDelayedTaskList
                0x0000000020401b6c        0x4 build/sam_e70_xult_freertos/debug/_ext/404212886/FreeRTOS_tasks.o

.bss.pxOverflowDelayedTaskList%101
                0x0000000020401b70        0x4
 .bss.pxOverflowDelayedTaskList
                0x0000000020401b70        0x4 build/sam_e70_xult_freertos/debug/_ext/404212886/FreeRTOS_tasks.o

.bss.uxCurrentNumberOfTasks%102
                0x0000000020401b74        0x4
 .bss.uxCurrentNumberOfTasks
                0x0000000020401b74        0x4 build/sam_e70_xult_freertos/debug/_ext/404212886/FreeRTOS_tasks.o

.bss.uxDeletedTasksWaitingCleanUp%103
                0x0000000020401b78        0x4
 .bss.uxDeletedTasksWaitingCleanUp
                0x0000000020401b78        0x4 build/sam_e70_xult_freertos/debug/_ext/404212886/FreeRTOS_tasks.o

.bss.uxPendedTicks%104
                0x0000000020401b7c        0x4
 .bss.uxPendedTicks
                0x0000000020401b7c        0x4 build/sam_e70_xult_freertos/debug/_ext/404212886/FreeRTOS_tasks.o

.bss.uxSchedulerSuspended%105
                0x0000000020401b80        0x4
 .bss.uxSchedulerSuspended
                0x0000000020401b80        0x4 build/sam_e70_xult_freertos/debug/_ext/404212886/FreeRTOS_tasks.o

.bss.uxTaskNumber%106
                0x0000000020401b84        0x4
 .bss.uxTaskNumber
                0x0000000020401b84        0x4 build/sam_e70_xult_freertos/debug/_ext/404212886/FreeRTOS_tasks.o

.bss.uxTopReadyPriority%107
                0x0000000020401b88        0x4
 .bss.uxTopReadyPriority
                0x0000000020401b88        0x4 build/sam_e70_xult_freertos/debug/_ext/404212886/FreeRTOS_tasks.o

.bss.xIdleTaskHandle%108
                0x0000000020401b8c        0x4
 .bss.xIdleTaskHandle
                0x0000000020401b8c        0x4 build/sam_e70_xult_freertos/debug/_ext/404212886/FreeRTOS_tasks.o

.bss.xNextTaskUnblockTime%109
                0x0000000020401b90        0x4
 .bss.xNextTaskUnblockTime
                0x0000000020401b90        0x4 build/sam_e70_xult_freertos/debug/_ext/404212886/FreeRTOS_tasks.o

.bss.xNumOfOverflows%110
                0x0000000020401b94        0x4
 .bss.xNumOfOverflows
                0x0000000020401b94        0x4 build/sam_e70_xult_freertos/debug/_ext/404212886/FreeRTOS_tasks.o

.bss.xSchedulerRunning%111
                0x0000000020401b98        0x4
 .bss.xSchedulerRunning
                0x0000000020401b98        0x4 build/sam_e70_xult_freertos/debug/_ext/404212886/FreeRTOS_tasks.o

.bss.xTickCount%112
                0x0000000020401b9c        0x4
 .bss.xTickCount
                0x0000000020401b9c        0x4 build/sam_e70_xult_freertos/debug/_ext/404212886/FreeRTOS_tasks.o

.bss.xYieldPending%113
                0x0000000020401ba0        0x4
 .bss.xYieldPending
                0x0000000020401ba0        0x4 build/sam_e70_xult_freertos/debug/_ext/404212886/FreeRTOS_tasks.o

.data._impure_ptr%114
                0x0000000020401ba4        0x4
 .data._impure_ptr
                0x0000000020401ba4        0x4 /Applications/microchip/xc32/v2.15/bin/bin/../../lib/gcc/pic32c/6.2.1/../../../../pic32c/lib/v7e-m/fpv5/hard/libg.a(lib_a-impure.o)
                0x0000000020401ba4                _impure_ptr

.bss.__malloc_max_sbrked_mem%115
                0x0000000020401ba8        0x4
 .bss.__malloc_max_sbrked_mem
                0x0000000020401ba8        0x4 /Applications/microchip/xc32/v2.15/bin/bin/../../lib/gcc/pic32c/6.2.1/../../../../pic32c/lib/v7e-m/fpv5/hard/libg.a(lib_a-mallocr.o)
                0x0000000020401ba8                __malloc_max_sbrked_mem

.bss.__malloc_max_total_mem%116
                0x0000000020401bac        0x4
 .bss.__malloc_max_total_mem
                0x0000000020401bac        0x4 /Applications/microchip/xc32/v2.15/bin/bin/../../lib/gcc/pic32c/6.2.1/../../../../pic32c/lib/v7e-m/fpv5/hard/libg.a(lib_a-mallocr.o)
                0x0000000020401bac                __malloc_max_total_mem

.bss.__malloc_top_pad%117
                0x0000000020401bb0        0x4
 .bss.__malloc_top_pad
                0x0000000020401bb0        0x4 /Applications/microchip/xc32/v2.15/bin/bin/../../lib/gcc/pic32c/6.2.1/../../../../pic32c/lib/v7e-m/fpv5/hard/libg.a(lib_a-mallocr.o)
                0x0000000020401bb0                __malloc_top_pad

.data.__malloc_sbrk_base%118
                0x0000000020401bb4        0x4
 .data.__malloc_sbrk_base
                0x0000000020401bb4        0x4 /Applications/microchip/xc32/v2.15/bin/bin/../../lib/gcc/pic32c/6.2.1/../../../../pic32c/lib/v7e-m/fpv5/hard/libg.a(lib_a-mallocr.o)
                0x0000000020401bb4                __malloc_sbrk_base

.data.__malloc_trim_threshold%119
                0x0000000020401bb8        0x4
 .data.__malloc_trim_threshold
                0x0000000020401bb8        0x4 /Applications/microchip/xc32/v2.15/bin/bin/../../lib/gcc/pic32c/6.2.1/../../../../pic32c/lib/v7e-m/fpv5/hard/libg.a(lib_a-mallocr.o)
                0x0000000020401bb8                __malloc_trim_threshold

.bss%120        0x0000000020401bbc        0x4
 .bss           0x0000000020401bbc        0x4 /Applications/microchip/xc32/v2.15/bin/bin/../../lib/gcc/pic32c/6.2.1/../../../../pic32c/lib/v7e-m/fpv5/hard/libpic32c.a(sbrk.o)

.bss.tcpDefRxSize%121
                0x0000000020401a92        0x2
 .bss.tcpDefRxSize
                0x0000000020401a92        0x2 build/sam_e70_xult_freertos/debug/_ext/810785262/tcp.o

.bss.tcpDefTxSize%122
                0x00000000204015ce        0x2
 .bss.tcpDefTxSize
                0x00000000204015ce        0x2 build/sam_e70_xult_freertos/debug/_ext/810785262/tcp.o

.bss.dhcpClientPort%123
                0x0000000020401bc0        0x2
 .bss.dhcpClientPort
                0x0000000020401bc0        0x2 build/sam_e70_xult_freertos/debug/_ext/810785262/dhcp.o

.bss.dhcpClientSocket%124
                0x0000000020401bc2        0x2
 .bss.dhcpClientSocket
                0x0000000020401bc2        0x2 build/sam_e70_xult_freertos/debug/_ext/810785262/dhcp.o

.bss.dhcpServerPort%125
                0x0000000020401bc4        0x2
 .bss.dhcpServerPort
                0x0000000020401bc4        0x2 build/sam_e70_xult_freertos/debug/_ext/810785262/dhcp.o

.bss.ipv4Identifier%126
                0x0000000020401bc6        0x2
 .bss.ipv4Identifier
                0x0000000020401bc6        0x2 build/sam_e70_xult_freertos/debug/_ext/810785262/ipv4.o

.bss.ipv4InitCount%127
                0x0000000020401bc8        0x2
 .bss.ipv4InitCount
                0x0000000020401bc8        0x2 build/sam_e70_xult_freertos/debug/_ext/810785262/ipv4.o

.bss.udpDefTxSize%128
                0x0000000020401bca        0x2
 .bss.udpDefTxSize
                0x0000000020401bca        0x2 build/sam_e70_xult_freertos/debug/_ext/810785262/udp.o

.data.gSysTimeTokenCount%129
                0x0000000020401bcc        0x2
 .data.gSysTimeTokenCount
                0x0000000020401bcc        0x2 build/sam_e70_xult_freertos/debug/_ext/912870411/sys_time.o

.bss.discard_flag.13927%130
                0x0000000020401943        0x1
 .bss.discard_flag.13927
                0x0000000020401943        0x1 build/sam_e70_xult_freertos/debug/_ext/1619526243/drv_gmac.o

.bss.tcpipCmdStat%131
                0x00000000204015cd        0x1
 .bss.tcpipCmdStat
                0x00000000204015cd        0x1 build/sam_e70_xult_freertos/debug/_ext/810785262/tcpip_commands.o

.data.dnsType%132
                0x0000000020401bce        0x1
 .data.dnsType  0x0000000020401bce        0x1 build/sam_e70_xult_freertos/debug/_ext/810785262/tcpip_commands.o

.bss.ipv4FilterType%133
                0x0000000020401bcf        0x1
 .bss.ipv4FilterType
                0x0000000020401bcf        0x1 build/sam_e70_xult_freertos/debug/_ext/810785262/ipv4.o

.bss.tcpip_stack_status%134
                0x0000000020401bd0        0x1
 .bss.tcpip_stack_status
                0x0000000020401bd0        0x1 build/sam_e70_xult_freertos/debug/_ext/810785262/tcpip_manager.o

.jcr%z1         0x0000000000000000        0x0
 .jcr           0x0000000000000000        0x0 /Applications/microchip/xc32/v2.15/bin/bin/../../lib/gcc/pic32c/6.2.1/v7e-m/fpv5/hard/crtbegin.o

.eh_frame%z2    0x0000000000000000        0x0
 .eh_frame      0x0000000000000000        0x0 /Applications/microchip/xc32/v2.15/bin/bin/../../lib/gcc/pic32c/6.2.1/v7e-m/fpv5/hard/crtbegin.o

.config_D0000000%135
                0x00000000d0000000        0x4
 .config_D0000000
                0x00000000d0000000        0x4 build/sam_e70_xult_freertos/debug/_ext/1552905064/initialization.o

.text._svfprintf_r%136
                0x0000000000400198     0x18f0
 .text._svfprintf_r
                0x0000000000400198     0x18f0 /Applications/microchip/xc32/v2.15/bin/bin/../../lib/gcc/pic32c/6.2.1/../../../../pic32c/lib/v7e-m/fpv5/hard/libg.a(lib_a-svfprintf.o)
                0x0000000000400198                _svfprintf_r

.rodata%137     0x0000000000401a88     0x1640
 .rodata        0x0000000000401a88     0x1640 build/sam_e70_xult_freertos/debug/_ext/810785262/tcpip_commands.o

.dinit%138      0x00000000004030c8     0x1390
 .dinit         0x00000000004030c8     0x1390 data_init

.text.TCPIP_TCP_Task%139
                0x0000000000404458      0xf24
 .text.TCPIP_TCP_Task
                0x0000000000404458      0xf24 build/sam_e70_xult_freertos/debug/_ext/810785262/tcp.o
                0x0000000000404458                TCPIP_TCP_Task

.text._dtoa_r%140
                0x0000000000405380      0xc4c
 .text._dtoa_r  0x0000000000405380      0xc4c /Applications/microchip/xc32/v2.15/bin/bin/../../lib/gcc/pic32c/6.2.1/../../../../pic32c/lib/v7e-m/fpv5/hard/libg.a(lib_a-dtoa.o)
                0x0000000000405380                _dtoa_r

.rodata.macPIC32CHwRegDcpt%141
                0x0000000000405fcc      0x708
 .rodata.macPIC32CHwRegDcpt
                0x0000000000405fcc      0x708 build/sam_e70_xult_freertos/debug/_ext/1619526243/drv_gmac.o

.text.TCPIP_STACK_Task%142
                0x00000000004066d4      0x630
 .text.TCPIP_STACK_Task
                0x00000000004066d4      0x630 build/sam_e70_xult_freertos/debug/_ext/810785262/tcpip_manager.o
                0x00000000004066d4                TCPIP_STACK_Task

.text._TcpSend%143
                0x0000000000406d04      0x5cc
 .text._TcpSend
                0x0000000000406d04      0x5cc build/sam_e70_xult_freertos/debug/_ext/810785262/tcp.o

.text._Command_DNS_Service%144
                0x00000000004072d0      0x56c
 .text._Command_DNS_Service
                0x00000000004072d0      0x56c build/sam_e70_xult_freertos/debug/_ext/810785262/tcpip_commands.o

.text._malloc_r%145
                0x000000000040783c      0x550
 .text._malloc_r
                0x000000000040783c      0x550 /Applications/microchip/xc32/v2.15/bin/bin/../../lib/gcc/pic32c/6.2.1/../../../../pic32c/lib/v7e-m/fpv5/hard/libg.a(lib_a-mallocr.o)
                0x000000000040783c                _malloc_r

.text.TCPIP_DHCP_Task%146
                0x0000000000407d8c      0x4e4
 .text.TCPIP_DHCP_Task
                0x0000000000407d8c      0x4e4 build/sam_e70_xult_freertos/debug/_ext/810785262/dhcp.o
                0x0000000000407d8c                TCPIP_DHCP_Task

.rodata%147     0x0000000000408270      0x48c
 .rodata        0x0000000000408270      0x48c build/sam_e70_xult_freertos/debug/_ext/810785262/tcpip_manager.o

.text.TCPIP_STACK_Initialize%148
                0x00000000004086fc      0x410
 .text.TCPIP_STACK_Initialize
                0x00000000004086fc      0x410 build/sam_e70_xult_freertos/debug/_ext/810785262/tcpip_manager.o
                0x00000000004086fc                TCPIP_STACK_Initialize

.text.DRV_PIC32CGMAC_LibRxGetPacket%149
                0x0000000000408b0c      0x3c0
 .text.DRV_PIC32CGMAC_LibRxGetPacket
                0x0000000000408b0c      0x3c0 build/sam_e70_xult_freertos/debug/_ext/1619526243/drv_gmac_lib_samE7x_V7x.o
                0x0000000000408b0c                DRV_PIC32CGMAC_LibRxGetPacket

.text.APP_Tasks%150
                0x0000000000408ecc      0x358
 .text.APP_Tasks
                0x0000000000408ecc      0x358 build/sam_e70_xult_freertos/debug/_ext/1360937237/app.o
                0x0000000000408ecc                APP_Tasks

.text._realloc_r%151
                0x0000000000409224      0x34c
 .text._realloc_r
                0x0000000000409224      0x34c /Applications/microchip/xc32/v2.15/bin/bin/../../lib/gcc/pic32c/6.2.1/../../../../pic32c/lib/v7e-m/fpv5/hard/libg.a(lib_a-reallocr.o)
                0x0000000000409224                _realloc_r

.text.SYS_CMD_Tasks%152
                0x0000000000409570      0x314
 .text.SYS_CMD_Tasks
                0x0000000000409570      0x314 build/sam_e70_xult_freertos/debug/_ext/762686499/sys_command.o
                0x0000000000409570                SYS_CMD_Tasks

.text.TCPIP_Helper_StringToIPv6Address%153
                0x0000000000409884      0x2e8
 .text.TCPIP_Helper_StringToIPv6Address
                0x0000000000409884      0x2e8 build/sam_e70_xult_freertos/debug/_ext/810785262/tcpip_helpers.o
                0x0000000000409884                TCPIP_Helper_StringToIPv6Address

.text%154       0x0000000000409b6c      0x2dc
 .text          0x0000000000409b6c      0x2dc /Applications/microchip/xc32/v2.15/bin/bin/../../lib/gcc/pic32c/6.2.1/v7e-m/fpv5/hard/libgcc.a(_udivmoddi4.o)
                0x0000000000409b6c                __udivmoddi4

.text%155       0x0000000000409e60      0x2dc
 .text          0x0000000000409e60      0x2dc /Applications/microchip/xc32/v2.15/bin/bin/../../lib/gcc/pic32c/6.2.1/../../../../pic32c/lib/v7e-m/fpv5/hard/libg.a(lib_a-strcmp.o)
                0x0000000000409e68                strcmp

.text.DRV_GMAC_Initialize%156
                0x000000000040a13c      0x2d4
 .text.DRV_GMAC_Initialize
                0x000000000040a13c      0x2d4 build/sam_e70_xult_freertos/debug/_ext/1619526243/drv_gmac.o
                0x000000000040a13c                DRV_GMAC_Initialize

.text.TCPIP_ARP_Task%157
                0x000000000040a410      0x2b8
 .text.TCPIP_ARP_Task
                0x000000000040a410      0x2b8 build/sam_e70_xult_freertos/debug/_ext/810785262/arp.o
                0x000000000040a410                TCPIP_ARP_Task

.text.DRV_PIC32CGMAC_LibTxSendPacket%158
                0x000000000040a6c8      0x294
 .text.DRV_PIC32CGMAC_LibTxSendPacket
                0x000000000040a6c8      0x294 build/sam_e70_xult_freertos/debug/_ext/1619526243/drv_gmac_lib_samE7x_V7x.o
                0x000000000040a6c8                DRV_PIC32CGMAC_LibTxSendPacket

.rodata%159     0x000000000040a95c      0x28c
 .rodata        0x000000000040a95c      0x28c build/sam_e70_xult_freertos/debug/_ext/1360937237/app.o

.text._CommandArp%160
                0x000000000040abe8      0x260
 .text._CommandArp
                0x000000000040abe8      0x260 build/sam_e70_xult_freertos/debug/_ext/810785262/tcpip_commands.o

.text.TCPIP_UDP_Task%161
                0x000000000040ae48      0x24c
 .text.TCPIP_UDP_Task
                0x000000000040ae48      0x24c build/sam_e70_xult_freertos/debug/_ext/810785262/udp.o
                0x000000000040ae48                TCPIP_UDP_Task

.text._TCP_Open%162
                0x000000000040b094      0x238
 .text._TCP_Open
                0x000000000040b094      0x238 build/sam_e70_xult_freertos/debug/_ext/810785262/tcp.o

.text.TCPIP_UDP_Flush%163
                0x000000000040b2cc      0x22c
 .text.TCPIP_UDP_Flush
                0x000000000040b2cc      0x22c build/sam_e70_xult_freertos/debug/_ext/810785262/udp.o
                0x000000000040b2cc                TCPIP_UDP_Flush

.text._CommandDhcpOptions%164
                0x000000000040b4f8      0x220
 .text._CommandDhcpOptions
                0x000000000040b4f8      0x220 build/sam_e70_xult_freertos/debug/_ext/810785262/tcpip_commands.o

.text._DNS_Send_Query%165
                0x000000000040b718      0x218
 .text._DNS_Send_Query
                0x000000000040b718      0x218 build/sam_e70_xult_freertos/debug/_ext/810785262/dns.o

.text.TCPIP_DNS_ClientInitialize%166
                0x000000000040b930      0x218
 .text.TCPIP_DNS_ClientInitialize
                0x000000000040b930      0x218 build/sam_e70_xult_freertos/debug/_ext/810785262/dns.o
                0x000000000040b930                TCPIP_DNS_ClientInitialize

.rodata%167     0x000000000040bb48      0x218
 .rodata        0x000000000040bb48      0x218 build/sam_e70_xult_freertos/debug/_ext/762686499/sys_command.o

.text.strstr%168
                0x000000000040bd60      0x218
 .text.strstr   0x000000000040bd60      0x218 /Applications/microchip/xc32/v2.15/bin/bin/../../lib/gcc/pic32c/6.2.1/../../../../pic32c/lib/v7e-m/fpv5/hard/libg.a(lib_a-strstr.o)
                0x000000000040bd60                strstr

.text.TCPIP_UDP_OptionsSet%169
                0x000000000040bf78      0x212
 .text.TCPIP_UDP_OptionsSet
                0x000000000040bf78      0x212 build/sam_e70_xult_freertos/debug/_ext/810785262/udp.o
                0x000000000040bf78                TCPIP_UDP_OptionsSet

.text.TCPIP_COMMAND_Task%170
                0x000000000040c18c      0x20c
 .text.TCPIP_COMMAND_Task
                0x000000000040c18c      0x20c build/sam_e70_xult_freertos/debug/_ext/810785262/tcpip_commands.o
                0x000000000040c18c                TCPIP_COMMAND_Task

.text.two_way_long_needle%171
                0x000000000040c398      0x1fc
 .text.two_way_long_needle
                0x000000000040c398      0x1fc /Applications/microchip/xc32/v2.15/bin/bin/../../lib/gcc/pic32c/6.2.1/../../../../pic32c/lib/v7e-m/fpv5/hard/libg.a(lib_a-strstr.o)

.text._DNS_ProcessPacket%172
                0x000000000040c594      0x1ec
 .text._DNS_ProcessPacket
                0x000000000040c594      0x1ec build/sam_e70_xult_freertos/debug/_ext/810785262/dns.o

.text._Command_NetInfo%173
                0x000000000040c780      0x1e8
 .text._Command_NetInfo
                0x000000000040c780      0x1e8 build/sam_e70_xult_freertos/debug/_ext/810785262/tcpip_commands.o

.text.TCPIP_STACK_BringNetUp%174
                0x000000000040c968      0x1e8
 .text.TCPIP_STACK_BringNetUp
                0x000000000040c968      0x1e8 build/sam_e70_xult_freertos/debug/_ext/810785262/tcpip_manager.o

.text._DHCPReceive%175
                0x000000000040cb50      0x1e0
 .text._DHCPReceive
                0x000000000040cb50      0x1e0 build/sam_e70_xult_freertos/debug/_ext/810785262/dhcp.o

.text.TCPIP_ARP_Initialize%176
                0x000000000040cd30      0x1e0
 .text.TCPIP_ARP_Initialize
                0x000000000040cd30      0x1e0 build/sam_e70_xult_freertos/debug/_ext/810785262/arp.o
                0x000000000040cd30                TCPIP_ARP_Initialize

.text.xTaskCreate%177
                0x000000000040cf10      0x1e0
 .text.xTaskCreate
                0x000000000040cf10      0x1e0 build/sam_e70_xult_freertos/debug/_ext/404212886/FreeRTOS_tasks.o
                0x000000000040cf10                xTaskCreate

.text.TCPIP_IPV4_PacketTransmit%178
                0x000000000040d0f0      0x1d8
 .text.TCPIP_IPV4_PacketTransmit
                0x000000000040d0f0      0x1d8 build/sam_e70_xult_freertos/debug/_ext/810785262/ipv4.o
                0x000000000040d0f0                TCPIP_IPV4_PacketTransmit

.text.DRV_MIIM_Tasks%179
                0x000000000040d2c8      0x1cc
 .text.DRV_MIIM_Tasks
                0x000000000040d2c8      0x1cc build/sam_e70_xult_freertos/debug/_ext/511568427/drv_miim.o
                0x000000000040d2c8                DRV_MIIM_Tasks

.text._free_r%180
                0x000000000040d494      0x1cc
 .text._free_r  0x000000000040d494      0x1cc /Applications/microchip/xc32/v2.15/bin/bin/../../lib/gcc/pic32c/6.2.1/../../../../pic32c/lib/v7e-m/fpv5/hard/libg.a(lib_a-freer.o)
                0x000000000040d494                _free_r

.text._DHCPSend%181
                0x000000000040d660      0x1b8
 .text._DHCPSend
                0x000000000040d660      0x1b8 build/sam_e70_xult_freertos/debug/_ext/810785262/dhcp.o

.text.ParseCmdBuffer%182
                0x000000000040d818      0x1b8
 .text.ParseCmdBuffer
                0x000000000040d818      0x1b8 build/sam_e70_xult_freertos/debug/_ext/762686499/sys_command.o

.text.TCPIP_IPV4_Task%183
                0x000000000040d9d0      0x1b4
 .text.TCPIP_IPV4_Task
                0x000000000040d9d0      0x1b4 build/sam_e70_xult_freertos/debug/_ext/810785262/ipv4.o
                0x000000000040d9d0                TCPIP_IPV4_Task

.text.TCPIP_DHCP_Initialize%184
                0x000000000040db84      0x1ac
 .text.TCPIP_DHCP_Initialize
                0x000000000040db84      0x1ac build/sam_e70_xult_freertos/debug/_ext/810785262/dhcp.o
                0x000000000040db84                TCPIP_DHCP_Initialize

.text._Command_MacInfo%185
                0x000000000040dd30      0x198
 .text._Command_MacInfo
                0x000000000040dd30      0x198 build/sam_e70_xult_freertos/debug/_ext/810785262/tcpip_commands.o

.text.TCPIP_TCP_ArrayPut%186
                0x000000000040dec8      0x194
 .text.TCPIP_TCP_ArrayPut
                0x000000000040dec8      0x194 build/sam_e70_xult_freertos/debug/_ext/810785262/tcp.o
                0x000000000040dec8                TCPIP_TCP_ArrayPut

.text.CommandHelp%187
                0x000000000040e05c      0x190
 .text.CommandHelp
                0x000000000040e05c      0x190 build/sam_e70_xult_freertos/debug/_ext/762686499/sys_command.o

.text._DHCPOptionHostName%188
                0x000000000040e1ec      0x18c
 .text._DHCPOptionHostName
                0x000000000040e1ec      0x18c build/sam_e70_xult_freertos/debug/_ext/810785262/dhcp.o

.text.Reset_Handler%189
                0x000000000040e378      0x17c
 .text.Reset_Handler
                0x000000000040e378      0x17c build/sam_e70_xult_freertos/debug/_ext/1552905064/startup_xc32.o
                0x000000000040e378                Reset_Handler

.text.DRV_PIC32CGMAC_LibRxFilterHash_Calculate%190
                0x000000000040e4f4      0x178
 .text.DRV_PIC32CGMAC_LibRxFilterHash_Calculate
                0x000000000040e4f4      0x178 build/sam_e70_xult_freertos/debug/_ext/1619526243/drv_gmac_lib_samE7x_V7x.o
                0x000000000040e4f4                DRV_PIC32CGMAC_LibRxFilterHash_Calculate

.text.TCPIP_IPV4_PacketFormatTx%191
                0x000000000040e66c      0x178
 .text.TCPIP_IPV4_PacketFormatTx
                0x000000000040e66c      0x178 build/sam_e70_xult_freertos/debug/_ext/810785262/ipv4.o
                0x000000000040e66c                TCPIP_IPV4_PacketFormatTx

.text._UDPOpen%192
                0x000000000040e7e4      0x16c
 .text._UDPOpen
                0x000000000040e7e4      0x16c build/sam_e70_xult_freertos/debug/_ext/810785262/udp.o

.text.xQueueSemaphoreTake%193
                0x000000000040e950      0x15c
 .text.xQueueSemaphoreTake
                0x000000000040e950      0x15c build/sam_e70_xult_freertos/debug/_ext/404212886/queue.o
                0x000000000040e950                xQueueSemaphoreTake

.text.TCPIP_DNS_EntryQuery%194
                0x000000000040eaac      0x158
 .text.TCPIP_DNS_EntryQuery
                0x000000000040eaac      0x158 build/sam_e70_xult_freertos/debug/_ext/810785262/dns.o
                0x000000000040eaac                TCPIP_DNS_EntryQuery

.text._MACDeinit%195
                0x000000000040ec04      0x14c
 .text._MACDeinit
                0x000000000040ec04      0x14c build/sam_e70_xult_freertos/debug/_ext/1619526243/drv_gmac.o

.text._MacTxDiscardQueues%196
                0x000000000040ed50      0x144
 .text._MacTxDiscardQueues
                0x000000000040ed50      0x144 build/sam_e70_xult_freertos/debug/_ext/1619526243/drv_gmac.o

.text.TCPIP_TCP_Initialize%197
                0x000000000040ee94      0x144
 .text.TCPIP_TCP_Initialize
                0x000000000040ee94      0x144 build/sam_e70_xult_freertos/debug/_ext/810785262/tcp.o
                0x000000000040ee94                TCPIP_TCP_Initialize

.text.TCPIP_UDP_Bind%198
                0x000000000040efd8      0x13c
 .text.TCPIP_UDP_Bind
                0x000000000040efd8      0x13c build/sam_e70_xult_freertos/debug/_ext/810785262/udp.o
                0x000000000040efd8                TCPIP_UDP_Bind

.text%199       0x000000000040f114      0x134
 .text          0x000000000040f114      0x134 /Applications/microchip/xc32/v2.15/bin/bin/../../lib/gcc/pic32c/6.2.1/../../../../pic32c/lib/v7e-m/fpv5/hard/libg.a(lib_a-memcpy.o)
                0x000000000040f114                memcpy

.text._Command_StackOnOff%200
                0x000000000040f248      0x130
 .text._Command_StackOnOff
                0x000000000040f248      0x130 build/sam_e70_xult_freertos/debug/_ext/810785262/tcpip_commands.o

.text._DNS_RESPONSE_HashEntryUpdate%201
                0x000000000040f378      0x12e
 .text._DNS_RESPONSE_HashEntryUpdate
                0x000000000040f378      0x12e build/sam_e70_xult_freertos/debug/_ext/810785262/dns.o

.text._Command_NetworkOnOff%202
                0x000000000040f4a8      0x128
 .text._Command_NetworkOnOff
                0x000000000040f4a8      0x128 build/sam_e70_xult_freertos/debug/_ext/810785262/tcpip_commands.o

.text.xQueueGenericSend%203
                0x000000000040f5d0      0x128
 .text.xQueueGenericSend
                0x000000000040f5d0      0x128 build/sam_e70_xult_freertos/debug/_ext/404212886/queue.o
                0x000000000040f5d0                xQueueGenericSend

.text._strtol_l.isra.0%204
                0x000000000040f6f8      0x128
 .text._strtol_l.isra.0
                0x000000000040f6f8      0x128 /Applications/microchip/xc32/v2.15/bin/bin/../../lib/gcc/pic32c/6.2.1/../../../../pic32c/lib/v7e-m/fpv5/hard/libg.a(lib_a-strtol.o)

.text.quorem%205
                0x000000000040f820      0x128
 .text.quorem   0x000000000040f820      0x128 /Applications/microchip/xc32/v2.15/bin/bin/../../lib/gcc/pic32c/6.2.1/../../../../pic32c/lib/v7e-m/fpv5/hard/libg.a(lib_a-dtoa.o)

.text._Command_AddressService%206
                0x000000000040f948      0x124
 .text._Command_AddressService
                0x000000000040f948      0x124 build/sam_e70_xult_freertos/debug/_ext/810785262/tcpip_commands.o

.text.__multiply%207
                0x000000000040fa6c      0x124
 .text.__multiply
                0x000000000040fa6c      0x124 /Applications/microchip/xc32/v2.15/bin/bin/../../lib/gcc/pic32c/6.2.1/../../../../pic32c/lib/v7e-m/fpv5/hard/libg.a(lib_a-mprec.o)
                0x000000000040fa6c                __multiply

.text.TCPIP_DNS_ClientTask%208
                0x000000000040fb90      0x120
 .text.TCPIP_DNS_ClientTask
                0x000000000040fb90      0x120 build/sam_e70_xult_freertos/debug/_ext/810785262/dns.o
                0x000000000040fb90                TCPIP_DNS_ClientTask

.text.TCPIP_UDP_Deinitialize%209
                0x000000000040fcb0      0x120
 .text.TCPIP_UDP_Deinitialize
                0x000000000040fcb0      0x120 build/sam_e70_xult_freertos/debug/_ext/810785262/udp.o
                0x000000000040fcb0                TCPIP_UDP_Deinitialize

.text._DRV_ETHPHY_SetupPhaseDetect%210
                0x000000000040fdd0      0x11c
 .text._DRV_ETHPHY_SetupPhaseDetect
                0x000000000040fdd0      0x11c build/sam_e70_xult_freertos/debug/_ext/1607428259/drv_ethphy.o

.text._DNS_Resolve%211
                0x000000000040feec      0x11c
 .text._DNS_Resolve
                0x000000000040feec      0x11c build/sam_e70_xult_freertos/debug/_ext/810785262/dns.o

.text.USART1_InterruptHandler%212
                0x0000000000410008      0x11c
 .text.USART1_InterruptHandler
                0x0000000000410008      0x11c build/sam_e70_xult_freertos/debug/_ext/901008055/plib_usart1.o
                0x0000000000410008                USART1_InterruptHandler

.text._LoadNetworkConfig%213
                0x0000000000410124      0x11a
 .text._LoadNetworkConfig
                0x0000000000410124      0x11a build/sam_e70_xult_freertos/debug/_ext/810785262/tcpip_manager.o

.text._TCPIP_HEAP_Free%214
                0x000000000041023e      0x114
 .text._TCPIP_HEAP_Free
                0x000000000041023e      0x114 build/sam_e70_xult_freertos/debug/_ext/810785262/tcpip_heap_internal.o

.text._Command_HeapInfo%215
                0x0000000000410354      0x110
 .text._Command_HeapInfo
                0x0000000000410354      0x110 build/sam_e70_xult_freertos/debug/_ext/810785262/tcpip_commands.o

.text._UDPv4TxAckFnc%216
                0x0000000000410464      0x110
 .text._UDPv4TxAckFnc
                0x0000000000410464      0x110 build/sam_e70_xult_freertos/debug/_ext/810785262/udp.o

.text.TCPIP_UDP_OptionsGet%217
                0x0000000000410574      0x10e
 .text.TCPIP_UDP_OptionsGet
                0x0000000000410574      0x10e build/sam_e70_xult_freertos/debug/_ext/810785262/udp.o
                0x0000000000410574                TCPIP_UDP_OptionsGet

.text.__mdiff%218
                0x0000000000410684      0x108
 .text.__mdiff  0x0000000000410684      0x108 /Applications/microchip/xc32/v2.15/bin/bin/../../lib/gcc/pic32c/6.2.1/../../../../pic32c/lib/v7e-m/fpv5/hard/libg.a(lib_a-mprec.o)
                0x0000000000410684                __mdiff

.text.DRV_GMAC_Tasks%219
                0x000000000041078c      0x104
 .text.DRV_GMAC_Tasks
                0x000000000041078c      0x104 build/sam_e70_xult_freertos/debug/_ext/1619526243/drv_gmac.o
                0x000000000041078c                DRV_GMAC_Tasks

.rodata._ctype_%220
                0x0000000000410890      0x104
 .rodata._ctype_
                0x0000000000410890      0x104 /Applications/microchip/xc32/v2.15/bin/bin/../../lib/gcc/pic32c/6.2.1/../../../../pic32c/lib/v7e-m/fpv5/hard/libg.a(lib_a-ctype_.o)
                0x0000000000410890                _ctype_

.text._Command_IPAddressSet%221
                0x0000000000410994      0x100
 .text._Command_IPAddressSet
                0x0000000000410994      0x100 build/sam_e70_xult_freertos/debug/_ext/810785262/tcpip_commands.o

.text.xTaskIncrementTick%222
                0x0000000000410a94      0x100
 .text.xTaskIncrementTick
                0x0000000000410a94      0x100 build/sam_e70_xult_freertos/debug/_ext/404212886/FreeRTOS_tasks.o
                0x0000000000410a94                xTaskIncrementTick

.text._Tcpv4TxAckFnc%223
                0x0000000000410b94       0xfc
 .text._Tcpv4TxAckFnc
                0x0000000000410b94       0xfc build/sam_e70_xult_freertos/debug/_ext/810785262/tcp.o

.text.TCPIP_ARP_EntryRemoveNet%224
                0x0000000000410c90       0xfc
 .text.TCPIP_ARP_EntryRemoveNet
                0x0000000000410c90       0xfc build/sam_e70_xult_freertos/debug/_ext/810785262/arp.o
                0x0000000000410c90                TCPIP_ARP_EntryRemoveNet

.text.TCPIP_Helper_StringToIPAddress%225
                0x0000000000410d8c       0xfc
 .text.TCPIP_Helper_StringToIPAddress
                0x0000000000410d8c       0xfc build/sam_e70_xult_freertos/debug/_ext/810785262/tcpip_helpers.o
                0x0000000000410d8c                TCPIP_Helper_StringToIPAddress

.text.TCPIP_UDP_Initialize%226
                0x0000000000410e88       0xfc
 .text.TCPIP_UDP_Initialize
                0x0000000000410e88       0xfc build/sam_e70_xult_freertos/debug/_ext/810785262/udp.o
                0x0000000000410e88                TCPIP_UDP_Initialize

.text.__ssprint_r%227
                0x0000000000410f84       0xfc
 .text.__ssprint_r
                0x0000000000410f84       0xfc /Applications/microchip/xc32/v2.15/bin/bin/../../lib/gcc/pic32c/6.2.1/../../../../pic32c/lib/v7e-m/fpv5/hard/libg.a(lib_a-svfiprintf.o)
                0x0000000000410f84                __ssprint_r

.text.DRV_PIC32CGMAC_LibTxAckPacket%228
                0x0000000000411080       0xfa
 .text.DRV_PIC32CGMAC_LibTxAckPacket
                0x0000000000411080       0xfa build/sam_e70_xult_freertos/debug/_ext/1619526243/drv_gmac_lib_samE7x_V7x.o
                0x0000000000411080                DRV_PIC32CGMAC_LibTxAckPacket

.text.DRV_PIC32CGMAC_LibTxInit%229
                0x000000000041117c       0xf8
 .text.DRV_PIC32CGMAC_LibTxInit
                0x000000000041117c       0xf8 build/sam_e70_xult_freertos/debug/_ext/1619526243/drv_gmac_lib_samE7x_V7x.o
                0x000000000041117c                DRV_PIC32CGMAC_LibTxInit

.text._DNS_IsNameResolved%230
                0x0000000000411274       0xf8
 .text._DNS_IsNameResolved
                0x0000000000411274       0xf8 build/sam_e70_xult_freertos/debug/_ext/810785262/dns.o

.text._ARPProbeAddress%231
                0x000000000041136c       0xec
 .text._ARPProbeAddress
                0x000000000041136c       0xec build/sam_e70_xult_freertos/debug/_ext/810785262/arp.o

.text.TCPIP_UDP_ArrayGet%232
                0x0000000000411458       0xec
 .text.TCPIP_UDP_ArrayGet
                0x0000000000411458       0xec build/sam_e70_xult_freertos/debug/_ext/810785262/udp.o
                0x0000000000411458                TCPIP_UDP_ArrayGet

.text.DRV_GMAC_PacketRx%233
                0x0000000000411544       0xe8
 .text.DRV_GMAC_PacketRx
                0x0000000000411544       0xe8 build/sam_e70_xult_freertos/debug/_ext/1619526243/drv_gmac.o
                0x0000000000411544                DRV_GMAC_PacketRx

.text.DRV_PIC32CGMAC_LibRxBuffersAppend%234
                0x000000000041162c       0xe8
 .text.DRV_PIC32CGMAC_LibRxBuffersAppend
                0x000000000041162c       0xe8 build/sam_e70_xult_freertos/debug/_ext/1619526243/drv_gmac_lib_samE7x_V7x.o
                0x000000000041162c                DRV_PIC32CGMAC_LibRxBuffersAppend

.text.TCPIP_TCP_Deinitialize%235
                0x0000000000411714       0xe8
 .text.TCPIP_TCP_Deinitialize
                0x0000000000411714       0xe8 build/sam_e70_xult_freertos/debug/_ext/810785262/tcp.o
                0x0000000000411714                TCPIP_TCP_Deinitialize

.text.TCPIP_TCP_ArrayGet%236
                0x00000000004117fc       0xe8
 .text.TCPIP_TCP_ArrayGet
                0x00000000004117fc       0xe8 build/sam_e70_xult_freertos/debug/_ext/810785262/tcp.o
                0x00000000004117fc                TCPIP_TCP_ArrayGet

.text.xTaskResumeAll%237
                0x00000000004118e4       0xe8
 .text.xTaskResumeAll
                0x00000000004118e4       0xe8 build/sam_e70_xult_freertos/debug/_ext/404212886/FreeRTOS_tasks.o
                0x00000000004118e4                xTaskResumeAll

.text.strchr%238
                0x00000000004119cc       0xe8
 .text.strchr   0x00000000004119cc       0xe8 /Applications/microchip/xc32/v2.15/bin/bin/../../lib/gcc/pic32c/6.2.1/../../../../pic32c/lib/v7e-m/fpv5/hard/libg.a(lib_a-strchr.o)
                0x00000000004119cc                strchr

.text.DRV_GMAC_EventMaskSet%239
                0x0000000000411ab4       0xe4
 .text.DRV_GMAC_EventMaskSet
                0x0000000000411ab4       0xe4 build/sam_e70_xult_freertos/debug/_ext/1619526243/drv_gmac.o
                0x0000000000411ab4                DRV_GMAC_EventMaskSet

.text._DRV_MIIM_StartOp%240
                0x0000000000411b98       0xe4
 .text._DRV_MIIM_StartOp
                0x0000000000411b98       0xe4 build/sam_e70_xult_freertos/debug/_ext/511568427/drv_miim.o

.text._DRV_MIIM_ClientDeallocate%241
                0x0000000000411c7c       0xe0
 .text._DRV_MIIM_ClientDeallocate
                0x0000000000411c7c       0xe0 build/sam_e70_xult_freertos/debug/_ext/511568427/drv_miim.o

.text.SYS_TIME_PLIBCallback%242
                0x0000000000411d5c       0xe0
 .text.SYS_TIME_PLIBCallback
                0x0000000000411d5c       0xe0 build/sam_e70_xult_freertos/debug/_ext/912870411/sys_time.o

.text._DRV_ETHPHY_SetupPhaseReset%243
                0x0000000000411e3c       0xdc
 .text._DRV_ETHPHY_SetupPhaseReset
                0x0000000000411e3c       0xdc build/sam_e70_xult_freertos/debug/_ext/1607428259/drv_ethphy.o

.text.DRV_EXTPHY_MDIXConfigure%244
                0x0000000000411f18       0xdc
 .text.DRV_EXTPHY_MDIXConfigure
                0x0000000000411f18       0xdc build/sam_e70_xult_freertos/debug/_ext/1607428259/drv_extphy_smsc8740.o

.text.TCPIP_ICMP_Task%245
                0x0000000000411ff4       0xdc
 .text.TCPIP_ICMP_Task
                0x0000000000411ff4       0xdc build/sam_e70_xult_freertos/debug/_ext/810785262/icmp.o
                0x0000000000411ff4                TCPIP_ICMP_Task

.text%246       0x0000000000412100       0xdc
 .text          0x0000000000412100       0xdc /Applications/microchip/xc32/v2.15/bin/bin/../../lib/gcc/pic32c/6.2.1/../../../../pic32c/lib/v7e-m/fpv5/hard/libg.a(lib_a-strlen.o)
                0x0000000000412100                strlen

.text.DRV_PIC32CGMAC_LibRxInit%247
                0x00000000004121dc       0xd8
 .text.DRV_PIC32CGMAC_LibRxInit
                0x00000000004121dc       0xd8 build/sam_e70_xult_freertos/debug/_ext/1619526243/drv_gmac_lib_samE7x_V7x.o
                0x00000000004121dc                DRV_PIC32CGMAC_LibRxInit

.text._DNS_GetAddresses%248
                0x00000000004122b4       0xd8
 .text._DNS_GetAddresses
                0x00000000004122b4       0xd8 build/sam_e70_xult_freertos/debug/_ext/810785262/dns.o

.text._TcpCloseSocket%249
                0x000000000041238c       0xd6
 .text._TcpCloseSocket
                0x000000000041238c       0xd6 build/sam_e70_xult_freertos/debug/_ext/810785262/tcp.o

.text._DRV_ETHPHY_NegResultPhase_ANAD%250
                0x0000000000412462       0xd2
 .text._DRV_ETHPHY_NegResultPhase_ANAD
                0x0000000000412462       0xd2 build/sam_e70_xult_freertos/debug/_ext/1607428259/drv_ethphy.o

.text._GetMaxSegSizeOption%251
                0x0000000000412534       0xcc
 .text._GetMaxSegSizeOption
                0x0000000000412534       0xcc build/sam_e70_xult_freertos/debug/_ext/810785262/tcp.o

.text.DRV_ETHPHY_Setup%252
                0x0000000000412600       0xc8
 .text.DRV_ETHPHY_Setup
                0x0000000000412600       0xc8 build/sam_e70_xult_freertos/debug/_ext/1607428259/drv_ethphy.o
                0x0000000000412600                DRV_ETHPHY_Setup

.text._DHCPStartOperation%253
                0x00000000004126c8       0xc8
 .text._DHCPStartOperation
                0x00000000004126c8       0xc8 build/sam_e70_xult_freertos/debug/_ext/810785262/dhcp.o

.text.TCPIP_IPV4_SelectSourceInterface%254
                0x0000000000412790       0xc8
 .text.TCPIP_IPV4_SelectSourceInterface
                0x0000000000412790       0xc8 build/sam_e70_xult_freertos/debug/_ext/810785262/ipv4.o
                0x0000000000412790                TCPIP_IPV4_SelectSourceInterface

.text.TCPIP_HEAP_CreateInternal%255
                0x0000000000412858       0xc8
 .text.TCPIP_HEAP_CreateInternal
                0x0000000000412858       0xc8 build/sam_e70_xult_freertos/debug/_ext/810785262/tcpip_heap_internal.o
                0x0000000000412858                TCPIP_HEAP_CreateInternal

.rodata%256     0x0000000000412920       0xc8
 .rodata        0x0000000000412920       0xc8 build/sam_e70_xult_freertos/debug/_ext/1360937237/app_commands.o

.rodata.__mprec_tens%257
                0x00000000004129e8       0xc8
 .rodata.__mprec_tens
                0x00000000004129e8       0xc8 /Applications/microchip/xc32/v2.15/bin/bin/../../lib/gcc/pic32c/6.2.1/../../../../pic32c/lib/v7e-m/fpv5/hard/libg.a(lib_a-mprec.o)
                0x00000000004129e8                __mprec_tens

.text.memmove%258
                0x0000000000412ab0       0xc8
 .text.memmove  0x0000000000412ab0       0xc8 /Applications/microchip/xc32/v2.15/bin/bin/../../lib/gcc/pic32c/6.2.1/../../../../pic32c/lib/v7e-m/fpv5/hard/libg.a(lib_a-memmove.o)
                0x0000000000412ab0                memmove

.text._DHCPProcessReceiveData%259
                0x0000000000412b78       0xc4
 .text._DHCPProcessReceiveData
                0x0000000000412b78       0xc4 build/sam_e70_xult_freertos/debug/_ext/810785262/dhcp.o

.text._DRV_PHY_SMITransferDo%260
                0x0000000000412c3c       0xc2
 .text._DRV_PHY_SMITransferDo
                0x0000000000412c3c       0xc2 build/sam_e70_xult_freertos/debug/_ext/1607428259/drv_ethphy.o

.rodata.tcpipCmdTbl%261
                0x0000000000412d00       0xc0
 .rodata.tcpipCmdTbl
                0x0000000000412d00       0xc0 build/sam_e70_xult_freertos/debug/_ext/810785262/tcpip_commands.o

.text.DRV_EXTPHY_MIIConfigure%262
                0x0000000000412dc0       0xbc
 .text.DRV_EXTPHY_MIIConfigure
                0x0000000000412dc0       0xbc build/sam_e70_xult_freertos/debug/_ext/1607428259/drv_extphy_smsc8740.o

.text.strcpy%263
                0x0000000000412e7c       0xbc
 .text.strcpy   0x0000000000412e7c       0xbc /Applications/microchip/xc32/v2.15/bin/bin/../../lib/gcc/pic32c/6.2.1/../../../../pic32c/lib/v7e-m/fpv5/hard/libg.a(lib_a-strcpy.o)
                0x0000000000412e7c                strcpy

.text.__d2b%264
                0x0000000000412f38       0xbc
 .text.__d2b    0x0000000000412f38       0xbc /Applications/microchip/xc32/v2.15/bin/bin/../../lib/gcc/pic32c/6.2.1/../../../../pic32c/lib/v7e-m/fpv5/hard/libg.a(lib_a-mprec.o)
                0x0000000000412f38                __d2b

.text.TCPIP_STACK_KillStack%265
                0x0000000000412ff4       0xb8
 .text.TCPIP_STACK_KillStack
                0x0000000000412ff4       0xb8 build/sam_e70_xult_freertos/debug/_ext/810785262/tcpip_manager.o

.text.xTaskPriorityInherit%266
                0x00000000004130ac       0xb8
 .text.xTaskPriorityInherit
                0x00000000004130ac       0xb8 build/sam_e70_xult_freertos/debug/_ext/404212886/FreeRTOS_tasks.o
                0x00000000004130ac                xTaskPriorityInherit

.text.critical_factorization%267
                0x0000000000413164       0xb4
 .text.critical_factorization
                0x0000000000413164       0xb4 /Applications/microchip/xc32/v2.15/bin/bin/../../lib/gcc/pic32c/6.2.1/../../../../pic32c/lib/v7e-m/fpv5/hard/libg.a(lib_a-strstr.o)

.text.TCPIP_Helper_IPv6AddressToString%268
                0x0000000000413218       0xb2
 .text.TCPIP_Helper_IPv6AddressToString
                0x0000000000413218       0xb2 build/sam_e70_xult_freertos/debug/_ext/810785262/tcpip_helpers.o
                0x0000000000413218                TCPIP_Helper_IPv6AddressToString

.text.DRV_GMAC_Tasks_ISR%269
                0x00000000004132cc       0xb0
 .text.DRV_GMAC_Tasks_ISR
                0x00000000004132cc       0xb0 build/sam_e70_xult_freertos/debug/_ext/1619526243/drv_gmac.o
                0x00000000004132cc                DRV_GMAC_Tasks_ISR

.text._TcpSocketSetIdleState%270
                0x000000000041337c       0xb0
 .text._TcpSocketSetIdleState
                0x000000000041337c       0xb0 build/sam_e70_xult_freertos/debug/_ext/810785262/tcp.o

.text.SYS_TIME_Initialize%271
                0x000000000041342c       0xb0
 .text.SYS_TIME_Initialize
                0x000000000041342c       0xb0 build/sam_e70_xult_freertos/debug/_ext/912870411/sys_time.o
                0x000000000041342c                SYS_TIME_Initialize

.text._TCPIP_HEAP_Malloc%272
                0x00000000004134dc       0xac
 .text._TCPIP_HEAP_Malloc
                0x00000000004134dc       0xac build/sam_e70_xult_freertos/debug/_ext/810785262/tcpip_heap_internal.o

.text.SYS_TIME_TimerObjectCreate%273
                0x0000000000413588       0xac
 .text.SYS_TIME_TimerObjectCreate
                0x0000000000413588       0xac build/sam_e70_xult_freertos/debug/_ext/912870411/sys_time.o

.text.vTaskSwitchContext%274
                0x0000000000413634       0xac
 .text.vTaskSwitchContext
                0x0000000000413634       0xac build/sam_e70_xult_freertos/debug/_ext/404212886/FreeRTOS_tasks.o
                0x0000000000413634                vTaskSwitchContext

.text._TcpDisconnect%275
                0x00000000004136e0       0xaa
 .text._TcpDisconnect
                0x00000000004136e0       0xaa build/sam_e70_xult_freertos/debug/_ext/810785262/tcp.o

.text._DHCPEnable%276
                0x000000000041378c       0xa8
 .text._DHCPEnable
                0x000000000041378c       0xa8 build/sam_e70_xult_freertos/debug/_ext/810785262/dhcp.o

.text._Command_MACAddressSet%277
                0x0000000000413834       0xa8
 .text._Command_MACAddressSet
                0x0000000000413834       0xa8 build/sam_e70_xult_freertos/debug/_ext/810785262/tcpip_commands.o

.text.TCPIP_STACK_NetUp%278
                0x00000000004138dc       0xa8
 .text.TCPIP_STACK_NetUp
                0x00000000004138dc       0xa8 build/sam_e70_xult_freertos/debug/_ext/810785262/tcpip_manager.o
                0x00000000004138dc                TCPIP_STACK_NetUp

.text._ARPSendIfPkt%279
                0x0000000000413984       0xa4
 .text._ARPSendIfPkt
                0x0000000000413984       0xa4 build/sam_e70_xult_freertos/debug/_ext/810785262/arp.o

.text.TCPIP_ARP_EntryQuery%280
                0x0000000000413a28       0xa4
 .text.TCPIP_ARP_EntryQuery
                0x0000000000413a28       0xa4 build/sam_e70_xult_freertos/debug/_ext/810785262/arp.o
                0x0000000000413a28                TCPIP_ARP_EntryQuery

.text.__lshift%281
                0x0000000000413acc       0xa4
 .text.__lshift
                0x0000000000413acc       0xa4 /Applications/microchip/xc32/v2.15/bin/bin/../../lib/gcc/pic32c/6.2.1/../../../../pic32c/lib/v7e-m/fpv5/hard/libg.a(lib_a-mprec.o)
                0x0000000000413acc                __lshift

.text.__register_exitproc%282
                0x0000000000413b70       0xa4
 .text.__register_exitproc
                0x0000000000413b70       0xa4 /Applications/microchip/xc32/v2.15/bin/bin/../../lib/gcc/pic32c/6.2.1/../../../../pic32c/lib/v7e-m/fpv5/hard/libg.a(lib_a-__atexit.o)
                0x0000000000413b70                __register_exitproc

.text._DRV_ETHPHY_SetupPhaseNegotiate_SubPhase3%283
                0x0000000000413c14       0xa0
 .text._DRV_ETHPHY_SetupPhaseNegotiate_SubPhase3
                0x0000000000413c14       0xa0 build/sam_e70_xult_freertos/debug/_ext/1607428259/drv_ethphy.o

.text._DRV_ETHPHY_NegCompletePhaseAN_Restart%284
                0x0000000000413cb4       0xa0
 .text._DRV_ETHPHY_NegCompletePhaseAN_Restart
                0x0000000000413cb4       0xa0 build/sam_e70_xult_freertos/debug/_ext/1607428259/drv_ethphy.o

.text.DRV_GMAC_PacketTx%285
                0x0000000000413d54       0xa0
 .text.DRV_GMAC_PacketTx
                0x0000000000413d54       0xa0 build/sam_e70_xult_freertos/debug/_ext/1619526243/drv_gmac.o
                0x0000000000413d54                DRV_GMAC_PacketTx

.text._ARPDeleteResources%286
                0x0000000000413df4       0xa0
 .text._ARPDeleteResources
                0x0000000000413df4       0xa0 build/sam_e70_xult_freertos/debug/_ext/810785262/arp.o

.text._UDPv4AllocateSktTxBuffer%287
                0x0000000000413e94       0xa0
 .text._UDPv4AllocateSktTxBuffer
                0x0000000000413e94       0xa0 build/sam_e70_xult_freertos/debug/_ext/810785262/udp.o

.text.TCPIP_UDP_Disconnect%288
                0x0000000000413f34       0xa0
 .text.TCPIP_UDP_Disconnect
                0x0000000000413f34       0xa0 build/sam_e70_xult_freertos/debug/_ext/810785262/udp.o
                0x0000000000413f34                TCPIP_UDP_Disconnect

.text.DisplayNodeMsg%289
                0x0000000000413fd4       0xa0
 .text.DisplayNodeMsg
                0x0000000000413fd4       0xa0 build/sam_e70_xult_freertos/debug/_ext/762686499/sys_command.o

.text.SYS_TIME_AddToList%290
                0x0000000000414074       0xa0
 .text.SYS_TIME_AddToList
                0x0000000000414074       0xa0 build/sam_e70_xult_freertos/debug/_ext/912870411/sys_time.o

.text%291       0x0000000000414120       0xa0
 .text          0x0000000000414120       0xa0 /Applications/microchip/xc32/v2.15/bin/bin/../../lib/gcc/pic32c/6.2.1/../../../../pic32c/lib/v7e-m/fpv5/hard/libg.a(lib_a-memchr.o)
                0x0000000000414120                memchr

.text.__pow5mult%292
                0x00000000004141c0       0xa0
 .text.__pow5mult
                0x00000000004141c0       0xa0 /Applications/microchip/xc32/v2.15/bin/bin/../../lib/gcc/pic32c/6.2.1/../../../../pic32c/lib/v7e-m/fpv5/hard/libg.a(lib_a-mprec.o)
                0x00000000004141c0                __pow5mult

.text._DRV_ETHPHY_SetupPhaseNegotiate_SubPhase0%293
                0x0000000000414260       0x9e
 .text._DRV_ETHPHY_SetupPhaseNegotiate_SubPhase0
                0x0000000000414260       0x9e build/sam_e70_xult_freertos/debug/_ext/1607428259/drv_ethphy.o

.text.DRV_MIIM_Setup%294
                0x0000000000414300       0x9c
 .text.DRV_MIIM_Setup
                0x0000000000414300       0x9c build/sam_e70_xult_freertos/debug/_ext/511568427/drv_miim.o
                0x0000000000414300                DRV_MIIM_Setup

.text.DRV_MIIM_OperationResult%295
                0x000000000041439c       0x9c
 .text.DRV_MIIM_OperationResult
                0x000000000041439c       0x9c build/sam_e70_xult_freertos/debug/_ext/511568427/drv_miim.o
                0x000000000041439c                DRV_MIIM_OperationResult

.text.SYS_TIME_HwTimerCompareUpdate%296
                0x0000000000414438       0x9c
 .text.SYS_TIME_HwTimerCompareUpdate
                0x0000000000414438       0x9c build/sam_e70_xult_freertos/debug/_ext/912870411/sys_time.o

.text.memset%297
                0x00000000004144d4       0x9c
 .text.memset   0x00000000004144d4       0x9c /Applications/microchip/xc32/v2.15/bin/bin/../../lib/gcc/pic32c/6.2.1/../../../../pic32c/lib/v7e-m/fpv5/hard/libg.a(lib_a-memset.o)
                0x00000000004144d4                memset

.text._Command_PrimaryDNSAddressSet%298
                0x0000000000414570       0x98
 .text._Command_PrimaryDNSAddressSet
                0x0000000000414570       0x98 build/sam_e70_xult_freertos/debug/_ext/810785262/tcpip_commands.o

.text.TCPIP_IPV4_ArpHandler%299
                0x0000000000414608       0x98
 .text.TCPIP_IPV4_ArpHandler
                0x0000000000414608       0x98 build/sam_e70_xult_freertos/debug/_ext/810785262/ipv4.o

.text._TCPIPStackModuleRxPurge%300
                0x00000000004146a0       0x98
 .text._TCPIPStackModuleRxPurge
                0x00000000004146a0       0x98 build/sam_e70_xult_freertos/debug/_ext/810785262/tcpip_manager.o
                0x00000000004146a0                _TCPIPStackModuleRxPurge

.text.snprintf%301
                0x0000000000414738       0x98
 .text.snprintf
                0x0000000000414738       0x98 /Applications/microchip/xc32/v2.15/bin/bin/../../lib/gcc/pic32c/6.2.1/../../../../pic32c/lib/v7e-m/fpv5/hard/libg.a(lib_a-snprintf.o)
                0x0000000000414738                snprintf
                0x0000000000414738                __snprintf_s
                0x0000000000414738                __snprintf_dis

.text.TCPIP_DHCP_InfoGet%302
                0x00000000004147d0       0x94
 .text.TCPIP_DHCP_InfoGet
                0x00000000004147d0       0x94 build/sam_e70_xult_freertos/debug/_ext/810785262/dhcp.o
                0x00000000004147d0                TCPIP_DHCP_InfoGet

.text._Command_GatewayAddressSet%303
                0x0000000000414864       0x94
 .text._Command_GatewayAddressSet
                0x0000000000414864       0x94 build/sam_e70_xult_freertos/debug/_ext/810785262/tcpip_commands.o

.text._UDPsetPacketInfo%304
                0x00000000004148f8       0x94
 .text._UDPsetPacketInfo
                0x00000000004148f8       0x94 build/sam_e70_xult_freertos/debug/_ext/810785262/udp.o

.text.prvAddCurrentTaskToDelayedList%305
                0x000000000041498c       0x94
 .text.prvAddCurrentTaskToDelayedList
                0x000000000041498c       0x94 build/sam_e70_xult_freertos/debug/_ext/404212886/FreeRTOS_tasks.o

.text._malloc_trim_r%306
                0x0000000000414a20       0x94
 .text._malloc_trim_r
                0x0000000000414a20       0x94 /Applications/microchip/xc32/v2.15/bin/bin/../../lib/gcc/pic32c/6.2.1/../../../../pic32c/lib/v7e-m/fpv5/hard/libg.a(lib_a-freer.o)
                0x0000000000414a20                _malloc_trim_r

.text.TCPIP_STACK_NetAddressSet%307
                0x0000000000414ab4       0x92
 .text.TCPIP_STACK_NetAddressSet
                0x0000000000414ab4       0x92 build/sam_e70_xult_freertos/debug/_ext/810785262/tcpip_manager.o
                0x0000000000414ab4                TCPIP_STACK_NetAddressSet

.text.Console_UART_ResourceUnlock%308
                0x0000000000414b46       0x92
 .text.Console_UART_ResourceUnlock
                0x0000000000414b46       0x92 build/sam_e70_xult_freertos/debug/_ext/762686499/sys_console_uart.o

.text.PIO_Initialize%309
                0x0000000000414bd8       0x90
 .text.PIO_Initialize
                0x0000000000414bd8       0x90 build/sam_e70_xult_freertos/debug/_ext/45635366/plib_pio.o
                0x0000000000414bd8                PIO_Initialize

.text.vTaskPriorityDisinheritAfterTimeout%310
                0x0000000000414c68       0x90
 .text.vTaskPriorityDisinheritAfterTimeout
                0x0000000000414c68       0x90 build/sam_e70_xult_freertos/debug/_ext/404212886/FreeRTOS_tasks.o
                0x0000000000414c68                vTaskPriorityDisinheritAfterTimeout

.text._DHCPSetLeaseTimeParams%311
                0x0000000000414cf8       0x8c
 .text._DHCPSetLeaseTimeParams
                0x0000000000414cf8       0x8c build/sam_e70_xult_freertos/debug/_ext/810785262/dhcp.o

.text.TCPIP_ARP_IsResolved%312
                0x0000000000414d84       0x8c
 .text.TCPIP_ARP_IsResolved
                0x0000000000414d84       0x8c build/sam_e70_xult_freertos/debug/_ext/810785262/arp.o
                0x0000000000414d84                TCPIP_ARP_IsResolved

.text.TCPIP_STACK_NetDown%313
                0x0000000000414e10       0x8c
 .text.TCPIP_STACK_NetDown
                0x0000000000414e10       0x8c build/sam_e70_xult_freertos/debug/_ext/810785262/tcpip_manager.o
                0x0000000000414e10                TCPIP_STACK_NetDown

.text.SYS_CMD_DELETE%314
                0x0000000000414e9c       0x8c
 .text.SYS_CMD_DELETE
                0x0000000000414e9c       0x8c build/sam_e70_xult_freertos/debug/_ext/762686499/sys_command.o
                0x0000000000414e9c                SYS_CMD_DELETE

.text._DRV_ETHPHY_ResetPhaseRead%315
                0x0000000000414f28       0x88
 .text._DRV_ETHPHY_ResetPhaseRead
                0x0000000000414f28       0x88 build/sam_e70_xult_freertos/debug/_ext/1607428259/drv_ethphy.o

.text._DHCPPacketFilter%316
                0x0000000000414fb0       0x88
 .text._DHCPPacketFilter
                0x0000000000414fb0       0x88 build/sam_e70_xult_freertos/debug/_ext/810785262/dhcp.o

.text.TCPIP_IPV4_DeInitialize%317
                0x0000000000415038       0x88
 .text.TCPIP_IPV4_DeInitialize
                0x0000000000415038       0x88 build/sam_e70_xult_freertos/debug/_ext/810785262/ipv4.o
                0x0000000000415038                TCPIP_IPV4_DeInitialize

.text._OAHashFindBkt%318
                0x00000000004150c0       0x88
 .text._OAHashFindBkt
                0x00000000004150c0       0x88 build/sam_e70_xult_freertos/debug/_ext/810785262/oahash.o

.text.MPU_Initialize%319
                0x0000000000415148       0x88
 .text.MPU_Initialize
                0x0000000000415148       0x88 build/sam_e70_xult_freertos/debug/_ext/45638026/plib_mpu.o
                0x0000000000415148                MPU_Initialize

.text.SYS_CMD_Initialize%320
                0x00000000004151d0       0x88
 .text.SYS_CMD_Initialize
                0x00000000004151d0       0x88 build/sam_e70_xult_freertos/debug/_ext/762686499/sys_command.o
                0x00000000004151d0                SYS_CMD_Initialize

.text.TCPIP_Commands_Initialize%321
                0x0000000000415258       0x84
 .text.TCPIP_Commands_Initialize
                0x0000000000415258       0x84 build/sam_e70_xult_freertos/debug/_ext/810785262/tcpip_commands.o
                0x0000000000415258                TCPIP_Commands_Initialize

.text.TCPIP_IPV4_MacPacketSwitchTxToRx%322
                0x00000000004152dc       0x82
 .text.TCPIP_IPV4_MacPacketSwitchTxToRx
                0x00000000004152dc       0x82 build/sam_e70_xult_freertos/debug/_ext/810785262/ipv4.o
                0x00000000004152dc                TCPIP_IPV4_MacPacketSwitchTxToRx

.text.DRV_PIC32CGMAC_LibInitTransfer%323
                0x0000000000415360       0x80
 .text.DRV_PIC32CGMAC_LibInitTransfer
                0x0000000000415360       0x80 build/sam_e70_xult_freertos/debug/_ext/1619526243/drv_gmac_lib_samE7x_V7x.o
                0x0000000000415360                DRV_PIC32CGMAC_LibInitTransfer

.text.DRV_MIIM_Initialize%324
                0x00000000004153e0       0x80
 .text.DRV_MIIM_Initialize
                0x00000000004153e0       0x80 build/sam_e70_xult_freertos/debug/_ext/511568427/drv_miim.o
                0x00000000004153e0                DRV_MIIM_Initialize

.text._DHCPClientClose%325
                0x0000000000415460       0x80
 .text._DHCPClientClose
                0x0000000000415460       0x80 build/sam_e70_xult_freertos/debug/_ext/810785262/dhcp.o

.text.TCPIP_Helper_PacketChecksum%326
                0x00000000004154e0       0x80
 .text.TCPIP_Helper_PacketChecksum
                0x00000000004154e0       0x80 build/sam_e70_xult_freertos/debug/_ext/810785262/tcpip_helpers.o
                0x00000000004154e0                TCPIP_Helper_PacketChecksum

.text.SendCommandPrint%327
                0x0000000000415560       0x80
 .text.SendCommandPrint
                0x0000000000415560       0x80 build/sam_e70_xult_freertos/debug/_ext/762686499/sys_command.o

.text.SYS_CMD_PRINT%328
                0x00000000004155e0       0x80
 .text.SYS_CMD_PRINT
                0x00000000004155e0       0x80 build/sam_e70_xult_freertos/debug/_ext/762686499/sys_command.o
                0x00000000004155e0                SYS_CMD_PRINT

.text.SYS_CMD_READY_TO_READ%329
                0x0000000000415660       0x80
 .text.SYS_CMD_READY_TO_READ
                0x0000000000415660       0x80 build/sam_e70_xult_freertos/debug/_ext/762686499/sys_command.o
                0x0000000000415660                SYS_CMD_READY_TO_READ

.text.SYS_Initialize%330
                0x00000000004156e0       0x80
 .text.SYS_Initialize
                0x00000000004156e0       0x80 build/sam_e70_xult_freertos/debug/_ext/1552905064/initialization.o
                0x00000000004156e0                SYS_Initialize

.text.__pic32c_data_initialization%331
                0x0000000000415760       0x80
 .text.__pic32c_data_initialization
                0x0000000000415760       0x80 /Applications/microchip/xc32/v2.15/bin/bin/../../lib/gcc/pic32c/6.2.1/../../../../pic32c/lib/v7e-m/fpv5/hard/libpic32c.a(data_init.o)
                0x0000000000415760                __pic32c_data_initialization

.text.__multadd%332
                0x00000000004157e0       0x80
 .text.__multadd
                0x00000000004157e0       0x80 /Applications/microchip/xc32/v2.15/bin/bin/../../lib/gcc/pic32c/6.2.1/../../../../pic32c/lib/v7e-m/fpv5/hard/libg.a(lib_a-mprec.o)
                0x00000000004157e0                __multadd

.text.prvUnlockQueue%333
                0x0000000000415860       0x7e
 .text.prvUnlockQueue
                0x0000000000415860       0x7e build/sam_e70_xult_freertos/debug/_ext/404212886/queue.o

.text._DRV_ETHPHY_SetupPhaseIdle%334
                0x00000000004158e0       0x7c
 .text._DRV_ETHPHY_SetupPhaseIdle
                0x00000000004158e0       0x7c build/sam_e70_xult_freertos/debug/_ext/1607428259/drv_ethphy.o

.rodata.DRV_ETHPHY_OBJECT_BASE_Default%335
                0x000000000041595c       0x7c
 .rodata.DRV_ETHPHY_OBJECT_BASE_Default
                0x000000000041595c       0x7c build/sam_e70_xult_freertos/debug/_ext/1607428259/drv_ethphy.o
                0x000000000041595c                DRV_ETHPHY_OBJECT_BASE_Default

.text.DRV_MIIM_Open%336
                0x00000000004159d8       0x7c
 .text.DRV_MIIM_Open
                0x00000000004159d8       0x7c build/sam_e70_xult_freertos/debug/_ext/511568427/drv_miim.o
                0x00000000004159d8                DRV_MIIM_Open

.text._Command_DefaultInterfaceSet%337
                0x0000000000415a54       0x7c
 .text._Command_DefaultInterfaceSet
                0x0000000000415a54       0x7c build/sam_e70_xult_freertos/debug/_ext/810785262/tcpip_commands.o

.text.SYS_Tasks%338
                0x0000000000415ad0       0x7c
 .text.SYS_Tasks
                0x0000000000415ad0       0x7c build/sam_e70_xult_freertos/debug/_ext/1552905064/tasks.o
                0x0000000000415ad0                SYS_Tasks

.text.xTaskPriorityDisinherit%339
                0x0000000000415b4c       0x7c
 .text.xTaskPriorityDisinherit
                0x0000000000415b4c       0x7c build/sam_e70_xult_freertos/debug/_ext/404212886/FreeRTOS_tasks.o
                0x0000000000415b4c                xTaskPriorityDisinherit

.text.frexp%340
                0x0000000000415bc8       0x7c
 .text.frexp    0x0000000000415bc8       0x7c /Applications/microchip/xc32/v2.15/bin/bin/../../lib/gcc/pic32c/6.2.1/../../../../pic32c/lib/v7e-m/fpv5/hard/libg.a(lib_a-s_frexp.o)
                0x0000000000415bc8                frexp

.text.TCPIP_Helper_StringToMACAddress%341
                0x0000000000415c44       0x7a
 .text.TCPIP_Helper_StringToMACAddress
                0x0000000000415c44       0x7a build/sam_e70_xult_freertos/debug/_ext/810785262/tcpip_helpers.o
                0x0000000000415c44                TCPIP_Helper_StringToMACAddress

.text._DRV_ETHPHY_NegCompletePhaseRead2%342
                0x0000000000415cc0       0x78
 .text._DRV_ETHPHY_NegCompletePhaseRead2
                0x0000000000415cc0       0x78 build/sam_e70_xult_freertos/debug/_ext/1607428259/drv_ethphy.o

.text._DNS_ValidateIf%343
                0x0000000000415d38       0x78
 .text._DNS_ValidateIf
                0x0000000000415d38       0x78 build/sam_e70_xult_freertos/debug/_ext/810785262/dns.o

.text._DHCPCleanup%344
                0x0000000000415db0       0x78
 .text._DHCPCleanup
                0x0000000000415db0       0x78 build/sam_e70_xult_freertos/debug/_ext/810785262/dhcp.o

.text.CLK_Initialize%345
                0x0000000000415e28       0x78
 .text.CLK_Initialize
                0x0000000000415e28       0x78 build/sam_e70_xult_freertos/debug/_ext/45647770/plib_clk.o
                0x0000000000415e28                CLK_Initialize

.text.Console_UART_ResourceLock%346
                0x0000000000415ea0       0x78
 .text.Console_UART_ResourceLock
                0x0000000000415ea0       0x78 build/sam_e70_xult_freertos/debug/_ext/762686499/sys_console_uart.o

.text.SYS_DEBUG_Print%347
                0x0000000000415f18       0x78
 .text.SYS_DEBUG_Print
                0x0000000000415f18       0x78 build/sam_e70_xult_freertos/debug/_ext/762686499/sys_debug.o
                0x0000000000415f18                SYS_DEBUG_Print

.text.xTaskRemoveFromEventList%348
                0x0000000000415f90       0x78
 .text.xTaskRemoveFromEventList
                0x0000000000415f90       0x78 build/sam_e70_xult_freertos/debug/_ext/404212886/FreeRTOS_tasks.o
                0x0000000000415f90                xTaskRemoveFromEventList

.text._DRV_GMAC_LinkStateNegResult%349
                0x0000000000416008       0x76
 .text._DRV_GMAC_LinkStateNegResult
                0x0000000000416008       0x76 build/sam_e70_xult_freertos/debug/_ext/1619526243/drv_gmac.o

.text._DRV_ETHPHY_NegResultPhase_BMSTAT%350
                0x000000000041607e       0x74
 .text._DRV_ETHPHY_NegResultPhase_BMSTAT
                0x000000000041607e       0x74 build/sam_e70_xult_freertos/debug/_ext/1607428259/drv_ethphy.o

.text.TCPIP_DHCP_ConnectionHandler%351
                0x00000000004160f4       0x74
 .text.TCPIP_DHCP_ConnectionHandler
                0x00000000004160f4       0x74 build/sam_e70_xult_freertos/debug/_ext/810785262/dhcp.o
                0x00000000004160f4                TCPIP_DHCP_ConnectionHandler

.text._ARPUpdateEntry%352
                0x0000000000416168       0x74
 .text._ARPUpdateEntry
                0x0000000000416168       0x74 build/sam_e70_xult_freertos/debug/_ext/810785262/arp.o

.text.TCPIP_ARP_EntryRemove%353
                0x00000000004161dc       0x74
 .text.TCPIP_ARP_EntryRemove
                0x00000000004161dc       0x74 build/sam_e70_xult_freertos/debug/_ext/810785262/arp.o
                0x00000000004161dc                TCPIP_ARP_EntryRemove

.text._Command_BIOSNameSet%354
                0x0000000000416250       0x74
 .text._Command_BIOSNameSet
                0x0000000000416250       0x74 build/sam_e70_xult_freertos/debug/_ext/810785262/tcpip_commands.o

.text.TCPIP_STACK_BringNetDown%355
                0x00000000004162c4       0x74
 .text.TCPIP_STACK_BringNetDown
                0x00000000004162c4       0x74 build/sam_e70_xult_freertos/debug/_ext/810785262/tcpip_manager.o

.text._TCPIP_PKT_PacketAlloc%356
                0x0000000000416338       0x74
 .text._TCPIP_PKT_PacketAlloc
                0x0000000000416338       0x74 build/sam_e70_xult_freertos/debug/_ext/810785262/tcpip_packet.o
                0x0000000000416338                _TCPIP_PKT_PacketAlloc

.text.Console_UART_Read%357
                0x00000000004163ac       0x74
 .text.Console_UART_Read
                0x00000000004163ac       0x74 build/sam_e70_xult_freertos/debug/_ext/762686499/sys_console_uart.o
                0x00000000004163ac                Console_UART_Read

.text.Console_UART_Write%358
                0x0000000000416420       0x74
 .text.Console_UART_Write
                0x0000000000416420       0x74 build/sam_e70_xult_freertos/debug/_ext/762686499/sys_console_uart.o
                0x0000000000416420                Console_UART_Write

.text._vsnprintf_r%359
                0x0000000000416494       0x74
 .text._vsnprintf_r
                0x0000000000416494       0x74 /Applications/microchip/xc32/v2.15/bin/bin/../../lib/gcc/pic32c/6.2.1/../../../../pic32c/lib/v7e-m/fpv5/hard/libg.a(lib_a-vsnprintf.o)
                0x0000000000416494                _vsnprintf_r

.text._TCPIP_StackSyncFunction%360
                0x0000000000416508       0x72
 .text._TCPIP_StackSyncFunction
                0x0000000000416508       0x72 build/sam_e70_xult_freertos/debug/_ext/810785262/tcpip_manager.o

.text.TCPIP_PKT_DataSegmentGet%361
                0x000000000041657a       0x72
 .text.TCPIP_PKT_DataSegmentGet
                0x000000000041657a       0x72 build/sam_e70_xult_freertos/debug/_ext/810785262/tcpip_packet.o
                0x000000000041657a                TCPIP_PKT_DataSegmentGet

.text.prvCopyDataToQueue%362
                0x00000000004165ec       0x72
 .text.prvCopyDataToQueue
                0x00000000004165ec       0x72 build/sam_e70_xult_freertos/debug/_ext/404212886/queue.o

.text.DRV_ETHPHY_Open%363
                0x0000000000416660       0x70
 .text.DRV_ETHPHY_Open
                0x0000000000416660       0x70 build/sam_e70_xult_freertos/debug/_ext/1607428259/drv_ethphy.o
                0x0000000000416660                DRV_ETHPHY_Open

.text._DRV_ETHPHY_ResetPhaseWrite%364
                0x00000000004166d0       0x70
 .text._DRV_ETHPHY_ResetPhaseWrite
                0x00000000004166d0       0x70 build/sam_e70_xult_freertos/debug/_ext/1607428259/drv_ethphy.o

.text.DRV_GMAC_LibDescriptorsPoolAdd%365
                0x0000000000416740       0x70
 .text.DRV_GMAC_LibDescriptorsPoolAdd
                0x0000000000416740       0x70 build/sam_e70_xult_freertos/debug/_ext/1619526243/drv_gmac_lib_samE7x_V7x.o
                0x0000000000416740                DRV_GMAC_LibDescriptorsPoolAdd

.text.TCPIP_IPV4_Initialize%366
                0x00000000004167b0       0x70
 .text.TCPIP_IPV4_Initialize
                0x00000000004167b0       0x70 build/sam_e70_xult_freertos/debug/_ext/810785262/ipv4.o
                0x00000000004167b0                TCPIP_IPV4_Initialize

.text.Console_UART_Initialize%367
                0x0000000000416820       0x70
 .text.Console_UART_Initialize
                0x0000000000416820       0x70 build/sam_e70_xult_freertos/debug/_ext/762686499/sys_console_uart.o
                0x0000000000416820                Console_UART_Initialize

.text.SYS_CMD_ADDGRP%368
                0x0000000000416890       0x70
 .text.SYS_CMD_ADDGRP
                0x0000000000416890       0x70 build/sam_e70_xult_freertos/debug/_ext/762686499/sys_command.o
                0x0000000000416890                SYS_CMD_ADDGRP

.text.xQueueGenericReset%369
                0x0000000000416900       0x70
 .text.xQueueGenericReset
                0x0000000000416900       0x70 build/sam_e70_xult_freertos/debug/_ext/404212886/queue.o
                0x0000000000416900                xQueueGenericReset

.text.prvIdleTask%370
                0x0000000000416970       0x70
 .text.prvIdleTask
                0x0000000000416970       0x70 build/sam_e70_xult_freertos/debug/_ext/404212886/FreeRTOS_tasks.o

.text%371       0x00000000004169e0       0x6c
 .text          0x00000000004169e0       0x6c /Applications/microchip/xc32/v2.15/bin/bin/../../lib/gcc/pic32c/6.2.1/v7e-m/fpv5/hard/crtbegin.o

.text.TCPIP_DNS_Disable%372
                0x0000000000416a4c       0x6c
 .text.TCPIP_DNS_Disable
                0x0000000000416a4c       0x6c build/sam_e70_xult_freertos/debug/_ext/810785262/dns.o
                0x0000000000416a4c                TCPIP_DNS_Disable

.text._TcpCleanup%373
                0x0000000000416ab8       0x6c
 .text._TcpCleanup
                0x0000000000416ab8       0x6c build/sam_e70_xult_freertos/debug/_ext/810785262/tcp.o

.text._MacTxPendingPackets%374
                0x0000000000416b24       0x6a
 .text._MacTxPendingPackets
                0x0000000000416b24       0x6a build/sam_e70_xult_freertos/debug/_ext/1619526243/drv_gmac.o

.text._DNS_AddSelectionIf%375
                0x0000000000416b8e       0x6a
 .text._DNS_AddSelectionIf
                0x0000000000416b8e       0x6a build/sam_e70_xult_freertos/debug/_ext/810785262/dns.o

.text.TCPIP_Helper_PacketCopy%376
                0x0000000000416bf8       0x6a
 .text.TCPIP_Helper_PacketCopy
                0x0000000000416bf8       0x6a build/sam_e70_xult_freertos/debug/_ext/810785262/tcpip_helpers.o
                0x0000000000416bf8                TCPIP_Helper_PacketCopy

.text._DRV_GMAC_LinkStateWaitLinkUp%377
                0x0000000000416c64       0x68
 .text._DRV_GMAC_LinkStateWaitLinkUp
                0x0000000000416c64       0x68 build/sam_e70_xult_freertos/debug/_ext/1619526243/drv_gmac.o

.text.DRV_PIC32CGMAC_LibMACOpen%378
                0x0000000000416ccc       0x68
 .text.DRV_PIC32CGMAC_LibMACOpen
                0x0000000000416ccc       0x68 build/sam_e70_xult_freertos/debug/_ext/1619526243/drv_gmac_lib_samE7x_V7x.o
                0x0000000000416ccc                DRV_PIC32CGMAC_LibMACOpen

.text._TcpSwapHeader%379
                0x0000000000416d34       0x68
 .text._TcpSwapHeader
                0x0000000000416d34       0x68 build/sam_e70_xult_freertos/debug/_ext/810785262/tcp.o

.text._TcpClientSocketConnect%380
                0x0000000000416d9c       0x68
 .text._TcpClientSocketConnect
                0x0000000000416d9c       0x68 build/sam_e70_xult_freertos/debug/_ext/810785262/tcp.o

.text.TCPIP_ARP_CacheEntriesNoGet%381
                0x0000000000416e04       0x68
 .text.TCPIP_ARP_CacheEntriesNoGet
                0x0000000000416e04       0x68 build/sam_e70_xult_freertos/debug/_ext/810785262/arp.o
                0x0000000000416e04                TCPIP_ARP_CacheEntriesNoGet

.text.TCPIP_OAHASH_EntryLookup%382
                0x0000000000416e6c       0x68
 .text.TCPIP_OAHASH_EntryLookup
                0x0000000000416e6c       0x68 build/sam_e70_xult_freertos/debug/_ext/810785262/oahash.o
                0x0000000000416e6c                TCPIP_OAHASH_EntryLookup

.text.TCPIP_OAHASH_EntryLookupOrInsert%383
                0x0000000000416ed4       0x68
 .text.TCPIP_OAHASH_EntryLookupOrInsert
                0x0000000000416ed4       0x68 build/sam_e70_xult_freertos/debug/_ext/810785262/oahash.o
                0x0000000000416ed4                TCPIP_OAHASH_EntryLookupOrInsert

.text._TCPIPStackInsertRxPacket%384
                0x0000000000416f3c       0x68
 .text._TCPIPStackInsertRxPacket
                0x0000000000416f3c       0x68 build/sam_e70_xult_freertos/debug/_ext/810785262/tcpip_manager.o
                0x0000000000416f3c                _TCPIPStackInsertRxPacket

.rodata%385     0x0000000000416fa4       0x68
 .rodata        0x0000000000416fa4       0x68 build/sam_e70_xult_freertos/debug/_ext/1552905064/initialization.o

.text.vTaskStartScheduler%386
                0x000000000041700c       0x68
 .text.vTaskStartScheduler
                0x000000000041700c       0x68 build/sam_e70_xult_freertos/debug/_ext/404212886/FreeRTOS_tasks.o
                0x000000000041700c                vTaskStartScheduler

.text.TCPIP_Helper_CalcIPChecksum%387
                0x0000000000417074       0x66
 .text.TCPIP_Helper_CalcIPChecksum
                0x0000000000417074       0x66 build/sam_e70_xult_freertos/debug/_ext/810785262/tcpip_helpers.o
                0x0000000000417074                TCPIP_Helper_CalcIPChecksum

.text._DRV_ETHPHY_SetupPhaseNegotiate_SubPhase6%388
                0x00000000004170da       0x64
 .text._DRV_ETHPHY_SetupPhaseNegotiate_SubPhase6
                0x00000000004170da       0x64 build/sam_e70_xult_freertos/debug/_ext/1607428259/drv_ethphy.o

.text.TCPIP_DHCP_Disable%389
                0x0000000000417140       0x64
 .text.TCPIP_DHCP_Disable
                0x0000000000417140       0x64 build/sam_e70_xult_freertos/debug/_ext/810785262/dhcp.o
                0x0000000000417140                TCPIP_DHCP_Disable

.text.TCPIP_IPV4_MacPacketTransmit%390
                0x00000000004171a4       0x64
 .text.TCPIP_IPV4_MacPacketTransmit
                0x00000000004171a4       0x64 build/sam_e70_xult_freertos/debug/_ext/810785262/ipv4.o
                0x00000000004171a4                TCPIP_IPV4_MacPacketTransmit

.text.SYS_CMDIO_ADD%391
                0x0000000000417208       0x64
 .text.SYS_CMDIO_ADD
                0x0000000000417208       0x64 build/sam_e70_xult_freertos/debug/_ext/762686499/sys_command.o
                0x0000000000417208                SYS_CMDIO_ADD

.text.xPortPendSVHandler%392
                0x0000000000417270       0x64
 .text.xPortPendSVHandler
                0x0000000000417270       0x64 build/sam_e70_xult_freertos/debug/_ext/977623654/port.o
                0x0000000000417270                xPortPendSVHandler

.text.strncpy%393
                0x00000000004172d4       0x64
 .text.strncpy  0x00000000004172d4       0x64 /Applications/microchip/xc32/v2.15/bin/bin/../../lib/gcc/pic32c/6.2.1/../../../../pic32c/lib/v7e-m/fpv5/hard/libg.a(lib_a-strncpy.o)
                0x00000000004172d4                strncpy

.text.__strtok_r%394
                0x0000000000417338       0x64
 .text.__strtok_r
                0x0000000000417338       0x64 /Applications/microchip/xc32/v2.15/bin/bin/../../lib/gcc/pic32c/6.2.1/../../../../pic32c/lib/v7e-m/fpv5/hard/libg.a(lib_a-strtok_r.o)
                0x0000000000417338                __strtok_r

.text.TCPIP_ARP_EntryGet%395
                0x000000000041739c       0x62
 .text.TCPIP_ARP_EntryGet
                0x000000000041739c       0x62 build/sam_e70_xult_freertos/debug/_ext/810785262/arp.o
                0x000000000041739c                TCPIP_ARP_EntryGet

.text.Console_UART_PLIBReadHandler%396
                0x00000000004173fe       0x62
 .text.Console_UART_PLIBReadHandler
                0x00000000004173fe       0x62 build/sam_e70_xult_freertos/debug/_ext/762686499/sys_console_uart.o

.text.TCPIP_DNS_ClientDeinitialize%397
                0x0000000000417460       0x60
 .text.TCPIP_DNS_ClientDeinitialize
                0x0000000000417460       0x60 build/sam_e70_xult_freertos/debug/_ext/810785262/dns.o
                0x0000000000417460                TCPIP_DNS_ClientDeinitialize

.text.TCPIP_DNS_GetIPAddressesNumber%398
                0x00000000004174c0       0x60
 .text.TCPIP_DNS_GetIPAddressesNumber
                0x00000000004174c0       0x60 build/sam_e70_xult_freertos/debug/_ext/810785262/dns.o
                0x00000000004174c0                TCPIP_DNS_GetIPAddressesNumber

.rodata.TCPIP_STACK_MODULE_ENTRY_TBL%399
                0x0000000000417520       0x60
 .rodata.TCPIP_STACK_MODULE_ENTRY_TBL
                0x0000000000417520       0x60 build/sam_e70_xult_freertos/debug/_ext/810785262/tcpip_manager.o

.text.TCPIP_UDP_SocketInfoGet%400
                0x0000000000417580       0x60
 .text.TCPIP_UDP_SocketInfoGet
                0x0000000000417580       0x60 build/sam_e70_xult_freertos/debug/_ext/810785262/udp.o
                0x0000000000417580                TCPIP_UDP_SocketInfoGet

.text._calloc_r%401
                0x00000000004175e0       0x60
 .text._calloc_r
                0x00000000004175e0       0x60 /Applications/microchip/xc32/v2.15/bin/bin/../../lib/gcc/pic32c/6.2.1/../../../../pic32c/lib/v7e-m/fpv5/hard/libg.a(lib_a-callocr.o)
                0x00000000004175e0                _calloc_r

.text.memcmp%402
                0x0000000000417640       0x60
 .text.memcmp   0x0000000000417640       0x60 /Applications/microchip/xc32/v2.15/bin/bin/../../lib/gcc/pic32c/6.2.1/../../../../pic32c/lib/v7e-m/fpv5/hard/libg.a(lib_a-memcmp.o)
                0x0000000000417640                memcmp

.text.__lo0bits%403
                0x00000000004176a0       0x60
 .text.__lo0bits
                0x00000000004176a0       0x60 /Applications/microchip/xc32/v2.15/bin/bin/../../lib/gcc/pic32c/6.2.1/../../../../pic32c/lib/v7e-m/fpv5/hard/libg.a(lib_a-mprec.o)
                0x00000000004176a0                __lo0bits

.text.DRV_ETHPHY_Initialize%404
                0x0000000000417700       0x5c
 .text.DRV_ETHPHY_Initialize
                0x0000000000417700       0x5c build/sam_e70_xult_freertos/debug/_ext/1607428259/drv_ethphy.o
                0x0000000000417700                DRV_ETHPHY_Initialize

.text._TCPIPStackIpAddFromAnyNet%405
                0x000000000041775c       0x5c
 .text._TCPIPStackIpAddFromAnyNet
                0x000000000041775c       0x5c build/sam_e70_xult_freertos/debug/_ext/810785262/tcpip_manager.o
                0x000000000041775c                _TCPIPStackIpAddFromAnyNet

.text.strncat%406
                0x00000000004177b8       0x5c
 .text.strncat  0x00000000004177b8       0x5c /Applications/microchip/xc32/v2.15/bin/bin/../../lib/gcc/pic32c/6.2.1/../../../../pic32c/lib/v7e-m/fpv5/hard/libg.a(lib_a-strncat.o)
                0x00000000004177b8                strncat

.text.DRV_GMAC_StatisticsGet%407
                0x0000000000417814       0x5a
 .text.DRV_GMAC_StatisticsGet
                0x0000000000417814       0x5a build/sam_e70_xult_freertos/debug/_ext/1619526243/drv_gmac.o
                0x0000000000417814                DRV_GMAC_StatisticsGet

.text._DHCPOptionProcessDns%408
                0x000000000041786e       0x5a
 .text._DHCPOptionProcessDns
                0x000000000041786e       0x5a build/sam_e70_xult_freertos/debug/_ext/810785262/dhcp.o

.text.TCPIP_UDP_BcastIPV4AddressSet%409
                0x00000000004178c8       0x5a
 .text.TCPIP_UDP_BcastIPV4AddressSet
                0x00000000004178c8       0x5a build/sam_e70_xult_freertos/debug/_ext/810785262/udp.o
                0x00000000004178c8                TCPIP_UDP_BcastIPV4AddressSet

.text.DRV_ETHPHY_VendorSMIReadStart%410
                0x0000000000417922       0x58
 .text.DRV_ETHPHY_VendorSMIReadStart
                0x0000000000417922       0x58 build/sam_e70_xult_freertos/debug/_ext/1607428259/drv_ethphy.o
                0x0000000000417922                DRV_ETHPHY_VendorSMIReadStart

.text.DRV_ETHPHY_VendorSMIWriteStart%411
                0x000000000041797a       0x58
 .text.DRV_ETHPHY_VendorSMIWriteStart
                0x000000000041797a       0x58 build/sam_e70_xult_freertos/debug/_ext/1607428259/drv_ethphy.o
                0x000000000041797a                DRV_ETHPHY_VendorSMIWriteStart

.rodata.DRV_GMAC_Object%412
                0x00000000004179d4       0x58
 .rodata.DRV_GMAC_Object
                0x00000000004179d4       0x58 build/sam_e70_xult_freertos/debug/_ext/1619526243/drv_gmac.o
                0x00000000004179d4                DRV_GMAC_Object

.text.DRV_PIC32CGMAC_LibInit%413
                0x0000000000417a2c       0x58
 .text.DRV_PIC32CGMAC_LibInit
                0x0000000000417a2c       0x58 build/sam_e70_xult_freertos/debug/_ext/1619526243/drv_gmac_lib_samE7x_V7x.o
                0x0000000000417a2c                DRV_PIC32CGMAC_LibInit

.text._DRV_MIIM_ReleaseOpDcpt%414
                0x0000000000417a84       0x58
 .text._DRV_MIIM_ReleaseOpDcpt
                0x0000000000417a84       0x58 build/sam_e70_xult_freertos/debug/_ext/511568427/drv_miim.o

.text._DNS_Enable%415
                0x0000000000417adc       0x58
 .text._DNS_Enable
                0x0000000000417adc       0x58 build/sam_e70_xult_freertos/debug/_ext/810785262/dns.o

.text._DNS_CleanCacheEntry%416
                0x0000000000417b34       0x58
 .text._DNS_CleanCacheEntry
                0x0000000000417b34       0x58 build/sam_e70_xult_freertos/debug/_ext/810785262/dns.o

.text.TCPIP_STACK_StringToMACId%417
                0x0000000000417b8c       0x58
 .text.TCPIP_STACK_StringToMACId
                0x0000000000417b8c       0x58 build/sam_e70_xult_freertos/debug/_ext/810785262/tcpip_manager.o
                0x0000000000417b8c                TCPIP_STACK_StringToMACId

.text._TCPIPStackAnyNetLinked%418
                0x0000000000417be4       0x58
 .text._TCPIPStackAnyNetLinked
                0x0000000000417be4       0x58 build/sam_e70_xult_freertos/debug/_ext/810785262/tcpip_manager.o
                0x0000000000417be4                _TCPIPStackAnyNetLinked

.text._TCPIPStackModuleSignalRequest%419
                0x0000000000417c3c       0x58
 .text._TCPIPStackModuleSignalRequest
                0x0000000000417c3c       0x58 build/sam_e70_xult_freertos/debug/_ext/810785262/tcpip_manager.o
                0x0000000000417c3c                _TCPIPStackModuleSignalRequest

.text.SYS_TIME_TimerStart%420
                0x0000000000417c94       0x58
 .text.SYS_TIME_TimerStart
                0x0000000000417c94       0x58 build/sam_e70_xult_freertos/debug/_ext/912870411/sys_time.o
                0x0000000000417c94                SYS_TIME_TimerStart

.text.xTaskCheckForTimeOut%421
                0x0000000000417cec       0x58
 .text.xTaskCheckForTimeOut
                0x0000000000417cec       0x58 build/sam_e70_xult_freertos/debug/_ext/404212886/FreeRTOS_tasks.o
                0x0000000000417cec                xTaskCheckForTimeOut

.text.OSAL_SEM_Create%422
                0x0000000000417d44       0x58
 .text.OSAL_SEM_Create
                0x0000000000417d44       0x58 build/sam_e70_xult_freertos/debug/_ext/281930714/osal_freertos.o
                0x0000000000417d44                OSAL_SEM_Create

.text._DRV_ETHPHY_LinkStatPhaseRead%423
                0x0000000000417d9c       0x56
 .text._DRV_ETHPHY_LinkStatPhaseRead
                0x0000000000417d9c       0x56 build/sam_e70_xult_freertos/debug/_ext/1607428259/drv_ethphy.o

.text.TCPIP_ARP_Probe%424
                0x0000000000417df2       0x56
 .text.TCPIP_ARP_Probe
                0x0000000000417df2       0x56 build/sam_e70_xult_freertos/debug/_ext/810785262/arp.o
                0x0000000000417df2                TCPIP_ARP_Probe

.text._DRV_ETHPHY_NegCompletePhaseAN_Complete%425
                0x0000000000417e48       0x54
 .text._DRV_ETHPHY_NegCompletePhaseAN_Complete
                0x0000000000417e48       0x54 build/sam_e70_xult_freertos/debug/_ext/1607428259/drv_ethphy.o

.text.DRV_GMAC_EventAcknowledge%426
                0x0000000000417e9c       0x54
 .text.DRV_GMAC_EventAcknowledge
                0x0000000000417e9c       0x54 build/sam_e70_xult_freertos/debug/_ext/1619526243/drv_gmac.o
                0x0000000000417e9c                DRV_GMAC_EventAcknowledge

.text._DNS_DeleteHash%427
                0x0000000000417ef0       0x54
 .text._DNS_DeleteHash
                0x0000000000417ef0       0x54 build/sam_e70_xult_freertos/debug/_ext/810785262/dns.o

.text.TCPIP_DNS_RemoveAll%428
                0x0000000000417f44       0x54
 .text.TCPIP_DNS_RemoveAll
                0x0000000000417f44       0x54 build/sam_e70_xult_freertos/debug/_ext/810785262/dns.o
                0x0000000000417f44                TCPIP_DNS_RemoveAll

.text._DHCPOptionWriteSrvIdent%429
                0x0000000000417f98       0x54
 .text._DHCPOptionWriteSrvIdent
                0x0000000000417f98       0x54 build/sam_e70_xult_freertos/debug/_ext/810785262/dhcp.o

.text._ARPNotifyClients%430
                0x0000000000417fec       0x54
 .text._ARPNotifyClients
                0x0000000000417fec       0x54 build/sam_e70_xult_freertos/debug/_ext/810785262/arp.o

.rodata%431     0x0000000000418040       0x54
 .rodata        0x0000000000418040       0x54 build/sam_e70_xult_freertos/debug/_ext/810785262/ipv4.o

.text.SYS_TIME_RemoveFromList%432
                0x0000000000418094       0x54
 .text.SYS_TIME_RemoveFromList
                0x0000000000418094       0x54 build/sam_e70_xult_freertos/debug/_ext/912870411/sys_time.o

.rodata.tcpipMACPIC32CINTInitData%433
                0x00000000004180e8       0x54
 .rodata.tcpipMACPIC32CINTInitData
                0x00000000004180e8       0x54 build/sam_e70_xult_freertos/debug/_ext/1552905064/initialization.o
                0x00000000004180e8                tcpipMACPIC32CINTInitData

.text._XtlEventsTcp2Eth%434
                0x000000000041813c       0x52
 .text._XtlEventsTcp2Eth
                0x000000000041813c       0x52 build/sam_e70_xult_freertos/debug/_ext/1619526243/drv_gmac.o

.text._TcpAbort%435
                0x000000000041818e       0x52
 .text._TcpAbort
                0x000000000041818e       0x52 build/sam_e70_xult_freertos/debug/_ext/810785262/tcp.o

.text._DRV_MIIM_GetClientAndLock%436
                0x00000000004181e0       0x50
 .text._DRV_MIIM_GetClientAndLock
                0x00000000004181e0       0x50 build/sam_e70_xult_freertos/debug/_ext/511568427/drv_miim.o

.text.TCPIP_DNS_OAHASH_DeleteEntry%437
                0x0000000000418230       0x50
 .text.TCPIP_DNS_OAHASH_DeleteEntry
                0x0000000000418230       0x50 build/sam_e70_xult_freertos/debug/_ext/810785262/dns.o

.rodata%438     0x0000000000418280       0x50
 .rodata        0x0000000000418280       0x50 build/sam_e70_xult_freertos/debug/_ext/810785262/tcp.o

.text._DHCPOptionWriteIPRequest%439
                0x00000000004182d0       0x50
 .text._DHCPOptionWriteIPRequest
                0x00000000004182d0       0x50 build/sam_e70_xult_freertos/debug/_ext/810785262/dhcp.o

.text.TCPIP_Helper_IPAddressToString%440
                0x0000000000418320       0x50
 .text.TCPIP_Helper_IPAddressToString
                0x0000000000418320       0x50 build/sam_e70_xult_freertos/debug/_ext/810785262/tcpip_helpers.o
                0x0000000000418320                TCPIP_Helper_IPAddressToString

.text.SYS_CONSOLE_Initialize%441
                0x0000000000418370       0x50
 .text.SYS_CONSOLE_Initialize
                0x0000000000418370       0x50 build/sam_e70_xult_freertos/debug/_ext/762686499/sys_console.o
                0x0000000000418370                SYS_CONSOLE_Initialize

.text.SYS_CONSOLE_Status%442
                0x00000000004183c0       0x50
 .text.SYS_CONSOLE_Status
                0x00000000004183c0       0x50 build/sam_e70_xult_freertos/debug/_ext/762686499/sys_console.o
                0x00000000004183c0                SYS_CONSOLE_Status

.text.SYS_TIME_CallbackRegisterMS%443
                0x0000000000418410       0x50
 .text.SYS_TIME_CallbackRegisterMS
                0x0000000000418410       0x50 build/sam_e70_xult_freertos/debug/_ext/912870411/sys_time.o
                0x0000000000418410                SYS_TIME_CallbackRegisterMS

.text.__libc_init_array%444
                0x0000000000418460       0x50
 .text.__libc_init_array
                0x0000000000418460       0x50 /Applications/microchip/xc32/v2.15/bin/bin/../../lib/gcc/pic32c/6.2.1/../../../../pic32c/lib/v7e-m/fpv5/hard/libg.a(lib_a-init.o)
                0x0000000000418460                __libc_init_array

.text.TCPIP_Helper_FormatNetBIOSName%445
                0x00000000004184b0       0x4e
 .text.TCPIP_Helper_FormatNetBIOSName
                0x00000000004184b0       0x4e build/sam_e70_xult_freertos/debug/_ext/810785262/tcpip_helpers.o
                0x00000000004184b0                TCPIP_Helper_FormatNetBIOSName

.text._DRV_GMAC_LinkStateGetLink%446
                0x00000000004184fe       0x4c
 .text._DRV_GMAC_LinkStateGetLink
                0x00000000004184fe       0x4c build/sam_e70_xult_freertos/debug/_ext/1619526243/drv_gmac.o

.text.DRV_MIIM_OperationAbort%447
                0x000000000041854a       0x4c
 .text.DRV_MIIM_OperationAbort
                0x000000000041854a       0x4c build/sam_e70_xult_freertos/debug/_ext/511568427/drv_miim.o
                0x000000000041854a                DRV_MIIM_OperationAbort

.text.TCPIP_IPV4_Cleanup%448
                0x0000000000418598       0x4c
 .text.TCPIP_IPV4_Cleanup
                0x0000000000418598       0x4c build/sam_e70_xult_freertos/debug/_ext/810785262/ipv4.o

.text._TCPIP_MacEventCB%449
                0x00000000004185e4       0x4c
 .text._TCPIP_MacEventCB
                0x00000000004185e4       0x4c build/sam_e70_xult_freertos/debug/_ext/810785262/tcpip_manager.o

.text._UDPClose%450
                0x0000000000418630       0x4c
 .text._UDPClose
                0x0000000000418630       0x4c build/sam_e70_xult_freertos/debug/_ext/810785262/udp.o

.text.TCPIP_UDP_PutIsReady%451
                0x000000000041867c       0x4c
 .text.TCPIP_UDP_PutIsReady
                0x000000000041867c       0x4c build/sam_e70_xult_freertos/debug/_ext/810785262/udp.o
                0x000000000041867c                TCPIP_UDP_PutIsReady

.text.Console_UART_PLIBWriteHandler%452
                0x00000000004186c8       0x4c
 .text.Console_UART_PLIBWriteHandler
                0x00000000004186c8       0x4c build/sam_e70_xult_freertos/debug/_ext/762686499/sys_console_uart.o

.text.sprintf%453
                0x0000000000418714       0x4c
 .text.sprintf  0x0000000000418714       0x4c /Applications/microchip/xc32/v2.15/bin/bin/../../lib/gcc/pic32c/6.2.1/../../../../pic32c/lib/v7e-m/fpv5/hard/libg.a(lib_a-sprintf.o)
                0x0000000000418714                __sprintf_di
                0x0000000000418714                __sprintf_s
                0x0000000000418714                sprintf
                0x0000000000418714                __sprintf_oxX

.text._Balloc%454
                0x0000000000418760       0x4c
 .text._Balloc  0x0000000000418760       0x4c /Applications/microchip/xc32/v2.15/bin/bin/../../lib/gcc/pic32c/6.2.1/../../../../pic32c/lib/v7e-m/fpv5/hard/libg.a(lib_a-mprec.o)
                0x0000000000418760                _Balloc

.text.TCPIP_UDP_DestinationIPAddressSet%455
                0x00000000004187ac       0x4a
 .text.TCPIP_UDP_DestinationIPAddressSet
                0x00000000004187ac       0x4a build/sam_e70_xult_freertos/debug/_ext/810785262/udp.o
                0x00000000004187ac                TCPIP_UDP_DestinationIPAddressSet

.text._DRV_ETHPHY_SetupPhaseNegotiate_SubPhase1%456
                0x00000000004187f8       0x48
 .text._DRV_ETHPHY_SetupPhaseNegotiate_SubPhase1
                0x00000000004187f8       0x48 build/sam_e70_xult_freertos/debug/_ext/1607428259/drv_ethphy.o

.text.DRV_ETHPHY_VendorSMIReadResultGet%457
                0x0000000000418840       0x48
 .text.DRV_ETHPHY_VendorSMIReadResultGet
                0x0000000000418840       0x48 build/sam_e70_xult_freertos/debug/_ext/1607428259/drv_ethphy.o
                0x0000000000418840                DRV_ETHPHY_VendorSMIReadResultGet

.text.DRV_GMAC_RegisterStatisticsGet%458
                0x0000000000418888       0x48
 .text.DRV_GMAC_RegisterStatisticsGet
                0x0000000000418888       0x48 build/sam_e70_xult_freertos/debug/_ext/1619526243/drv_gmac.o
                0x0000000000418888                DRV_GMAC_RegisterStatisticsGet

.text._TCPSendWinIncUpdate%459
                0x00000000004188d0       0x48
 .text._TCPSendWinIncUpdate
                0x00000000004188d0       0x48 build/sam_e70_xult_freertos/debug/_ext/810785262/tcp.o

.text.TCPIP_DHCP_IsEnabled%460
                0x0000000000418918       0x48
 .text.TCPIP_DHCP_IsEnabled
                0x0000000000418918       0x48 build/sam_e70_xult_freertos/debug/_ext/810785262/dhcp.o
                0x0000000000418918                TCPIP_DHCP_IsEnabled

.rodata._DHCPOptProcTbl%461
                0x0000000000418960       0x48
 .rodata._DHCPOptProcTbl
                0x0000000000418960       0x48 build/sam_e70_xult_freertos/debug/_ext/810785262/dhcp.o

.text.TCPIP_ARP_Deinitialize%462
                0x00000000004189a8       0x48
 .text.TCPIP_ARP_Deinitialize
                0x00000000004189a8       0x48 build/sam_e70_xult_freertos/debug/_ext/810785262/arp.o
                0x00000000004189a8                TCPIP_ARP_Deinitialize

.text.TCPIP_Helper_MACAddressToString%463
                0x00000000004189f0       0x48
 .text.TCPIP_Helper_MACAddressToString
                0x00000000004189f0       0x48 build/sam_e70_xult_freertos/debug/_ext/810785262/tcpip_helpers.o
                0x00000000004189f0                TCPIP_Helper_MACAddressToString

.text.TCPIP_STACK_MACIdToNet%464
                0x0000000000418a38       0x48
 .text.TCPIP_STACK_MACIdToNet
                0x0000000000418a38       0x48 build/sam_e70_xult_freertos/debug/_ext/810785262/tcpip_manager.o
                0x0000000000418a38                TCPIP_STACK_MACIdToNet

.text._TCPIPStackSignalHandlerRegister%465
                0x0000000000418a80       0x48
 .text._TCPIPStackSignalHandlerRegister
                0x0000000000418a80       0x48 build/sam_e70_xult_freertos/debug/_ext/810785262/tcpip_manager.o
                0x0000000000418a80                _TCPIPStackSignalHandlerRegister

.text.NVIC_Initialize%466
                0x0000000000418ac8       0x48
 .text.NVIC_Initialize
                0x0000000000418ac8       0x48 build/sam_e70_xult_freertos/debug/_ext/1414743522/plib_nvic.o
                0x0000000000418ac8                NVIC_Initialize

.text.USART1_Write%467
                0x0000000000418b10       0x48
 .text.USART1_Write
                0x0000000000418b10       0x48 build/sam_e70_xult_freertos/debug/_ext/901008055/plib_usart1.o
                0x0000000000418b10                USART1_Write

.text.CommandCleanup%468
                0x0000000000418b58       0x48
 .text.CommandCleanup
                0x0000000000418b58       0x48 build/sam_e70_xult_freertos/debug/_ext/762686499/sys_command.o

.rodata.TCPIP_STACK_MODULE_CONFIG_TBL%469
                0x0000000000418ba0       0x48
 .rodata.TCPIP_STACK_MODULE_CONFIG_TBL
                0x0000000000418ba0       0x48 build/sam_e70_xult_freertos/debug/_ext/1552905064/initialization.o
                0x0000000000418ba0                TCPIP_STACK_MODULE_CONFIG_TBL

.text.xPortStartScheduler%470
                0x0000000000418be8       0x48
 .text.xPortStartScheduler
                0x0000000000418be8       0x48 build/sam_e70_xult_freertos/debug/_ext/977623654/port.o
                0x0000000000418be8                xPortStartScheduler

.text._TCPIP_HEAP_Delete%471
                0x0000000000418c30       0x46
 .text._TCPIP_HEAP_Delete
                0x0000000000418c30       0x46 build/sam_e70_xult_freertos/debug/_ext/810785262/tcpip_heap_internal.o

.text.TCPIP_STACK_AddressServiceEvent%472
                0x0000000000418c76       0x46
 .text.TCPIP_STACK_AddressServiceEvent
                0x0000000000418c76       0x46 build/sam_e70_xult_freertos/debug/_ext/810785262/tcpip_manager.o
                0x0000000000418c76                TCPIP_STACK_AddressServiceEvent

.text.TCPIP_UDP_ArrayPut%473
                0x0000000000418cbc       0x46
 .text.TCPIP_UDP_ArrayPut
                0x0000000000418cbc       0x46 build/sam_e70_xult_freertos/debug/_ext/810785262/udp.o
                0x0000000000418cbc                TCPIP_UDP_ArrayPut

.text.DRV_GMAC_RxFilterHashTableEntrySet%474
                0x0000000000418d02       0x44
 .text.DRV_GMAC_RxFilterHashTableEntrySet
                0x0000000000418d02       0x44 build/sam_e70_xult_freertos/debug/_ext/1619526243/drv_gmac.o
                0x0000000000418d02                DRV_GMAC_RxFilterHashTableEntrySet

.text.Helper_SingleListNodeRemove%475
                0x0000000000418d46       0x44
 .text.Helper_SingleListNodeRemove
                0x0000000000418d46       0x44 build/sam_e70_xult_freertos/debug/_ext/511568427/drv_miim.o
                0x0000000000418d46                Helper_SingleListNodeRemove

.text.hexatob%476
                0x0000000000418d8a       0x44
 .text.hexatob  0x0000000000418d8a       0x44 build/sam_e70_xult_freertos/debug/_ext/810785262/helpers.o
                0x0000000000418d8a                hexatob

.text.TCPIP_ICMP_Initialize%477
                0x0000000000418dd0       0x44
 .text.TCPIP_ICMP_Initialize
                0x0000000000418dd0       0x44 build/sam_e70_xult_freertos/debug/_ext/810785262/icmp.o
                0x0000000000418dd0                TCPIP_ICMP_Initialize

.text._DHCPSetTimeout%478
                0x0000000000418e14       0x44
 .text._DHCPSetTimeout
                0x0000000000418e14       0x44 build/sam_e70_xult_freertos/debug/_ext/810785262/dhcp.o

.text._TCPIP_HEAP_MaxSize%479
                0x0000000000418e58       0x44
 .text._TCPIP_HEAP_MaxSize
                0x0000000000418e58       0x44 build/sam_e70_xult_freertos/debug/_ext/810785262/tcpip_heap_internal.o

.text.TCPIP_Helper_SingleListNodeRemove%480
                0x0000000000418e9c       0x44
 .text.TCPIP_Helper_SingleListNodeRemove
                0x0000000000418e9c       0x44 build/sam_e70_xult_freertos/debug/_ext/810785262/tcpip_helpers.o
                0x0000000000418e9c                TCPIP_Helper_SingleListNodeRemove

.text.TCPIP_STACK_NetByAddress%481
                0x0000000000418ee0       0x44
 .text.TCPIP_STACK_NetByAddress
                0x0000000000418ee0       0x44 build/sam_e70_xult_freertos/debug/_ext/810785262/tcpip_manager.o
                0x0000000000418ee0                TCPIP_STACK_NetByAddress

.text._TCPIPStackModuleRxInsert%482
                0x0000000000418f24       0x44
 .text._TCPIPStackModuleRxInsert
                0x0000000000418f24       0x44 build/sam_e70_xult_freertos/debug/_ext/810785262/tcpip_manager.o
                0x0000000000418f24                _TCPIPStackModuleRxInsert

.text._UDPSetNewRxPacket%483
                0x0000000000418f68       0x44
 .text._UDPSetNewRxPacket
                0x0000000000418f68       0x44 build/sam_e70_xult_freertos/debug/_ext/810785262/udp.o

.rodata%484     0x0000000000418fac       0x44
 .rodata        0x0000000000418fac       0x44 build/sam_e70_xult_freertos/debug/_ext/810785262/udp.o

.text.SYS_INT_SourceDisable%485
                0x0000000000418ff0       0x44
 .text.SYS_INT_SourceDisable
                0x0000000000418ff0       0x44 build/sam_e70_xult_freertos/debug/_ext/1775855163/sys_int.o
                0x0000000000418ff0                SYS_INT_SourceDisable

.text._APP_Commands_requestWeather%486
                0x0000000000419034       0x44
 .text._APP_Commands_requestWeather
                0x0000000000419034       0x44 build/sam_e70_xult_freertos/debug/_ext/1360937237/app_commands.o

.text.APP_Commands_Init%487
                0x0000000000419078       0x44
 .text.APP_Commands_Init
                0x0000000000419078       0x44 build/sam_e70_xult_freertos/debug/_ext/1360937237/app_commands.o
                0x0000000000419078                APP_Commands_Init

.rodata%488     0x00000000004190bc       0x44
 .rodata        0x00000000004190bc       0x44 /Applications/microchip/xc32/v2.15/bin/bin/../../lib/gcc/pic32c/6.2.1/../../../../pic32c/lib/v7e-m/fpv5/hard/libg.a(lib_a-svfprintf.o)

.text._DRV_GMAC_LinkStateNegComplete%489
                0x0000000000419100       0x42
 .text._DRV_GMAC_LinkStateNegComplete
                0x0000000000419100       0x42 build/sam_e70_xult_freertos/debug/_ext/1619526243/drv_gmac.o

.text._TcpSocketSetSourceInterface%490
                0x0000000000419142       0x42
 .text._TcpSocketSetSourceInterface
                0x0000000000419142       0x42 build/sam_e70_xult_freertos/debug/_ext/810785262/tcp.o

.text._DHCPOptionClientId%491
                0x0000000000419184       0x42
 .text._DHCPOptionClientId
                0x0000000000419184       0x42 build/sam_e70_xult_freertos/debug/_ext/810785262/dhcp.o

.text._DRV_ETHPHY_NegRestartPhaseRead%492
                0x00000000004191c6       0x40
 .text._DRV_ETHPHY_NegRestartPhaseRead
                0x00000000004191c6       0x40 build/sam_e70_xult_freertos/debug/_ext/1607428259/drv_ethphy.o

.text._DRV_ETHPHY_SetupPhaseNegotiate_SubPhase5%493
                0x0000000000419206       0x40
 .text._DRV_ETHPHY_SetupPhaseNegotiate_SubPhase5
                0x0000000000419206       0x40 build/sam_e70_xult_freertos/debug/_ext/1607428259/drv_ethphy.o

.rodata.DRV_MIIM_OBJECT_BASE_Default%494
                0x0000000000419248       0x40
 .rodata.DRV_MIIM_OBJECT_BASE_Default
                0x0000000000419248       0x40 build/sam_e70_xult_freertos/debug/_ext/511568427/drv_miim.o
                0x0000000000419248                DRV_MIIM_OBJECT_BASE_Default

.text.TCPIP_DNS_RemoveEntry%495
                0x0000000000419288       0x40
 .text.TCPIP_DNS_RemoveEntry
                0x0000000000419288       0x40 build/sam_e70_xult_freertos/debug/_ext/810785262/dns.o
                0x0000000000419288                TCPIP_DNS_RemoveEntry

.rodata%496     0x00000000004192c8       0x40
 .rodata        0x00000000004192c8       0x40 build/sam_e70_xult_freertos/debug/_ext/810785262/dns.o

.text._TCP_PortIsAvailable%497
                0x0000000000419308       0x40
 .text._TCP_PortIsAvailable
                0x0000000000419308       0x40 build/sam_e70_xult_freertos/debug/_ext/810785262/tcp.o

.text._DHCPSetRunFail%498
                0x0000000000419348       0x40
 .text._DHCPSetRunFail
                0x0000000000419348       0x40 build/sam_e70_xult_freertos/debug/_ext/810785262/dhcp.o

.text.TCPIP_DHCP_Deinitialize%499
                0x0000000000419388       0x40
 .text.TCPIP_DHCP_Deinitialize
                0x0000000000419388       0x40 build/sam_e70_xult_freertos/debug/_ext/810785262/dhcp.o
                0x0000000000419388                TCPIP_DHCP_Deinitialize

.rodata%500     0x00000000004193c8       0x40
 .rodata        0x00000000004193c8       0x40 build/sam_e70_xult_freertos/debug/_ext/810785262/tcpip_helpers.o

.text.TCPIP_STACK_NetAliasNameGet%501
                0x0000000000419408       0x40
 .text.TCPIP_STACK_NetAliasNameGet
                0x0000000000419408       0x40 build/sam_e70_xult_freertos/debug/_ext/810785262/tcpip_manager.o
                0x0000000000419408                TCPIP_STACK_NetAliasNameGet

.text.TCPIP_STACK_NetHandleGet%502
                0x0000000000419448       0x40
 .text.TCPIP_STACK_NetHandleGet
                0x0000000000419448       0x40 build/sam_e70_xult_freertos/debug/_ext/810785262/tcpip_manager.o
                0x0000000000419448                TCPIP_STACK_NetHandleGet

.text._UDPIsAvailablePort%503
                0x0000000000419488       0x40
 .text._UDPIsAvailablePort
                0x0000000000419488       0x40 build/sam_e70_xult_freertos/debug/_ext/810785262/udp.o

.text.TCPIP_UDP_SocketNetSet%504
                0x00000000004194c8       0x40
 .text.TCPIP_UDP_SocketNetSet
                0x00000000004194c8       0x40 build/sam_e70_xult_freertos/debug/_ext/810785262/udp.o
                0x00000000004194c8                TCPIP_UDP_SocketNetSet

.text.TCPIP_UDP_SourceIPAddressSet%505
                0x0000000000419508       0x40
 .text.TCPIP_UDP_SourceIPAddressSet
                0x0000000000419508       0x40 build/sam_e70_xult_freertos/debug/_ext/810785262/udp.o
                0x0000000000419508                TCPIP_UDP_SourceIPAddressSet

.text.SYS_TIME_TimerAdd%506
                0x0000000000419548       0x40
 .text.SYS_TIME_TimerAdd
                0x0000000000419548       0x40 build/sam_e70_xult_freertos/debug/_ext/912870411/sys_time.o

.rodata%507     0x0000000000419588       0x40
 .rodata        0x0000000000419588       0x40 build/sam_e70_xult_freertos/debug/_ext/1552905064/tasks.o

.text.rand%508  0x00000000004195c8       0x40
 .text.rand     0x00000000004195c8       0x40 /Applications/microchip/xc32/v2.15/bin/bin/../../lib/gcc/pic32c/6.2.1/../../../../pic32c/lib/v7e-m/fpv5/hard/libg.a(lib_a-rand.o)
                0x00000000004195c8                rand

.text.__hi0bits%509
                0x0000000000419608       0x40
 .text.__hi0bits
                0x0000000000419608       0x40 /Applications/microchip/xc32/v2.15/bin/bin/../../lib/gcc/pic32c/6.2.1/../../../../pic32c/lib/v7e-m/fpv5/hard/libg.a(lib_a-mprec.o)
                0x0000000000419608                __hi0bits

.text._DNSDiscardName%510
                0x0000000000419648       0x3e
 .text._DNSDiscardName
                0x0000000000419648       0x3e build/sam_e70_xult_freertos/debug/_ext/810785262/dns.o

.text._TCPSetHalfFlushFlag%511
                0x0000000000419686       0x3e
 .text._TCPSetHalfFlushFlag
                0x0000000000419686       0x3e build/sam_e70_xult_freertos/debug/_ext/810785262/tcp.o

.text._DHCPOptionProcessSubNet%512
                0x00000000004196c4       0x3e
 .text._DHCPOptionProcessSubNet
                0x00000000004196c4       0x3e build/sam_e70_xult_freertos/debug/_ext/810785262/dhcp.o

.text.TCPIP_UDP_TxOffsetSet%513
                0x0000000000419702       0x3e
 .text.TCPIP_UDP_TxOffsetSet
                0x0000000000419702       0x3e build/sam_e70_xult_freertos/debug/_ext/810785262/udp.o
                0x0000000000419702                TCPIP_UDP_TxOffsetSet

.text._DRV_ETHPHY_SetupPhaseNegotiate_SubPhase2%514
                0x0000000000419740       0x3c
 .text._DRV_ETHPHY_SetupPhaseNegotiate_SubPhase2
                0x0000000000419740       0x3c build/sam_e70_xult_freertos/debug/_ext/1607428259/drv_ethphy.o

.text._DRV_ETHPHY_NegCompletePhaseRead1%515
                0x000000000041977c       0x3c
 .text._DRV_ETHPHY_NegCompletePhaseRead1
                0x000000000041977c       0x3c build/sam_e70_xult_freertos/debug/_ext/1607428259/drv_ethphy.o

.text.DRV_GMAC_Open%516
                0x00000000004197b8       0x3c
 .text.DRV_GMAC_Open
                0x00000000004197b8       0x3c build/sam_e70_xult_freertos/debug/_ext/1619526243/drv_gmac.o
                0x00000000004197b8                DRV_GMAC_Open

.text.DRV_GMAC_Process%517
                0x00000000004197f4       0x3c
 .text.DRV_GMAC_Process
                0x00000000004197f4       0x3c build/sam_e70_xult_freertos/debug/_ext/1619526243/drv_gmac.o
                0x00000000004197f4                DRV_GMAC_Process

.text._DRV_MIIM_GetOpDcpt%518
                0x0000000000419830       0x3c
 .text._DRV_MIIM_GetOpDcpt
                0x0000000000419830       0x3c build/sam_e70_xult_freertos/debug/_ext/511568427/drv_miim.o

.text._TcpSocketKill%519
                0x000000000041986c       0x3c
 .text._TcpSocketKill
                0x000000000041986c       0x3c build/sam_e70_xult_freertos/debug/_ext/810785262/tcp.o

.text._TCP_EphemeralPortAllocate%520
                0x00000000004198a8       0x3c
 .text._TCP_EphemeralPortAllocate
                0x00000000004198a8       0x3c build/sam_e70_xult_freertos/debug/_ext/810785262/tcp.o

.text._DHCPOptionProcessRouter%521
                0x00000000004198e4       0x3c
 .text._DHCPOptionProcessRouter
                0x00000000004198e4       0x3c build/sam_e70_xult_freertos/debug/_ext/810785262/dhcp.o

.text._DHCPNotifyClients%522
                0x0000000000419920       0x3c
 .text._DHCPNotifyClients
                0x0000000000419920       0x3c build/sam_e70_xult_freertos/debug/_ext/810785262/dhcp.o

.text._TCPIPStackModuleSignalGet%523
                0x000000000041995c       0x3c
 .text._TCPIPStackModuleSignalGet
                0x000000000041995c       0x3c build/sam_e70_xult_freertos/debug/_ext/810785262/tcpip_manager.o
                0x000000000041995c                _TCPIPStackModuleSignalGet

.text._TCPIP_PKT_PacketFree%524
                0x0000000000419998       0x3c
 .text._TCPIP_PKT_PacketFree
                0x0000000000419998       0x3c build/sam_e70_xult_freertos/debug/_ext/810785262/tcpip_packet.o
                0x0000000000419998                _TCPIP_PKT_PacketFree

.text._UDPAllocateEphemeralPort%525
                0x00000000004199d4       0x3c
 .text._UDPAllocateEphemeralPort
                0x00000000004199d4       0x3c build/sam_e70_xult_freertos/debug/_ext/810785262/udp.o

.text.TCPIP_UDP_OpenClientSkt%526
                0x0000000000419a10       0x3c
 .text.TCPIP_UDP_OpenClientSkt
                0x0000000000419a10       0x3c build/sam_e70_xult_freertos/debug/_ext/810785262/udp.o
                0x0000000000419a10                TCPIP_UDP_OpenClientSkt

.text.USART1_Initialize%527
                0x0000000000419a4c       0x3c
 .text.USART1_Initialize
                0x0000000000419a4c       0x3c build/sam_e70_xult_freertos/debug/_ext/901008055/plib_usart1.o
                0x0000000000419a4c                USART1_Initialize

.text.USART1_Read%528
                0x0000000000419a88       0x3c
 .text.USART1_Read
                0x0000000000419a88       0x3c build/sam_e70_xult_freertos/debug/_ext/901008055/plib_usart1.o
                0x0000000000419a88                USART1_Read

.text.CommandQuit%529
                0x0000000000419ac4       0x3c
 .text.CommandQuit
                0x0000000000419ac4       0x3c build/sam_e70_xult_freertos/debug/_ext/762686499/sys_command.o

.text.SYS_TIME_GetTimerObject%530
                0x0000000000419b00       0x3c
 .text.SYS_TIME_GetTimerObject
                0x0000000000419b00       0x3c build/sam_e70_xult_freertos/debug/_ext/912870411/sys_time.o

.text.SYS_TIME_ResourceUnlock%531
                0x0000000000419b3c       0x3c
 .text.SYS_TIME_ResourceUnlock
                0x0000000000419b3c       0x3c build/sam_e70_xult_freertos/debug/_ext/912870411/sys_time.o

.text.SYS_TIME_Counter64Get%532
                0x0000000000419b78       0x3c
 .text.SYS_TIME_Counter64Get
                0x0000000000419b78       0x3c build/sam_e70_xult_freertos/debug/_ext/912870411/sys_time.o
                0x0000000000419b78                SYS_TIME_Counter64Get

.text.SYS_TIME_MSToCount%533
                0x0000000000419bb8       0x3c
 .text.SYS_TIME_MSToCount
                0x0000000000419bb8       0x3c build/sam_e70_xult_freertos/debug/_ext/912870411/sys_time.o
                0x0000000000419bb8                SYS_TIME_MSToCount

.text.SYS_TIME_TimerDestroy%534
                0x0000000000419bf4       0x3c
 .text.SYS_TIME_TimerDestroy
                0x0000000000419bf4       0x3c build/sam_e70_xult_freertos/debug/_ext/912870411/sys_time.o
                0x0000000000419bf4                SYS_TIME_TimerDestroy

.text.APP_Initialize%535
                0x0000000000419c30       0x3c
 .text.APP_Initialize
                0x0000000000419c30       0x3c build/sam_e70_xult_freertos/debug/_ext/1360937237/app.o
                0x0000000000419c30                APP_Initialize

.text.DRV_MIIM_RegisterCallback%536
                0x0000000000419c6c       0x3a
 .text.DRV_MIIM_RegisterCallback
                0x0000000000419c6c       0x3a build/sam_e70_xult_freertos/debug/_ext/511568427/drv_miim.o
                0x0000000000419c6c                DRV_MIIM_RegisterCallback

.text.DRV_MIIM_Deinitialize%537
                0x0000000000419ca6       0x3a
 .text.DRV_MIIM_Deinitialize
                0x0000000000419ca6       0x3a build/sam_e70_xult_freertos/debug/_ext/511568427/drv_miim.o
                0x0000000000419ca6                DRV_MIIM_Deinitialize

.text._DHCPOptionProcessMsgType%538
                0x0000000000419ce0       0x3a
 .text._DHCPOptionProcessMsgType
                0x0000000000419ce0       0x3a build/sam_e70_xult_freertos/debug/_ext/810785262/dhcp.o

.text.DRV_ETHPHY_LinkStatusGet%539
                0x0000000000419d1a       0x38
 .text.DRV_ETHPHY_LinkStatusGet
                0x0000000000419d1a       0x38 build/sam_e70_xult_freertos/debug/_ext/1607428259/drv_ethphy.o
                0x0000000000419d1a                DRV_ETHPHY_LinkStatusGet

.text._DRV_PHY_NegCompleteSetOperResult%540
                0x0000000000419d52       0x38
 .text._DRV_PHY_NegCompleteSetOperResult
                0x0000000000419d52       0x38 build/sam_e70_xult_freertos/debug/_ext/1607428259/drv_ethphy.o

.text._DRV_ETHPHY_LinkStatPhaseRefresh%541
                0x0000000000419d8a       0x38
 .text._DRV_ETHPHY_LinkStatPhaseRefresh
                0x0000000000419d8a       0x38 build/sam_e70_xult_freertos/debug/_ext/1607428259/drv_ethphy.o

.text.DRV_PIC32CGMAC_LibGetMacAddr%542
                0x0000000000419dc4       0x38
 .text.DRV_PIC32CGMAC_LibGetMacAddr
                0x0000000000419dc4       0x38 build/sam_e70_xult_freertos/debug/_ext/1619526243/drv_gmac_lib_samE7x_V7x.o
                0x0000000000419dc4                DRV_PIC32CGMAC_LibGetMacAddr

.text.TCPIP_DNS_ClientInfoGet%543
                0x0000000000419dfc       0x38
 .text.TCPIP_DNS_ClientInfoGet
                0x0000000000419dfc       0x38 build/sam_e70_xult_freertos/debug/_ext/810785262/dns.o
                0x0000000000419dfc                TCPIP_DNS_ClientInfoGet

.text._TCPSetSourceAddress%544
                0x0000000000419e34       0x38
 .text._TCPSetSourceAddress
                0x0000000000419e34       0x38 build/sam_e70_xult_freertos/debug/_ext/810785262/tcp.o

.text.TCPIP_DHCP_IsActive%545
                0x0000000000419e6c       0x38
 .text.TCPIP_DHCP_IsActive
                0x0000000000419e6c       0x38 build/sam_e70_xult_freertos/debug/_ext/810785262/dhcp.o
                0x0000000000419e6c                TCPIP_DHCP_IsActive

.text.TCPIP_PKT_PacketMACFormat%546
                0x0000000000419ea4       0x38
 .text.TCPIP_PKT_PacketMACFormat
                0x0000000000419ea4       0x38 build/sam_e70_xult_freertos/debug/_ext/810785262/tcpip_packet.o
                0x0000000000419ea4                TCPIP_PKT_PacketMACFormat

.text.SYS_CONSOLE_Read%547
                0x0000000000419edc       0x38
 .text.SYS_CONSOLE_Read
                0x0000000000419edc       0x38 build/sam_e70_xult_freertos/debug/_ext/762686499/sys_console.o
                0x0000000000419edc                SYS_CONSOLE_Read

.text.SYS_TIME_ResourceLock%548
                0x0000000000419f14       0x38
 .text.SYS_TIME_ResourceLock
                0x0000000000419f14       0x38 build/sam_e70_xult_freertos/debug/_ext/912870411/sys_time.o

.rodata.TCPIP_HOSTS_CONFIGURATION%549
                0x0000000000419f4c       0x38
 .rodata.TCPIP_HOSTS_CONFIGURATION
                0x0000000000419f4c       0x38 build/sam_e70_xult_freertos/debug/_ext/1552905064/initialization.o
                0x0000000000419f4c                TCPIP_HOSTS_CONFIGURATION

.text.__mcmp%550
                0x0000000000419f84       0x38
 .text.__mcmp   0x0000000000419f84       0x38 /Applications/microchip/xc32/v2.15/bin/bin/../../lib/gcc/pic32c/6.2.1/../../../../pic32c/lib/v7e-m/fpv5/hard/libg.a(lib_a-mprec.o)
                0x0000000000419f84                __mcmp

.text.DRV_ETHPHY_NegotiationResultGet%551
                0x0000000000419fbc       0x36
 .text.DRV_ETHPHY_NegotiationResultGet
                0x0000000000419fbc       0x36 build/sam_e70_xult_freertos/debug/_ext/1607428259/drv_ethphy.o
                0x0000000000419fbc                DRV_ETHPHY_NegotiationResultGet

.text._TCPIPStackSetConfigAddress%552
                0x0000000000419ff2       0x36
 .text._TCPIPStackSetConfigAddress
                0x0000000000419ff2       0x36 build/sam_e70_xult_freertos/debug/_ext/810785262/tcpip_manager.o
                0x0000000000419ff2                _TCPIPStackSetConfigAddress

.text.TCPIP_UDP_RxOffsetSet%553
                0x000000000041a028       0x36
 .text.TCPIP_UDP_RxOffsetSet
                0x000000000041a028       0x36 build/sam_e70_xult_freertos/debug/_ext/810785262/udp.o
                0x000000000041a028                TCPIP_UDP_RxOffsetSet

.text.Console_UART_PopQueue%554
                0x000000000041a05e       0x36
 .text.Console_UART_PopQueue
                0x000000000041a05e       0x36 build/sam_e70_xult_freertos/debug/_ext/762686499/sys_console_uart.o

.text.TCPIP_DNS_OAHASH_KeyCopy%555
                0x000000000041a094       0x34
 .text.TCPIP_DNS_OAHASH_KeyCopy
                0x000000000041a094       0x34 build/sam_e70_xult_freertos/debug/_ext/810785262/dns.o

.rodata%556     0x000000000041a0c8       0x34
 .rodata        0x000000000041a0c8       0x34 build/sam_e70_xult_freertos/debug/_ext/810785262/dhcp.o

.text._ARPSetEntry%557
                0x000000000041a0fc       0x34
 .text._ARPSetEntry
                0x000000000041a0fc       0x34 build/sam_e70_xult_freertos/debug/_ext/810785262/arp.o

.text.TCPIP_ARP_HashEntryDelete%558
                0x000000000041a130       0x34
 .text.TCPIP_ARP_HashEntryDelete
                0x000000000041a130       0x34 build/sam_e70_xult_freertos/debug/_ext/810785262/arp.o
                0x000000000041a130                TCPIP_ARP_HashEntryDelete

.text.TCPIP_ARP_HandlerRegister%559
                0x000000000041a164       0x34
 .text.TCPIP_ARP_HandlerRegister
                0x000000000041a164       0x34 build/sam_e70_xult_freertos/debug/_ext/810785262/arp.o
                0x000000000041a164                TCPIP_ARP_HandlerRegister

.text.TCPIP_Helper_StringToPowerMode%560
                0x000000000041a198       0x34
 .text.TCPIP_Helper_StringToPowerMode
                0x000000000041a198       0x34 build/sam_e70_xult_freertos/debug/_ext/810785262/tcpip_helpers.o
                0x000000000041a198                TCPIP_Helper_StringToPowerMode

.text._TCPIP_PKT_PacketAcknowledge%561
                0x000000000041a1cc       0x34
 .text._TCPIP_PKT_PacketAcknowledge
                0x000000000041a1cc       0x34 build/sam_e70_xult_freertos/debug/_ext/810785262/tcpip_packet.o
                0x000000000041a1cc                _TCPIP_PKT_PacketAcknowledge

.text.vListInsert%562
                0x000000000041a200       0x34
 .text.vListInsert
                0x000000000041a200       0x34 build/sam_e70_xult_freertos/debug/_ext/404212886/list.o
                0x000000000041a200                vListInsert

.text.vTaskDelay%563
                0x000000000041a234       0x34
 .text.vTaskDelay
                0x000000000041a234       0x34 build/sam_e70_xult_freertos/debug/_ext/404212886/FreeRTOS_tasks.o
                0x000000000041a234                vTaskDelay

.text._APP_PumpDNS%564
                0x000000000041a268       0x34
 .text._APP_PumpDNS
                0x000000000041a268       0x34 build/sam_e70_xult_freertos/debug/_ext/1360937237/app.o
                0x000000000041a268                _APP_PumpDNS

.text.__libc_fini_array%565
                0x000000000041a29c       0x34
 .text.__libc_fini_array
                0x000000000041a29c       0x34 /Applications/microchip/xc32/v2.15/bin/bin/../../lib/gcc/pic32c/6.2.1/../../../../pic32c/lib/v7e-m/fpv5/hard/libg.a(lib_a-fini.o)
                0x000000000041a29c                __libc_fini_array

.text._MacPacketAck%566
                0x000000000041a2d0       0x32
 .text._MacPacketAck
                0x000000000041a2d0       0x32 build/sam_e70_xult_freertos/debug/_ext/1619526243/drv_gmac_lib_samE7x_V7x.o

.text._DNS_NetIsValid%567
                0x000000000041a302       0x32
 .text._DNS_NetIsValid
                0x000000000041a302       0x32 build/sam_e70_xult_freertos/debug/_ext/810785262/dns.o

.text.TCPIP_STACK_NetBiosNameSet%568
                0x000000000041a334       0x32
 .text.TCPIP_STACK_NetBiosNameSet
                0x000000000041a334       0x32 build/sam_e70_xult_freertos/debug/_ext/810785262/tcpip_manager.o
                0x000000000041a334                TCPIP_STACK_NetBiosNameSet

.text.DRV_GMAC_ParametersGet%569
                0x00000000004120d0       0x30
 .text.DRV_GMAC_ParametersGet
                0x00000000004120d0       0x30 build/sam_e70_xult_freertos/debug/_ext/1619526243/drv_gmac.o
                0x00000000004120d0                DRV_GMAC_ParametersGet

.text.DRV_PIC32CGMAC_LibSetMacAddr%570
                0x000000000041a368       0x30
 .text.DRV_PIC32CGMAC_LibSetMacAddr
                0x000000000041a368       0x30 build/sam_e70_xult_freertos/debug/_ext/1619526243/drv_gmac_lib_samE7x_V7x.o
                0x000000000041a368                DRV_PIC32CGMAC_LibSetMacAddr

.text._TCPSocketTxFreeSize%571
                0x000000000041a398       0x30
 .text._TCPSocketTxFreeSize
                0x000000000041a398       0x30 build/sam_e70_xult_freertos/debug/_ext/810785262/tcp.o

.text.TCPIP_IPV4_CheckPktTx%572
                0x000000000041a3c8       0x30
 .text.TCPIP_IPV4_CheckPktTx
                0x000000000041a3c8       0x30 build/sam_e70_xult_freertos/debug/_ext/810785262/ipv4.o

.text.IPv4RegisterFilter%573
                0x000000000041a3f8       0x30
 .text.IPv4RegisterFilter
                0x000000000041a3f8       0x30 build/sam_e70_xult_freertos/debug/_ext/810785262/ipv4.o
                0x000000000041a3f8                IPv4RegisterFilter

.text.fnv_32_hash%574
                0x000000000041a428       0x30
 .text.fnv_32_hash
                0x000000000041a428       0x30 build/sam_e70_xult_freertos/debug/_ext/810785262/hash_fnv.o
                0x000000000041a428                fnv_32_hash

.text.TCPIP_OAHASH_EntriesRemoveAll%575
                0x000000000041a458       0x30
 .text.TCPIP_OAHASH_EntriesRemoveAll
                0x000000000041a458       0x30 build/sam_e70_xult_freertos/debug/_ext/810785262/oahash.o
                0x000000000041a458                TCPIP_OAHASH_EntriesRemoveAll

.text.TCPIP_Helper_ProtectedSingleListDeinitialize%576
                0x000000000041a488       0x30
 .text.TCPIP_Helper_ProtectedSingleListDeinitialize
                0x000000000041a488       0x30 build/sam_e70_xult_freertos/debug/_ext/810785262/tcpip_helpers.o
                0x000000000041a488                TCPIP_Helper_ProtectedSingleListDeinitialize

.text.TCPIP_Helper_ProtectedSingleListNodeRemove%577
                0x000000000041a4b8       0x30
 .text.TCPIP_Helper_ProtectedSingleListNodeRemove
                0x000000000041a4b8       0x30 build/sam_e70_xult_freertos/debug/_ext/810785262/tcpip_helpers.o
                0x000000000041a4b8                TCPIP_Helper_ProtectedSingleListNodeRemove

.text.TCPIP_PKT_Initialize%578
                0x000000000041a4e8       0x30
 .text.TCPIP_PKT_Initialize
                0x000000000041a4e8       0x30 build/sam_e70_xult_freertos/debug/_ext/810785262/tcpip_packet.o
                0x000000000041a4e8                TCPIP_PKT_Initialize

.text.TCPIP_UDP_Close%579
                0x000000000041a518       0x30
 .text.TCPIP_UDP_Close
                0x000000000041a518       0x30 build/sam_e70_xult_freertos/debug/_ext/810785262/udp.o
                0x000000000041a518                TCPIP_UDP_Close

.text.USART1_ErrorGet%580
                0x000000000041a548       0x30
 .text.USART1_ErrorGet
                0x000000000041a548       0x30 build/sam_e70_xult_freertos/debug/_ext/901008055/plib_usart1.o
                0x000000000041a548                USART1_ErrorGet

.text.SYS_TIME_UpdateTimerList%581
                0x000000000041a578       0x30
 .text.SYS_TIME_UpdateTimerList
                0x000000000041a578       0x30 build/sam_e70_xult_freertos/debug/_ext/912870411/sys_time.o

.text.xPortSysTickHandler%582
                0x000000000041a5a8       0x30
 .text.xPortSysTickHandler
                0x000000000041a5a8       0x30 build/sam_e70_xult_freertos/debug/_ext/977623654/port.o
                0x000000000041a5a8                xPortSysTickHandler

.text.xQueueGenericCreate%583
                0x000000000041a5d8       0x30
 .text.xQueueGenericCreate
                0x000000000041a5d8       0x30 build/sam_e70_xult_freertos/debug/_ext/404212886/queue.o
                0x000000000041a5d8                xQueueGenericCreate

.text%584       0x000000000041a608       0x30
 .text          0x000000000041a608       0x30 /Applications/microchip/xc32/v2.15/bin/bin/../../lib/gcc/pic32c/6.2.1/v7e-m/fpv5/hard/libgcc.a(_aeabi_uldivmod.o)
                0x000000000041a608                __aeabi_uldivmod

.text.DRV_ETHPHY_Reset%585
                0x000000000041a638       0x2e
 .text.DRV_ETHPHY_Reset
                0x000000000041a638       0x2e build/sam_e70_xult_freertos/debug/_ext/1607428259/drv_ethphy.o
                0x000000000041a638                DRV_ETHPHY_Reset

.text.DRV_ETHPHY_NegotiationIsComplete%586
                0x000000000041a666       0x2e
 .text.DRV_ETHPHY_NegotiationIsComplete
                0x000000000041a666       0x2e build/sam_e70_xult_freertos/debug/_ext/1607428259/drv_ethphy.o
                0x000000000041a666                DRV_ETHPHY_NegotiationIsComplete

.text.DRV_MIIM_DeregisterCallback%587
                0x000000000041a694       0x2e
 .text.DRV_MIIM_DeregisterCallback
                0x000000000041a694       0x2e build/sam_e70_xult_freertos/debug/_ext/511568427/drv_miim.o
                0x000000000041a694                DRV_MIIM_DeregisterCallback

.text._DHCPOptionProcessLease%588
                0x000000000041a6c2       0x2e
 .text._DHCPOptionProcessLease
                0x000000000041a6c2       0x2e build/sam_e70_xult_freertos/debug/_ext/810785262/dhcp.o

.text._DHCPOptionProcessRenewT%589
                0x000000000041a6f0       0x2e
 .text._DHCPOptionProcessRenewT
                0x000000000041a6f0       0x2e build/sam_e70_xult_freertos/debug/_ext/810785262/dhcp.o

.text._DHCPOptionProcessRebindT%590
                0x000000000041a71e       0x2e
 .text._DHCPOptionProcessRebindT
                0x000000000041a71e       0x2e build/sam_e70_xult_freertos/debug/_ext/810785262/dhcp.o

.text._ARPRemoveEntry%591
                0x000000000041a74c       0x2e
 .text._ARPRemoveEntry
                0x000000000041a74c       0x2e build/sam_e70_xult_freertos/debug/_ext/810785262/arp.o

.text.TCPIP_STACK_DNSServiceCanStart%592
                0x000000000041a77a       0x2e
 .text.TCPIP_STACK_DNSServiceCanStart
                0x000000000041a77a       0x2e build/sam_e70_xult_freertos/debug/_ext/810785262/tcpip_manager.o
                0x000000000041a77a                TCPIP_STACK_DNSServiceCanStart

.text._TxSktGetLockedV4Pkt%593
                0x000000000041a7a8       0x2e
 .text._TxSktGetLockedV4Pkt
                0x000000000041a7a8       0x2e build/sam_e70_xult_freertos/debug/_ext/810785262/udp.o

.text._DRV_ETHPHY_ClientOpSetup%594
                0x000000000041a7d8       0x2c
 .text._DRV_ETHPHY_ClientOpSetup
                0x000000000041a7d8       0x2c build/sam_e70_xult_freertos/debug/_ext/1607428259/drv_ethphy.o

.text.DRV_ETHPHY_RestartNegotiation%595
                0x000000000041a804       0x2c
 .text.DRV_ETHPHY_RestartNegotiation
                0x000000000041a804       0x2c build/sam_e70_xult_freertos/debug/_ext/1607428259/drv_ethphy.o
                0x000000000041a804                DRV_ETHPHY_RestartNegotiation

.text._DRV_ETHPHY_ClientOpReset%596
                0x000000000041a830       0x2c
 .text._DRV_ETHPHY_ClientOpReset
                0x000000000041a830       0x2c build/sam_e70_xult_freertos/debug/_ext/1607428259/drv_ethphy.o

.text._DRV_ETHPHY_ClientOpLinkStat%597
                0x000000000041a85c       0x2c
 .text._DRV_ETHPHY_ClientOpLinkStat
                0x000000000041a85c       0x2c build/sam_e70_xult_freertos/debug/_ext/1607428259/drv_ethphy.o

.text._DRV_ETHPHY_ClientOpNegResult%598
                0x000000000041a888       0x2c
 .text._DRV_ETHPHY_ClientOpNegResult
                0x000000000041a888       0x2c build/sam_e70_xult_freertos/debug/_ext/1607428259/drv_ethphy.o

.text._DRV_ETHPHY_ClientOpNegComplete%599
                0x000000000041a8b4       0x2c
 .text._DRV_ETHPHY_ClientOpNegComplete
                0x000000000041a8b4       0x2c build/sam_e70_xult_freertos/debug/_ext/1607428259/drv_ethphy.o

.text._DRV_ETHPHY_ClientOpNegRestart%600
                0x000000000041a8e0       0x2c
 .text._DRV_ETHPHY_ClientOpNegRestart
                0x000000000041a8e0       0x2c build/sam_e70_xult_freertos/debug/_ext/1607428259/drv_ethphy.o

.text._DRV_ETHPHY_SetupPhaseNegotiate%601
                0x000000000041a90c       0x2c
 .text._DRV_ETHPHY_SetupPhaseNegotiate
                0x000000000041a90c       0x2c build/sam_e70_xult_freertos/debug/_ext/1607428259/drv_ethphy.o

.text._DRV_GMAC_LinkStateDown%602
                0x000000000041a938       0x2c
 .text._DRV_GMAC_LinkStateDown
                0x000000000041a938       0x2c build/sam_e70_xult_freertos/debug/_ext/1619526243/drv_gmac.o

.text._DNSClientCleanup%603
                0x000000000041a964       0x2c
 .text._DNSClientCleanup
                0x000000000041a964       0x2c build/sam_e70_xult_freertos/debug/_ext/810785262/dns.o

.text.TCPIP_Helper_ProtectedSingleListHeadRemove%604
                0x000000000041a990       0x2c
 .text.TCPIP_Helper_ProtectedSingleListHeadRemove
                0x000000000041a990       0x2c build/sam_e70_xult_freertos/debug/_ext/810785262/tcpip_helpers.o
                0x000000000041a990                TCPIP_Helper_ProtectedSingleListHeadRemove

.text.TCPIP_STACK_InitializeDataGet%605
                0x000000000041a9bc       0x2c
 .text.TCPIP_STACK_InitializeDataGet
                0x000000000041a9bc       0x2c build/sam_e70_xult_freertos/debug/_ext/810785262/tcpip_manager.o
                0x000000000041a9bc                TCPIP_STACK_InitializeDataGet

.text.TCPIP_STACK_AddressServiceDefaultSet%606
                0x000000000041a9e8       0x2c
 .text.TCPIP_STACK_AddressServiceDefaultSet
                0x000000000041a9e8       0x2c build/sam_e70_xult_freertos/debug/_ext/810785262/tcpip_manager.o
                0x000000000041a9e8                TCPIP_STACK_AddressServiceDefaultSet

.text.TCPIP_STACK_IsBcastAddress%607
                0x000000000041aa14       0x2c
 .text.TCPIP_STACK_IsBcastAddress
                0x000000000041aa14       0x2c build/sam_e70_xult_freertos/debug/_ext/810785262/tcpip_manager.o
                0x000000000041aa14                TCPIP_STACK_IsBcastAddress

.text._TCPIPStackModuleRxExtract%608
                0x000000000041aa40       0x2c
 .text._TCPIPStackModuleRxExtract
                0x000000000041aa40       0x2c build/sam_e70_xult_freertos/debug/_ext/810785262/tcpip_manager.o
                0x000000000041aa40                _TCPIPStackModuleRxExtract

.text.SYS_CONSOLE_Write%609
                0x000000000041aa6c       0x2c
 .text.SYS_CONSOLE_Write
                0x000000000041aa6c       0x2c build/sam_e70_xult_freertos/debug/_ext/762686499/sys_console.o
                0x000000000041aa6c                SYS_CONSOLE_Write

.text.TCPIP_STACK_Init%610
                0x000000000041aa98       0x2c
 .text.TCPIP_STACK_Init
                0x000000000041aa98       0x2c build/sam_e70_xult_freertos/debug/_ext/1552905064/initialization.o
                0x000000000041aa98                TCPIP_STACK_Init

.text.pxPortInitialiseStack%611
                0x000000000041aac4       0x2c
 .text.pxPortInitialiseStack
                0x000000000041aac4       0x2c build/sam_e70_xult_freertos/debug/_ext/977623654/port.o
                0x000000000041aac4                pxPortInitialiseStack

.text.prvResetNextTaskUnblockTime%612
                0x000000000041aaf0       0x2c
 .text.prvResetNextTaskUnblockTime
                0x000000000041aaf0       0x2c build/sam_e70_xult_freertos/debug/_ext/404212886/FreeRTOS_tasks.o

.text.__ascii_mbtowc%613
                0x000000000041ab1c       0x2c
 .text.__ascii_mbtowc
                0x000000000041ab1c       0x2c /Applications/microchip/xc32/v2.15/bin/bin/../../lib/gcc/pic32c/6.2.1/../../../../pic32c/lib/v7e-m/fpv5/hard/libg.a(lib_a-mbtowc_r.o)
                0x000000000041ab1c                __ascii_mbtowc

.text.strtol%614
                0x000000000041ab48       0x2c
 .text.strtol   0x000000000041ab48       0x2c /Applications/microchip/xc32/v2.15/bin/bin/../../lib/gcc/pic32c/6.2.1/../../../../pic32c/lib/v7e-m/fpv5/hard/libg.a(lib_a-strtol.o)
                0x000000000041ab48                strtol

.text._sbrk%615
                0x000000000041ab74       0x2c
 .text._sbrk    0x000000000041ab74       0x2c /Applications/microchip/xc32/v2.15/bin/bin/../../lib/gcc/pic32c/6.2.1/../../../../pic32c/lib/v7e-m/fpv5/hard/libpic32c.a(sbrk.o)
                0x000000000041ab74                _sbrk

.text._DRV_GMAC_LinkStateStartLink%616
                0x000000000041aba0       0x2a
 .text._DRV_GMAC_LinkStateStartLink
                0x000000000041aba0       0x2a build/sam_e70_xult_freertos/debug/_ext/1619526243/drv_gmac.o

.text._DRV_MIIM_GetObjectAndLock%617
                0x000000000041abca       0x2a
 .text._DRV_MIIM_GetObjectAndLock
                0x000000000041abca       0x2a build/sam_e70_xult_freertos/debug/_ext/511568427/drv_miim.o

.text.TCPIP_Helper_ProtectedSingleListTailAdd%618
                0x000000000041abf4       0x2a
 .text.TCPIP_Helper_ProtectedSingleListTailAdd
                0x000000000041abf4       0x2a build/sam_e70_xult_freertos/debug/_ext/810785262/tcpip_helpers.o
                0x000000000041abf4                TCPIP_Helper_ProtectedSingleListTailAdd

.text.TCPIP_Helper_ProtectedSingleListRemoveAll%619
                0x000000000041ac1e       0x2a
 .text.TCPIP_Helper_ProtectedSingleListRemoveAll
                0x000000000041ac1e       0x2a build/sam_e70_xult_freertos/debug/_ext/810785262/tcpip_helpers.o
                0x000000000041ac1e                TCPIP_Helper_ProtectedSingleListRemoveAll

.text._DRV_ETHPHY_ClientOpSmiRead%620
                0x000000000041ac48       0x28
 .text._DRV_ETHPHY_ClientOpSmiRead
                0x000000000041ac48       0x28 build/sam_e70_xult_freertos/debug/_ext/1607428259/drv_ethphy.o

.rodata._DRV_PHY_ClientOpTbl%621
                0x000000000041ac70       0x28
 .rodata._DRV_PHY_ClientOpTbl
                0x000000000041ac70       0x28 build/sam_e70_xult_freertos/debug/_ext/1607428259/drv_ethphy.o

.text.DRV_GMAC_ConfigGet%622
                0x000000000041ac98       0x28
 .text.DRV_GMAC_ConfigGet
                0x000000000041ac98       0x28 build/sam_e70_xult_freertos/debug/_ext/1619526243/drv_gmac.o
                0x000000000041ac98                DRV_GMAC_ConfigGet

.text.DRV_GMAC_LinkCheck%623
                0x000000000041acc0       0x28
 .text.DRV_GMAC_LinkCheck
                0x000000000041acc0       0x28 build/sam_e70_xult_freertos/debug/_ext/1619526243/drv_gmac.o
                0x000000000041acc0                DRV_GMAC_LinkCheck

.text.DRV_MIIM_Status%624
                0x000000000041ace8       0x28
 .text.DRV_MIIM_Status
                0x000000000041ace8       0x28 build/sam_e70_xult_freertos/debug/_ext/511568427/drv_miim.o
                0x000000000041ace8                DRV_MIIM_Status

.text._DNSGetData%625
                0x000000000041ad10       0x28
 .text._DNSGetData
                0x000000000041ad10       0x28 build/sam_e70_xult_freertos/debug/_ext/810785262/dns.o

.text.TCPIP_ICMP_Deinitialize%626
                0x000000000041ad38       0x28
 .text.TCPIP_ICMP_Deinitialize
                0x000000000041ad38       0x28 build/sam_e70_xult_freertos/debug/_ext/810785262/icmp.o
                0x000000000041ad38                TCPIP_ICMP_Deinitialize

.text._TcpSocketChk%627
                0x000000000041ad60       0x28
 .text._TcpSocketChk
                0x000000000041ad60       0x28 build/sam_e70_xult_freertos/debug/_ext/810785262/tcp.o

.text._TcpFlush%628
                0x000000000041ad88       0x28
 .text._TcpFlush
                0x000000000041ad88       0x28 build/sam_e70_xult_freertos/debug/_ext/810785262/tcp.o

.text._DHCPOptionWriteParamRequest%629
                0x000000000041adb0       0x28
 .text._DHCPOptionWriteParamRequest
                0x000000000041adb0       0x28 build/sam_e70_xult_freertos/debug/_ext/810785262/dhcp.o

.text._TCPIP_STACK_TickHandler%630
                0x000000000041add8       0x28
 .text._TCPIP_STACK_TickHandler
                0x000000000041add8       0x28 build/sam_e70_xult_freertos/debug/_ext/810785262/tcpip_manager.o

.text._TCPIPSignalEntrySetNotify%631
                0x000000000041ae00       0x28
 .text._TCPIPSignalEntrySetNotify
                0x000000000041ae00       0x28 build/sam_e70_xult_freertos/debug/_ext/810785262/tcpip_manager.o

.text.TCPIP_STACK_NetMACStatisticsGet%632
                0x000000000041ae28       0x28
 .text.TCPIP_STACK_NetMACStatisticsGet
                0x000000000041ae28       0x28 build/sam_e70_xult_freertos/debug/_ext/810785262/tcpip_manager.o
                0x000000000041ae28                TCPIP_STACK_NetMACStatisticsGet

.text.TCPIP_STACK_NetMACRegisterStatisticsGet%633
                0x000000000041ae50       0x28
 .text.TCPIP_STACK_NetMACRegisterStatisticsGet
                0x000000000041ae50       0x28 build/sam_e70_xult_freertos/debug/_ext/810785262/tcpip_manager.o
                0x000000000041ae50                TCPIP_STACK_NetMACRegisterStatisticsGet

.text.TCPIP_STACK_NetIsBcastAddress%634
                0x000000000041ae78       0x28
 .text.TCPIP_STACK_NetIsBcastAddress
                0x000000000041ae78       0x28 build/sam_e70_xult_freertos/debug/_ext/810785262/tcpip_manager.o
                0x000000000041ae78                TCPIP_STACK_NetIsBcastAddress

.text._TCPIPStackSignalHandlerSetParams%635
                0x000000000041aea0       0x28
 .text._TCPIPStackSignalHandlerSetParams
                0x000000000041aea0       0x28 build/sam_e70_xult_freertos/debug/_ext/810785262/tcpip_manager.o
                0x000000000041aea0                _TCPIPStackSignalHandlerSetParams

.text._TCPIP_PKT_SocketAlloc%636
                0x000000000041aec8       0x28
 .text._TCPIP_PKT_SocketAlloc
                0x000000000041aec8       0x28 build/sam_e70_xult_freertos/debug/_ext/810785262/tcpip_packet.o
                0x000000000041aec8                _TCPIP_PKT_SocketAlloc

.text._UDPSocketDcpt%637
                0x000000000041aef0       0x28
 .text._UDPSocketDcpt
                0x000000000041aef0       0x28 build/sam_e70_xult_freertos/debug/_ext/810785262/udp.o

.text._UDPFreeTxResources%638
                0x000000000041af18       0x28
 .text._UDPFreeTxResources
                0x000000000041af18       0x28 build/sam_e70_xult_freertos/debug/_ext/810785262/udp.o

.text._UDPUpdatePacketLock%639
                0x000000000041af40       0x28
 .text._UDPUpdatePacketLock
                0x000000000041af40       0x28 build/sam_e70_xult_freertos/debug/_ext/810785262/udp.o

.text.TCPIP_UDP_GetIsReady%640
                0x000000000041af68       0x28
 .text.TCPIP_UDP_GetIsReady
                0x000000000041af68       0x28 build/sam_e70_xult_freertos/debug/_ext/810785262/udp.o
                0x000000000041af68                TCPIP_UDP_GetIsReady

.text.TCPIP_UDP_SignalHandlerRegister%641
                0x000000000041af90       0x28
 .text.TCPIP_UDP_SignalHandlerRegister
                0x000000000041af90       0x28 build/sam_e70_xult_freertos/debug/_ext/810785262/udp.o
                0x000000000041af90                TCPIP_UDP_SignalHandlerRegister

.text.TC0_CH0_TimerInitialize%642
                0x000000000041afb8       0x28
 .text.TC0_CH0_TimerInitialize
                0x000000000041afb8       0x28 build/sam_e70_xult_freertos/debug/_ext/1245453995/plib_tc0.o
                0x000000000041afb8                TC0_CH0_TimerInitialize

.text.SYS_CONSOLE_Flush%643
                0x000000000041afe0       0x28
 .text.SYS_CONSOLE_Flush
                0x000000000041afe0       0x28 build/sam_e70_xult_freertos/debug/_ext/762686499/sys_console.o
                0x000000000041afe0                SYS_CONSOLE_Flush

.text.Console_UART_Status%644
                0x000000000041b008       0x28
 .text.Console_UART_Status
                0x000000000041b008       0x28 build/sam_e70_xult_freertos/debug/_ext/762686499/sys_console_uart.o
                0x000000000041b008                Console_UART_Status

.text.ReadCommandCharacter%645
                0x000000000041b030       0x28
 .text.ReadCommandCharacter
                0x000000000041b030       0x28 build/sam_e70_xult_freertos/debug/_ext/762686499/sys_command.o

.text.SendCommandCharacter%646
                0x000000000041b058       0x28
 .text.SendCommandCharacter
                0x000000000041b058       0x28 build/sam_e70_xult_freertos/debug/_ext/762686499/sys_command.o

.rodata.tcpipARPInitData%647
                0x000000000041b080       0x28
 .rodata.tcpipARPInitData
                0x000000000041b080       0x28 build/sam_e70_xult_freertos/debug/_ext/1552905064/initialization.o
                0x000000000041b080                tcpipARPInitData

.text.prvPortStartFirstTask%648
                0x000000000041b0a8       0x28
 .text.prvPortStartFirstTask
                0x000000000041b0a8       0x28 build/sam_e70_xult_freertos/debug/_ext/977623654/port.o

.text.vPortSetupTimerInterrupt%649
                0x000000000041b0d0       0x28
 .text.vPortSetupTimerInterrupt
                0x000000000041b0d0       0x28 build/sam_e70_xult_freertos/debug/_ext/977623654/port.o
                0x000000000041b0d0                vPortSetupTimerInterrupt

.text.uxListRemove%650
                0x000000000041b0f8       0x28
 .text.uxListRemove
                0x000000000041b0f8       0x28 build/sam_e70_xult_freertos/debug/_ext/404212886/list.o
                0x000000000041b0f8                uxListRemove

.rodata.__mprec_bigtens%651
                0x000000000041b120       0x28
 .rodata.__mprec_bigtens
                0x000000000041b120       0x28 /Applications/microchip/xc32/v2.15/bin/bin/../../lib/gcc/pic32c/6.2.1/../../../../pic32c/lib/v7e-m/fpv5/hard/libg.a(lib_a-mprec.o)
                0x000000000041b120                __mprec_bigtens

.text.TCPIP_STACK_DNSServiceSelect%652
                0x000000000041b148       0x26
 .text.TCPIP_STACK_DNSServiceSelect
                0x000000000041b148       0x26 build/sam_e70_xult_freertos/debug/_ext/810785262/tcpip_manager.o
                0x000000000041b148                TCPIP_STACK_DNSServiceSelect

.text.TCPIP_STACK_AddressServiceSelect%653
                0x000000000041b16e       0x26
 .text.TCPIP_STACK_AddressServiceSelect
                0x000000000041b16e       0x26 build/sam_e70_xult_freertos/debug/_ext/810785262/tcpip_manager.o
                0x000000000041b16e                TCPIP_STACK_AddressServiceSelect

.text._UDPFreeRxQueue%654
                0x000000000041b194       0x26
 .text._UDPFreeRxQueue
                0x000000000041b194       0x26 build/sam_e70_xult_freertos/debug/_ext/810785262/udp.o

.text.DRV_ETHPHY_HWConfigFlagsGet%655
                0x000000000041b1bc       0x24
 .text.DRV_ETHPHY_HWConfigFlagsGet
                0x000000000041b1bc       0x24 build/sam_e70_xult_freertos/debug/_ext/1607428259/drv_ethphy.o
                0x000000000041b1bc                DRV_ETHPHY_HWConfigFlagsGet

.text._DRV_ETHPHY_NegResultPhase_ANLPAD%656
                0x000000000041b1e0       0x24
 .text._DRV_ETHPHY_NegResultPhase_ANLPAD
                0x000000000041b1e0       0x24 build/sam_e70_xult_freertos/debug/_ext/1607428259/drv_ethphy.o

.text._DRV_ETHPHY_NegResultPhase_ANEXP%657
                0x000000000041b204       0x24
 .text._DRV_ETHPHY_NegResultPhase_ANEXP
                0x000000000041b204       0x24 build/sam_e70_xult_freertos/debug/_ext/1607428259/drv_ethphy.o

.rodata%658     0x000000000041b228       0x24
 .rodata        0x000000000041b228       0x24 build/sam_e70_xult_freertos/debug/_ext/1619526243/drv_gmac.o

.text.DRV_PIC32CGMAC_LibClose%659
                0x000000000041b24c       0x24
 .text.DRV_PIC32CGMAC_LibClose
                0x000000000041b24c       0x24 build/sam_e70_xult_freertos/debug/_ext/1619526243/drv_gmac_lib_samE7x_V7x.o
                0x000000000041b24c                DRV_PIC32CGMAC_LibClose

.text._DHCPOptionProcessSrvIdent%660
                0x000000000041b270       0x24
 .text._DHCPOptionProcessSrvIdent
                0x000000000041b270       0x24 build/sam_e70_xult_freertos/debug/_ext/810785262/dhcp.o

.text._DHCPOptionWriteMsgType%661
                0x000000000041b294       0x24
 .text._DHCPOptionWriteMsgType
                0x000000000041b294       0x24 build/sam_e70_xult_freertos/debug/_ext/810785262/dhcp.o

.text.TCPIP_DHCP_Request%662
                0x000000000041b2b8       0x24
 .text.TCPIP_DHCP_Request
                0x000000000041b2b8       0x24 build/sam_e70_xult_freertos/debug/_ext/810785262/dhcp.o
                0x000000000041b2b8                TCPIP_DHCP_Request

.text._ARPAllocateTxPacket%663
                0x000000000041b2dc       0x24
 .text._ARPAllocateTxPacket
                0x000000000041b2dc       0x24 build/sam_e70_xult_freertos/debug/_ext/810785262/arp.o

.text._ARPRemoveCacheEntries%664
                0x000000000041b300       0x24
 .text._ARPRemoveCacheEntries
                0x000000000041b300       0x24 build/sam_e70_xult_freertos/debug/_ext/810785262/arp.o

.text.TCPIP_ARP_HandlerDeRegister%665
                0x000000000041b324       0x24
 .text.TCPIP_ARP_HandlerDeRegister
                0x000000000041b324       0x24 build/sam_e70_xult_freertos/debug/_ext/810785262/arp.o
                0x000000000041b324                TCPIP_ARP_HandlerDeRegister

.text.TCPIP_Commands_Deinitialize%666
                0x000000000041b348       0x24
 .text.TCPIP_Commands_Deinitialize
                0x000000000041b348       0x24 build/sam_e70_xult_freertos/debug/_ext/810785262/tcpip_commands.o
                0x000000000041b348                TCPIP_Commands_Deinitialize

.text.Ipv4DeRegisterFilter%667
                0x000000000041b36c       0x24
 .text.Ipv4DeRegisterFilter
                0x000000000041b36c       0x24 build/sam_e70_xult_freertos/debug/_ext/810785262/ipv4.o
                0x000000000041b36c                Ipv4DeRegisterFilter

.rodata._tcpip_heap_object%668
                0x000000000041b390       0x24
 .rodata._tcpip_heap_object
                0x000000000041b390       0x24 build/sam_e70_xult_freertos/debug/_ext/810785262/tcpip_heap_internal.o

.text.TCPIP_OAHASH_Initialize%669
                0x000000000041b3b4       0x24
 .text.TCPIP_OAHASH_Initialize
                0x000000000041b3b4       0x24 build/sam_e70_xult_freertos/debug/_ext/810785262/oahash.o
                0x000000000041b3b4                TCPIP_OAHASH_Initialize

.text.TCPIP_STACK_IPAddToNet%670
                0x000000000041b3d8       0x24
 .text.TCPIP_STACK_IPAddToNet
                0x000000000041b3d8       0x24 build/sam_e70_xult_freertos/debug/_ext/810785262/tcpip_manager.o
                0x000000000041b3d8                TCPIP_STACK_IPAddToNet

.text._TCPIPStackHandleToNetLinked%671
                0x000000000041b3fc       0x24
 .text._TCPIPStackHandleToNetLinked
                0x000000000041b3fc       0x24 build/sam_e70_xult_freertos/debug/_ext/810785262/tcpip_manager.o
                0x000000000041b3fc                _TCPIPStackHandleToNetLinked

.text.TC0_CH0_InterruptHandler%672
                0x000000000041b420       0x24
 .text.TC0_CH0_InterruptHandler
                0x000000000041b420       0x24 build/sam_e70_xult_freertos/debug/_ext/1245453995/plib_tc0.o
                0x000000000041b420                TC0_CH0_InterruptHandler

.text.Console_UART_Flush%673
                0x000000000041b444       0x24
 .text.Console_UART_Flush
                0x000000000041b444       0x24 build/sam_e70_xult_freertos/debug/_ext/762686499/sys_console_uart.o
                0x000000000041b444                Console_UART_Flush

.text.SYS_CMDIO_GET_HANDLE%674
                0x000000000041b468       0x24
 .text.SYS_CMDIO_GET_HANDLE
                0x000000000041b468       0x24 build/sam_e70_xult_freertos/debug/_ext/762686499/sys_command.o
                0x000000000041b468                SYS_CMDIO_GET_HANDLE

.rodata._builtinCmdTbl%675
                0x000000000041b48c       0x24
 .rodata._builtinCmdTbl
                0x000000000041b48c       0x24 build/sam_e70_xult_freertos/debug/_ext/762686499/sys_command.o

.text.prvTaskExitError%676
                0x000000000041b4b0       0x24
 .text.prvTaskExitError
                0x000000000041b4b0       0x24 build/sam_e70_xult_freertos/debug/_ext/977623654/port.o

.text.vPortSVCHandler%677
                0x000000000041b4e0       0x24
 .text.vPortSVCHandler
                0x000000000041b4e0       0x24 build/sam_e70_xult_freertos/debug/_ext/977623654/port.o
                0x000000000041b4e0                vPortSVCHandler

.text.vPortEnterCritical%678
                0x000000000041b504       0x24
 .text.vPortEnterCritical
                0x000000000041b504       0x24 build/sam_e70_xult_freertos/debug/_ext/977623654/port.o
                0x000000000041b504                vPortEnterCritical

.text.xQueueCreateMutex%679
                0x000000000041b528       0x24
 .text.xQueueCreateMutex
                0x000000000041b528       0x24 build/sam_e70_xult_freertos/debug/_ext/404212886/queue.o
                0x000000000041b528                xQueueCreateMutex

.text._sbrk_r%680
                0x000000000041b54c       0x24
 .text._sbrk_r  0x000000000041b54c       0x24 /Applications/microchip/xc32/v2.15/bin/bin/../../lib/gcc/pic32c/6.2.1/../../../../pic32c/lib/v7e-m/fpv5/hard/libg.a(lib_a-sbrkr.o)
                0x000000000041b54c                _sbrk_r

.text.DRV_ETHPHY_Reinitialize%681
                0x000000000041b570       0x22
 .text.DRV_ETHPHY_Reinitialize
                0x000000000041b570       0x22 build/sam_e70_xult_freertos/debug/_ext/1607428259/drv_ethphy.o
                0x000000000041b570                DRV_ETHPHY_Reinitialize

.text.TCPIP_TCP_IsConnected%682
                0x000000000041b592       0x22
 .text.TCPIP_TCP_IsConnected
                0x000000000041b592       0x22 build/sam_e70_xult_freertos/debug/_ext/810785262/tcp.o
                0x000000000041b592                TCPIP_TCP_IsConnected

.text._TCPIP_HEAP_LastError%683
                0x000000000041b5b4       0x22
 .text._TCPIP_HEAP_LastError
                0x000000000041b5b4       0x22 build/sam_e70_xult_freertos/debug/_ext/810785262/tcpip_heap_internal.o

.text.TCPIP_Helper_ProtectedSingleListInitialize%684
                0x000000000041b5d6       0x22
 .text.TCPIP_Helper_ProtectedSingleListInitialize
                0x000000000041b5d6       0x22 build/sam_e70_xult_freertos/debug/_ext/810785262/tcpip_helpers.o
                0x000000000041b5d6                TCPIP_Helper_ProtectedSingleListInitialize

.text.TCPIP_STACK_NetAddressDnsPrimarySet%685
                0x000000000041b5f8       0x22
 .text.TCPIP_STACK_NetAddressDnsPrimarySet
                0x000000000041b5f8       0x22 build/sam_e70_xult_freertos/debug/_ext/810785262/tcpip_manager.o
                0x000000000041b5f8                TCPIP_STACK_NetAddressDnsPrimarySet

.text.TCPIP_STACK_NetAddressMacSet%686
                0x000000000041b61a       0x22
 .text.TCPIP_STACK_NetAddressMacSet
                0x000000000041b61a       0x22 build/sam_e70_xult_freertos/debug/_ext/810785262/tcpip_manager.o
                0x000000000041b61a                TCPIP_STACK_NetAddressMacSet

.text.TCPIP_UDP_Discard%687
                0x000000000041b63c       0x22
 .text.TCPIP_UDP_Discard
                0x000000000041b63c       0x22 build/sam_e70_xult_freertos/debug/_ext/810785262/udp.o
                0x000000000041b63c                TCPIP_UDP_Discard

.text.DRV_ETHPHY_Tasks%688
                0x000000000041b660       0x20
 .text.DRV_ETHPHY_Tasks
                0x000000000041b660       0x20 build/sam_e70_xult_freertos/debug/_ext/1607428259/drv_ethphy.o
                0x000000000041b660                DRV_ETHPHY_Tasks

.text.DRV_ETHPHY_Close%689
                0x000000000041b680       0x20
 .text.DRV_ETHPHY_Close
                0x000000000041b680       0x20 build/sam_e70_xult_freertos/debug/_ext/1607428259/drv_ethphy.o
                0x000000000041b680                DRV_ETHPHY_Close

.text._DRV_ETHPHY_ClientOpSmiWrite%690
                0x000000000041b6a0       0x20
 .text._DRV_ETHPHY_ClientOpSmiWrite
                0x000000000041b6a0       0x20 build/sam_e70_xult_freertos/debug/_ext/1607428259/drv_ethphy.o

.text._DRV_ETHPHY_NegRestartPhaseWrite%691
                0x000000000041b6c0       0x20
 .text._DRV_ETHPHY_NegRestartPhaseWrite
                0x000000000041b6c0       0x20 build/sam_e70_xult_freertos/debug/_ext/1607428259/drv_ethphy.o

.text._DRV_ETHPHY_SetupPhaseNegotiate_SubPhase4%692
                0x000000000041b6e0       0x20
 .text._DRV_ETHPHY_SetupPhaseNegotiate_SubPhase4
                0x000000000041b6e0       0x20 build/sam_e70_xult_freertos/debug/_ext/1607428259/drv_ethphy.o

.text.DRV_PIC32CGMAC_LibTransferEnable%693
                0x000000000041b700       0x20
 .text.DRV_PIC32CGMAC_LibTransferEnable
                0x000000000041b700       0x20 build/sam_e70_xult_freertos/debug/_ext/1619526243/drv_gmac_lib_samE7x_V7x.o
                0x000000000041b700                DRV_PIC32CGMAC_LibTransferEnable

.text.DRV_PIC32CGMAC_SingleListHeadRemove%694
                0x000000000041b720       0x20
 .text.DRV_PIC32CGMAC_SingleListHeadRemove
                0x000000000041b720       0x20 build/sam_e70_xult_freertos/debug/_ext/1619526243/drv_gmac_lib_samE7x_V7x.o
                0x000000000041b720                DRV_PIC32CGMAC_SingleListHeadRemove

.text.Helper_SingleListHeadRemove%695
                0x000000000041b740       0x20
 .text.Helper_SingleListHeadRemove
                0x000000000041b740       0x20 build/sam_e70_xult_freertos/debug/_ext/511568427/drv_miim.o
                0x000000000041b740                Helper_SingleListHeadRemove

.text.TCPIP_DNS_OAHASH_KeyHash%696
                0x000000000041b760       0x20
 .text.TCPIP_DNS_OAHASH_KeyHash
                0x000000000041b760       0x20 build/sam_e70_xult_freertos/debug/_ext/810785262/dns.o

.text.TCPIP_DHCP_Enable%697
                0x000000000041b780       0x20
 .text.TCPIP_DHCP_Enable
                0x000000000041b780       0x20 build/sam_e70_xult_freertos/debug/_ext/810785262/dhcp.o
                0x000000000041b780                TCPIP_DHCP_Enable

.text.TCPIP_DHCP_Renew%698
                0x000000000041b7a0       0x20
 .text.TCPIP_DHCP_Renew
                0x000000000041b7a0       0x20 build/sam_e70_xult_freertos/debug/_ext/810785262/dhcp.o
                0x000000000041b7a0                TCPIP_DHCP_Renew

.text._SwapARPPacket%699
                0x000000000041b7c0       0x20
 .text._SwapARPPacket
                0x000000000041b7c0       0x20 build/sam_e70_xult_freertos/debug/_ext/810785262/arp.o

.text.TCPIP_Helper_SingleListHeadRemove%700
                0x000000000041b7e0       0x20
 .text.TCPIP_Helper_SingleListHeadRemove
                0x000000000041b7e0       0x20 build/sam_e70_xult_freertos/debug/_ext/810785262/tcpip_helpers.o
                0x000000000041b7e0                TCPIP_Helper_SingleListHeadRemove

.text.TCPIP_Helper_ProtectedSingleListLock%701
                0x000000000041b800       0x20
 .text.TCPIP_Helper_ProtectedSingleListLock
                0x000000000041b800       0x20 build/sam_e70_xult_freertos/debug/_ext/810785262/tcpip_helpers.o
                0x000000000041b800                TCPIP_Helper_ProtectedSingleListLock

.rodata.TCPIP_MAC_POWER_TBL%702
                0x000000000041b820       0x20
 .rodata.TCPIP_MAC_POWER_TBL
                0x000000000041b820       0x20 build/sam_e70_xult_freertos/debug/_ext/810785262/tcpip_helpers.o

.text.TCPIP_STACK_NetDefaultSet%703
                0x000000000041b840       0x20
 .text.TCPIP_STACK_NetDefaultSet
                0x000000000041b840       0x20 build/sam_e70_xult_freertos/debug/_ext/810785262/tcpip_manager.o
                0x000000000041b840                TCPIP_STACK_NetDefaultSet

.text.TCPIP_STACK_IndexToNet%704
                0x000000000041b860       0x20
 .text.TCPIP_STACK_IndexToNet
                0x000000000041b860       0x20 build/sam_e70_xult_freertos/debug/_ext/810785262/tcpip_manager.o
                0x000000000041b860                TCPIP_STACK_IndexToNet

.text.TCPIP_STACK_Deinitialize%705
                0x000000000041b880       0x20
 .text.TCPIP_STACK_Deinitialize
                0x000000000041b880       0x20 build/sam_e70_xult_freertos/debug/_ext/810785262/tcpip_manager.o
                0x000000000041b880                TCPIP_STACK_Deinitialize

.text.TCPIP_Notification_Remove%706
                0x000000000041b8a0       0x20
 .text.TCPIP_Notification_Remove
                0x000000000041b8a0       0x20 build/sam_e70_xult_freertos/debug/_ext/810785262/tcpip_notify.o
                0x000000000041b8a0                TCPIP_Notification_Remove

.rodata%707     0x000000000041b8c0       0x20
 .rodata        0x000000000041b8c0       0x20 build/sam_e70_xult_freertos/debug/_ext/810785262/tcpip_packet.o

.text.TCPIP_UDP_DestinationPortSet%708
                0x000000000041b8e0       0x20
 .text.TCPIP_UDP_DestinationPortSet
                0x000000000041b8e0       0x20 build/sam_e70_xult_freertos/debug/_ext/810785262/udp.o
                0x000000000041b8e0                TCPIP_UDP_DestinationPortSet

.rodata.sysConsoleUARTDevDesc%709
                0x000000000041b900       0x20
 .rodata.sysConsoleUARTDevDesc
                0x000000000041b900       0x20 build/sam_e70_xult_freertos/debug/_ext/762686499/sys_console_uart.o
                0x000000000041b900                sysConsoleUARTDevDesc

.text.SYS_DEBUG_Initialize%710
                0x000000000041b920       0x20
 .text.SYS_DEBUG_Initialize
                0x000000000041b920       0x20 build/sam_e70_xult_freertos/debug/_ext/762686499/sys_debug.o
                0x000000000041b920                SYS_DEBUG_Initialize

.text.SYS_INT_SourceRestore%711
                0x000000000041b940       0x20
 .text.SYS_INT_SourceRestore
                0x000000000041b940       0x20 build/sam_e70_xult_freertos/debug/_ext/1775855163/sys_int.o
                0x000000000041b940                SYS_INT_SourceRestore

.text.SYS_TIME_GetElapsedCount%712
                0x000000000041b960       0x20
 .text.SYS_TIME_GetElapsedCount
                0x000000000041b960       0x20 build/sam_e70_xult_freertos/debug/_ext/912870411/sys_time.o

.rodata.tcpipPhyInitData%713
                0x000000000041b980       0x20
 .rodata.tcpipPhyInitData
                0x000000000041b980       0x20 build/sam_e70_xult_freertos/debug/_ext/1552905064/initialization.o
                0x000000000041b980                tcpipPhyInitData

.text.pvPortMalloc%714
                0x000000000041b9a0       0x20
 .text.pvPortMalloc
                0x000000000041b9a0       0x20 build/sam_e70_xult_freertos/debug/_ext/1665200909/heap_3.o
                0x000000000041b9a0                pvPortMalloc

.text.vsnprintf%715
                0x000000000041b9c0       0x20
 .text.vsnprintf
                0x000000000041b9c0       0x20 /Applications/microchip/xc32/v2.15/bin/bin/../../lib/gcc/pic32c/6.2.1/../../../../pic32c/lib/v7e-m/fpv5/hard/libg.a(lib_a-vsnprintf.o)
                0x000000000041b9c0                vsnprintf

.text.DRV_ETHPHY_ClientOperationAbort%716
                0x000000000041b9e0       0x1e
 .text.DRV_ETHPHY_ClientOperationAbort
                0x000000000041b9e0       0x1e build/sam_e70_xult_freertos/debug/_ext/1607428259/drv_ethphy.o
                0x000000000041b9e0                DRV_ETHPHY_ClientOperationAbort

.text._TCPIsGetReady%717
                0x000000000041b9fe       0x1e
 .text._TCPIsGetReady
                0x000000000041b9fe       0x1e build/sam_e70_xult_freertos/debug/_ext/810785262/tcp.o

.text.TCPIP_STACK_NetAddressBcast%718
                0x000000000041ba1c       0x1e
 .text.TCPIP_STACK_NetAddressBcast
                0x000000000041ba1c       0x1e build/sam_e70_xult_freertos/debug/_ext/810785262/tcpip_manager.o
                0x000000000041ba1c                TCPIP_STACK_NetAddressBcast

.text.TCPIP_STACK_NetworkIsLinked%719
                0x000000000041ba3a       0x1e
 .text.TCPIP_STACK_NetworkIsLinked
                0x000000000041ba3a       0x1e build/sam_e70_xult_freertos/debug/_ext/810785262/tcpip_manager.o
                0x000000000041ba3a                TCPIP_STACK_NetworkIsLinked

.text.TCPIP_PKT_PayloadLen%720
                0x000000000041ba58       0x1e
 .text.TCPIP_PKT_PayloadLen
                0x000000000041ba58       0x1e build/sam_e70_xult_freertos/debug/_ext/810785262/tcpip_packet.o
                0x000000000041ba58                TCPIP_PKT_PayloadLen

.text.OSAL_SEM_Pend%721
                0x000000000041ba76       0x1e
 .text.OSAL_SEM_Pend
                0x000000000041ba76       0x1e build/sam_e70_xult_freertos/debug/_ext/281930714/osal_freertos.o
                0x000000000041ba76                OSAL_SEM_Pend

.text.OSAL_MUTEX_Lock%722
                0x000000000041ba94       0x1e
 .text.OSAL_MUTEX_Lock
                0x000000000041ba94       0x1e build/sam_e70_xult_freertos/debug/_ext/281930714/osal_freertos.o
                0x000000000041ba94                OSAL_MUTEX_Lock

.rodata._DRV_PHY_SetupPhaseNegotiateSubPhaseTbl%723
                0x000000000041bab4       0x1c
 .rodata._DRV_PHY_SetupPhaseNegotiateSubPhaseTbl
                0x000000000041bab4       0x1c build/sam_e70_xult_freertos/debug/_ext/1607428259/drv_ethphy.o

.text.TCPIP_DNS_IsResolved%724
                0x000000000041bad0       0x1c
 .text.TCPIP_DNS_IsResolved
                0x000000000041bad0       0x1c build/sam_e70_xult_freertos/debug/_ext/810785262/dns.o
                0x000000000041bad0                TCPIP_DNS_IsResolved

.rodata._DHCPOptWriteTbl%725
                0x000000000041baec       0x1c
 .rodata._DHCPOptWriteTbl
                0x000000000041baec       0x1c build/sam_e70_xult_freertos/debug/_ext/810785262/dhcp.o

.text._ARPTxAckFnc%726
                0x000000000041bb08       0x1c
 .text._ARPTxAckFnc
                0x000000000041bb08       0x1c build/sam_e70_xult_freertos/debug/_ext/810785262/arp.o

.text.TCPIP_IPV4_MaxDatagramDataSizeGet%727
                0x000000000041bb24       0x1c
 .text.TCPIP_IPV4_MaxDatagramDataSizeGet
                0x000000000041bb24       0x1c build/sam_e70_xult_freertos/debug/_ext/810785262/ipv4.o
                0x000000000041bb24                TCPIP_IPV4_MaxDatagramDataSizeGet

.rodata.__func__.14104%728
                0x000000000041bb40       0x1c
 .rodata.__func__.14104
                0x000000000041bb40       0x1c build/sam_e70_xult_freertos/debug/_ext/810785262/ipv4.o

.text._TCPIP_HEAP_FreeSize%729
                0x000000000041bb5c       0x1c
 .text._TCPIP_HEAP_FreeSize
                0x000000000041bb5c       0x1c build/sam_e70_xult_freertos/debug/_ext/810785262/tcpip_heap_internal.o

.text._TCPIP_HEAP_Calloc%730
                0x000000000041bb78       0x1c
 .text._TCPIP_HEAP_Calloc
                0x000000000041bb78       0x1c build/sam_e70_xult_freertos/debug/_ext/810785262/tcpip_heap_internal.o

.text.TCPIP_Helper_SingleListAppend%731
                0x000000000041bb94       0x1c
 .text.TCPIP_Helper_SingleListAppend
                0x000000000041bb94       0x1c build/sam_e70_xult_freertos/debug/_ext/810785262/tcpip_helpers.o
                0x000000000041bb94                TCPIP_Helper_SingleListAppend

.text.TCPIP_Helper_ProtectedSingleListUnlock%732
                0x000000000041bbb0       0x1c
 .text.TCPIP_Helper_ProtectedSingleListUnlock
                0x000000000041bbb0       0x1c build/sam_e70_xult_freertos/debug/_ext/810785262/tcpip_helpers.o
                0x000000000041bbb0                TCPIP_Helper_ProtectedSingleListUnlock

.text._TCPIPSignalEntryNotify%733
                0x000000000041bbcc       0x1c
 .text._TCPIPSignalEntryNotify
                0x000000000041bbcc       0x1c build/sam_e70_xult_freertos/debug/_ext/810785262/tcpip_manager.o

.text.TCPIP_STACK_Status%734
                0x000000000041bbe8       0x1c
 .text.TCPIP_STACK_Status
                0x000000000041bbe8       0x1c build/sam_e70_xult_freertos/debug/_ext/810785262/tcpip_manager.o
                0x000000000041bbe8                TCPIP_STACK_Status

.text.TCPIP_STACK_NetAddressGatewaySet%735
                0x000000000041bc04       0x1c
 .text.TCPIP_STACK_NetAddressGatewaySet
                0x000000000041bc04       0x1c build/sam_e70_xult_freertos/debug/_ext/810785262/tcpip_manager.o
                0x000000000041bc04                TCPIP_STACK_NetAddressGatewaySet

.text.TCPIP_STACK_NetIsUp%736
                0x000000000041bc20       0x1c
 .text.TCPIP_STACK_NetIsUp
                0x000000000041bc20       0x1c build/sam_e70_xult_freertos/debug/_ext/810785262/tcpip_manager.o
                0x000000000041bc20                TCPIP_STACK_NetIsUp

.text.TCPIP_STACK_NetAddress%737
                0x000000000041bc3c       0x1c
 .text.TCPIP_STACK_NetAddress
                0x000000000041bc3c       0x1c build/sam_e70_xult_freertos/debug/_ext/810785262/tcpip_manager.o
                0x000000000041bc3c                TCPIP_STACK_NetAddress

.text.TCPIP_STACK_NetMask%738
                0x000000000041bc58       0x1c
 .text.TCPIP_STACK_NetMask
                0x000000000041bc58       0x1c build/sam_e70_xult_freertos/debug/_ext/810785262/tcpip_manager.o
                0x000000000041bc58                TCPIP_STACK_NetMask

.text.TCPIP_STACK_NetIsLinked%739
                0x000000000041bc74       0x1c
 .text.TCPIP_STACK_NetIsLinked
                0x000000000041bc74       0x1c build/sam_e70_xult_freertos/debug/_ext/810785262/tcpip_manager.o
                0x000000000041bc74                TCPIP_STACK_NetIsLinked

.text.TCPIP_STACK_NetAddressMac%740
                0x000000000041bc90       0x1c
 .text.TCPIP_STACK_NetAddressMac
                0x000000000041bc90       0x1c build/sam_e70_xult_freertos/debug/_ext/810785262/tcpip_manager.o
                0x000000000041bc90                TCPIP_STACK_NetAddressMac

.text.TCPIP_Notification_Add%741
                0x000000000041bcac       0x1c
 .text.TCPIP_Notification_Add
                0x000000000041bcac       0x1c build/sam_e70_xult_freertos/debug/_ext/810785262/tcpip_notify.o
                0x000000000041bcac                TCPIP_Notification_Add

.text.TCPIP_Notification_RemoveAll%742
                0x000000000041bcc8       0x1c
 .text.TCPIP_Notification_RemoveAll
                0x000000000041bcc8       0x1c build/sam_e70_xult_freertos/debug/_ext/810785262/tcpip_notify.o
                0x000000000041bcc8                TCPIP_Notification_RemoveAll

.text.TCPIP_UDP_TxPointerGet%743
                0x000000000041bce4       0x1c
 .text.TCPIP_UDP_TxPointerGet
                0x000000000041bce4       0x1c build/sam_e70_xult_freertos/debug/_ext/810785262/udp.o
                0x000000000041bce4                TCPIP_UDP_TxPointerGet

.text.SYS_TIME_Counter64Update%744
                0x000000000041bd00       0x1c
 .text.SYS_TIME_Counter64Update
                0x000000000041bd00       0x1c build/sam_e70_xult_freertos/debug/_ext/912870411/sys_time.o

.text.SYS_TMR_CallbackPeriodic%745
                0x000000000041bd1c       0x1c
 .text.SYS_TMR_CallbackPeriodic
                0x000000000041bd1c       0x1c build/sam_e70_xult_freertos/debug/_ext/231871610/sys_time_h2_adapter.o
                0x000000000041bd1c                SYS_TMR_CallbackPeriodic

.rodata.sysTimePlibAPI%746
                0x000000000041bd38       0x1c
 .rodata.sysTimePlibAPI
                0x000000000041bd38       0x1c build/sam_e70_xult_freertos/debug/_ext/1552905064/initialization.o
                0x000000000041bd38                sysTimePlibAPI

.text.vTaskPlaceOnEventList%747
                0x000000000041bd54       0x1c
 .text.vTaskPlaceOnEventList
                0x000000000041bd54       0x1c build/sam_e70_xult_freertos/debug/_ext/404212886/FreeRTOS_tasks.o
                0x000000000041bd54                vTaskPlaceOnEventList

.text.pvTaskIncrementMutexHeldCount%748
                0x000000000041bd70       0x1c
 .text.pvTaskIncrementMutexHeldCount
                0x000000000041bd70       0x1c build/sam_e70_xult_freertos/debug/_ext/404212886/FreeRTOS_tasks.o
                0x000000000041bd70                pvTaskIncrementMutexHeldCount

.text.__locale_ctype_ptr%749
                0x000000000041bd8c       0x1c
 .text.__locale_ctype_ptr
                0x000000000041bd8c       0x1c /Applications/microchip/xc32/v2.15/bin/bin/../../lib/gcc/pic32c/6.2.1/../../../../pic32c/lib/v7e-m/fpv5/hard/libg.a(lib_a-locale.o)
                0x000000000041bd8c                __locale_ctype_ptr

.text.__ascii_wctomb%750
                0x000000000041bda8       0x1c
 .text.__ascii_wctomb
                0x000000000041bda8       0x1c /Applications/microchip/xc32/v2.15/bin/bin/../../lib/gcc/pic32c/6.2.1/../../../../pic32c/lib/v7e-m/fpv5/hard/libg.a(lib_a-wctomb_r.o)
                0x000000000041bda8                __ascii_wctomb

.text._localeconv_r%751
                0x000000000041bdc4       0x1c
 .text._localeconv_r
                0x000000000041bdc4       0x1c /Applications/microchip/xc32/v2.15/bin/bin/../../lib/gcc/pic32c/6.2.1/../../../../pic32c/lib/v7e-m/fpv5/hard/libg.a(lib_a-localeconv.o)
                0x000000000041bdc4                _localeconv_r

.text._DRV_ETHPHY_NegCompletePhaseResultNoWait%752
                0x000000000041bde0       0x1a
 .text._DRV_ETHPHY_NegCompletePhaseResultNoWait
                0x000000000041bde0       0x1a build/sam_e70_xult_freertos/debug/_ext/1607428259/drv_ethphy.o

.text.DRV_PIC32CGMAC_SingleListTailAdd%753
                0x000000000041bdfa       0x1a
 .text.DRV_PIC32CGMAC_SingleListTailAdd
                0x000000000041bdfa       0x1a build/sam_e70_xult_freertos/debug/_ext/1619526243/drv_gmac_lib_samE7x_V7x.o
                0x000000000041bdfa                DRV_PIC32CGMAC_SingleListTailAdd

.text.Helper_SingleListTailAdd%754
                0x000000000041be14       0x1a
 .text.Helper_SingleListTailAdd
                0x000000000041be14       0x1a build/sam_e70_xult_freertos/debug/_ext/511568427/drv_miim.o
                0x000000000041be14                Helper_SingleListTailAdd

.text.DRV_MIIM_Read%755
                0x000000000041be2e       0x1a
 .text.DRV_MIIM_Read
                0x000000000041be2e       0x1a build/sam_e70_xult_freertos/debug/_ext/511568427/drv_miim.o
                0x000000000041be2e                DRV_MIIM_Read

.text.DRV_MIIM_Write%756
                0x000000000041be48       0x1a
 .text.DRV_MIIM_Write
                0x000000000041be48       0x1a build/sam_e70_xult_freertos/debug/_ext/511568427/drv_miim.o
                0x000000000041be48                DRV_MIIM_Write

.text.DRV_MIIM_Scan%757
                0x000000000041be62       0x1a
 .text.DRV_MIIM_Scan
                0x000000000041be62       0x1a build/sam_e70_xult_freertos/debug/_ext/511568427/drv_miim.o
                0x000000000041be62                DRV_MIIM_Scan

.text.TCPIP_TCP_ClientOpen%758
                0x000000000041be7c       0x1a
 .text.TCPIP_TCP_ClientOpen
                0x000000000041be7c       0x1a build/sam_e70_xult_freertos/debug/_ext/810785262/tcp.o
                0x000000000041be7c                TCPIP_TCP_ClientOpen

.text.TCPIP_TCP_PutIsReady%759
                0x000000000041be96       0x1a
 .text.TCPIP_TCP_PutIsReady
                0x000000000041be96       0x1a build/sam_e70_xult_freertos/debug/_ext/810785262/tcp.o
                0x000000000041be96                TCPIP_TCP_PutIsReady

.text.TCPIP_Helper_SingleListTailAdd%760
                0x000000000041beb0       0x1a
 .text.TCPIP_Helper_SingleListTailAdd
                0x000000000041beb0       0x1a build/sam_e70_xult_freertos/debug/_ext/810785262/tcpip_helpers.o
                0x000000000041beb0                TCPIP_Helper_SingleListTailAdd

.text.TCPIP_STACK_NetIsReady%761
                0x000000000041beca       0x1a
 .text.TCPIP_STACK_NetIsReady
                0x000000000041beca       0x1a build/sam_e70_xult_freertos/debug/_ext/810785262/tcpip_manager.o
                0x000000000041beca                TCPIP_STACK_NetIsReady

.text._UDPTxPktValid%762
                0x000000000041bee4       0x1a
 .text._UDPTxPktValid
                0x000000000041bee4       0x1a build/sam_e70_xult_freertos/debug/_ext/810785262/udp.o

.text.BSP_Initialize%763
                0x0000000000409e48       0x18
 .text.BSP_Initialize
                0x0000000000409e48       0x18 build/sam_e70_xult_freertos/debug/_ext/683629640/bsp.o
                0x0000000000409e48                BSP_Initialize

.text.DRV_ETHPHY_PhyAddressGet%764
                0x000000000041befe       0x18
 .text.DRV_ETHPHY_PhyAddressGet
                0x000000000041befe       0x18 build/sam_e70_xult_freertos/debug/_ext/1607428259/drv_ethphy.o
                0x000000000041befe                DRV_ETHPHY_PhyAddressGet

.text._DRV_PHY_SMIReadStart%765
                0x000000000041bf16       0x18
 .text._DRV_PHY_SMIReadStart
                0x000000000041bf16       0x18 build/sam_e70_xult_freertos/debug/_ext/1607428259/drv_ethphy.o

.text._DRV_PHY_SMIWriteStart%766
                0x000000000041bf2e       0x18
 .text._DRV_PHY_SMIWriteStart
                0x000000000041bf2e       0x18 build/sam_e70_xult_freertos/debug/_ext/1607428259/drv_ethphy.o

.text._DRV_ETHPHY_ResetPhaseIdle%767
                0x000000000041bf46       0x18
 .text._DRV_ETHPHY_ResetPhaseIdle
                0x000000000041bf46       0x18 build/sam_e70_xult_freertos/debug/_ext/1607428259/drv_ethphy.o

.rodata._DRV_PHY_NegCompletePhasesTbl%768
                0x000000000041bf60       0x18
 .rodata._DRV_PHY_NegCompletePhasesTbl
                0x000000000041bf60       0x18 build/sam_e70_xult_freertos/debug/_ext/1607428259/drv_ethphy.o

.text.DRV_PIC32CGMAC_SingleListHeadAdd%769
                0x000000000041bf78       0x18
 .text.DRV_PIC32CGMAC_SingleListHeadAdd
                0x000000000041bf78       0x18 build/sam_e70_xult_freertos/debug/_ext/1619526243/drv_gmac_lib_samE7x_V7x.o
                0x000000000041bf78                DRV_PIC32CGMAC_SingleListHeadAdd

.text.DRV_MIIM_Close%770
                0x000000000041bf90       0x18
 .text.DRV_MIIM_Close
                0x000000000041bf90       0x18 build/sam_e70_xult_freertos/debug/_ext/511568427/drv_miim.o
                0x000000000041bf90                DRV_MIIM_Close

.rodata.__func__.14139%771
                0x000000000041bfa8       0x18
 .rodata.__func__.14139
                0x000000000041bfa8       0x18 build/sam_e70_xult_freertos/debug/_ext/810785262/dns.o

.rodata.__func__.14157%772
                0x000000000041bfc0       0x18
 .rodata.__func__.14157
                0x000000000041bfc0       0x18 build/sam_e70_xult_freertos/debug/_ext/810785262/dns.o

.rodata.__func__.14408%773
                0x000000000041bfd8       0x18
 .rodata.__func__.14408
                0x000000000041bfd8       0x18 build/sam_e70_xult_freertos/debug/_ext/810785262/dns.o

.text.TCPIP_ICMP_Cleanup%774
                0x000000000041bff0       0x18
 .text.TCPIP_ICMP_Cleanup
                0x000000000041bff0       0x18 build/sam_e70_xult_freertos/debug/_ext/810785262/icmp.o

.text.TCPIP_ARP_HashKeyHash%775
                0x000000000041c008       0x18
 .text.TCPIP_ARP_HashKeyHash
                0x000000000041c008       0x18 build/sam_e70_xult_freertos/debug/_ext/810785262/arp.o
                0x000000000041c008                TCPIP_ARP_HashKeyHash

.text.TCPIP_HEAP_Create%776
                0x000000000041c020       0x18
 .text.TCPIP_HEAP_Create
                0x000000000041c020       0x18 build/sam_e70_xult_freertos/debug/_ext/810785262/tcpip_heap_alloc.o
                0x000000000041c020                TCPIP_HEAP_Create

.text.TCPIP_OAHASH_EntryRemove%777
                0x000000000041c038       0x18
 .text.TCPIP_OAHASH_EntryRemove
                0x000000000041c038       0x18 build/sam_e70_xult_freertos/debug/_ext/810785262/oahash.o
                0x000000000041c038                TCPIP_OAHASH_EntryRemove

.text.TCPIP_STACK_NetAddressGateway%778
                0x000000000041c050       0x18
 .text.TCPIP_STACK_NetAddressGateway
                0x000000000041c050       0x18 build/sam_e70_xult_freertos/debug/_ext/810785262/tcpip_manager.o
                0x000000000041c050                TCPIP_STACK_NetAddressGateway

.text.TCPIP_STACK_NetAddressDnsPrimary%779
                0x000000000041c068       0x18
 .text.TCPIP_STACK_NetAddressDnsPrimary
                0x000000000041c068       0x18 build/sam_e70_xult_freertos/debug/_ext/810785262/tcpip_manager.o
                0x000000000041c068                TCPIP_STACK_NetAddressDnsPrimary

.text.TCPIP_STACK_NetAddressGet%780
                0x000000000041c080       0x18
 .text.TCPIP_STACK_NetAddressGet
                0x000000000041c080       0x18 build/sam_e70_xult_freertos/debug/_ext/810785262/tcpip_manager.o
                0x000000000041c080                TCPIP_STACK_NetAddressGet

.text.TCPIP_STACK_NetMaskGet%781
                0x000000000041c098       0x18
 .text.TCPIP_STACK_NetMaskGet
                0x000000000041c098       0x18 build/sam_e70_xult_freertos/debug/_ext/810785262/tcpip_manager.o
                0x000000000041c098                TCPIP_STACK_NetMaskGet

.text.TCPIP_STACK_NetMACAddressGet%782
                0x000000000041c0b0       0x18
 .text.TCPIP_STACK_NetMACAddressGet
                0x000000000041c0b0       0x18 build/sam_e70_xult_freertos/debug/_ext/810785262/tcpip_manager.o
                0x000000000041c0b0                TCPIP_STACK_NetMACAddressGet

.text.TCPIP_STACK_HeapHandleGet%783
                0x000000000041c0c8       0x18
 .text.TCPIP_STACK_HeapHandleGet
                0x000000000041c0c8       0x18 build/sam_e70_xult_freertos/debug/_ext/810785262/tcpip_manager.o
                0x000000000041c0c8                TCPIP_STACK_HeapHandleGet

.rodata.TCPIP_FRAME_PROCESS_TBL%784
                0x000000000041c0e0       0x18
 .rodata.TCPIP_FRAME_PROCESS_TBL
                0x000000000041c0e0       0x18 build/sam_e70_xult_freertos/debug/_ext/810785262/tcpip_manager.o

.text.Console_UART_RegisterCallback%785
                0x000000000041c0f8       0x18
 .text.Console_UART_RegisterCallback
                0x000000000041c0f8       0x18 build/sam_e70_xult_freertos/debug/_ext/762686499/sys_console_uart.o
                0x000000000041c0f8                Console_UART_RegisterCallback

.text.CommandReset%786
                0x000000000041c110       0x18
 .text.CommandReset
                0x000000000041c110       0x18 build/sam_e70_xult_freertos/debug/_ext/762686499/sys_command.o

.text.SendCommandMessage%787
                0x000000000041c128       0x18
 .text.SendCommandMessage
                0x000000000041c128       0x18 build/sam_e70_xult_freertos/debug/_ext/762686499/sys_command.o

.rodata.sysConsoleApi%788
                0x000000000041c140       0x18
 .rodata.sysConsoleApi
                0x000000000041c140       0x18 build/sam_e70_xult_freertos/debug/_ext/762686499/sys_command.o
                0x000000000041c140                sysConsoleApi

.text._TCPIP_STACK_Task%789
                0x000000000041c158       0x18
 .text._TCPIP_STACK_Task
                0x000000000041c158       0x18 build/sam_e70_xult_freertos/debug/_ext/1552905064/tasks.o
                0x000000000041c158                _TCPIP_STACK_Task

.text._DRV_MIIM_Task%790
                0x000000000041c170       0x18
 .text._DRV_MIIM_Task
                0x000000000041c170       0x18 build/sam_e70_xult_freertos/debug/_ext/1552905064/tasks.o
                0x000000000041c170                _DRV_MIIM_Task

.rodata.sysConsole0UARTInitData%791
                0x000000000041c188       0x18
 .rodata.sysConsole0UARTInitData
                0x000000000041c188       0x18 build/sam_e70_xult_freertos/debug/_ext/1552905064/initialization.o
                0x000000000041c188                sysConsole0UARTInitData

.rodata.tcpipDNSClientInitData%792
                0x000000000041c1a0       0x18
 .rodata.tcpipDNSClientInitData
                0x000000000041c1a0       0x18 build/sam_e70_xult_freertos/debug/_ext/1552905064/initialization.o
                0x000000000041c1a0                tcpipDNSClientInitData

.text.vPortFree%793
                0x000000000041c1b8       0x18
 .text.vPortFree
                0x000000000041c1b8       0x18 build/sam_e70_xult_freertos/debug/_ext/1665200909/heap_3.o
                0x000000000041c1b8                vPortFree

.text.vListInsertEnd%794
                0x000000000041c1d0       0x18
 .text.vListInsertEnd
                0x000000000041c1d0       0x18 build/sam_e70_xult_freertos/debug/_ext/404212886/list.o
                0x000000000041c1d0                vListInsertEnd

.text.vTaskInternalSetTimeOutState%795
                0x000000000041c1e8       0x18
 .text.vTaskInternalSetTimeOutState
                0x000000000041c1e8       0x18 build/sam_e70_xult_freertos/debug/_ext/404212886/FreeRTOS_tasks.o
                0x000000000041c1e8                vTaskInternalSetTimeOutState

.text.OSAL_CRIT_Enter%796
                0x000000000041c200       0x18
 .text.OSAL_CRIT_Enter
                0x000000000041c200       0x18 build/sam_e70_xult_freertos/debug/_ext/281930714/osal_freertos.o
                0x000000000041c200                OSAL_CRIT_Enter

.text.OSAL_SEM_Post%797
                0x000000000041c218       0x18
 .text.OSAL_SEM_Post
                0x000000000041c218       0x18 build/sam_e70_xult_freertos/debug/_ext/281930714/osal_freertos.o
                0x000000000041c218                OSAL_SEM_Post

.text.OSAL_MUTEX_Create%798
                0x000000000041c230       0x18
 .text.OSAL_MUTEX_Create
                0x000000000041c230       0x18 build/sam_e70_xult_freertos/debug/_ext/281930714/osal_freertos.o
                0x000000000041c230                OSAL_MUTEX_Create

.text.OSAL_MUTEX_Unlock%799
                0x000000000041c248       0x18
 .text.OSAL_MUTEX_Unlock
                0x000000000041c248       0x18 build/sam_e70_xult_freertos/debug/_ext/281930714/osal_freertos.o
                0x000000000041c248                OSAL_MUTEX_Unlock

.rodata.appCmdTbl%800
                0x000000000041c260       0x18
 .rodata.appCmdTbl
                0x000000000041c260       0x18 build/sam_e70_xult_freertos/debug/_ext/1360937237/app_commands.o

.text.DRV_ETHPHY_VendorDataGet%801
                0x000000000041c278       0x16
 .text.DRV_ETHPHY_VendorDataGet
                0x000000000041c278       0x16 build/sam_e70_xult_freertos/debug/_ext/1607428259/drv_ethphy.o
                0x000000000041c278                DRV_ETHPHY_VendorDataGet

.text.DRV_MIIM_ClientStatus%802
                0x000000000041c28e       0x16
 .text.DRV_MIIM_ClientStatus
                0x000000000041c28e       0x16 build/sam_e70_xult_freertos/debug/_ext/511568427/drv_miim.o
                0x000000000041c28e                DRV_MIIM_ClientStatus

.text._DNSSocketRxSignalHandler%803
                0x000000000041c2a4       0x16
 .text._DNSSocketRxSignalHandler
                0x000000000041c2a4       0x16 build/sam_e70_xult_freertos/debug/_ext/810785262/dns.o

.text._TCP_TxPktValid%804
                0x000000000041c2ba       0x16
 .text._TCP_TxPktValid
                0x000000000041c2ba       0x16 build/sam_e70_xult_freertos/debug/_ext/810785262/tcp.o

.text._DHCPSocketRxSignalHandler%805
                0x000000000041c2d0       0x16
 .text._DHCPSocketRxSignalHandler
                0x000000000041c2d0       0x16 build/sam_e70_xult_freertos/debug/_ext/810785262/dhcp.o

.text._TCPIP_HEAP_Size%806
                0x000000000041c2e6       0x16
 .text._TCPIP_HEAP_Size
                0x000000000041c2e6       0x16 build/sam_e70_xult_freertos/debug/_ext/810785262/tcpip_heap_internal.o

.text._TCPIP_HEAP_HighWatermark%807
                0x000000000041c2fc       0x16
 .text._TCPIP_HEAP_HighWatermark
                0x000000000041c2fc       0x16 build/sam_e70_xult_freertos/debug/_ext/810785262/tcpip_heap_internal.o

.text.TCPIP_STACK_AddressServiceCanStart%808
                0x000000000041c312       0x16
 .text.TCPIP_STACK_AddressServiceCanStart
                0x000000000041c312       0x16 build/sam_e70_xult_freertos/debug/_ext/810785262/tcpip_manager.o
                0x000000000041c312                TCPIP_STACK_AddressServiceCanStart

.text._TCPIPStackPacketTx%809
                0x000000000041c328       0x16
 .text._TCPIPStackPacketTx
                0x000000000041c328       0x16 build/sam_e70_xult_freertos/debug/_ext/810785262/tcpip_manager.o
                0x000000000041c328                _TCPIPStackPacketTx

.text.vApplicationStackOverflowHook%810
                0x000000000041c33e       0x16
 .text.vApplicationStackOverflowHook
                0x000000000041c33e       0x16 build/sam_e70_xult_freertos/debug/_ext/1552905064/freertos_hooks.o
                0x000000000041c33e                vApplicationStackOverflowHook

.text.vApplicationMallocFailedHook%811
                0x000000000041c354       0x16
 .text.vApplicationMallocFailedHook
                0x000000000041c354       0x16 build/sam_e70_xult_freertos/debug/_ext/1552905064/freertos_hooks.o
                0x000000000041c354                vApplicationMallocFailedHook

.text.vListInitialise%812
                0x000000000041c36a       0x16
 .text.vListInitialise
                0x000000000041c36a       0x16 build/sam_e70_xult_freertos/debug/_ext/404212886/list.o
                0x000000000041c36a                vListInitialise

.text.prvIsQueueEmpty%813
                0x000000000041c380       0x16
 .text.prvIsQueueEmpty
                0x000000000041c380       0x16 build/sam_e70_xult_freertos/debug/_ext/404212886/queue.o

.text.xQueueCreateCountingSemaphore%814
                0x000000000041c396       0x16
 .text.xQueueCreateCountingSemaphore
                0x000000000041c396       0x16 build/sam_e70_xult_freertos/debug/_ext/404212886/queue.o
                0x000000000041c396                xQueueCreateCountingSemaphore

.text.OSAL_CRIT_Leave%815
                0x000000000041c3ac       0x16
 .text.OSAL_CRIT_Leave
                0x000000000041c3ac       0x16 build/sam_e70_xult_freertos/debug/_ext/281930714/osal_freertos.o
                0x000000000041c3ac                OSAL_CRIT_Leave

.text._DRV_ETHPHY_NegRestartPhaseIdle%816
                0x000000000041c3c2       0x14
 .text._DRV_ETHPHY_NegRestartPhaseIdle
                0x000000000041c3c2       0x14 build/sam_e70_xult_freertos/debug/_ext/1607428259/drv_ethphy.o

.text._DRV_ETHPHY_NegResultPhaseIdle%817
                0x000000000041c3d6       0x14
 .text._DRV_ETHPHY_NegResultPhaseIdle
                0x000000000041c3d6       0x14 build/sam_e70_xult_freertos/debug/_ext/1607428259/drv_ethphy.o

.text._DRV_ETHPHY_NegCompletePhaseIdle%818
                0x000000000041c3ea       0x14
 .text._DRV_ETHPHY_NegCompletePhaseIdle
                0x000000000041c3ea       0x14 build/sam_e70_xult_freertos/debug/_ext/1607428259/drv_ethphy.o

.text._DRV_ETHPHY_LinkStatPhaseIdle%819
                0x000000000041c3fe       0x14
 .text._DRV_ETHPHY_LinkStatPhaseIdle
                0x000000000041c3fe       0x14 build/sam_e70_xult_freertos/debug/_ext/1607428259/drv_ethphy.o

.rodata._DRV_PHY_NegResultPhasesTbl%820
                0x000000000041c414       0x14
 .rodata._DRV_PHY_NegResultPhasesTbl
                0x000000000041c414       0x14 build/sam_e70_xult_freertos/debug/_ext/1607428259/drv_ethphy.o

.rodata._DRV_GMAC_LinkStateTbl%821
                0x000000000041c428       0x14
 .rodata._DRV_GMAC_LinkStateTbl
                0x000000000041c428       0x14 build/sam_e70_xult_freertos/debug/_ext/1619526243/drv_gmac.o

.text._DHCPOptionWriteEnd%822
                0x000000000041c43c       0x14
 .text._DHCPOptionWriteEnd
                0x000000000041c43c       0x14 build/sam_e70_xult_freertos/debug/_ext/810785262/dhcp.o

.text.TCPIP_OAHASH_EntryGet%823
                0x000000000041c450       0x14
 .text.TCPIP_OAHASH_EntryGet
                0x000000000041c450       0x14 build/sam_e70_xult_freertos/debug/_ext/810785262/oahash.o
                0x000000000041c450                TCPIP_OAHASH_EntryGet

.rodata.sysConsole0UARTInterruptSources%824
                0x000000000041c464       0x14
 .rodata.sysConsole0UARTInterruptSources
                0x000000000041c464       0x14 build/sam_e70_xult_freertos/debug/_ext/1552905064/initialization.o
                0x000000000041c464                sysConsole0UARTInterruptSources

.rodata.sysConsole0UARTPlibAPI%825
                0x000000000041c478       0x14
 .rodata.sysConsole0UARTPlibAPI
                0x000000000041c478       0x14 build/sam_e70_xult_freertos/debug/_ext/1552905064/initialization.o
                0x000000000041c478                sysConsole0UARTPlibAPI

.text.vPortEnableVFP%826
                0x000000000041c48c       0x14
 .text.vPortEnableVFP
                0x000000000041c48c       0x14 build/sam_e70_xult_freertos/debug/_ext/977623654/port.o

.text.vPortExitCritical%827
                0x000000000041c4a0       0x14
 .text.vPortExitCritical
                0x000000000041c4a0       0x14 build/sam_e70_xult_freertos/debug/_ext/977623654/port.o
                0x000000000041c4a0                vPortExitCritical

.rodata%828     0x000000000041c4b4       0x14
 .rodata        0x000000000041c4b4       0x14 /Applications/microchip/xc32/v2.15/bin/bin/../../lib/gcc/pic32c/6.2.1/../../../../pic32c/lib/v7e-m/fpv5/hard/libg.a(lib_a-locale.o)

.text.register_fini%829
                0x000000000041c4c8       0x14
 .text.register_fini
                0x000000000041c4c8       0x14 /Applications/microchip/xc32/v2.15/bin/bin/../../lib/gcc/pic32c/6.2.1/../../../../pic32c/lib/v7e-m/fpv5/hard/libg.a(lib_a-__call_atexit.o)

.rodata%830     0x000000000041c4dc       0x14
 .rodata        0x000000000041c4dc       0x14 /Applications/microchip/xc32/v2.15/bin/bin/../../lib/gcc/pic32c/6.2.1/../../../../pic32c/lib/v7e-m/fpv5/hard/libg.a(lib_a-dtoa.o)

.text._Bfree%831
                0x000000000041c4f0       0x14
 .text._Bfree   0x000000000041c4f0       0x14 /Applications/microchip/xc32/v2.15/bin/bin/../../lib/gcc/pic32c/6.2.1/../../../../pic32c/lib/v7e-m/fpv5/hard/libg.a(lib_a-mprec.o)
                0x000000000041c4f0                _Bfree

.text.__i2b%832
                0x000000000041c504       0x14
 .text.__i2b    0x000000000041c504       0x14 /Applications/microchip/xc32/v2.15/bin/bin/../../lib/gcc/pic32c/6.2.1/../../../../pic32c/lib/v7e-m/fpv5/hard/libg.a(lib_a-mprec.o)
                0x000000000041c504                __i2b

.text.DRV_GMAC_Status%833
                0x000000000041c518       0x12
 .text.DRV_GMAC_Status
                0x000000000041c518       0x12 build/sam_e70_xult_freertos/debug/_ext/1619526243/drv_gmac.o
                0x000000000041c518                DRV_GMAC_Status

.text.DRV_GMAC_Close%834
                0x000000000041c52a       0x12
 .text.DRV_GMAC_Close
                0x000000000041c52a       0x12 build/sam_e70_xult_freertos/debug/_ext/1619526243/drv_gmac.o
                0x000000000041c52a                DRV_GMAC_Close

.text.DRV_GMAC_Deinitialize%835
                0x000000000041c53c       0x12
 .text.DRV_GMAC_Deinitialize
                0x000000000041c53c       0x12 build/sam_e70_xult_freertos/debug/_ext/1619526243/drv_gmac.o
                0x000000000041c53c                DRV_GMAC_Deinitialize

.text.TCPIP_TCP_GetIsReady%836
                0x000000000041c54e       0x12
 .text.TCPIP_TCP_GetIsReady
                0x000000000041c54e       0x12 build/sam_e70_xult_freertos/debug/_ext/810785262/tcp.o
                0x000000000041c54e                TCPIP_TCP_GetIsReady

.text.TCPIP_STACK_NetNameGet%837
                0x000000000041c560       0x12
 .text.TCPIP_STACK_NetNameGet
                0x000000000041c560       0x12 build/sam_e70_xult_freertos/debug/_ext/810785262/tcpip_manager.o
                0x000000000041c560                TCPIP_STACK_NetNameGet

.text.IsCommandReady%838
                0x000000000041c572       0x12
 .text.IsCommandReady
                0x000000000041c572       0x12 build/sam_e70_xult_freertos/debug/_ext/762686499/sys_command.o

.text.SYS_INT_Disable%839
                0x000000000041c584       0x12
 .text.SYS_INT_Disable
                0x000000000041c584       0x12 build/sam_e70_xult_freertos/debug/_ext/1775855163/sys_int.o
                0x000000000041c584                SYS_INT_Disable

.text.SYS_INT_Restore%840
                0x000000000041c596       0x12
 .text.SYS_INT_Restore
                0x000000000041c596       0x12 build/sam_e70_xult_freertos/debug/_ext/1775855163/sys_int.o
                0x000000000041c596                SYS_INT_Restore

.text.OSAL_SEM_Delete%841
                0x000000000041c5a8       0x12
 .text.OSAL_SEM_Delete
                0x000000000041c5a8       0x12 build/sam_e70_xult_freertos/debug/_ext/281930714/osal_freertos.o
                0x000000000041c5a8                OSAL_SEM_Delete

.rodata._DRV_PHY_SetupPhasesTbl%842
                0x000000000041c5bc       0x10
 .rodata._DRV_PHY_SetupPhasesTbl
                0x000000000041c5bc       0x10 build/sam_e70_xult_freertos/debug/_ext/1607428259/drv_ethphy.o

.rodata.DRV_ETHPHY_OBJECT_SMSC_LAN8740%843
                0x000000000041c5cc       0x10
 .rodata.DRV_ETHPHY_OBJECT_SMSC_LAN8740
                0x000000000041c5cc       0x10 build/sam_e70_xult_freertos/debug/_ext/1607428259/drv_extphy_smsc8740.o
                0x000000000041c5cc                DRV_ETHPHY_OBJECT_SMSC_LAN8740

.text.TCPIP_DNS_GetIPv4Addresses%844
                0x000000000041c5dc       0x10
 .text.TCPIP_DNS_GetIPv4Addresses
                0x000000000041c5dc       0x10 build/sam_e70_xult_freertos/debug/_ext/810785262/dns.o
                0x000000000041c5dc                TCPIP_DNS_GetIPv4Addresses

.text.TCPIP_DNS_GetIPv6Addresses%845
                0x000000000041c5ec       0x10
 .text.TCPIP_DNS_GetIPv6Addresses
                0x000000000041c5ec       0x10 build/sam_e70_xult_freertos/debug/_ext/810785262/dns.o
                0x000000000041c5ec                TCPIP_DNS_GetIPv6Addresses

.text.TCPIP_Notification_Deinitialize%846
                0x000000000041c5fc       0x10
 .text.TCPIP_Notification_Deinitialize
                0x000000000041c5fc       0x10 build/sam_e70_xult_freertos/debug/_ext/810785262/tcpip_notify.o
                0x000000000041c5fc                TCPIP_Notification_Deinitialize

.text.sy_time_h2_adapter_callback%847
                0x000000000041c60c       0x10
 .text.sy_time_h2_adapter_callback
                0x000000000041c60c       0x10 build/sam_e70_xult_freertos/debug/_ext/231871610/sys_time_h2_adapter.o
                0x000000000041c60c                sy_time_h2_adapter_callback

.text._APP_Tasks%848
                0x000000000041c61c       0x10
 .text._APP_Tasks
                0x000000000041c61c       0x10 build/sam_e70_xult_freertos/debug/_ext/1552905064/tasks.o
                0x000000000041c61c                _APP_Tasks

.text._SYS_CMD_Tasks%849
                0x000000000041c62c       0x10
 .text._SYS_CMD_Tasks
                0x000000000041c62c       0x10 build/sam_e70_xult_freertos/debug/_ext/1552905064/tasks.o
                0x000000000041c62c                _SYS_CMD_Tasks

.rodata.tcpipDHCPInitData%850
                0x000000000041c63c       0x10
 .rodata.tcpipDHCPInitData
                0x000000000041c63c       0x10 build/sam_e70_xult_freertos/debug/_ext/1552905064/initialization.o
                0x000000000041c63c                tcpipDHCPInitData

.text.vTaskSuspendAll%851
                0x000000000041c64c       0x10
 .text.vTaskSuspendAll
                0x000000000041c64c       0x10 build/sam_e70_xult_freertos/debug/_ext/404212886/FreeRTOS_tasks.o
                0x000000000041c64c                vTaskSuspendAll

.text.calloc%852
                0x000000000041c65c       0x10
 .text.calloc   0x000000000041c65c       0x10 /Applications/microchip/xc32/v2.15/bin/bin/../../lib/gcc/pic32c/6.2.1/../../../../pic32c/lib/v7e-m/fpv5/hard/libg.a(lib_a-calloc.o)
                0x000000000041c65c                calloc

.text.malloc%853
                0x000000000041c66c       0x10
 .text.malloc   0x000000000041c66c       0x10 /Applications/microchip/xc32/v2.15/bin/bin/../../lib/gcc/pic32c/6.2.1/../../../../pic32c/lib/v7e-m/fpv5/hard/libg.a(lib_a-malloc.o)
                0x000000000041c66c                malloc

.text.free%854  0x000000000041c67c       0x10
 .text.free     0x000000000041c67c       0x10 /Applications/microchip/xc32/v2.15/bin/bin/../../lib/gcc/pic32c/6.2.1/../../../../pic32c/lib/v7e-m/fpv5/hard/libg.a(lib_a-malloc.o)
                0x000000000041c67c                free

.text.strtok%855
                0x000000000041c68c       0x10
 .text.strtok   0x000000000041c68c       0x10 /Applications/microchip/xc32/v2.15/bin/bin/../../lib/gcc/pic32c/6.2.1/../../../../pic32c/lib/v7e-m/fpv5/hard/libg.a(lib_a-strtok.o)
                0x000000000041c68c                strtok

.rodata.blanks.8352%856
                0x000000000041c69c       0x10
 .rodata.blanks.8352
                0x000000000041c69c       0x10 /Applications/microchip/xc32/v2.15/bin/bin/../../lib/gcc/pic32c/6.2.1/../../../../pic32c/lib/v7e-m/fpv5/hard/libg.a(lib_a-svfprintf.o)

.rodata.zeroes.8353%857
                0x000000000041c6ac       0x10
 .rodata.zeroes.8353
                0x000000000041c6ac       0x10 /Applications/microchip/xc32/v2.15/bin/bin/../../lib/gcc/pic32c/6.2.1/../../../../pic32c/lib/v7e-m/fpv5/hard/libg.a(lib_a-svfprintf.o)

.text.DRV_ETHPHY_Status%858
                0x000000000041c6bc        0xe
 .text.DRV_ETHPHY_Status
                0x000000000041c6bc        0xe build/sam_e70_xult_freertos/debug/_ext/1607428259/drv_ethphy.o
                0x000000000041c6bc                DRV_ETHPHY_Status

.text.DRV_ETHPHY_ClientStatus%859
                0x000000000041c6ca        0xe
 .text.DRV_ETHPHY_ClientStatus
                0x000000000041c6ca        0xe build/sam_e70_xult_freertos/debug/_ext/1607428259/drv_ethphy.o
                0x000000000041c6ca                DRV_ETHPHY_ClientStatus

.text.DRV_ETHPHY_ClientOperationResult%860
                0x000000000041c6d8        0xe
 .text.DRV_ETHPHY_ClientOperationResult
                0x000000000041c6d8        0xe build/sam_e70_xult_freertos/debug/_ext/1607428259/drv_ethphy.o
                0x000000000041c6d8                DRV_ETHPHY_ClientOperationResult

.text.DRV_ETHPHY_VendorDataSet%861
                0x000000000041c6e6        0xe
 .text.DRV_ETHPHY_VendorDataSet
                0x000000000041c6e6        0xe build/sam_e70_xult_freertos/debug/_ext/1607428259/drv_ethphy.o
                0x000000000041c6e6                DRV_ETHPHY_VendorDataSet

.text.btohexa_low%862
                0x000000000041c6f4        0xe
 .text.btohexa_low
                0x000000000041c6f4        0xe build/sam_e70_xult_freertos/debug/_ext/810785262/helpers.o
                0x000000000041c6f4                btohexa_low

.text.TCPIP_Helper_ChecksumFold%863
                0x000000000041c702        0xe
 .text.TCPIP_Helper_ChecksumFold
                0x000000000041c702        0xe build/sam_e70_xult_freertos/debug/_ext/810785262/tcpip_helpers.o
                0x000000000041c702                TCPIP_Helper_ChecksumFold

.text.TCPIP_STACK_NetIndexGet%864
                0x000000000041c710        0xe
 .text.TCPIP_STACK_NetIndexGet
                0x000000000041c710        0xe build/sam_e70_xult_freertos/debug/_ext/810785262/tcpip_manager.o
                0x000000000041c710                TCPIP_STACK_NetIndexGet

.text.TCPIP_STACK_NetIxGet%865
                0x000000000041c71e        0xe
 .text.TCPIP_STACK_NetIxGet
                0x000000000041c71e        0xe build/sam_e70_xult_freertos/debug/_ext/810785262/tcpip_manager.o
                0x000000000041c71e                TCPIP_STACK_NetIxGet

.text._TCPIPStackSignalHandlerDeregister%866
                0x000000000041c72c        0xe
 .text._TCPIPStackSignalHandlerDeregister
                0x000000000041c72c        0xe build/sam_e70_xult_freertos/debug/_ext/810785262/tcpip_manager.o
                0x000000000041c72c                _TCPIPStackSignalHandlerDeregister

.text.main%867  0x000000000041c73a        0xe
 .text.main     0x000000000041c73a        0xe build/sam_e70_xult_freertos/debug/_ext/1360937237/main.o
                0x000000000041c73a                main

.text.DRV_ETHPHY_Deinitialize%868
                0x0000000000414114        0xc
 .text.DRV_ETHPHY_Deinitialize
                0x0000000000414114        0xc build/sam_e70_xult_freertos/debug/_ext/1607428259/drv_ethphy.o
                0x0000000000414114                DRV_ETHPHY_Deinitialize

.rodata._DRV_PHY_LinkStatPhasesTbl%869
                0x000000000041b4d4        0xc
 .rodata._DRV_PHY_LinkStatPhasesTbl
                0x000000000041b4d4        0xc build/sam_e70_xult_freertos/debug/_ext/1607428259/drv_ethphy.o

.rodata._DRV_PHY_NegRestartPhasesTbl%870
                0x000000000041c748        0xc
 .rodata._DRV_PHY_NegRestartPhasesTbl
                0x000000000041c748        0xc build/sam_e70_xult_freertos/debug/_ext/1607428259/drv_ethphy.o

.rodata._DRV_PHY_ResetPhasesTbl%871
                0x000000000041c754        0xc
 .rodata._DRV_PHY_ResetPhasesTbl
                0x000000000041c754        0xc build/sam_e70_xult_freertos/debug/_ext/1607428259/drv_ethphy.o

.text._DRV_GMAC_GetTxOctetLow%872
                0x000000000041c760        0xc
 .text._DRV_GMAC_GetTxOctetLow
                0x000000000041c760        0xc build/sam_e70_xult_freertos/debug/_ext/1619526243/drv_gmac.o

.text._DRV_GMAC_GetTxOctetHigh%873
                0x000000000041c76c        0xc
 .text._DRV_GMAC_GetTxOctetHigh
                0x000000000041c76c        0xc build/sam_e70_xult_freertos/debug/_ext/1619526243/drv_gmac.o

.text._DRV_GMAC_GetTxFrameCount%874
                0x000000000041c778        0xc
 .text._DRV_GMAC_GetTxFrameCount
                0x000000000041c778        0xc build/sam_e70_xult_freertos/debug/_ext/1619526243/drv_gmac.o

.text._DRV_GMAC_GetTxBCastFrameCount%875
                0x000000000041c784        0xc
 .text._DRV_GMAC_GetTxBCastFrameCount
                0x000000000041c784        0xc build/sam_e70_xult_freertos/debug/_ext/1619526243/drv_gmac.o

.text._DRV_GMAC_GetTxMCastFrameCount%876
                0x000000000041c790        0xc
 .text._DRV_GMAC_GetTxMCastFrameCount
                0x000000000041c790        0xc build/sam_e70_xult_freertos/debug/_ext/1619526243/drv_gmac.o

.text._DRV_GMAC_GetTxPauseFrameCount%877
                0x000000000041c79c        0xc
 .text._DRV_GMAC_GetTxPauseFrameCount
                0x000000000041c79c        0xc build/sam_e70_xult_freertos/debug/_ext/1619526243/drv_gmac.o

.text._DRV_GMAC_GetTx64ByteFrameCount%878
                0x000000000041c7a8        0xc
 .text._DRV_GMAC_GetTx64ByteFrameCount
                0x000000000041c7a8        0xc build/sam_e70_xult_freertos/debug/_ext/1619526243/drv_gmac.o

.text._DRV_GMAC_GetTx127ByteFrameCount%879
                0x000000000041c7b4        0xc
 .text._DRV_GMAC_GetTx127ByteFrameCount
                0x000000000041c7b4        0xc build/sam_e70_xult_freertos/debug/_ext/1619526243/drv_gmac.o

.text._DRV_GMAC_GetTx255ByteFrameCount%880
                0x000000000041c7c0        0xc
 .text._DRV_GMAC_GetTx255ByteFrameCount
                0x000000000041c7c0        0xc build/sam_e70_xult_freertos/debug/_ext/1619526243/drv_gmac.o

.text._DRV_GMAC_GetTx511ByteFrameCount%881
                0x000000000041c7cc        0xc
 .text._DRV_GMAC_GetTx511ByteFrameCount
                0x000000000041c7cc        0xc build/sam_e70_xult_freertos/debug/_ext/1619526243/drv_gmac.o

.text._DRV_GMAC_GetTx1023ByteFrameCount%882
                0x000000000041c7d8        0xc
 .text._DRV_GMAC_GetTx1023ByteFrameCount
                0x000000000041c7d8        0xc build/sam_e70_xult_freertos/debug/_ext/1619526243/drv_gmac.o

.text._DRV_GMAC_GetTx1518ByteFrameCount%883
                0x000000000041c7e4        0xc
 .text._DRV_GMAC_GetTx1518ByteFrameCount
                0x000000000041c7e4        0xc build/sam_e70_xult_freertos/debug/_ext/1619526243/drv_gmac.o

.text._DRV_GMAC_GetTxGT1518ByteFrameCount%884
                0x000000000041c7f0        0xc
 .text._DRV_GMAC_GetTxGT1518ByteFrameCount
                0x000000000041c7f0        0xc build/sam_e70_xult_freertos/debug/_ext/1619526243/drv_gmac.o

.text._DRV_GMAC_GetTxUnderRunFrameCount%885
                0x000000000041c7fc        0xc
 .text._DRV_GMAC_GetTxUnderRunFrameCount
                0x000000000041c7fc        0xc build/sam_e70_xult_freertos/debug/_ext/1619526243/drv_gmac.o

.text._DRV_GMAC_GetTxSingleCollFrameCount%886
                0x000000000041c808        0xc
 .text._DRV_GMAC_GetTxSingleCollFrameCount
                0x000000000041c808        0xc build/sam_e70_xult_freertos/debug/_ext/1619526243/drv_gmac.o

.text._DRV_GMAC_GetTxMultiCollFrameCount%887
                0x000000000041c814        0xc
 .text._DRV_GMAC_GetTxMultiCollFrameCount
                0x000000000041c814        0xc build/sam_e70_xult_freertos/debug/_ext/1619526243/drv_gmac.o

.text._DRV_GMAC_GetTxExcessCollFrameCount%888
                0x000000000041c820        0xc
 .text._DRV_GMAC_GetTxExcessCollFrameCount
                0x000000000041c820        0xc build/sam_e70_xult_freertos/debug/_ext/1619526243/drv_gmac.o

.text._DRV_GMAC_GetTxLateCollFrameCount%889
                0x000000000041c82c        0xc
 .text._DRV_GMAC_GetTxLateCollFrameCount
                0x000000000041c82c        0xc build/sam_e70_xult_freertos/debug/_ext/1619526243/drv_gmac.o

.text._DRV_GMAC_GetTxDeferFrameCount%890
                0x000000000041c838        0xc
 .text._DRV_GMAC_GetTxDeferFrameCount
                0x000000000041c838        0xc build/sam_e70_xult_freertos/debug/_ext/1619526243/drv_gmac.o

.text._DRV_GMAC_GetTxCSErrorFrameCount%891
                0x000000000041c844        0xc
 .text._DRV_GMAC_GetTxCSErrorFrameCount
                0x000000000041c844        0xc build/sam_e70_xult_freertos/debug/_ext/1619526243/drv_gmac.o

.text._DRV_GMAC_GetRxOctetLow%892
                0x000000000041c850        0xc
 .text._DRV_GMAC_GetRxOctetLow
                0x000000000041c850        0xc build/sam_e70_xult_freertos/debug/_ext/1619526243/drv_gmac.o

.text._DRV_GMAC_GetRxOctetHigh%893
                0x000000000041c85c        0xc
 .text._DRV_GMAC_GetRxOctetHigh
                0x000000000041c85c        0xc build/sam_e70_xult_freertos/debug/_ext/1619526243/drv_gmac.o

.text._DRV_GMAC_GetRxFrameCount%894
                0x000000000041c868        0xc
 .text._DRV_GMAC_GetRxFrameCount
                0x000000000041c868        0xc build/sam_e70_xult_freertos/debug/_ext/1619526243/drv_gmac.o

.text._DRV_GMAC_GetRxBCastFrameCount%895
                0x000000000041c874        0xc
 .text._DRV_GMAC_GetRxBCastFrameCount
                0x000000000041c874        0xc build/sam_e70_xult_freertos/debug/_ext/1619526243/drv_gmac.o

.text._DRV_GMAC_GetRxMCastFrameCount%896
                0x000000000041c880        0xc
 .text._DRV_GMAC_GetRxMCastFrameCount
                0x000000000041c880        0xc build/sam_e70_xult_freertos/debug/_ext/1619526243/drv_gmac.o

.text._DRV_GMAC_GetRxPauseFrameCount%897
                0x000000000041c88c        0xc
 .text._DRV_GMAC_GetRxPauseFrameCount
                0x000000000041c88c        0xc build/sam_e70_xult_freertos/debug/_ext/1619526243/drv_gmac.o

.text._DRV_GMAC_GetRx64ByteFrameCount%898
                0x000000000041c898        0xc
 .text._DRV_GMAC_GetRx64ByteFrameCount
                0x000000000041c898        0xc build/sam_e70_xult_freertos/debug/_ext/1619526243/drv_gmac.o

.text._DRV_GMAC_GetRx127ByteFrameCount%899
                0x000000000041c8a4        0xc
 .text._DRV_GMAC_GetRx127ByteFrameCount
                0x000000000041c8a4        0xc build/sam_e70_xult_freertos/debug/_ext/1619526243/drv_gmac.o

.text._DRV_GMAC_GetRx255ByteFrameCount%900
                0x000000000041c8b0        0xc
 .text._DRV_GMAC_GetRx255ByteFrameCount
                0x000000000041c8b0        0xc build/sam_e70_xult_freertos/debug/_ext/1619526243/drv_gmac.o

.text._DRV_GMAC_GetRx511ByteFrameCount%901
                0x000000000041c8bc        0xc
 .text._DRV_GMAC_GetRx511ByteFrameCount
                0x000000000041c8bc        0xc build/sam_e70_xult_freertos/debug/_ext/1619526243/drv_gmac.o

.text._DRV_GMAC_GetRx1023ByteFrameCount%902
                0x000000000041c8c8        0xc
 .text._DRV_GMAC_GetRx1023ByteFrameCount
                0x000000000041c8c8        0xc build/sam_e70_xult_freertos/debug/_ext/1619526243/drv_gmac.o

.text._DRV_GMAC_GetRx1518ByteFrameCount%903
                0x000000000041c8d4        0xc
 .text._DRV_GMAC_GetRx1518ByteFrameCount
                0x000000000041c8d4        0xc build/sam_e70_xult_freertos/debug/_ext/1619526243/drv_gmac.o

.text._DRV_GMAC_GetRxGT1518ByteFrameCount%904
                0x000000000041c8e0        0xc
 .text._DRV_GMAC_GetRxGT1518ByteFrameCount
                0x000000000041c8e0        0xc build/sam_e70_xult_freertos/debug/_ext/1619526243/drv_gmac.o

.text._DRV_GMAC_GetRxUnderSizeFrameCount%905
                0x000000000041c8ec        0xc
 .text._DRV_GMAC_GetRxUnderSizeFrameCount
                0x000000000041c8ec        0xc build/sam_e70_xult_freertos/debug/_ext/1619526243/drv_gmac.o

.text._DRV_GMAC_GetRxOverSizeFrameCount%906
                0x000000000041c8f8        0xc
 .text._DRV_GMAC_GetRxOverSizeFrameCount
                0x000000000041c8f8        0xc build/sam_e70_xult_freertos/debug/_ext/1619526243/drv_gmac.o

.text._DRV_GMAC_GetRxJabberFrameCount%907
                0x000000000041c904        0xc
 .text._DRV_GMAC_GetRxJabberFrameCount
                0x000000000041c904        0xc build/sam_e70_xult_freertos/debug/_ext/1619526243/drv_gmac.o

.text._DRV_GMAC_GetRxFCSErrorFrameCount%908
                0x000000000041c910        0xc
 .text._DRV_GMAC_GetRxFCSErrorFrameCount
                0x000000000041c910        0xc build/sam_e70_xult_freertos/debug/_ext/1619526243/drv_gmac.o

.text._DRV_GMAC_GetRxLFErrorFrameCount%909
                0x000000000041c91c        0xc
 .text._DRV_GMAC_GetRxLFErrorFrameCount
                0x000000000041c91c        0xc build/sam_e70_xult_freertos/debug/_ext/1619526243/drv_gmac.o

.text._DRV_GMAC_GetRxSymErrorFrameCount%910
                0x000000000041c928        0xc
 .text._DRV_GMAC_GetRxSymErrorFrameCount
                0x000000000041c928        0xc build/sam_e70_xult_freertos/debug/_ext/1619526243/drv_gmac.o

.text._DRV_GMAC_GetRxAlignErrorFrameCount%911
                0x000000000041c934        0xc
 .text._DRV_GMAC_GetRxAlignErrorFrameCount
                0x000000000041c934        0xc build/sam_e70_xult_freertos/debug/_ext/1619526243/drv_gmac.o

.text._DRV_GMAC_GetRxResErrorFrameCount%912
                0x000000000041c940        0xc
 .text._DRV_GMAC_GetRxResErrorFrameCount
                0x000000000041c940        0xc build/sam_e70_xult_freertos/debug/_ext/1619526243/drv_gmac.o

.text._DRV_GMAC_GetRxOverRunFrameCount%913
                0x000000000041c94c        0xc
 .text._DRV_GMAC_GetRxOverRunFrameCount
                0x000000000041c94c        0xc build/sam_e70_xult_freertos/debug/_ext/1619526243/drv_gmac.o

.text._DRV_GMAC_GetRxIPHdrCSErrorFrameCount%914
                0x000000000041c958        0xc
 .text._DRV_GMAC_GetRxIPHdrCSErrorFrameCount
                0x000000000041c958        0xc build/sam_e70_xult_freertos/debug/_ext/1619526243/drv_gmac.o

.text._DRV_GMAC_GetRxTCPCSErrorFrameCount%915
                0x000000000041c964        0xc
 .text._DRV_GMAC_GetRxTCPCSErrorFrameCount
                0x000000000041c964        0xc build/sam_e70_xult_freertos/debug/_ext/1619526243/drv_gmac.o

.text._DRV_GMAC_GetRxUDPCSErrorFrameCount%916
                0x000000000041c970        0xc
 .text._DRV_GMAC_GetRxUDPCSErrorFrameCount
                0x000000000041c970        0xc build/sam_e70_xult_freertos/debug/_ext/1619526243/drv_gmac.o

.text.btohexa_high%917
                0x000000000041c97c        0xc
 .text.btohexa_high
                0x000000000041c97c        0xc build/sam_e70_xult_freertos/debug/_ext/810785262/helpers.o
                0x000000000041c97c                btohexa_high

.text.TCPIP_DNS_OAHASH_KeyCompare%918
                0x000000000041c988        0xc
 .text.TCPIP_DNS_OAHASH_KeyCompare
                0x000000000041c988        0xc build/sam_e70_xult_freertos/debug/_ext/810785262/dns.o

.text.TCPIP_DNS_Enable%919
                0x000000000041c994        0xc
 .text.TCPIP_DNS_Enable
                0x000000000041c994        0xc build/sam_e70_xult_freertos/debug/_ext/810785262/dns.o
                0x000000000041c994                TCPIP_DNS_Enable

.text.TCPIP_ARP_HashKeyCompare%920
                0x000000000041c9a0        0xc
 .text.TCPIP_ARP_HashKeyCompare
                0x000000000041c9a0        0xc build/sam_e70_xult_freertos/debug/_ext/810785262/arp.o
                0x000000000041c9a0                TCPIP_ARP_HashKeyCompare

.text.TCPIP_STACK_NetDefaultGet%921
                0x000000000041c9ac        0xc
 .text.TCPIP_STACK_NetDefaultGet
                0x000000000041c9ac        0xc build/sam_e70_xult_freertos/debug/_ext/810785262/tcpip_manager.o
                0x000000000041c9ac                TCPIP_STACK_NetDefaultGet

.text.TCPIP_STACK_NumberOfNetworksGet%922
                0x000000000041c9b8        0xc
 .text.TCPIP_STACK_NumberOfNetworksGet
                0x000000000041c9b8        0xc build/sam_e70_xult_freertos/debug/_ext/810785262/tcpip_manager.o
                0x000000000041c9b8                TCPIP_STACK_NumberOfNetworksGet

.rodata.TCPIP_STACK_IF_ALIAS_NAME_TBL%923
                0x000000000041c9c4        0xc
 .rodata.TCPIP_STACK_IF_ALIAS_NAME_TBL
                0x000000000041c9c4        0xc build/sam_e70_xult_freertos/debug/_ext/810785262/tcpip_manager.o

.text.TCPIP_PKT_Deinitialize%924
                0x000000000041c9d0        0xc
 .text.TCPIP_PKT_Deinitialize
                0x000000000041c9d0        0xc build/sam_e70_xult_freertos/debug/_ext/810785262/tcpip_packet.o
                0x000000000041c9d0                TCPIP_PKT_Deinitialize

.text.TC0_CH0_TimerStart%925
                0x000000000041c9dc        0xc
 .text.TC0_CH0_TimerStart
                0x000000000041c9dc        0xc build/sam_e70_xult_freertos/debug/_ext/1245453995/plib_tc0.o
                0x000000000041c9dc                TC0_CH0_TimerStart

.text.TC0_CH0_TimerStop%926
                0x000000000041c9e8        0xc
 .text.TC0_CH0_TimerStop
                0x000000000041c9e8        0xc build/sam_e70_xult_freertos/debug/_ext/1245453995/plib_tc0.o
                0x000000000041c9e8                TC0_CH0_TimerStop

.text.TC0_CH0_TimerPeriodSet%927
                0x000000000041c9f4        0xc
 .text.TC0_CH0_TimerPeriodSet
                0x000000000041c9f4        0xc build/sam_e70_xult_freertos/debug/_ext/1245453995/plib_tc0.o
                0x000000000041c9f4                TC0_CH0_TimerPeriodSet

.text.TC0_CH0_TimerCompareSet%928
                0x000000000041ca00        0xc
 .text.TC0_CH0_TimerCompareSet
                0x000000000041ca00        0xc build/sam_e70_xult_freertos/debug/_ext/1245453995/plib_tc0.o
                0x000000000041ca00                TC0_CH0_TimerCompareSet

.text.TC0_CH0_TimerCounterGet%929
                0x000000000041ca0c        0xc
 .text.TC0_CH0_TimerCounterGet
                0x000000000041ca0c        0xc build/sam_e70_xult_freertos/debug/_ext/1245453995/plib_tc0.o
                0x000000000041ca0c                TC0_CH0_TimerCounterGet

.text.TC0_CH0_TimerCallbackRegister%930
                0x000000000041ca18        0xc
 .text.TC0_CH0_TimerCallbackRegister
                0x000000000041ca18        0xc build/sam_e70_xult_freertos/debug/_ext/1245453995/plib_tc0.o
                0x000000000041ca18                TC0_CH0_TimerCallbackRegister

.text.USART1_WriteCallbackRegister%931
                0x000000000041ca24        0xc
 .text.USART1_WriteCallbackRegister
                0x000000000041ca24        0xc build/sam_e70_xult_freertos/debug/_ext/901008055/plib_usart1.o
                0x000000000041ca24                USART1_WriteCallbackRegister

.text.USART1_ReadCallbackRegister%932
                0x000000000041ca30        0xc
 .text.USART1_ReadCallbackRegister
                0x000000000041ca30        0xc build/sam_e70_xult_freertos/debug/_ext/901008055/plib_usart1.o
                0x000000000041ca30                USART1_ReadCallbackRegister

.text.SYS_DEBUG_ErrorLevelGet%933
                0x000000000041ca3c        0xc
 .text.SYS_DEBUG_ErrorLevelGet
                0x000000000041ca3c        0xc build/sam_e70_xult_freertos/debug/_ext/762686499/sys_debug.o
                0x000000000041ca3c                SYS_DEBUG_ErrorLevelGet

.text.SYS_CMD_MESSAGE%934
                0x000000000041ca48        0xc
 .text.SYS_CMD_MESSAGE
                0x000000000041ca48        0xc build/sam_e70_xult_freertos/debug/_ext/762686499/sys_command.o
                0x000000000041ca48                SYS_CMD_MESSAGE

.text.SYS_TIME_FrequencyGet%935
                0x000000000041ca54        0xc
 .text.SYS_TIME_FrequencyGet
                0x000000000041ca54        0xc build/sam_e70_xult_freertos/debug/_ext/912870411/sys_time.o
                0x000000000041ca54                SYS_TIME_FrequencyGet

.rodata.sysConsole0Init%936
                0x000000000041ca60        0xc
 .rodata.sysConsole0Init
                0x000000000041ca60        0xc build/sam_e70_xult_freertos/debug/_ext/1552905064/initialization.o
                0x000000000041ca60                sysConsole0Init

.text.vTaskMissedYield%937
                0x000000000041ca6c        0xc
 .text.vTaskMissedYield
                0x000000000041ca6c        0xc build/sam_e70_xult_freertos/debug/_ext/404212886/FreeRTOS_tasks.o
                0x000000000041ca6c                vTaskMissedYield

.text.atexit%938
                0x000000000041ca78        0xc
 .text.atexit   0x000000000041ca78        0xc /Applications/microchip/xc32/v2.15/bin/bin/../../lib/gcc/pic32c/6.2.1/../../../../pic32c/lib/v7e-m/fpv5/hard/libg.a(lib_a-atexit.o)
                0x000000000041ca78                atexit

.rodata.p05.7179%939
                0x000000000041ca84        0xc
 .rodata.p05.7179
                0x000000000041ca84        0xc /Applications/microchip/xc32/v2.15/bin/bin/../../lib/gcc/pic32c/6.2.1/../../../../pic32c/lib/v7e-m/fpv5/hard/libg.a(lib_a-mprec.o)

.text.GMAC_InterruptHandler%940
                0x000000000041ca90        0xa
 .text.GMAC_InterruptHandler
                0x000000000041ca90        0xa build/sam_e70_xult_freertos/debug/_ext/1619526243/drv_gmac.o
                0x000000000041ca90                GMAC_InterruptHandler

.text.TCPIP_DNS_Resolve%941
                0x000000000041ca9a        0xa
 .text.TCPIP_DNS_Resolve
                0x000000000041ca9a        0xa build/sam_e70_xult_freertos/debug/_ext/810785262/dns.o
                0x000000000041ca9a                TCPIP_DNS_Resolve

.text._Command_ZcllOnOff%942
                0x000000000041caa4        0xa
 .text._Command_ZcllOnOff
                0x000000000041caa4        0xa build/sam_e70_xult_freertos/debug/_ext/810785262/tcpip_commands.o

.text._Command_DHCPSOnOff%943
                0x000000000041caae        0xa
 .text._Command_DHCPSOnOff
                0x000000000041caae        0xa build/sam_e70_xult_freertos/debug/_ext/810785262/tcpip_commands.o

.text.TCPIP_Helper_SingleListInitialize%944
                0x000000000041cab8        0xa
 .text.TCPIP_Helper_SingleListInitialize
                0x000000000041cab8        0xa build/sam_e70_xult_freertos/debug/_ext/810785262/tcpip_helpers.o
                0x000000000041cab8                TCPIP_Helper_SingleListInitialize

.text.TCPIP_STACK_NetBIOSName%945
                0x000000000041cac2        0xa
 .text.TCPIP_STACK_NetBIOSName
                0x000000000041cac2        0xa build/sam_e70_xult_freertos/debug/_ext/810785262/tcpip_manager.o
                0x000000000041cac2                TCPIP_STACK_NetBIOSName

.text._TCPIPStackAddressServiceIsRunning%946
                0x000000000041cacc        0xa
 .text._TCPIPStackAddressServiceIsRunning
                0x000000000041cacc        0xa build/sam_e70_xult_freertos/debug/_ext/810785262/tcpip_manager.o
                0x000000000041cacc                _TCPIPStackAddressServiceIsRunning

.text.TCPIP_UDP_ClientOpen%947
                0x000000000041cad6        0xa
 .text.TCPIP_UDP_ClientOpen
                0x000000000041cad6        0xa build/sam_e70_xult_freertos/debug/_ext/810785262/udp.o
                0x000000000041cad6                TCPIP_UDP_ClientOpen

.text._DRV_ETHPHY_ClientOpSmiScan%948
                0x000000000041cae0        0x8
 .text._DRV_ETHPHY_ClientOpSmiScan
                0x000000000041cae0        0x8 build/sam_e70_xult_freertos/debug/_ext/1607428259/drv_ethphy.o

.text.DRV_EXTPHY_SMIClockGet%949
                0x000000000041cae8        0x8
 .text.DRV_EXTPHY_SMIClockGet
                0x000000000041cae8        0x8 build/sam_e70_xult_freertos/debug/_ext/1607428259/drv_extphy_smsc8740.o

.text.DRV_GMAC_EventPendingGet%950
                0x000000000041caf0        0x8
 .text.DRV_GMAC_EventPendingGet
                0x000000000041caf0        0x8 build/sam_e70_xult_freertos/debug/_ext/1619526243/drv_gmac.o
                0x000000000041caf0                DRV_GMAC_EventPendingGet

.text.TCPIP_HEAP_MallocOutline%951
                0x000000000041caf8        0x8
 .text.TCPIP_HEAP_MallocOutline
                0x000000000041caf8        0x8 build/sam_e70_xult_freertos/debug/_ext/810785262/tcpip_heap_alloc.o
                0x000000000041caf8                TCPIP_HEAP_MallocOutline

.text.TCPIP_HEAP_CallocOutline%952
                0x000000000041cb00        0x8
 .text.TCPIP_HEAP_CallocOutline
                0x000000000041cb00        0x8 build/sam_e70_xult_freertos/debug/_ext/810785262/tcpip_heap_alloc.o
                0x000000000041cb00                TCPIP_HEAP_CallocOutline

.text.TCPIP_HEAP_FreeOutline%953
                0x000000000041cb08        0x8
 .text.TCPIP_HEAP_FreeOutline
                0x000000000041cb08        0x8 build/sam_e70_xult_freertos/debug/_ext/810785262/tcpip_heap_alloc.o
                0x000000000041cb08                TCPIP_HEAP_FreeOutline

.text.TCPIP_STACK_GatewayAddressSet%954
                0x000000000041cb10        0x8
 .text.TCPIP_STACK_GatewayAddressSet
                0x000000000041cb10        0x8 build/sam_e70_xult_freertos/debug/_ext/810785262/tcpip_manager.o
                0x000000000041cb10                TCPIP_STACK_GatewayAddressSet

.text.TCPIP_STACK_PrimaryDNSAddressSet%955
                0x000000000041cb18        0x8
 .text.TCPIP_STACK_PrimaryDNSAddressSet
                0x000000000041cb18        0x8 build/sam_e70_xult_freertos/debug/_ext/810785262/tcpip_manager.o
                0x000000000041cb18                TCPIP_STACK_PrimaryDNSAddressSet

.text.TCPIP_STACK_SecondaryDNSAddressSet%956
                0x000000000041cb20        0x8
 .text.TCPIP_STACK_SecondaryDNSAddressSet
                0x000000000041cb20        0x8 build/sam_e70_xult_freertos/debug/_ext/810785262/tcpip_manager.o
                0x000000000041cb20                TCPIP_STACK_SecondaryDNSAddressSet

.text.TCPIP_STACK_NetGetType%957
                0x000000000041cb28        0x8
 .text.TCPIP_STACK_NetGetType
                0x000000000041cb28        0x8 build/sam_e70_xult_freertos/debug/_ext/810785262/tcpip_manager.o
                0x000000000041cb28                TCPIP_STACK_NetGetType

.text.TCPIP_Notification_Initialize%958
                0x000000000041cb30        0x8
 .text.TCPIP_Notification_Initialize
                0x000000000041cb30        0x8 build/sam_e70_xult_freertos/debug/_ext/810785262/tcpip_notify.o
                0x000000000041cb30                TCPIP_Notification_Initialize

.text.TCPIP_UDP_TxPutIsReady%959
                0x000000000041cb38        0x8
 .text.TCPIP_UDP_TxPutIsReady
                0x000000000041cb38        0x8 build/sam_e70_xult_freertos/debug/_ext/810785262/udp.o
                0x000000000041cb38                TCPIP_UDP_TxPutIsReady

.text.TC0_CH0_TimerFrequencyGet%960
                0x000000000041cb40        0x8
 .text.TC0_CH0_TimerFrequencyGet
                0x000000000041cb40        0x8 build/sam_e70_xult_freertos/debug/_ext/1245453995/plib_tc0.o
                0x000000000041cb40                TC0_CH0_TimerFrequencyGet

.rodata.drvMiimInitData%961
                0x000000000041cb48        0x8
 .rodata.drvMiimInitData
                0x000000000041cb48        0x8 build/sam_e70_xult_freertos/debug/_ext/1552905064/initialization.o

.rodata.sysTimeInitData%962
                0x000000000041cb50        0x8
 .rodata.sysTimeInitData
                0x000000000041cb50        0x8 build/sam_e70_xult_freertos/debug/_ext/1552905064/initialization.o
                0x000000000041cb50                sysTimeInitData

.rodata.tcpipTCPInitData%963
                0x000000000041cb58        0x8
 .rodata.tcpipTCPInitData
                0x000000000041cb58        0x8 build/sam_e70_xult_freertos/debug/_ext/1552905064/initialization.o
                0x000000000041cb58                tcpipTCPInitData

.rodata.tcpipUDPInitData%964
                0x000000000041cb60        0x8
 .rodata.tcpipUDPInitData
                0x000000000041cb60        0x8 build/sam_e70_xult_freertos/debug/_ext/1552905064/initialization.o
                0x000000000041cb60                tcpipUDPInitData

.text.vQueueDelete%965
                0x000000000041cb68        0x8
 .text.vQueueDelete
                0x000000000041cb68        0x8 build/sam_e70_xult_freertos/debug/_ext/404212886/queue.o
                0x000000000041cb68                vQueueDelete

.rodata%966     0x000000000041cb70        0x8
 .rodata        0x000000000041cb70        0x8 build/sam_e70_xult_freertos/debug/_ext/404212886/FreeRTOS_tasks.o

.text.atoi%967  0x000000000041cb78        0x8
 .text.atoi     0x000000000041cb78        0x8 /Applications/microchip/xc32/v2.15/bin/bin/../../lib/gcc/pic32c/6.2.1/../../../../pic32c/lib/v7e-m/fpv5/hard/libg.a(lib_a-atoi.o)
                0x000000000041cb78                atoi

.text.__locale_ctype_ptr_l%968
                0x000000000041cb80        0x8
 .text.__locale_ctype_ptr_l
                0x000000000041cb80        0x8 /Applications/microchip/xc32/v2.15/bin/bin/../../lib/gcc/pic32c/6.2.1/../../../../pic32c/lib/v7e-m/fpv5/hard/libg.a(lib_a-locale.o)
                0x000000000041cb80                __locale_ctype_ptr_l

.text.DRV_ETHPHY_SMIRead%969
                0x000000000041cb88        0x6
 .text.DRV_ETHPHY_SMIRead
                0x000000000041cb88        0x6 build/sam_e70_xult_freertos/debug/_ext/1607428259/drv_ethphy.o
                0x000000000041cb88                DRV_ETHPHY_SMIRead

.text.DRV_ETHPHY_SMIWrite%970
                0x000000000041cb8e        0x6
 .text.DRV_ETHPHY_SMIWrite
                0x000000000041cb8e        0x6 build/sam_e70_xult_freertos/debug/_ext/1607428259/drv_ethphy.o
                0x000000000041cb8e                DRV_ETHPHY_SMIWrite

.text.DRV_ETHPHY_SMIScanStart%971
                0x000000000041cb94        0x6
 .text.DRV_ETHPHY_SMIScanStart
                0x000000000041cb94        0x6 build/sam_e70_xult_freertos/debug/_ext/1607428259/drv_ethphy.o
                0x000000000041cb94                DRV_ETHPHY_SMIScanStart

.text.DRV_ETHPHY_SMIScanStop%972
                0x000000000041cb9a        0x6
 .text.DRV_ETHPHY_SMIScanStop
                0x000000000041cb9a        0x6 build/sam_e70_xult_freertos/debug/_ext/1607428259/drv_ethphy.o
                0x000000000041cb9a                DRV_ETHPHY_SMIScanStop

.text.DRV_ETHPHY_SMIScanStatusGet%973
                0x000000000041cba0        0x6
 .text.DRV_ETHPHY_SMIScanStatusGet
                0x000000000041cba0        0x6 build/sam_e70_xult_freertos/debug/_ext/1607428259/drv_ethphy.o
                0x000000000041cba0                DRV_ETHPHY_SMIScanStatusGet

.text.DRV_ETHPHY_SMIScanDataGet%974
                0x000000000041cba6        0x6
 .text.DRV_ETHPHY_SMIScanDataGet
                0x000000000041cba6        0x6 build/sam_e70_xult_freertos/debug/_ext/1607428259/drv_ethphy.o
                0x000000000041cba6                DRV_ETHPHY_SMIScanDataGet

.text.DRV_ETHPHY_SMIStatus%975
                0x000000000041cbac        0x6
 .text.DRV_ETHPHY_SMIStatus
                0x000000000041cbac        0x6 build/sam_e70_xult_freertos/debug/_ext/1607428259/drv_ethphy.o
                0x000000000041cbac                DRV_ETHPHY_SMIStatus

.text.DRV_ETHPHY_SMIClockSet%976
                0x000000000041cbb2        0x6
 .text.DRV_ETHPHY_SMIClockSet
                0x000000000041cbb2        0x6 build/sam_e70_xult_freertos/debug/_ext/1607428259/drv_ethphy.o
                0x000000000041cbb2                DRV_ETHPHY_SMIClockSet

.text.TCPIP_ARP_HashKeyCopy%977
                0x000000000041cbb8        0x6
 .text.TCPIP_ARP_HashKeyCopy
                0x000000000041cbb8        0x6 build/sam_e70_xult_freertos/debug/_ext/810785262/arp.o
                0x000000000041cbb8                TCPIP_ARP_HashKeyCopy

.text.vListInitialiseItem%978
                0x000000000041cbbe        0x6
 .text.vListInitialiseItem
                0x000000000041cbbe        0x6 build/sam_e70_xult_freertos/debug/_ext/404212886/list.o
                0x000000000041cbbe                vListInitialiseItem

.text.DRV_GMAC_PowerMode%979
                0x0000000000400194        0x4
 .text.DRV_GMAC_PowerMode
                0x0000000000400194        0x4 build/sam_e70_xult_freertos/debug/_ext/1619526243/drv_gmac.o
                0x0000000000400194                DRV_GMAC_PowerMode

.text._DHCPOptionProcessEnd%980
                0x000000000040537c        0x4
 .text._DHCPOptionProcessEnd
                0x000000000040537c        0x4 build/sam_e70_xult_freertos/debug/_ext/810785262/dhcp.o

.rodata._DHCPRequestParamsTbl%981
                0x000000000041726c        0x4
 .rodata._DHCPRequestParamsTbl
                0x000000000041726c        0x4 build/sam_e70_xult_freertos/debug/_ext/810785262/dhcp.o

.rodata.dhcpMagicCookie%982
                0x0000000000419bb4        0x4
 .rodata.dhcpMagicCookie
                0x0000000000419bb4        0x4 build/sam_e70_xult_freertos/debug/_ext/810785262/dhcp.o

.text.TCPIP_IPV4_IsFragmentationEnabled%983
                0x000000000041cbc4        0x4
 .text.TCPIP_IPV4_IsFragmentationEnabled
                0x000000000041cbc4        0x4 build/sam_e70_xult_freertos/debug/_ext/810785262/ipv4.o
                0x000000000041cbc4                TCPIP_IPV4_IsFragmentationEnabled

.text.GetCommandCharacter%984
                0x000000000041cbc8        0x4
 .text.GetCommandCharacter
                0x000000000041cbc8        0x4 build/sam_e70_xult_freertos/debug/_ext/762686499/sys_command.o

.rodata._seqDownArrow%985
                0x000000000041cbcc        0x4
 .rodata._seqDownArrow
                0x000000000041cbcc        0x4 build/sam_e70_xult_freertos/debug/_ext/762686499/sys_command.o

.rodata._seqLeftArrow%986
                0x000000000041cbd0        0x4
 .rodata._seqLeftArrow
                0x000000000041cbd0        0x4 build/sam_e70_xult_freertos/debug/_ext/762686499/sys_command.o

.rodata._seqRightArrow%987
                0x000000000041cbd4        0x4
 .rodata._seqRightArrow
                0x000000000041cbd4        0x4 build/sam_e70_xult_freertos/debug/_ext/762686499/sys_command.o

.rodata._seqUpArrow%988
                0x000000000041cbd8        0x4
 .rodata._seqUpArrow
                0x000000000041cbd8        0x4 build/sam_e70_xult_freertos/debug/_ext/762686499/sys_command.o

.rodata.debugInit%989
                0x000000000041cbdc        0x4
 .rodata.debugInit
                0x000000000041cbdc        0x4 build/sam_e70_xult_freertos/debug/_ext/1552905064/initialization.o
                0x000000000041cbdc                debugInit

.rodata.sysCmdInit%990
                0x000000000041cbe0        0x4
 .rodata.sysCmdInit
                0x000000000041cbe0        0x4 build/sam_e70_xult_freertos/debug/_ext/1552905064/initialization.o
                0x000000000041cbe0                sysCmdInit

.text.Dummy_Handler%991
                0x000000000041cbe4        0x4
 .text.Dummy_Handler
                0x000000000041cbe4        0x4 build/sam_e70_xult_freertos/debug/_ext/1552905064/interrupts.o
                0x000000000041cbe4                SPI0_Handler
                0x000000000041cbe4                TC0_CH2_Handler
                0x000000000041cbe4                TC3_CH1_Handler
                0x000000000041cbe4                UART3_Handler
                0x000000000041cbe4                UART2_Handler
                0x000000000041cbe4                TRNG_Handler
                0x000000000041cbe4                AFEC1_Handler
                0x000000000041cbe4                TC0_CH1_Handler
                0x000000000041cbe4                QSPI_Handler
                0x000000000041cbe4                ISI_Handler
                0x000000000041cbe4                MCAN0_INT0_Handler
                0x000000000041cbe4                RSWDT_Handler
                0x000000000041cbe4                USART0_Handler
                0x000000000041cbe4                TC1_CH2_Handler
                0x000000000041cbe4                RTT_Handler
                0x000000000041cbe4                USBHS_Handler
                0x000000000041cbe4                IXC_Handler
                0x000000000041cbe4                CCF_Handler
                0x000000000041cbe4                PIOB_Handler
                0x000000000041cbe4                RTC_Handler
                0x000000000041cbe4                WDT_Handler
                0x000000000041cbe4                MCAN1_INT1_Handler
                0x000000000041cbe4                HSMCI_Handler
                0x000000000041cbe4                UART1_Handler
                0x000000000041cbe4                Dummy_Handler
                0x000000000041cbe4                TWIHS1_Handler
                0x000000000041cbe4                TC3_CH2_Handler
                0x000000000041cbe4                XDMAC_Handler
                0x000000000041cbe4                UART4_Handler
                0x000000000041cbe4                TC2_CH0_Handler
                0x000000000041cbe4                PWM1_Handler
                0x000000000041cbe4                PWM0_Handler
                0x000000000041cbe4                PIOA_Handler
                0x000000000041cbe4                AFEC0_Handler
                0x000000000041cbe4                CCW_Handler
                0x000000000041cbe4                TC3_CH0_Handler
                0x000000000041cbe4                SSC_Handler
                0x000000000041cbe4                TC1_CH0_Handler
                0x000000000041cbe4                ACC_Handler
                0x000000000041cbe4                PMC_Handler
                0x000000000041cbe4                TC2_CH2_Handler
                0x000000000041cbe4                MCAN0_INT1_Handler
                0x000000000041cbe4                GMAC_Q5_Handler
                0x000000000041cbe4                SUPC_Handler
                0x000000000041cbe4                TC2_CH1_Handler
                0x000000000041cbe4                MCAN1_INT0_Handler
                0x000000000041cbe4                EFC_Handler
                0x000000000041cbe4                GMAC_Q1_Handler
                0x000000000041cbe4                USART2_Handler
                0x000000000041cbe4                SDRAMC_Handler
                0x000000000041cbe4                GMAC_Q2_Handler
                0x000000000041cbe4                PIOE_Handler
                0x000000000041cbe4                SPI1_Handler
                0x000000000041cbe4                TC1_CH1_Handler
                0x000000000041cbe4                GMAC_Q3_Handler
                0x000000000041cbe4                PIOD_Handler
                0x000000000041cbe4                TWIHS2_Handler
                0x000000000041cbe4                I2SC0_Handler
                0x000000000041cbe4                UART0_Handler
                0x000000000041cbe4                I2SC1_Handler
                0x000000000041cbe4                PIOC_Handler
                0x000000000041cbe4                GMAC_Q4_Handler
                0x000000000041cbe4                FPU_Handler
                0x000000000041cbe4                RSTC_Handler
                0x000000000041cbe4                ICM_Handler
                0x000000000041cbe4                AES_Handler
                0x000000000041cbe4                TWIHS0_Handler
                0x000000000041cbe4                DACC_Handler

.text.NonMaskableInt_Handler%992
                0x000000000041cbe8        0x4
 .text.NonMaskableInt_Handler
                0x000000000041cbe8        0x4 build/sam_e70_xult_freertos/debug/_ext/1552905064/exceptions.o
                0x000000000041cbe8                NonMaskableInt_Handler

.text.HardFault_Handler%993
                0x000000000041cbec        0x4
 .text.HardFault_Handler
                0x000000000041cbec        0x4 build/sam_e70_xult_freertos/debug/_ext/1552905064/exceptions.o
                0x000000000041cbec                HardFault_Handler

.text.DebugMonitor_Handler%994
                0x000000000041cbf0        0x4
 .text.DebugMonitor_Handler
                0x000000000041cbf0        0x4 build/sam_e70_xult_freertos/debug/_ext/1552905064/exceptions.o
                0x000000000041cbf0                DebugMonitor_Handler

.text.MemoryManagement_Handler%995
                0x000000000041cbf4        0x4
 .text.MemoryManagement_Handler
                0x000000000041cbf4        0x4 build/sam_e70_xult_freertos/debug/_ext/1552905064/exceptions.o
                0x000000000041cbf4                MemoryManagement_Handler

.text.BusFault_Handler%996
                0x000000000041cbf8        0x4
 .text.BusFault_Handler
                0x000000000041cbf8        0x4 build/sam_e70_xult_freertos/debug/_ext/1552905064/exceptions.o
                0x000000000041cbf8                BusFault_Handler

.text.UsageFault_Handler%997
                0x000000000041cbfc        0x4
 .text.UsageFault_Handler
                0x000000000041cbfc        0x4 build/sam_e70_xult_freertos/debug/_ext/1552905064/exceptions.o
                0x000000000041cbfc                UsageFault_Handler

.text%998       0x000000000041cc00        0x4
 .text          0x000000000041cc00        0x4 /Applications/microchip/xc32/v2.15/bin/bin/../../lib/gcc/pic32c/6.2.1/v7e-m/fpv5/hard/libgcc.a(_dvmd_tls.o)
                0x000000000041cc00                __aeabi_ldiv0
                0x000000000041cc00                __aeabi_idiv0

.rodata._global_impure_ptr%999
                0x000000000041cc04        0x4
 .rodata._global_impure_ptr
                0x000000000041cc04        0x4 /Applications/microchip/xc32/v2.15/bin/bin/../../lib/gcc/pic32c/6.2.1/../../../../pic32c/lib/v7e-m/fpv5/hard/libg.a(lib_a-impure.o)
                0x000000000041cc04                _global_impure_ptr

.text.__malloc_lock%1000
                0x000000000041cc08        0x4
 .text.__malloc_lock
                0x000000000041cc08        0x4 /Applications/microchip/xc32/v2.15/bin/bin/../../lib/gcc/pic32c/6.2.1/../../../../pic32c/lib/v7e-m/fpv5/hard/libg.a(lib_a-mlock.o)
                0x000000000041cc08                __malloc_lock

.text.__malloc_unlock%1001
                0x000000000041cc0c        0x4
 .text.__malloc_unlock
                0x000000000041cc0c        0x4 /Applications/microchip/xc32/v2.15/bin/bin/../../lib/gcc/pic32c/6.2.1/../../../../pic32c/lib/v7e-m/fpv5/hard/libg.a(lib_a-mlock.o)
                0x000000000041cc0c                __malloc_unlock

.text._DRV_ETHPHY_ClientOpNone%1002
                0x000000000040c18a        0x2
 .text._DRV_ETHPHY_ClientOpNone
                0x000000000040c18a        0x2 build/sam_e70_xult_freertos/debug/_ext/1607428259/drv_ethphy.o

.text.DRV_GMAC_Reinitialize%1003
                0x000000000040f4a6        0x2
 .text.DRV_GMAC_Reinitialize
                0x000000000040f4a6        0x2 build/sam_e70_xult_freertos/debug/_ext/1619526243/drv_gmac.o
                0x000000000040f4a6                DRV_GMAC_Reinitialize

.text.DRV_MIIM_Reinitialize%1004
                0x0000000000410352        0x2
 .text.DRV_MIIM_Reinitialize
                0x0000000000410352        0x2 build/sam_e70_xult_freertos/debug/_ext/511568427/drv_miim.o
                0x0000000000410352                DRV_MIIM_Reinitialize

.text._TCPIP_HEAP_BufferMapNonCached%1005
                0x0000000000410682        0x2
 .text._TCPIP_HEAP_BufferMapNonCached
                0x0000000000410682        0x2 build/sam_e70_xult_freertos/debug/_ext/810785262/tcpip_heap_alloc.o
                0x0000000000410682                _TCPIP_HEAP_BufferMapNonCached

.text.Console_UART_Tasks%1006
                0x000000000041117a        0x2
 .text.Console_UART_Tasks
                0x000000000041117a        0x2 build/sam_e70_xult_freertos/debug/_ext/762686499/sys_console_uart.o
                0x000000000041117a                Console_UART_Tasks
