Archive member included to satisfy reference by file (symbol)

c:/program files (x86)/microchip/xc32/v2.15/bin/bin/../../lib/gcc/pic32c/6.2.1/../../../../pic32c/lib/v7e-m/fpv5/hard\libpic32c.a(data_init.o)
                              build/sam_e70_xult_freertos/production/_ext/1552905064/startup_xc32.o (__pic32c_data_initialization)
c:/program files (x86)/microchip/xc32/v2.15/bin/bin/../../lib/gcc/pic32c/6.2.1/v7e-m/fpv5/hard\libgcc.a(_aeabi_uldivmod.o)
                              build/sam_e70_xult_freertos/production/_ext/1607428259/drv_ethphy.o (__aeabi_uldivmod)
c:/program files (x86)/microchip/xc32/v2.15/bin/bin/../../lib/gcc/pic32c/6.2.1/v7e-m/fpv5/hard\libgcc.a(_udivmoddi4.o)
                              c:/program files (x86)/microchip/xc32/v2.15/bin/bin/../../lib/gcc/pic32c/6.2.1/v7e-m/fpv5/hard\libgcc.a(_aeabi_uldivmod.o) (__udivmoddi4)
c:/program files (x86)/microchip/xc32/v2.15/bin/bin/../../lib/gcc/pic32c/6.2.1/v7e-m/fpv5/hard\libgcc.a(_dvmd_tls.o)
                              c:/program files (x86)/microchip/xc32/v2.15/bin/bin/../../lib/gcc/pic32c/6.2.1/v7e-m/fpv5/hard\libgcc.a(_aeabi_uldivmod.o) (__aeabi_ldiv0)
c:/program files (x86)/microchip/xc32/v2.15/bin/bin/../../lib/gcc/pic32c/6.2.1/../../../../pic32c/lib/v7e-m/fpv5/hard\libc.a(lib_a-atoi.o)
                              build/sam_e70_xult_freertos/production/_ext/810785262/tcpip_commands.o (atoi)
c:/program files (x86)/microchip/xc32/v2.15/bin/bin/../../lib/gcc/pic32c/6.2.1/../../../../pic32c/lib/v7e-m/fpv5/hard\libc.a(lib_a-calloc.o)
                              build/sam_e70_xult_freertos/production/_ext/1552905064/initialization.o (calloc)
c:/program files (x86)/microchip/xc32/v2.15/bin/bin/../../lib/gcc/pic32c/6.2.1/../../../../pic32c/lib/v7e-m/fpv5/hard\libc.a(lib_a-callocr.o)
                              c:/program files (x86)/microchip/xc32/v2.15/bin/bin/../../lib/gcc/pic32c/6.2.1/../../../../pic32c/lib/v7e-m/fpv5/hard\libc.a(lib_a-calloc.o) (_calloc_r)
c:/program files (x86)/microchip/xc32/v2.15/bin/bin/../../lib/gcc/pic32c/6.2.1/../../../../pic32c/lib/v7e-m/fpv5/hard\libc.a(lib_a-exit.o)
                              c:/program files (x86)/microchip/xc32/v2.15/bin/bin/../../lib/gcc/pic32c/6.2.1/../../../../pic32c/lib/v7e-m/fpv5/hard/crt0.o (exit)
c:/program files (x86)/microchip/xc32/v2.15/bin/bin/../../lib/gcc/pic32c/6.2.1/../../../../pic32c/lib/v7e-m/fpv5/hard\libc.a(lib_a-impure.o)
                              c:/program files (x86)/microchip/xc32/v2.15/bin/bin/../../lib/gcc/pic32c/6.2.1/../../../../pic32c/lib/v7e-m/fpv5/hard\libc.a(lib_a-exit.o) (_global_impure_ptr)
c:/program files (x86)/microchip/xc32/v2.15/bin/bin/../../lib/gcc/pic32c/6.2.1/../../../../pic32c/lib/v7e-m/fpv5/hard\libc.a(lib_a-init.o)
                              c:/program files (x86)/microchip/xc32/v2.15/bin/bin/../../lib/gcc/pic32c/6.2.1/../../../../pic32c/lib/v7e-m/fpv5/hard/crt0.o (__libc_init_array)
c:/program files (x86)/microchip/xc32/v2.15/bin/bin/../../lib/gcc/pic32c/6.2.1/../../../../pic32c/lib/v7e-m/fpv5/hard\libc.a(lib_a-locale.o)
                              build/sam_e70_xult_freertos/production/_ext/810785262/helpers.o (__locale_ctype_ptr)
c:/program files (x86)/microchip/xc32/v2.15/bin/bin/../../lib/gcc/pic32c/6.2.1/../../../../pic32c/lib/v7e-m/fpv5/hard\libc.a(lib_a-malloc.o)
                              build/sam_e70_xult_freertos/production/_ext/762686499/sys_command.o (malloc)
c:/program files (x86)/microchip/xc32/v2.15/bin/bin/../../lib/gcc/pic32c/6.2.1/../../../../pic32c/lib/v7e-m/fpv5/hard\libc.a(lib_a-mallocr.o)
                              c:/program files (x86)/microchip/xc32/v2.15/bin/bin/../../lib/gcc/pic32c/6.2.1/../../../../pic32c/lib/v7e-m/fpv5/hard\libc.a(lib_a-callocr.o) (_malloc_r)
c:/program files (x86)/microchip/xc32/v2.15/bin/bin/../../lib/gcc/pic32c/6.2.1/../../../../pic32c/lib/v7e-m/fpv5/hard\libc.a(lib_a-mbtowc_r.o)
                              c:/program files (x86)/microchip/xc32/v2.15/bin/bin/../../lib/gcc/pic32c/6.2.1/../../../../pic32c/lib/v7e-m/fpv5/hard\libc.a(lib_a-locale.o) (__ascii_mbtowc)
c:/program files (x86)/microchip/xc32/v2.15/bin/bin/../../lib/gcc/pic32c/6.2.1/../../../../pic32c/lib/v7e-m/fpv5/hard\libc.a(lib_a-memcmp.o)
                              build/sam_e70_xult_freertos/production/_ext/1619526243/drv_gmac.o (memcmp)
c:/program files (x86)/microchip/xc32/v2.15/bin/bin/../../lib/gcc/pic32c/6.2.1/../../../../pic32c/lib/v7e-m/fpv5/hard\libc.a(lib_a-memcpy.o)
                              build/sam_e70_xult_freertos/production/_ext/1619526243/drv_gmac.o (memcpy)
c:/program files (x86)/microchip/xc32/v2.15/bin/bin/../../lib/gcc/pic32c/6.2.1/../../../../pic32c/lib/v7e-m/fpv5/hard\libc.a(lib_a-memset.o)
                              c:/program files (x86)/microchip/xc32/v2.15/bin/bin/../../lib/gcc/pic32c/6.2.1/../../../../pic32c/lib/v7e-m/fpv5/hard/crt0.o (memset)
c:/program files (x86)/microchip/xc32/v2.15/bin/bin/../../lib/gcc/pic32c/6.2.1/../../../../pic32c/lib/v7e-m/fpv5/hard\libc.a(lib_a-mlock.o)
                              c:/program files (x86)/microchip/xc32/v2.15/bin/bin/../../lib/gcc/pic32c/6.2.1/../../../../pic32c/lib/v7e-m/fpv5/hard\libc.a(lib_a-mallocr.o) (__malloc_lock)
c:/program files (x86)/microchip/xc32/v2.15/bin/bin/../../lib/gcc/pic32c/6.2.1/../../../../pic32c/lib/v7e-m/fpv5/hard\libc.a(lib_a-rand.o)
                              build/sam_e70_xult_freertos/production/_ext/810785262/dns.o (rand)
c:/program files (x86)/microchip/xc32/v2.15/bin/bin/../../lib/gcc/pic32c/6.2.1/../../../../pic32c/lib/v7e-m/fpv5/hard\libc.a(lib_a-sbrkr.o)
                              c:/program files (x86)/microchip/xc32/v2.15/bin/bin/../../lib/gcc/pic32c/6.2.1/../../../../pic32c/lib/v7e-m/fpv5/hard\libc.a(lib_a-mallocr.o) (_sbrk_r)
c:/program files (x86)/microchip/xc32/v2.15/bin/bin/../../lib/gcc/pic32c/6.2.1/../../../../pic32c/lib/v7e-m/fpv5/hard\libc.a(lib_a-snprintf.o)
                              build/sam_e70_xult_freertos/production/_ext/1360937237/app.o (snprintf)
c:/program files (x86)/microchip/xc32/v2.15/bin/bin/../../lib/gcc/pic32c/6.2.1/../../../../pic32c/lib/v7e-m/fpv5/hard\libc.a(lib_a-sprintf.o)
                              (sprintf)
c:/program files (x86)/microchip/xc32/v2.15/bin/bin/../../lib/gcc/pic32c/6.2.1/../../../../pic32c/lib/v7e-m/fpv5/hard\libc.a(lib_a-strcmp.o)
                              build/sam_e70_xult_freertos/production/_ext/810785262/dns.o (strcmp)
c:/program files (x86)/microchip/xc32/v2.15/bin/bin/../../lib/gcc/pic32c/6.2.1/../../../../pic32c/lib/v7e-m/fpv5/hard\libc.a(lib_a-strcpy.o)
                              build/sam_e70_xult_freertos/production/_ext/810785262/tcpip_commands.o (strcpy)
c:/program files (x86)/microchip/xc32/v2.15/bin/bin/../../lib/gcc/pic32c/6.2.1/../../../../pic32c/lib/v7e-m/fpv5/hard\libc.a(lib_a-strlen.o)
                              build/sam_e70_xult_freertos/production/_ext/810785262/helpers.o (strlen)
c:/program files (x86)/microchip/xc32/v2.15/bin/bin/../../lib/gcc/pic32c/6.2.1/../../../../pic32c/lib/v7e-m/fpv5/hard\libc.a(lib_a-strncat.o)
                              build/sam_e70_xult_freertos/production/_ext/1360937237/app.o (strncat)
c:/program files (x86)/microchip/xc32/v2.15/bin/bin/../../lib/gcc/pic32c/6.2.1/../../../../pic32c/lib/v7e-m/fpv5/hard\libc.a(lib_a-strncpy.o)
                              build/sam_e70_xult_freertos/production/_ext/1619526243/drv_gmac.o (strncpy)
c:/program files (x86)/microchip/xc32/v2.15/bin/bin/../../lib/gcc/pic32c/6.2.1/../../../../pic32c/lib/v7e-m/fpv5/hard\libc.a(lib_a-strstr.o)
                              build/sam_e70_xult_freertos/production/_ext/1360937237/app.o (strstr)
c:/program files (x86)/microchip/xc32/v2.15/bin/bin/../../lib/gcc/pic32c/6.2.1/../../../../pic32c/lib/v7e-m/fpv5/hard\libc.a(lib_a-strtok.o)
                              build/sam_e70_xult_freertos/production/_ext/1360937237/app.o (strtok)
c:/program files (x86)/microchip/xc32/v2.15/bin/bin/../../lib/gcc/pic32c/6.2.1/../../../../pic32c/lib/v7e-m/fpv5/hard\libc.a(lib_a-strtok_r.o)
                              c:/program files (x86)/microchip/xc32/v2.15/bin/bin/../../lib/gcc/pic32c/6.2.1/../../../../pic32c/lib/v7e-m/fpv5/hard\libc.a(lib_a-strtok.o) (__strtok_r)
c:/program files (x86)/microchip/xc32/v2.15/bin/bin/../../lib/gcc/pic32c/6.2.1/../../../../pic32c/lib/v7e-m/fpv5/hard\libc.a(lib_a-strtol.o)
                              c:/program files (x86)/microchip/xc32/v2.15/bin/bin/../../lib/gcc/pic32c/6.2.1/../../../../pic32c/lib/v7e-m/fpv5/hard\libc.a(lib_a-atoi.o) (_strtol_r)
c:/program files (x86)/microchip/xc32/v2.15/bin/bin/../../lib/gcc/pic32c/6.2.1/../../../../pic32c/lib/v7e-m/fpv5/hard\libc.a(lib_a-svfprintf.o)
                              c:/program files (x86)/microchip/xc32/v2.15/bin/bin/../../lib/gcc/pic32c/6.2.1/../../../../pic32c/lib/v7e-m/fpv5/hard\libc.a(lib_a-snprintf.o) (_svfprintf_r)
c:/program files (x86)/microchip/xc32/v2.15/bin/bin/../../lib/gcc/pic32c/6.2.1/../../../../pic32c/lib/v7e-m/fpv5/hard\libc.a(lib_a-vsnprintf.o)
                              build/sam_e70_xult_freertos/production/_ext/762686499/sys_debug.o (vsnprintf)
c:/program files (x86)/microchip/xc32/v2.15/bin/bin/../../lib/gcc/pic32c/6.2.1/../../../../pic32c/lib/v7e-m/fpv5/hard\libc.a(lib_a-wctomb_r.o)
                              c:/program files (x86)/microchip/xc32/v2.15/bin/bin/../../lib/gcc/pic32c/6.2.1/../../../../pic32c/lib/v7e-m/fpv5/hard\libc.a(lib_a-locale.o) (__ascii_wctomb)
c:/program files (x86)/microchip/xc32/v2.15/bin/bin/../../lib/gcc/pic32c/6.2.1/../../../../pic32c/lib/v7e-m/fpv5/hard\libc.a(lib_a-__call_atexit.o)
                              c:/program files (x86)/microchip/xc32/v2.15/bin/bin/../../lib/gcc/pic32c/6.2.1/../../../../pic32c/lib/v7e-m/fpv5/hard\libc.a(lib_a-exit.o) (__call_exitprocs)
c:/program files (x86)/microchip/xc32/v2.15/bin/bin/../../lib/gcc/pic32c/6.2.1/../../../../pic32c/lib/v7e-m/fpv5/hard\libc.a(lib_a-atexit.o)
                              c:/program files (x86)/microchip/xc32/v2.15/bin/bin/../../lib/gcc/pic32c/6.2.1/../../../../pic32c/lib/v7e-m/fpv5/hard\libc.a(lib_a-__call_atexit.o) (atexit)
c:/program files (x86)/microchip/xc32/v2.15/bin/bin/../../lib/gcc/pic32c/6.2.1/../../../../pic32c/lib/v7e-m/fpv5/hard\libc.a(lib_a-ctype_.o)
                              c:/program files (x86)/microchip/xc32/v2.15/bin/bin/../../lib/gcc/pic32c/6.2.1/../../../../pic32c/lib/v7e-m/fpv5/hard\libc.a(lib_a-locale.o) (_ctype_)
c:/program files (x86)/microchip/xc32/v2.15/bin/bin/../../lib/gcc/pic32c/6.2.1/../../../../pic32c/lib/v7e-m/fpv5/hard\libc.a(lib_a-dtoa.o)
                              c:/program files (x86)/microchip/xc32/v2.15/bin/bin/../../lib/gcc/pic32c/6.2.1/../../../../pic32c/lib/v7e-m/fpv5/hard\libc.a(lib_a-svfprintf.o) (_dtoa_r)
c:/program files (x86)/microchip/xc32/v2.15/bin/bin/../../lib/gcc/pic32c/6.2.1/../../../../pic32c/lib/v7e-m/fpv5/hard\libc.a(lib_a-fini.o)
                              c:/program files (x86)/microchip/xc32/v2.15/bin/bin/../../lib/gcc/pic32c/6.2.1/../../../../pic32c/lib/v7e-m/fpv5/hard\libc.a(lib_a-__call_atexit.o) (__libc_fini_array)
c:/program files (x86)/microchip/xc32/v2.15/bin/bin/../../lib/gcc/pic32c/6.2.1/../../../../pic32c/lib/v7e-m/fpv5/hard\libc.a(lib_a-freer.o)
                              c:/program files (x86)/microchip/xc32/v2.15/bin/bin/../../lib/gcc/pic32c/6.2.1/../../../../pic32c/lib/v7e-m/fpv5/hard\libc.a(lib_a-malloc.o) (_free_r)
c:/program files (x86)/microchip/xc32/v2.15/bin/bin/../../lib/gcc/pic32c/6.2.1/../../../../pic32c/lib/v7e-m/fpv5/hard\libc.a(lib_a-localeconv.o)
                              c:/program files (x86)/microchip/xc32/v2.15/bin/bin/../../lib/gcc/pic32c/6.2.1/../../../../pic32c/lib/v7e-m/fpv5/hard\libc.a(lib_a-svfprintf.o) (_localeconv_r)
c:/program files (x86)/microchip/xc32/v2.15/bin/bin/../../lib/gcc/pic32c/6.2.1/../../../../pic32c/lib/v7e-m/fpv5/hard\libc.a(lib_a-memchr.o)
                              c:/program files (x86)/microchip/xc32/v2.15/bin/bin/../../lib/gcc/pic32c/6.2.1/../../../../pic32c/lib/v7e-m/fpv5/hard\libc.a(lib_a-strstr.o) (memchr)
c:/program files (x86)/microchip/xc32/v2.15/bin/bin/../../lib/gcc/pic32c/6.2.1/../../../../pic32c/lib/v7e-m/fpv5/hard\libc.a(lib_a-mprec.o)
                              c:/program files (x86)/microchip/xc32/v2.15/bin/bin/../../lib/gcc/pic32c/6.2.1/../../../../pic32c/lib/v7e-m/fpv5/hard\libc.a(lib_a-dtoa.o) (_Balloc)
c:/program files (x86)/microchip/xc32/v2.15/bin/bin/../../lib/gcc/pic32c/6.2.1/../../../../pic32c/lib/v7e-m/fpv5/hard\libc.a(lib_a-reent.o)
                              c:/program files (x86)/microchip/xc32/v2.15/bin/bin/../../lib/gcc/pic32c/6.2.1/../../../../pic32c/lib/v7e-m/fpv5/hard\libc.a(lib_a-sbrkr.o) (errno)
c:/program files (x86)/microchip/xc32/v2.15/bin/bin/../../lib/gcc/pic32c/6.2.1/../../../../pic32c/lib/v7e-m/fpv5/hard\libc.a(lib_a-s_frexp.o)
                              c:/program files (x86)/microchip/xc32/v2.15/bin/bin/../../lib/gcc/pic32c/6.2.1/../../../../pic32c/lib/v7e-m/fpv5/hard\libc.a(lib_a-svfprintf.o) (frexp)
c:/program files (x86)/microchip/xc32/v2.15/bin/bin/../../lib/gcc/pic32c/6.2.1/../../../../pic32c/lib/v7e-m/fpv5/hard\libc.a(lib_a-strchr.o)
                              c:/program files (x86)/microchip/xc32/v2.15/bin/bin/../../lib/gcc/pic32c/6.2.1/../../../../pic32c/lib/v7e-m/fpv5/hard\libc.a(lib_a-strstr.o) (strchr)
c:/program files (x86)/microchip/xc32/v2.15/bin/bin/../../lib/gcc/pic32c/6.2.1/../../../../pic32c/lib/v7e-m/fpv5/hard\libc.a(lib_a-svfiprintf.o)
                              c:/program files (x86)/microchip/xc32/v2.15/bin/bin/../../lib/gcc/pic32c/6.2.1/../../../../pic32c/lib/v7e-m/fpv5/hard\libc.a(lib_a-svfprintf.o) (__ssprint_r)
c:/program files (x86)/microchip/xc32/v2.15/bin/bin/../../lib/gcc/pic32c/6.2.1/../../../../pic32c/lib/v7e-m/fpv5/hard\libc.a(lib_a-__atexit.o)
                              c:/program files (x86)/microchip/xc32/v2.15/bin/bin/../../lib/gcc/pic32c/6.2.1/../../../../pic32c/lib/v7e-m/fpv5/hard\libc.a(lib_a-atexit.o) (__register_exitproc)
c:/program files (x86)/microchip/xc32/v2.15/bin/bin/../../lib/gcc/pic32c/6.2.1/../../../../pic32c/lib/v7e-m/fpv5/hard\libc.a(lib_a-memmove.o)
                              c:/program files (x86)/microchip/xc32/v2.15/bin/bin/../../lib/gcc/pic32c/6.2.1/../../../../pic32c/lib/v7e-m/fpv5/hard\libc.a(lib_a-svfiprintf.o) (memmove)
c:/program files (x86)/microchip/xc32/v2.15/bin/bin/../../lib/gcc/pic32c/6.2.1/../../../../pic32c/lib/v7e-m/fpv5/hard\libc.a(lib_a-reallocr.o)
                              c:/program files (x86)/microchip/xc32/v2.15/bin/bin/../../lib/gcc/pic32c/6.2.1/../../../../pic32c/lib/v7e-m/fpv5/hard\libc.a(lib_a-svfiprintf.o) (_realloc_r)
c:/program files (x86)/microchip/xc32/v2.15/bin/bin/../../lib/gcc/pic32c/6.2.1/../../../../pic32c/lib/v7e-m/fpv5/hard\libpic32c.a(sbrk.o)
                              c:/program files (x86)/microchip/xc32/v2.15/bin/bin/../../lib/gcc/pic32c/6.2.1/../../../../pic32c/lib/v7e-m/fpv5/hard\libc.a(lib_a-sbrkr.o) (_sbrk)

Allocating common symbols
Common symbol       size              file

TC0_CH0_CallbackObj
                    0x8               build/sam_e70_xult_freertos/production/_ext/1245453995/plib_tc0.o
errno               0x4               c:/program files (x86)/microchip/xc32/v2.15/bin/bin/../../lib/gcc/pic32c/6.2.1/../../../../pic32c/lib/v7e-m/fpv5/hard\libc.a(lib_a-reent.o)
APP_URL_Buffer      0xff              build/sam_e70_xult_freertos/production/_ext/1360937237/app_commands.o
appData             0x10              build/sam_e70_xult_freertos/production/_ext/1360937237/app.o
jsonBuffer          0x400             build/sam_e70_xult_freertos/production/_ext/1360937237/app.o
xAPP_Tasks          0x4               build/sam_e70_xult_freertos/production/_ext/1552905064/tasks.o
sysObj              0x14              build/sam_e70_xult_freertos/production/_ext/1552905064/initialization.o
sysDebugInstance    0x8               build/sam_e70_xult_freertos/production/_ext/762686499/sys_debug.o
gblErrLvl           0x1               build/sam_e70_xult_freertos/production/_ext/762686499/sys_debug.o
usart1Obj           0x30              build/sam_e70_xult_freertos/production/_ext/901008055/plib_usart1.o
cityBuffer          0x80              build/sam_e70_xult_freertos/production/_ext/1360937237/app.o

Microchip PIC32 Memory-Usage Report

ROM Program-Memory Usage
section                    address  length [bytes]      (dec)  Description
-------                 ----------  -------------------------  -----------
.vectors                  0x400000          0x168         360   
.text                     0x400168           0x24          36  App's exec code 
.ARM.exidx                0x40018c            0x8           8   
.text.DRV_GMAC_PowerMod   0x400194            0x4           4   
.text._svfprintf_r        0x400198         0x18f0        6384   
.rodata                   0x401a88         0x1640        5696  Read-only const 
.dinit                    0x4030c8         0x1390        5008   
.text.TCPIP_TCP_Task      0x404458          0xf24        3876   
.text._DHCPOptionProces   0x40537c            0x4           4   
.text._dtoa_r             0x405380          0xc4c        3148   
.rodata.macPIC32CHwRegD   0x405fcc          0x708        1800   
.text.TCPIP_STACK_Task    0x4066d4          0x630        1584   
.text._TcpSend            0x406d04          0x5cc        1484   
.text._Command_DNS_Serv   0x4072d0          0x56c        1388   
.text._malloc_r           0x40783c          0x550        1360   
.text.TCPIP_DHCP_Task     0x407d8c          0x4e4        1252   
.rodata                   0x408270          0x48c        1164  Read-only const 
.text.TCPIP_STACK_Initi   0x4086fc          0x410        1040   
.text.DRV_PIC32CGMAC_Li   0x408b0c          0x3c0         960   
.text.APP_Tasks           0x408ecc          0x358         856   
.text._realloc_r          0x409224          0x34c         844   
.text.SYS_CMD_Tasks       0x409570          0x314         788   
.text.TCPIP_Helper_Stri   0x409884          0x2e8         744   
.text                     0x409b6c          0x2dc         732  App's exec code 
.text.BSP_Initialize      0x409e48           0x18          24   
.text                     0x409e60          0x2dc         732  App's exec code 
.text.DRV_GMAC_Initiali   0x40a13c          0x2d4         724   
.text.TCPIP_ARP_Task      0x40a410          0x2b8         696   
.text.DRV_PIC32CGMAC_Li   0x40a6c8          0x294         660   
.rodata                   0x40a95c          0x28c         652  Read-only const 
.text._CommandArp         0x40abe8          0x260         608   
.text.TCPIP_UDP_Task      0x40ae48          0x24c         588   
.text._TCP_Open           0x40b094          0x238         568   
.text.TCPIP_UDP_Flush     0x40b2cc          0x22c         556   
.text._CommandDhcpOptio   0x40b4f8          0x220         544   
.text._DNS_Send_Query     0x40b718          0x218         536   
.text.TCPIP_DNS_ClientI   0x40b930          0x218         536   
.rodata                   0x40bb48          0x218         536  Read-only const 
.text.strstr              0x40bd60          0x218         536   
.text.TCPIP_UDP_Options   0x40bf78          0x212         530   
.text._DRV_ETHPHY_Clien   0x40c18a            0x2           2   
.text.TCPIP_COMMAND_Tas   0x40c18c          0x20c         524   
.text.two_way_long_need   0x40c398          0x1fc         508   
.text._DNS_ProcessPacke   0x40c594          0x1ec         492   
.text._Command_NetInfo    0x40c780          0x1e8         488   
.text.TCPIP_STACK_Bring   0x40c968          0x1e8         488   
.text._DHCPReceive        0x40cb50          0x1e0         480   
.text.TCPIP_ARP_Initial   0x40cd30          0x1e0         480   
.text.xTaskCreate         0x40cf10          0x1e0         480   
.text.TCPIP_IPV4_Packet   0x40d0f0          0x1d8         472   
.text.DRV_MIIM_Tasks      0x40d2c8          0x1cc         460   
.text._free_r             0x40d494          0x1cc         460   
.text._DHCPSend           0x40d660          0x1b8         440   
.text.ParseCmdBuffer      0x40d818          0x1b8         440   
.text.TCPIP_IPV4_Task     0x40d9d0          0x1b4         436   
.text.TCPIP_DHCP_Initia   0x40db84          0x1ac         428   
.text._Command_MacInfo    0x40dd30          0x198         408   
.text.TCPIP_TCP_ArrayPu   0x40dec8          0x194         404   
.text.CommandHelp         0x40e05c          0x190         400   
.text._DHCPOptionHostNa   0x40e1ec          0x18c         396   
.text.DRV_PIC32CGMAC_Li   0x40e378          0x178         376   
.text.TCPIP_IPV4_Packet   0x40e4f0          0x178         376   
.text.Reset_Handler       0x40e668          0x178         376   
.text._UDPOpen            0x40e7e0          0x16c         364   
.text.xQueueSemaphoreTa   0x40e94c          0x15c         348   
.text.TCPIP_DNS_EntryQu   0x40eaa8          0x158         344   
.text._MACDeinit          0x40ec00          0x14c         332   
.text._MacTxDiscardQueu   0x40ed4c          0x144         324   
.text.TCPIP_TCP_Initial   0x40ee90          0x144         324   
.text.TCPIP_UDP_Bind      0x40efd4          0x13c         316   
.text                     0x40f110          0x134         308  App's exec code 
.text._Command_StackOnO   0x40f244          0x130         304   
.text._DNS_RESPONSE_Has   0x40f374          0x12e         302   
.text.DRV_GMAC_Reinitia   0x40f4a2            0x2           2   
.text._Command_NetworkO   0x40f4a4          0x128         296   
.text.xQueueGenericSend   0x40f5cc          0x128         296   
.text._strtol_l.isra.0    0x40f6f4          0x128         296   
.text.quorem              0x40f81c          0x128         296   
.text._Command_AddressS   0x40f944          0x124         292   
.text.__multiply          0x40fa68          0x124         292   
.text.TCPIP_DNS_ClientT   0x40fb8c          0x120         288   
.text.TCPIP_UDP_Deiniti   0x40fcac          0x120         288   
.text._DRV_ETHPHY_Setup   0x40fdcc          0x11c         284   
.text._DNS_Resolve        0x40fee8          0x11c         284   
.text.USART1_InterruptH   0x410004          0x11c         284   
.text._LoadNetworkConfi   0x410120          0x11a         282   
.text._TCPIP_HEAP_Free    0x41023a          0x114         276   
.text.DRV_MIIM_Reinitia   0x41034e            0x2           2   
.text._Command_HeapInfo   0x410350          0x110         272   
.text._UDPv4TxAckFnc      0x410460          0x110         272   
.text.TCPIP_UDP_Options   0x410570          0x10e         270   
.text._TCPIP_HEAP_Buffe   0x41067e            0x2           2   
.text.__mdiff             0x410680          0x108         264   
.text.DRV_GMAC_Tasks      0x410788          0x104         260   
.rodata._ctype_           0x41088c          0x104         260   
.text._Command_IPAddres   0x410990          0x100         256   
.text.xTaskIncrementTic   0x410a90          0x100         256   
.text._Tcpv4TxAckFnc      0x410b90           0xfc         252   
.text.TCPIP_ARP_EntryRe   0x410c8c           0xfc         252   
.text.TCPIP_Helper_Stri   0x410d88           0xfc         252   
.text.TCPIP_UDP_Initial   0x410e84           0xfc         252   
.text.__ssprint_r         0x410f80           0xfc         252   
.text.DRV_PIC32CGMAC_Li   0x41107c           0xfa         250   
.text.Console_UART_Task   0x411176            0x2           2   
.text.DRV_PIC32CGMAC_Li   0x411178           0xf8         248   
.text._DNS_IsNameResolv   0x411270           0xf8         248   
.text._ARPProbeAddress    0x411368           0xec         236   
.text.TCPIP_UDP_ArrayGe   0x411454           0xec         236   
.text.DRV_GMAC_PacketRx   0x411540           0xe8         232   
.text.DRV_PIC32CGMAC_Li   0x411628           0xe8         232   
.text.TCPIP_TCP_Deiniti   0x411710           0xe8         232   
.text.TCPIP_TCP_ArrayGe   0x4117f8           0xe8         232   
.text.xTaskResumeAll      0x4118e0           0xe8         232   
.text.strchr              0x4119c8           0xe8         232   
.text.DRV_GMAC_EventMas   0x411ab0           0xe4         228   
.text._DRV_MIIM_StartOp   0x411b94           0xe4         228   
.text._DRV_MIIM_ClientD   0x411c78           0xe0         224   
.text.SYS_TIME_PLIBCall   0x411d58           0xe0         224   
.text._DRV_ETHPHY_Setup   0x411e38           0xdc         220   
.text.DRV_EXTPHY_MDIXCo   0x411f14           0xdc         220   
.text.TCPIP_ICMP_Task     0x411ff0           0xdc         220   
.text.TCPIP_DNS_OAHASH_   0x4120cc           0x34          52   
.text                     0x412100           0xdc         220  App's exec code 
.text.DRV_PIC32CGMAC_Li   0x4121dc           0xd8         216   
.text._DNS_GetAddresses   0x4122b4           0xd8         216   
.text._TcpCloseSocket     0x41238c           0xd6         214   
.text._DRV_ETHPHY_NegRe   0x412462           0xd2         210   
.text._GetMaxSegSizeOpt   0x412534           0xcc         204   
.text.DRV_ETHPHY_Setup    0x412600           0xc8         200   
.text._DHCPStartOperati   0x4126c8           0xc8         200   
.text.TCPIP_IPV4_Select   0x412790           0xc8         200   
.text.TCPIP_HEAP_Create   0x412858           0xc8         200   
.rodata.__mprec_tens      0x412920           0xc8         200   
.text.memmove             0x4129e8           0xc8         200   
.text._DHCPProcessRecei   0x412ab0           0xc4         196   
.rodata                   0x412b74           0xc4         196  Read-only const 
.text._DRV_PHY_SMITrans   0x412c38           0xc2         194   
.text.Dummy_Handler       0x412cfa            0x2           2   
.rodata.tcpipCmdTbl       0x412cfc           0xc0         192   
.text.DRV_EXTPHY_MIICon   0x412dbc           0xbc         188   
.text.strcpy              0x412e78           0xbc         188   
.text.__d2b               0x412f34           0xbc         188   
.text.TCPIP_STACK_KillS   0x412ff0           0xb8         184   
.text.xTaskPriorityInhe   0x4130a8           0xb8         184   
.text.critical_factoriz   0x413160           0xb4         180   
.text.TCPIP_Helper_IPv6   0x413214           0xb2         178   
.text.NonMaskableInt_Ha   0x4132c6            0x2           2   
.text.DRV_GMAC_Tasks_IS   0x4132c8           0xb0         176   
.text._TcpSocketSetIdle   0x413378           0xb0         176   
.text.SYS_TIME_Initiali   0x413428           0xb0         176   
.text._TCPIP_HEAP_Mallo   0x4134d8           0xac         172   
.text.SYS_TIME_TimerObj   0x413584           0xac         172   
.text.vTaskSwitchContex   0x413630           0xac         172   
.text._TcpDisconnect      0x4136dc           0xaa         170   
.text.HardFault_Handler   0x413786            0x2           2   
.text._DHCPEnable         0x413788           0xa8         168   
.text._Command_MACAddre   0x413830           0xa8         168   
.text.TCPIP_STACK_NetUp   0x4138d8           0xa8         168   
.text._ARPSendIfPkt       0x413980           0xa4         164   
.text.TCPIP_ARP_EntryQu   0x413a24           0xa4         164   
.text.__lshift            0x413ac8           0xa4         164   
.text.__register_exitpr   0x413b6c           0xa4         164   
.text._DRV_ETHPHY_Setup   0x413c10           0xa0         160   
.text._DRV_ETHPHY_NegCo   0x413cb0           0xa0         160   
.text.DRV_GMAC_PacketTx   0x413d50           0xa0         160   
.text._ARPDeleteResourc   0x413df0           0xa0         160   
.text._UDPv4AllocateSkt   0x413e90           0xa0         160   
.text.TCPIP_UDP_Disconn   0x413f30           0xa0         160   
.text.DisplayNodeMsg      0x413fd0           0xa0         160   
.text.SYS_TIME_AddToLis   0x414070           0xa0         160   
.text                     0x414110           0xa0         160  App's exec code 
.text.__pow5mult          0x4141b0           0xa0         160   
.text._DRV_ETHPHY_Setup   0x414250           0x9e         158   
.text.DebugMonitor_Hand   0x4142ee            0x2           2   
.text.DRV_MIIM_Setup      0x4142f0           0x9c         156   
.text.DRV_MIIM_Operatio   0x41438c           0x9c         156   
.text.SYS_TIME_HwTimerC   0x414428           0x9c         156   
.text.memset              0x4144c4           0x9c         156   
.text._Command_PrimaryD   0x414560           0x98         152   
.text.TCPIP_IPV4_ArpHan   0x4145f8           0x98         152   
.text._TCPIPStackModule   0x414690           0x98         152   
.text.snprintf            0x414728           0x98         152   
.text.TCPIP_DHCP_InfoGe   0x4147c0           0x94         148   
.text._Command_GatewayA   0x414854           0x94         148   
.text._UDPsetPacketInfo   0x4148e8           0x94         148   
.text.prvAddCurrentTask   0x41497c           0x94         148   
.text._malloc_trim_r      0x414a10           0x94         148   
.text.TCPIP_STACK_NetAd   0x414aa4           0x92         146   
.text.Console_UART_Reso   0x414b36           0x92         146   
.text.PIO_Initialize      0x414bc8           0x90         144   
.text.vTaskPriorityDisi   0x414c58           0x90         144   
.text._DHCPSetLeaseTime   0x414ce8           0x8c         140   
.text.TCPIP_ARP_IsResol   0x414d74           0x8c         140   
.text.TCPIP_STACK_NetDo   0x414e00           0x8c         140   
.text.SYS_CMD_DELETE      0x414e8c           0x8c         140   
.text._DRV_ETHPHY_Reset   0x414f18           0x88         136   
.text._DHCPPacketFilter   0x414fa0           0x88         136   
.text.TCPIP_IPV4_DeInit   0x415028           0x88         136   
.text._OAHashFindBkt      0x4150b0           0x88         136   
.text.MPU_Initialize      0x415138           0x88         136   
.text.SYS_CMD_Initializ   0x4151c0           0x88         136   
.text.TCPIP_Commands_In   0x415248           0x84         132   
.text.TCPIP_IPV4_MacPac   0x4152cc           0x82         130   
.text.MemoryManagement_   0x41534e            0x2           2   
.text.DRV_PIC32CGMAC_Li   0x415350           0x80         128   
.text.DRV_MIIM_Initiali   0x4153d0           0x80         128   
.text._DHCPClientClose    0x415450           0x80         128   
.text.TCPIP_Helper_Pack   0x4154d0           0x80         128   
.text.SendCommandPrint    0x415550           0x80         128   
.text.SYS_CMD_PRINT       0x4155d0           0x80         128   
.text.SYS_CMD_READY_TO_   0x415650           0x80         128   
.text.SYS_Initialize      0x4156d0           0x80         128   
.text.__pic32c_data_ini   0x415750           0x80         128   
.text.__multadd           0x4157d0           0x80         128   
.text.prvUnlockQueue      0x415850           0x7e         126   
.text.BusFault_Handler    0x4158ce            0x2           2   
.text._DRV_ETHPHY_Setup   0x4158d0           0x7c         124   
.rodata.DRV_ETHPHY_OBJE   0x41594c           0x7c         124   
.text.DRV_MIIM_Open       0x4159c8           0x7c         124   
.text._Command_DefaultI   0x415a44           0x7c         124   
.text.SYS_Tasks           0x415ac0           0x7c         124   
.text.xTaskPriorityDisi   0x415b3c           0x7c         124   
.text.frexp               0x415bb8           0x7c         124   
.text.TCPIP_Helper_Stri   0x415c34           0x7a         122   
.text.UsageFault_Handle   0x415cae            0x2           2   
.text._DRV_ETHPHY_NegCo   0x415cb0           0x78         120   
.text._DNS_ValidateIf     0x415d28           0x78         120   
.text._DHCPCleanup        0x415da0           0x78         120   
.text.CLK_Initialize      0x415e18           0x78         120   
.text.Console_UART_Reso   0x415e90           0x78         120   
.text.SYS_DEBUG_Print     0x415f08           0x78         120   
.text.xTaskRemoveFromEv   0x415f80           0x78         120   
.text._DRV_GMAC_LinkSta   0x415ff8           0x76         118   
.text._DRV_ETHPHY_NegRe   0x41606e           0x74         116   
.text.TCPIP_DHCP_Connec   0x4160e4           0x74         116   
.text._ARPUpdateEntry     0x416158           0x74         116   
.text.TCPIP_ARP_EntryRe   0x4161cc           0x74         116   
.text._Command_BIOSName   0x416240           0x74         116   
.text.TCPIP_STACK_Bring   0x4162b4           0x74         116   
.text._TCPIP_PKT_Packet   0x416328           0x74         116   
.text.Console_UART_Read   0x41639c           0x74         116   
.text.Console_UART_Writ   0x416410           0x74         116   
.text._vsnprintf_r        0x416484           0x74         116   
.text._TCPIP_StackSyncF   0x4164f8           0x72         114   
.text.TCPIP_PKT_DataSeg   0x41656a           0x72         114   
.text.prvCopyDataToQueu   0x4165dc           0x72         114   
.text.DRV_ETHPHY_Open     0x416650           0x70         112   
.text._DRV_ETHPHY_Reset   0x4166c0           0x70         112   
.text.DRV_GMAC_LibDescr   0x416730           0x70         112   
.text.TCPIP_IPV4_Initia   0x4167a0           0x70         112   
.text.Console_UART_Init   0x416810           0x70         112   
.text.SYS_CMD_ADDGRP      0x416880           0x70         112   
.text.xQueueGenericRese   0x4168f0           0x70         112   
.text.prvIdleTask         0x416960           0x70         112   
.text                     0x4169d0           0x6c         108  App's exec code 
.text.TCPIP_DNS_Disable   0x416a3c           0x6c         108   
.text._TcpCleanup         0x416aa8           0x6c         108   
.text._MacTxPendingPack   0x416b14           0x6a         106   
.text._DNS_AddSelection   0x416b7e           0x6a         106   
.text.TCPIP_Helper_Pack   0x416be8           0x6a         106   
.text._DRV_GMAC_LinkSta   0x416c54           0x68         104   
.text.DRV_PIC32CGMAC_Li   0x416cbc           0x68         104   
.text._TcpSwapHeader      0x416d24           0x68         104   
.text._TcpClientSocketC   0x416d8c           0x68         104   
.text.TCPIP_ARP_CacheEn   0x416df4           0x68         104   
.text.TCPIP_OAHASH_Entr   0x416e5c           0x68         104   
.text.TCPIP_OAHASH_Entr   0x416ec4           0x68         104   
.text._TCPIPStackInsert   0x416f2c           0x68         104   
.rodata                   0x416f94           0x68         104  Read-only const 
.text.vTaskStartSchedul   0x416ffc           0x68         104   
.text.TCPIP_Helper_Calc   0x417064           0x66         102   
.text._DRV_ETHPHY_Setup   0x4170ca           0x64         100   
.text.TCPIP_DHCP_Disabl   0x417130           0x64         100   
.text.TCPIP_IPV4_MacPac   0x417194           0x64         100   
.text.SYS_CMDIO_ADD       0x4171f8           0x64         100   
.rodata._DHCPRequestPar   0x41725c            0x4           4   
.text.xPortPendSVHandle   0x417260           0x64         100   
.text.strncpy             0x4172c4           0x64         100   
.text.__strtok_r          0x417328           0x64         100   
.text.TCPIP_ARP_EntryGe   0x41738c           0x62          98   
.text.Console_UART_PLIB   0x4173ee           0x62          98   
.text.TCPIP_DNS_ClientD   0x417450           0x60          96   
.text.TCPIP_DNS_GetIPAd   0x4174b0           0x60          96   
.rodata.TCPIP_STACK_MOD   0x417510           0x60          96   
.text.TCPIP_UDP_SocketI   0x417570           0x60          96   
.text._calloc_r           0x4175d0           0x60          96   
.text.memcmp              0x417630           0x60          96   
.text.__lo0bits           0x417690           0x60          96   
.text.DRV_ETHPHY_Initia   0x4176f0           0x5c          92   
.text._TCPIPStackIpAddF   0x41774c           0x5c          92   
.text.strncat             0x4177a8           0x5c          92   
.text.DRV_GMAC_Statisti   0x417804           0x5a          90   
.text._DHCPOptionProces   0x41785e           0x5a          90   
.text.TCPIP_UDP_BcastIP   0x4178b8           0x5a          90   
.text.DRV_ETHPHY_Vendor   0x417912           0x58          88   
.text.DRV_ETHPHY_Vendor   0x41796a           0x58          88   
.rodata.DRV_GMAC_Object   0x4179c4           0x58          88   
.text.DRV_PIC32CGMAC_Li   0x417a1c           0x58          88   
.text._DRV_MIIM_Release   0x417a74           0x58          88   
.text._DNS_Enable         0x417acc           0x58          88   
.text._DNS_CleanCacheEn   0x417b24           0x58          88   
.text.TCPIP_STACK_Strin   0x417b7c           0x58          88   
.text._TCPIPStackAnyNet   0x417bd4           0x58          88   
.text._TCPIPStackModule   0x417c2c           0x58          88   
.text.SYS_TIME_TimerSta   0x417c84           0x58          88   
.text.xTaskCheckForTime   0x417cdc           0x58          88   
.text.OSAL_SEM_Create     0x417d34           0x58          88   
.text._DRV_ETHPHY_LinkS   0x417d8c           0x56          86   
.text.TCPIP_ARP_Probe     0x417de2           0x56          86   
.text._DRV_ETHPHY_NegCo   0x417e38           0x54          84   
.text.DRV_GMAC_EventAck   0x417e8c           0x54          84   
.text._DNS_DeleteHash     0x417ee0           0x54          84   
.text.TCPIP_DNS_RemoveA   0x417f34           0x54          84   
.text._DHCPOptionWriteS   0x417f88           0x54          84   
.text._ARPNotifyClients   0x417fdc           0x54          84   
.rodata                   0x418030           0x54          84  Read-only const 
.text.SYS_TIME_RemoveFr   0x418084           0x54          84   
.rodata.tcpipMACPIC32CI   0x4180d8           0x54          84   
.text._XtlEventsTcp2Eth   0x41812c           0x52          82   
.text._TcpAbort           0x41817e           0x52          82   
.text._DRV_MIIM_GetClie   0x4181d0           0x50          80   
.text.TCPIP_DNS_OAHASH_   0x418220           0x50          80   
.rodata                   0x418270           0x50          80  Read-only const 
.text._DHCPOptionWriteI   0x4182c0           0x50          80   
.text.TCPIP_Helper_IPAd   0x418310           0x50          80   
.text.SYS_CONSOLE_Initi   0x418360           0x50          80   
.text.SYS_CONSOLE_Statu   0x4183b0           0x50          80   
.text.SYS_TIME_Callback   0x418400           0x50          80   
.text.__libc_init_array   0x418450           0x50          80   
.text.TCPIP_Helper_Form   0x4184a0           0x4e          78   
.text._DRV_GMAC_LinkSta   0x4184ee           0x4c          76   
.text.DRV_MIIM_Operatio   0x41853a           0x4c          76   
.text.TCPIP_IPV4_Cleanu   0x418588           0x4c          76   
.text._TCPIP_MacEventCB   0x4185d4           0x4c          76   
.text._UDPClose           0x418620           0x4c          76   
.text.TCPIP_UDP_PutIsRe   0x41866c           0x4c          76   
.text.Console_UART_PLIB   0x4186b8           0x4c          76   
.text.sprintf             0x418704           0x4c          76   
.text._Balloc             0x418750           0x4c          76   
.text.TCPIP_UDP_Destina   0x41879c           0x4a          74   
.text._DRV_ETHPHY_Setup   0x4187e8           0x48          72   
.text.DRV_ETHPHY_Vendor   0x418830           0x48          72   
.text.DRV_GMAC_Register   0x418878           0x48          72   
.text._TCPSendWinIncUpd   0x4188c0           0x48          72   
.text.TCPIP_DHCP_IsEnab   0x418908           0x48          72   
.rodata._DHCPOptProcTbl   0x418950           0x48          72   
.text.TCPIP_ARP_Deiniti   0x418998           0x48          72   
.text.TCPIP_Helper_MACA   0x4189e0           0x48          72   
.text.TCPIP_STACK_MACId   0x418a28           0x48          72   
.text._TCPIPStackSignal   0x418a70           0x48          72   
.text.NVIC_Initialize     0x418ab8           0x48          72   
.text.USART1_Write        0x418b00           0x48          72   
.text.CommandCleanup      0x418b48           0x48          72   
.rodata.TCPIP_STACK_MOD   0x418b90           0x48          72   
.text.xPortStartSchedul   0x418bd8           0x48          72   
.text._TCPIP_HEAP_Delet   0x418c20           0x46          70   
.text.TCPIP_STACK_Addre   0x418c66           0x46          70   
.text.TCPIP_UDP_ArrayPu   0x418cac           0x46          70   
.text.DRV_GMAC_RxFilter   0x418cf2           0x44          68   
.text.Helper_SingleList   0x418d36           0x44          68   
.text.hexatob             0x418d7a           0x44          68   
.text.TCPIP_ICMP_Initia   0x418dc0           0x44          68   
.text._DHCPSetTimeout     0x418e04           0x44          68   
.text._TCPIP_HEAP_MaxSi   0x418e48           0x44          68   
.text.TCPIP_Helper_Sing   0x418e8c           0x44          68   
.text.TCPIP_STACK_NetBy   0x418ed0           0x44          68   
.text._TCPIPStackModule   0x418f14           0x44          68   
.text._UDPSetNewRxPacke   0x418f58           0x44          68   
.rodata                   0x418f9c           0x44          68  Read-only const 
.text.SYS_INT_SourceDis   0x418fe0           0x44          68   
.text._APP_Commands_req   0x419024           0x44          68   
.text.APP_Commands_Init   0x419068           0x44          68   
.rodata                   0x4190ac           0x44          68  Read-only const 
.text._DRV_GMAC_LinkSta   0x4190f0           0x42          66   
.text._TcpSocketSetSour   0x419132           0x42          66   
.text._DHCPOptionClient   0x419174           0x42          66   
.text._DRV_ETHPHY_NegRe   0x4191b6           0x40          64   
.text._DRV_ETHPHY_Setup   0x4191f6           0x40          64   
.rodata.DRV_MIIM_OBJECT   0x419238           0x40          64   
.text.TCPIP_DNS_RemoveE   0x419278           0x40          64   
.rodata                   0x4192b8           0x40          64  Read-only const 
.text._TCP_PortIsAvaila   0x4192f8           0x40          64   
.text._DHCPSetRunFail     0x419338           0x40          64   
.text.TCPIP_DHCP_Deinit   0x419378           0x40          64   
.rodata                   0x4193b8           0x40          64  Read-only const 
.text.TCPIP_STACK_NetAl   0x4193f8           0x40          64   
.text.TCPIP_STACK_NetHa   0x419438           0x40          64   
.text._UDPIsAvailablePo   0x419478           0x40          64   
.text.TCPIP_UDP_SocketN   0x4194b8           0x40          64   
.text.TCPIP_UDP_SourceI   0x4194f8           0x40          64   
.text.SYS_TIME_TimerAdd   0x419538           0x40          64   
.rodata                   0x419578           0x40          64  Read-only const 
.text.rand                0x4195b8           0x40          64   
.text.__hi0bits           0x4195f8           0x40          64   
.text._DNSDiscardName     0x419638           0x3e          62   
.text._TCPSetHalfFlushF   0x419676           0x3e          62   
.text._DHCPOptionProces   0x4196b4           0x3e          62   
.text.TCPIP_UDP_TxOffse   0x4196f2           0x3e          62   
.text._DRV_ETHPHY_Setup   0x419730           0x3c          60   
.text._DRV_ETHPHY_NegCo   0x41976c           0x3c          60   
.text.DRV_GMAC_Open       0x4197a8           0x3c          60   
.text.DRV_GMAC_Process    0x4197e4           0x3c          60   
.text._DRV_MIIM_GetOpDc   0x419820           0x3c          60   
.text._TcpSocketKill      0x41985c           0x3c          60   
.text._TCP_EphemeralPor   0x419898           0x3c          60   
.text._DHCPOptionProces   0x4198d4           0x3c          60   
.text._DHCPNotifyClient   0x419910           0x3c          60   
.text._TCPIPStackModule   0x41994c           0x3c          60   
.text._TCPIP_PKT_Packet   0x419988           0x3c          60   
.text._UDPAllocateEphem   0x4199c4           0x3c          60   
.text.TCPIP_UDP_OpenCli   0x419a00           0x3c          60   
.text.USART1_Initialize   0x419a3c           0x3c          60   
.text.USART1_Read         0x419a78           0x3c          60   
.text.CommandQuit         0x419ab4           0x3c          60   
.text.SYS_TIME_GetTimer   0x419af0           0x3c          60   
.text.SYS_TIME_Resource   0x419b2c           0x3c          60   
.text.SYS_TIME_Counter6   0x419b68           0x3c          60   
.rodata.dhcpMagicCookie   0x419ba4            0x4           4   
.text.SYS_TIME_MSToCoun   0x419ba8           0x3c          60   
.text.SYS_TIME_TimerDes   0x419be4           0x3c          60   
.text.APP_Initialize      0x419c20           0x3c          60   
.text.DRV_MIIM_Register   0x419c5c           0x3a          58   
.text.DRV_MIIM_Deinitia   0x419c96           0x3a          58   
.text._DHCPOptionProces   0x419cd0           0x3a          58   
.text.DRV_ETHPHY_LinkSt   0x419d0a           0x38          56   
.text._DRV_PHY_NegCompl   0x419d42           0x38          56   
.text._DRV_ETHPHY_LinkS   0x419d7a           0x38          56   
.text.DRV_PIC32CGMAC_Li   0x419db4           0x38          56   
.text.TCPIP_DNS_ClientI   0x419dec           0x38          56   
.text._TCPSetSourceAddr   0x419e24           0x38          56   
.text.TCPIP_DHCP_IsActi   0x419e5c           0x38          56   
.text.TCPIP_PKT_PacketM   0x419e94           0x38          56   
.text.SYS_CONSOLE_Read    0x419ecc           0x38          56   
.text.SYS_TIME_Resource   0x419f04           0x38          56   
.rodata.TCPIP_HOSTS_CON   0x419f3c           0x38          56   
.text.__mcmp              0x419f74           0x38          56   
.text.DRV_ETHPHY_Negoti   0x419fac           0x36          54   
.text._TCPIPStackSetCon   0x419fe2           0x36          54   
.text.TCPIP_UDP_RxOffse   0x41a018           0x36          54   
.text.Console_UART_PopQ   0x41a04e           0x36          54   
.rodata                   0x41a084           0x34          52  Read-only const 
.text._ARPSetEntry        0x41a0b8           0x34          52   
.text.TCPIP_ARP_HashEnt   0x41a0ec           0x34          52   
.text.TCPIP_ARP_Handler   0x41a120           0x34          52   
.text.TCPIP_Helper_Stri   0x41a154           0x34          52   
.text._TCPIP_PKT_Packet   0x41a188           0x34          52   
.text.vListInsert         0x41a1bc           0x34          52   
.text.vTaskDelay          0x41a1f0           0x34          52   
.text._APP_PumpDNS        0x41a224           0x34          52   
.text.__libc_fini_array   0x41a258           0x34          52   
.text._MacPacketAck       0x41a28c           0x32          50   
.text._DNS_NetIsValid     0x41a2be           0x32          50   
.text.TCPIP_STACK_NetBi   0x41a2f0           0x32          50   
.text.DRV_GMAC_Paramete   0x41a322           0x30          48   
.text.DRV_PIC32CGMAC_Li   0x41a354           0x30          48   
.text._TCPSocketTxFreeS   0x41a384           0x30          48   
.text.TCPIP_IPV4_CheckP   0x41a3b4           0x30          48   
.text.IPv4RegisterFilte   0x41a3e4           0x30          48   
.text.fnv_32_hash         0x41a414           0x30          48   
.text.TCPIP_OAHASH_Entr   0x41a444           0x30          48   
.text.TCPIP_Helper_Prot   0x41a474           0x30          48   
.text.TCPIP_Helper_Prot   0x41a4a4           0x30          48   
.text.TCPIP_PKT_Initial   0x41a4d4           0x30          48   
.text.TCPIP_UDP_Close     0x41a504           0x30          48   
.text.USART1_ErrorGet     0x41a534           0x30          48   
.text.SYS_TIME_UpdateTi   0x41a564           0x30          48   
.text.xPortSysTickHandl   0x41a594           0x30          48   
.text.xQueueGenericCrea   0x41a5c4           0x30          48   
.text                     0x41a5f4           0x30          48  App's exec code 
.text.DRV_ETHPHY_Reset    0x41a624           0x2e          46   
.text.DRV_ETHPHY_Negoti   0x41a652           0x2e          46   
.text.DRV_MIIM_Deregist   0x41a680           0x2e          46   
.text._DHCPOptionProces   0x41a6ae           0x2e          46   
.text._DHCPOptionProces   0x41a6dc           0x2e          46   
.text._DHCPOptionProces   0x41a70a           0x2e          46   
.text._ARPRemoveEntry     0x41a738           0x2e          46   
.text.TCPIP_STACK_DNSSe   0x41a766           0x2e          46   
.text._TxSktGetLockedV4   0x41a794           0x2e          46   
.text._DRV_ETHPHY_Clien   0x41a7c4           0x2c          44   
.text.DRV_ETHPHY_Restar   0x41a7f0           0x2c          44   
.text._DRV_ETHPHY_Clien   0x41a81c           0x2c          44   
.text._DRV_ETHPHY_Clien   0x41a848           0x2c          44   
.text._DRV_ETHPHY_Clien   0x41a874           0x2c          44   
.text._DRV_ETHPHY_Clien   0x41a8a0           0x2c          44   
.text._DRV_ETHPHY_Clien   0x41a8cc           0x2c          44   
.text._DRV_ETHPHY_Setup   0x41a8f8           0x2c          44   
.text._DRV_GMAC_LinkSta   0x41a924           0x2c          44   
.text._DNSClientCleanup   0x41a950           0x2c          44   
.text.TCPIP_Helper_Prot   0x41a97c           0x2c          44   
.text.TCPIP_STACK_Initi   0x41a9a8           0x2c          44   
.text.TCPIP_STACK_Addre   0x41a9d4           0x2c          44   
.text.TCPIP_STACK_IsBca   0x41aa00           0x2c          44   
.text._TCPIPStackModule   0x41aa2c           0x2c          44   
.text.SYS_CONSOLE_Write   0x41aa58           0x2c          44   
.text.TCPIP_STACK_Init    0x41aa84           0x2c          44   
.text.pxPortInitialiseS   0x41aab0           0x2c          44   
.text.prvResetNextTaskU   0x41aadc           0x2c          44   
.text.__ascii_mbtowc      0x41ab08           0x2c          44   
.text.strtol              0x41ab34           0x2c          44   
.text._sbrk               0x41ab60           0x2c          44   
.text._DRV_GMAC_LinkSta   0x41ab8c           0x2a          42   
.text._DRV_MIIM_GetObje   0x41abb6           0x2a          42   
.text.TCPIP_Helper_Prot   0x41abe0           0x2a          42   
.text.TCPIP_Helper_Prot   0x41ac0a           0x2a          42   
.text._DRV_ETHPHY_Clien   0x41ac34           0x28          40   
.rodata._DRV_PHY_Client   0x41ac5c           0x28          40   
.text.DRV_GMAC_ConfigGe   0x41ac84           0x28          40   
.text.DRV_GMAC_LinkChec   0x41acac           0x28          40   
.text.DRV_MIIM_Status     0x41acd4           0x28          40   
.text._DNSGetData         0x41acfc           0x28          40   
.text.TCPIP_ICMP_Deinit   0x41ad24           0x28          40   
.text._TcpSocketChk       0x41ad4c           0x28          40   
.text._TcpFlush           0x41ad74           0x28          40   
.text._DHCPOptionWriteP   0x41ad9c           0x28          40   
.text._TCPIP_STACK_Tick   0x41adc4           0x28          40   
.text._TCPIPSignalEntry   0x41adec           0x28          40   
.text.TCPIP_STACK_NetMA   0x41ae14           0x28          40   
.text.TCPIP_STACK_NetMA   0x41ae3c           0x28          40   
.text.TCPIP_STACK_NetIs   0x41ae64           0x28          40   
.text._TCPIPStackSignal   0x41ae8c           0x28          40   
.text._TCPIP_PKT_Socket   0x41aeb4           0x28          40   
.text._UDPSocketDcpt      0x41aedc           0x28          40   
.text._UDPFreeTxResourc   0x41af04           0x28          40   
.text._UDPUpdatePacketL   0x41af2c           0x28          40   
.text.TCPIP_UDP_GetIsRe   0x41af54           0x28          40   
.text.TCPIP_UDP_SignalH   0x41af7c           0x28          40   
.text.TC0_CH0_TimerInit   0x41afa4           0x28          40   
.text.SYS_CONSOLE_Flush   0x41afcc           0x28          40   
.text.Console_UART_Stat   0x41aff4           0x28          40   
.text.ReadCommandCharac   0x41b01c           0x28          40   
.text.SendCommandCharac   0x41b044           0x28          40   
.rodata.tcpipARPInitDat   0x41b06c           0x28          40   
.text.prvPortStartFirst   0x41b094           0x28          40   
.text.vPortSetupTimerIn   0x41b0bc           0x28          40   
.text.uxListRemove        0x41b0e4           0x28          40   
.text.TCPIP_IPV4_IsFrag   0x41b10c            0x4           4   
.rodata.__mprec_bigtens   0x41b110           0x28          40   
.text.TCPIP_STACK_DNSSe   0x41b138           0x26          38   
.text.TCPIP_STACK_Addre   0x41b15e           0x26          38   
.text._UDPFreeRxQueue     0x41b184           0x26          38   
.text.DRV_ETHPHY_HWConf   0x41b1ac           0x24          36   
.text._DRV_ETHPHY_NegRe   0x41b1d0           0x24          36   
.text._DRV_ETHPHY_NegRe   0x41b1f4           0x24          36   
.rodata                   0x41b218           0x24          36  Read-only const 
.text.DRV_PIC32CGMAC_Li   0x41b23c           0x24          36   
.text._DHCPOptionProces   0x41b260           0x24          36   
.text._DHCPOptionWriteM   0x41b284           0x24          36   
.text.TCPIP_DHCP_Reques   0x41b2a8           0x24          36   
.text._ARPAllocateTxPac   0x41b2cc           0x24          36   
.text._ARPRemoveCacheEn   0x41b2f0           0x24          36   
.text.TCPIP_ARP_Handler   0x41b314           0x24          36   
.text.TCPIP_Commands_De   0x41b338           0x24          36   
.text.Ipv4DeRegisterFil   0x41b35c           0x24          36   
.rodata._tcpip_heap_obj   0x41b380           0x24          36   
.text.TCPIP_OAHASH_Init   0x41b3a4           0x24          36   
.text.TCPIP_STACK_IPAdd   0x41b3c8           0x24          36   
.text._TCPIPStackHandle   0x41b3ec           0x24          36   
.text.TC0_CH0_Interrupt   0x41b410           0x24          36   
.text.Console_UART_Flus   0x41b434           0x24          36   
.text.SYS_CMDIO_GET_HAN   0x41b458           0x24          36   
.rodata._builtinCmdTbl    0x41b47c           0x24          36   
.text.prvTaskExitError    0x41b4a0           0x24          36   
.text.DRV_ETHPHY_Deinit   0x41b4c4            0xc          12   
.text.vPortSVCHandler     0x41b4d0           0x24          36   
.text.vPortEnterCritica   0x41b4f4           0x24          36   
.text.xQueueCreateMutex   0x41b518           0x24          36   
.text._sbrk_r             0x41b53c           0x24          36   
.text.DRV_ETHPHY_Reinit   0x41b560           0x22          34   
.text.TCPIP_TCP_IsConne   0x41b582           0x22          34   
.text._TCPIP_HEAP_LastE   0x41b5a4           0x22          34   
.text.TCPIP_Helper_Prot   0x41b5c6           0x22          34   
.text.TCPIP_STACK_NetAd   0x41b5e8           0x22          34   
.text.TCPIP_STACK_NetAd   0x41b60a           0x22          34   
.text.TCPIP_UDP_Discard   0x41b62c           0x22          34   
.text.DRV_ETHPHY_Tasks    0x41b650           0x20          32   
.text.DRV_ETHPHY_Close    0x41b670           0x20          32   
.text._DRV_ETHPHY_Clien   0x41b690           0x20          32   
.text._DRV_ETHPHY_NegRe   0x41b6b0           0x20          32   
.text._DRV_ETHPHY_Setup   0x41b6d0           0x20          32   
.text.DRV_PIC32CGMAC_Li   0x41b6f0           0x20          32   
.text.DRV_PIC32CGMAC_Si   0x41b710           0x20          32   
.text.Helper_SingleList   0x41b730           0x20          32   
.text.TCPIP_DNS_OAHASH_   0x41b750           0x20          32   
.text.TCPIP_DHCP_Enable   0x41b770           0x20          32   
.text.TCPIP_DHCP_Renew    0x41b790           0x20          32   
.text._SwapARPPacket      0x41b7b0           0x20          32   
.text.TCPIP_Helper_Sing   0x41b7d0           0x20          32   
.text.TCPIP_Helper_Prot   0x41b7f0           0x20          32   
.rodata.TCPIP_MAC_POWER   0x41b810           0x20          32   
.text.TCPIP_STACK_NetDe   0x41b830           0x20          32   
.text.TCPIP_STACK_Index   0x41b850           0x20          32   
.text.TCPIP_STACK_Deini   0x41b870           0x20          32   
.text.TCPIP_Notificatio   0x41b890           0x20          32   
.rodata                   0x41b8b0           0x20          32  Read-only const 
.text.TCPIP_UDP_Destina   0x41b8d0           0x20          32   
.rodata.sysConsoleUARTD   0x41b8f0           0x20          32   
.text.SYS_DEBUG_Initial   0x41b910           0x20          32   
.text.SYS_INT_SourceRes   0x41b930           0x20          32   
.text.SYS_TIME_GetElaps   0x41b950           0x20          32   
.rodata.tcpipPhyInitDat   0x41b970           0x20          32   
.text.pvPortMalloc        0x41b990           0x20          32   
.text.vsnprintf           0x41b9b0           0x20          32   
.text.DRV_ETHPHY_Client   0x41b9d0           0x1e          30   
.text._TCPIsGetReady      0x41b9ee           0x1e          30   
.text.TCPIP_STACK_NetAd   0x41ba0c           0x1e          30   
.text.TCPIP_STACK_Netwo   0x41ba2a           0x1e          30   
.text.TCPIP_PKT_Payload   0x41ba48           0x1e          30   
.text.OSAL_SEM_Pend       0x41ba66           0x1e          30   
.text.OSAL_MUTEX_Lock     0x41ba84           0x1e          30   
.rodata._DRV_PHY_SetupP   0x41baa4           0x1c          28   
.text.TCPIP_DNS_IsResol   0x41bac0           0x1c          28   
.rodata._DHCPOptWriteTb   0x41badc           0x1c          28   
.text._ARPTxAckFnc        0x41baf8           0x1c          28   
.text.TCPIP_IPV4_MaxDat   0x41bb14           0x1c          28   
.rodata.__func__.14104    0x41bb30           0x1c          28   
.text._TCPIP_HEAP_FreeS   0x41bb4c           0x1c          28   
.text._TCPIP_HEAP_Callo   0x41bb68           0x1c          28   
.text.TCPIP_Helper_Sing   0x41bb84           0x1c          28   
.text.TCPIP_Helper_Prot   0x41bba0           0x1c          28   
.text._TCPIPSignalEntry   0x41bbbc           0x1c          28   
.text.TCPIP_STACK_Statu   0x41bbd8           0x1c          28   
.text.TCPIP_STACK_NetAd   0x41bbf4           0x1c          28   
.text.TCPIP_STACK_NetIs   0x41bc10           0x1c          28   
.text.TCPIP_STACK_NetAd   0x41bc2c           0x1c          28   
.text.TCPIP_STACK_NetMa   0x41bc48           0x1c          28   
.text.TCPIP_STACK_NetIs   0x41bc64           0x1c          28   
.text.TCPIP_STACK_NetAd   0x41bc80           0x1c          28   
.text.TCPIP_Notificatio   0x41bc9c           0x1c          28   
.text.TCPIP_Notificatio   0x41bcb8           0x1c          28   
.text.TCPIP_UDP_TxPoint   0x41bcd4           0x1c          28   
.text.SYS_TIME_Counter6   0x41bcf0           0x1c          28   
.text.SYS_TMR_CallbackP   0x41bd0c           0x1c          28   
.rodata.sysTimePlibAPI    0x41bd28           0x1c          28   
.text.vTaskPlaceOnEvent   0x41bd44           0x1c          28   
.text.pvTaskIncrementMu   0x41bd60           0x1c          28   
.text.__locale_ctype_pt   0x41bd7c           0x1c          28   
.text.__ascii_wctomb      0x41bd98           0x1c          28   
.text._localeconv_r       0x41bdb4           0x1c          28   
.text._DRV_ETHPHY_NegCo   0x41bdd0           0x1a          26   
.text.DRV_PIC32CGMAC_Si   0x41bdea           0x1a          26   
.text.Helper_SingleList   0x41be04           0x1a          26   
.text.DRV_MIIM_Read       0x41be1e           0x1a          26   
.text.DRV_MIIM_Write      0x41be38           0x1a          26   
.text.DRV_MIIM_Scan       0x41be52           0x1a          26   
.text.TCPIP_TCP_ClientO   0x41be6c           0x1a          26   
.text.TCPIP_TCP_PutIsRe   0x41be86           0x1a          26   
.text.TCPIP_Helper_Sing   0x41bea0           0x1a          26   
.text.TCPIP_STACK_NetIs   0x41beba           0x1a          26   
.text._UDPTxPktValid      0x41bed4           0x1a          26   
.text.DRV_ETHPHY_PhyAdd   0x41beee           0x18          24   
.text._DRV_PHY_SMIReadS   0x41bf06           0x18          24   
.text._DRV_PHY_SMIWrite   0x41bf1e           0x18          24   
.text._DRV_ETHPHY_Reset   0x41bf36           0x18          24   
.rodata._DRV_PHY_NegCom   0x41bf50           0x18          24   
.text.DRV_PIC32CGMAC_Si   0x41bf68           0x18          24   
.text.DRV_MIIM_Close      0x41bf80           0x18          24   
.rodata.__func__.14139    0x41bf98           0x18          24   
.rodata.__func__.14157    0x41bfb0           0x18          24   
.rodata.__func__.14408    0x41bfc8           0x18          24   
.text.TCPIP_ICMP_Cleanu   0x41bfe0           0x18          24   
.text.TCPIP_ARP_HashKey   0x41bff8           0x18          24   
.text.TCPIP_HEAP_Create   0x41c010           0x18          24   
.text.TCPIP_OAHASH_Entr   0x41c028           0x18          24   
.text.TCPIP_STACK_NetAd   0x41c040           0x18          24   
.text.TCPIP_STACK_NetAd   0x41c058           0x18          24   
.text.TCPIP_STACK_NetAd   0x41c070           0x18          24   
.text.TCPIP_STACK_NetMa   0x41c088           0x18          24   
.text.TCPIP_STACK_NetMA   0x41c0a0           0x18          24   
.text.TCPIP_STACK_HeapH   0x41c0b8           0x18          24   
.rodata.TCPIP_FRAME_PRO   0x41c0d0           0x18          24   
.text.Console_UART_Regi   0x41c0e8           0x18          24   
.text.CommandReset        0x41c100           0x18          24   
.text.SendCommandMessag   0x41c118           0x18          24   
.rodata.sysConsoleApi     0x41c130           0x18          24   
.text._TCPIP_STACK_Task   0x41c148           0x18          24   
.text._DRV_MIIM_Task      0x41c160           0x18          24   
.rodata.sysConsole0UART   0x41c178           0x18          24   
.rodata.tcpipDNSClientI   0x41c190           0x18          24   
.text.vPortFree           0x41c1a8           0x18          24   
.text.vListInsertEnd      0x41c1c0           0x18          24   
.text.vTaskInternalSetT   0x41c1d8           0x18          24   
.text.OSAL_CRIT_Enter     0x41c1f0           0x18          24   
.text.OSAL_SEM_Post       0x41c208           0x18          24   
.text.OSAL_MUTEX_Create   0x41c220           0x18          24   
.text.OSAL_MUTEX_Unlock   0x41c238           0x18          24   
.text.DRV_ETHPHY_Vendor   0x41c250           0x16          22   
.text.DRV_MIIM_ClientSt   0x41c266           0x16          22   
.text._DNSSocketRxSigna   0x41c27c           0x16          22   
.text._TCP_TxPktValid     0x41c292           0x16          22   
.text._DHCPSocketRxSign   0x41c2a8           0x16          22   
.text._TCPIP_HEAP_Size    0x41c2be           0x16          22   
.text._TCPIP_HEAP_HighW   0x41c2d4           0x16          22   
.text.TCPIP_STACK_Addre   0x41c2ea           0x16          22   
.text._TCPIPStackPacket   0x41c300           0x16          22   
.text.vApplicationStack   0x41c316           0x16          22   
.text.vApplicationMallo   0x41c32c           0x16          22   
.text.vListInitialise     0x41c342           0x16          22   
.text.prvIsQueueEmpty     0x41c358           0x16          22   
.text.xQueueCreateCount   0x41c36e           0x16          22   
.text.OSAL_CRIT_Leave     0x41c384           0x16          22   
.text._DRV_ETHPHY_NegRe   0x41c39a           0x14          20   
.text._DRV_ETHPHY_NegRe   0x41c3ae           0x14          20   
.text._DRV_ETHPHY_NegCo   0x41c3c2           0x14          20   
.text._DRV_ETHPHY_LinkS   0x41c3d6           0x14          20   
.rodata._DRV_PHY_NegRes   0x41c3ec           0x14          20   
.rodata._DRV_GMAC_LinkS   0x41c400           0x14          20   
.text._DHCPOptionWriteE   0x41c414           0x14          20   
.text.TCPIP_OAHASH_Entr   0x41c428           0x14          20   
.rodata.sysConsole0UART   0x41c43c           0x14          20   
.rodata.sysConsole0UART   0x41c450           0x14          20   
.text.vPortEnableVFP      0x41c464           0x14          20   
.text.vPortExitCritical   0x41c478           0x14          20   
.rodata                   0x41c48c           0x14          20  Read-only const 
.text.register_fini       0x41c4a0           0x14          20   
.rodata                   0x41c4b4           0x14          20  Read-only const 
.text._Bfree              0x41c4c8           0x14          20   
.text.__i2b               0x41c4dc           0x14          20   
.text.DRV_GMAC_Status     0x41c4f0           0x12          18   
.text.DRV_GMAC_Close      0x41c502           0x12          18   
.text.DRV_GMAC_Deinitia   0x41c514           0x12          18   
.text.TCPIP_TCP_GetIsRe   0x41c526           0x12          18   
.text.TCPIP_STACK_NetNa   0x41c538           0x12          18   
.text.IsCommandReady      0x41c54a           0x12          18   
.text.SYS_INT_Disable     0x41c55c           0x12          18   
.text.SYS_INT_Restore     0x41c56e           0x12          18   
.text.OSAL_SEM_Delete     0x41c580           0x12          18   
.rodata._DRV_PHY_SetupP   0x41c594           0x10          16   
.rodata.DRV_ETHPHY_OBJE   0x41c5a4           0x10          16   
.text.TCPIP_DNS_GetIPv4   0x41c5b4           0x10          16   
.text.TCPIP_DNS_GetIPv6   0x41c5c4           0x10          16   
.text.TCPIP_Notificatio   0x41c5d4           0x10          16   
.text.sy_time_h2_adapte   0x41c5e4           0x10          16   
.text._APP_Tasks          0x41c5f4           0x10          16   
.text._SYS_CMD_Tasks      0x41c604           0x10          16   
.rodata.tcpipDHCPInitDa   0x41c614           0x10          16   
.text.vTaskSuspendAll     0x41c624           0x10          16   
.text.calloc              0x41c634           0x10          16   
.text.malloc              0x41c644           0x10          16   
.text.free                0x41c654           0x10          16   
.text.strtok              0x41c664           0x10          16   
.rodata.blanks.8352       0x41c674           0x10          16   
.rodata.zeroes.8353       0x41c684           0x10          16   
.text.DRV_ETHPHY_Status   0x41c694            0xe          14   
.text.DRV_ETHPHY_Client   0x41c6a2            0xe          14   
.text.DRV_ETHPHY_Client   0x41c6b0            0xe          14   
.text.DRV_ETHPHY_Vendor   0x41c6be            0xe          14   
.text.btohexa_low         0x41c6cc            0xe          14   
.text.TCPIP_Helper_Chec   0x41c6da            0xe          14   
.text.TCPIP_STACK_NetIn   0x41c6e8            0xe          14   
.text.TCPIP_STACK_NetIx   0x41c6f6            0xe          14   
.text._TCPIPStackSignal   0x41c704            0xe          14   
.text.main                0x41c712            0xe          14   
.rodata._DRV_PHY_LinkSt   0x41c720            0xc          12   
.rodata._DRV_PHY_NegRes   0x41c72c            0xc          12   
.rodata._DRV_PHY_ResetP   0x41c738            0xc          12   
.text._DRV_GMAC_GetTxOc   0x41c744            0xc          12   
.text._DRV_GMAC_GetTxOc   0x41c750            0xc          12   
.text._DRV_GMAC_GetTxFr   0x41c75c            0xc          12   
.text._DRV_GMAC_GetTxBC   0x41c768            0xc          12   
.text._DRV_GMAC_GetTxMC   0x41c774            0xc          12   
.text._DRV_GMAC_GetTxPa   0x41c780            0xc          12   
.text._DRV_GMAC_GetTx64   0x41c78c            0xc          12   
.text._DRV_GMAC_GetTx12   0x41c798            0xc          12   
.text._DRV_GMAC_GetTx25   0x41c7a4            0xc          12   
.text._DRV_GMAC_GetTx51   0x41c7b0            0xc          12   
.text._DRV_GMAC_GetTx10   0x41c7bc            0xc          12   
.text._DRV_GMAC_GetTx15   0x41c7c8            0xc          12   
.text._DRV_GMAC_GetTxGT   0x41c7d4            0xc          12   
.text._DRV_GMAC_GetTxUn   0x41c7e0            0xc          12   
.text._DRV_GMAC_GetTxSi   0x41c7ec            0xc          12   
.text._DRV_GMAC_GetTxMu   0x41c7f8            0xc          12   
.text._DRV_GMAC_GetTxEx   0x41c804            0xc          12   
.text._DRV_GMAC_GetTxLa   0x41c810            0xc          12   
.text._DRV_GMAC_GetTxDe   0x41c81c            0xc          12   
.text._DRV_GMAC_GetTxCS   0x41c828            0xc          12   
.text._DRV_GMAC_GetRxOc   0x41c834            0xc          12   
.text._DRV_GMAC_GetRxOc   0x41c840            0xc          12   
.text._DRV_GMAC_GetRxFr   0x41c84c            0xc          12   
.text._DRV_GMAC_GetRxBC   0x41c858            0xc          12   
.text._DRV_GMAC_GetRxMC   0x41c864            0xc          12   
.text._DRV_GMAC_GetRxPa   0x41c870            0xc          12   
.text._DRV_GMAC_GetRx64   0x41c87c            0xc          12   
.text._DRV_GMAC_GetRx12   0x41c888            0xc          12   
.text._DRV_GMAC_GetRx25   0x41c894            0xc          12   
.text._DRV_GMAC_GetRx51   0x41c8a0            0xc          12   
.text._DRV_GMAC_GetRx10   0x41c8ac            0xc          12   
.text._DRV_GMAC_GetRx15   0x41c8b8            0xc          12   
.text._DRV_GMAC_GetRxGT   0x41c8c4            0xc          12   
.text._DRV_GMAC_GetRxUn   0x41c8d0            0xc          12   
.text._DRV_GMAC_GetRxOv   0x41c8dc            0xc          12   
.text._DRV_GMAC_GetRxJa   0x41c8e8            0xc          12   
.text._DRV_GMAC_GetRxFC   0x41c8f4            0xc          12   
.text._DRV_GMAC_GetRxLF   0x41c900            0xc          12   
.text._DRV_GMAC_GetRxSy   0x41c90c            0xc          12   
.text._DRV_GMAC_GetRxAl   0x41c918            0xc          12   
.text._DRV_GMAC_GetRxRe   0x41c924            0xc          12   
.text._DRV_GMAC_GetRxOv   0x41c930            0xc          12   
.text._DRV_GMAC_GetRxIP   0x41c93c            0xc          12   
.text._DRV_GMAC_GetRxTC   0x41c948            0xc          12   
.text._DRV_GMAC_GetRxUD   0x41c954            0xc          12   
.text.btohexa_high        0x41c960            0xc          12   
.text.TCPIP_DNS_OAHASH_   0x41c96c            0xc          12   
.text.TCPIP_DNS_Enable    0x41c978            0xc          12   
.text.TCPIP_ARP_HashKey   0x41c984            0xc          12   
.text.TCPIP_STACK_NetDe   0x41c990            0xc          12   
.text.TCPIP_STACK_Numbe   0x41c99c            0xc          12   
.rodata.TCPIP_STACK_IF_   0x41c9a8            0xc          12   
.text.TCPIP_PKT_Deiniti   0x41c9b4            0xc          12   
.text.TC0_CH0_TimerStar   0x41c9c0            0xc          12   
.text.TC0_CH0_TimerStop   0x41c9cc            0xc          12   
.text.TC0_CH0_TimerPeri   0x41c9d8            0xc          12   
.text.TC0_CH0_TimerComp   0x41c9e4            0xc          12   
.text.TC0_CH0_TimerCoun   0x41c9f0            0xc          12   
.text.TC0_CH0_TimerCall   0x41c9fc            0xc          12   
.text.USART1_WriteCallb   0x41ca08            0xc          12   
.text.USART1_ReadCallba   0x41ca14            0xc          12   
.text.SYS_DEBUG_ErrorLe   0x41ca20            0xc          12   
.text.SYS_CMD_MESSAGE     0x41ca2c            0xc          12   
.text.SYS_TIME_Frequenc   0x41ca38            0xc          12   
.rodata.sysConsole0Init   0x41ca44            0xc          12   
.text.vTaskMissedYield    0x41ca50            0xc          12   
.rodata.appCmdTbl         0x41ca5c            0xc          12   
.text.atexit              0x41ca68            0xc          12   
.rodata.p05.7179          0x41ca74            0xc          12   
.text.GMAC_InterruptHan   0x41ca80            0xa          10   
.text.TCPIP_DNS_Resolve   0x41ca8a            0xa          10   
.text._Command_ZcllOnOf   0x41ca94            0xa          10   
.text._Command_DHCPSOnO   0x41ca9e            0xa          10   
.text.TCPIP_Helper_Sing   0x41caa8            0xa          10   
.text.TCPIP_STACK_NetBI   0x41cab2            0xa          10   
.text._TCPIPStackAddres   0x41cabc            0xa          10   
.text.TCPIP_UDP_ClientO   0x41cac6            0xa          10   
.text._DRV_ETHPHY_Clien   0x41cad0            0x8           8   
.text.DRV_EXTPHY_SMIClo   0x41cad8            0x8           8   
.text.DRV_GMAC_EventPen   0x41cae0            0x8           8   
.text.TCPIP_HEAP_Malloc   0x41cae8            0x8           8   
.text.TCPIP_HEAP_Calloc   0x41caf0            0x8           8   
.text.TCPIP_HEAP_FreeOu   0x41caf8            0x8           8   
.text.TCPIP_STACK_Gatew   0x41cb00            0x8           8   
.text.TCPIP_STACK_Prima   0x41cb08            0x8           8   
.text.TCPIP_STACK_Secon   0x41cb10            0x8           8   
.text.TCPIP_STACK_NetGe   0x41cb18            0x8           8   
.text.TCPIP_Notificatio   0x41cb20            0x8           8   
.text.TCPIP_UDP_TxPutIs   0x41cb28            0x8           8   
.text.TC0_CH0_TimerFreq   0x41cb30            0x8           8   
.rodata.drvMiimInitData   0x41cb38            0x8           8   
.rodata.sysTimeInitData   0x41cb40            0x8           8   
.rodata.tcpipTCPInitDat   0x41cb48            0x8           8   
.rodata.tcpipUDPInitDat   0x41cb50            0x8           8   
.text.vQueueDelete        0x41cb58            0x8           8   
.rodata                   0x41cb60            0x8           8  Read-only const 
.text.atoi                0x41cb68            0x8           8   
.text.__locale_ctype_pt   0x41cb70            0x8           8   
.text.DRV_ETHPHY_SMIRea   0x41cb78            0x6           6   
.text.DRV_ETHPHY_SMIWri   0x41cb7e            0x6           6   
.text.DRV_ETHPHY_SMISca   0x41cb84            0x6           6   
.text.DRV_ETHPHY_SMISca   0x41cb8a            0x6           6   
.text.DRV_ETHPHY_SMISca   0x41cb90            0x6           6   
.text.DRV_ETHPHY_SMISca   0x41cb96            0x6           6   
.text.DRV_ETHPHY_SMISta   0x41cb9c            0x6           6   
.text.DRV_ETHPHY_SMIClo   0x41cba2            0x6           6   
.text.TCPIP_ARP_HashKey   0x41cba8            0x6           6   
.text.vListInitialiseIt   0x41cbae            0x6           6   
.text.GetCommandCharact   0x41cbb4            0x4           4   
.rodata._seqDownArrow     0x41cbb8            0x4           4   
.rodata._seqLeftArrow     0x41cbbc            0x4           4   
.rodata._seqRightArrow    0x41cbc0            0x4           4   
.rodata._seqUpArrow       0x41cbc4            0x4           4   
.rodata.debugInit         0x41cbc8            0x4           4   
.rodata.sysCmdInit        0x41cbcc            0x4           4   
.text                     0x41cbd0            0x4           4  App's exec code 
.rodata._global_impure_   0x41cbd4            0x4           4   
.text.__malloc_lock       0x41cbd8            0x4           4   
.text.__malloc_unlock     0x41cbdc            0x4           4   
      Total ROM used  :     0x1cbbc      117692  5.6% of 0x200000
        --------------------------------------------------------------------------
         Total Program Memory used  :     0x1cbbc      117692  5.6% of 0x200000
        --------------------------------------------------------------------------


RAM Data-Memory Usage
section                    address  length [bytes]      (dec)  Description
-------                 ----------  -------------------------  -----------
.bss                    0x20400000          0x5f0        1520  Uninitialized data 
.data.__malloc_av_      0x204005f0          0x408        1032   
.data._gmac_drv_dcpt    0x204009f8          0x304         772   
.bss.TCPIP_STACK_MODULE 0x20400cfc          0x250         592   
.bss.sysConsole0UARTWrQ 0x20400f4c          0x208         520   
.data.__global_locale   0x20401154          0x16c         364   
.bss.tmpBuf             0x204012c0           0xc8         200   
.bss.timers             0x20401388           0xa0         160   
.bss.gDrvMIIMObj        0x20401428           0x94         148   
.bss.TCPIP_MODULES_QUEU 0x204014bc           0x90         144   
.bss.saveCmd.7379       0x2040154c           0x81         129   
.bss.tcpipCmdStat       0x204015cd            0x1           1   
.bss.tcpDefTxSize       0x204015ce            0x2           2   
.bss._usrCmdTbl         0x204015d0           0x80         128   
.bss.readBuff           0x20401650           0x80         128   
.bss.gDrvETHPHYObj      0x204016d0           0x64         100   
.bss.gConsoleUartData   0x20401734           0x64         100   
.bss.pxReadyTasksLists  0x20401798           0x64         100   
.bss.sysConsole0UARTRdQ 0x204017fc           0x58          88   
.bss.arpMod             0x20401854           0x48          72   
.bss.gSystemCounterObj  0x2040189c           0x38          56   
.bss.gDnsDcpt           0x204018d4           0x28          40   
.bss.__malloc_current_m 0x204018fc           0x28          40   
.bss.dnslookupTargetHos 0x20401924           0x1f          31   
.bss.discard_flag.13927 0x20401943            0x1           1   
.bss                    0x20401944           0x1c          28  Uninitialized data 
.bss._cmdAppData        0x20401960           0x18          24   
.bss.dhcpRegisteredUser 0x20401978           0x14          20   
.bss.cmdTcpipInitData   0x2040198c           0x14          20   
.bss.ipv4ArpQueue       0x204019a0           0x14          20   
.bss.ipv4PacketFilters  0x204019b4           0x14          20   
.bss.tcpip_init_data    0x204019c8           0x14          20   
.data.tcpipHeapConfig   0x204019dc           0x14          20   
.bss.xDelayedTaskList1  0x204019f0           0x14          20   
.bss.xDelayedTaskList2  0x20401a04           0x14          20   
.bss.xPendingReadyList  0x20401a18           0x14          20   
.bss.xSuspendedTaskList 0x20401a2c           0x14          20   
.bss.xTasksWaitingTermi 0x20401a40           0x14          20   
.bss.tcpip_heap_config  0x20401a54           0x10          16   
.bss.consoleDeviceInsta 0x20401a64            0xc          12   
.bss.cmdIODevList       0x20401a70            0xc          12   
.bss._cmdList           0x20401a7c            0x8           8   
.data.dwLastIP.13363    0x20401a84            0x8           8   
.data.arpBcastAdd       0x20401a8c            0x6           6   
.bss.tcpDefRxSize       0x20401a92            0x2           2   
.bss._hEventMac         0x20401a94            0x4           4   
.bss._MIIMStayAssertLoo 0x20401a98            0x4           4   
.bss._DNSStayAssertLoop 0x20401a9c            0x4           4   
.bss._DNSStayCondLoop   0x20401aa0            0x4           4   
.bss.dnsInitCount       0x20401aa4            0x4           4   
.bss.pgDnsDcpt          0x20401aa8            0x4           4   
.bss.icmpInitCount      0x20401aac            0x4           4   
.bss.signalHandle       0x20401ab0            0x4           4   
.bss.TCBStubs           0x20401ab4            0x4           4   
.bss.TcpSockets         0x20401ab8            0x4           4   
.bss.tcpHeapH           0x20401abc            0x4           4   
.bss.tcpInitCount       0x20401ac0            0x4           4   
.bss.tcpLockCount       0x20401ac4            0x4           4   
.bss.tcpSemaphore       0x20401ac8            0x4           4   
.bss.tcpSignalHandle    0x20401acc            0x4           4   
.bss.DHCPClients        0x20401ad0            0x4           4   
.bss.dhcpFilterHandle   0x20401ad4            0x4           4   
.bss.dhcpInitCount      0x20401ad8            0x4           4   
.bss.dhcpInterfaces     0x20401adc            0x4           4   
.bss.dhcpMemH           0x20401ae0            0x4           4   
.bss.dhcpSecondCount    0x20401ae4            0x4           4   
.bss.dhcpSignalHandle   0x20401ae8            0x4           4   
.bss.dnsLookUpStartTick 0x20401aec            0x4           4   
.bss.dnsLookupCmdIoPara 0x20401af0            0x4           4   
.bss.initialNetIfs      0x20401af4            0x4           4   
.bss.pCmdTcpipInitData  0x20401af8            0x4           4   
.bss.pTcpipCmdDevice    0x20401afc            0x4           4   
.bss.tcpipCmdSignalHand 0x20401b00            0x4           4   
.bss._IPv4StayAssertLoo 0x20401b04            0x4           4   
.bss.ipv4ArpHandle      0x20401b08            0x4           4   
.bss.ipv4MemH           0x20401b0c            0x4           4   
.bss.signalHandle       0x20401b10            0x4           4   
.bss.newTcpipErrorEvent 0x20401b14            0x4           4   
.bss.newTcpipStackEvent 0x20401b18            0x4           4   
.bss.newTcpipTickAvlbl  0x20401b1c            0x4           4   
.bss.stackAsyncSignalCo 0x20401b20            0x4           4   
.bss.stackTaskRate      0x20401b24            0x4           4   
.bss.tcpipDefIf         0x20401b28            0x4           4   
.bss.tcpipNetIf         0x20401b2c            0x4           4   
.bss.totTcpipEventsCnt  0x20401b30            0x4           4   
.data.tcpip_stack_tickH 0x20401b34            0x4           4   
.bss.pktMemH            0x20401b38            0x4           4   
.bss.UDPSocketDcpt      0x20401b3c            0x4           4   
.bss.nUdpSockets        0x20401b40            0x4           4   
.bss.signalHandle       0x20401b44            0x4           4   
.bss.udpInitCount       0x20401b48            0x4           4   
.bss.udpMemH            0x20401b4c            0x4           4   
.bss.userSem            0x20401b50            0x4           4   
.bss._pCurrCmdN         0x20401b54            0x4           4   
.bss.printBuffPtr       0x20401b58            0x4           4   
.bss.systemAdaptObj     0x20401b5c            0x4           4   
.bss.cmd.13380          0x20401b60            0x4           4   
.data.uxCriticalNesting 0x20401b64            0x4           4   
.bss.pxCurrentTCB       0x20401b68            0x4           4   
.bss.pxDelayedTaskList  0x20401b6c            0x4           4   
.bss.pxOverflowDelayedT 0x20401b70            0x4           4   
.bss.uxCurrentNumberOfT 0x20401b74            0x4           4   
.bss.uxDeletedTasksWait 0x20401b78            0x4           4   
.bss.uxPendedTicks      0x20401b7c            0x4           4   
.bss.uxSchedulerSuspend 0x20401b80            0x4           4   
.bss.uxTaskNumber       0x20401b84            0x4           4   
.bss.uxTopReadyPriority 0x20401b88            0x4           4   
.bss.xIdleTaskHandle    0x20401b8c            0x4           4   
.bss.xNextTaskUnblockTi 0x20401b90            0x4           4   
.bss.xNumOfOverflows    0x20401b94            0x4           4   
.bss.xSchedulerRunning  0x20401b98            0x4           4   
.bss.xTickCount         0x20401b9c            0x4           4   
.bss.xYieldPending      0x20401ba0            0x4           4   
.data._impure_ptr       0x20401ba4            0x4           4   
.bss.__malloc_max_sbrke 0x20401ba8            0x4           4   
.bss.__malloc_max_total 0x20401bac            0x4           4   
.bss.__malloc_top_pad   0x20401bb0            0x4           4   
.data.__malloc_sbrk_bas 0x20401bb4            0x4           4   
.data.__malloc_trim_thr 0x20401bb8            0x4           4   
.bss                    0x20401bbc            0x4           4  Uninitialized data 
.bss.dhcpClientPort     0x20401bc0            0x2           2   
.bss.dhcpClientSocket   0x20401bc2            0x2           2   
.bss.dhcpServerPort     0x20401bc4            0x2           2   
.bss.ipv4Identifier     0x20401bc6            0x2           2   
.bss.ipv4InitCount      0x20401bc8            0x2           2   
.bss.udpDefTxSize       0x20401bca            0x2           2   
.data.gSysTimeTokenCoun 0x20401bcc            0x2           2   
.data.dnsType           0x20401bce            0x1           1   
.bss.ipv4FilterType     0x20401bcf            0x1           1   
.bss.tcpip_stack_status 0x20401bd0            0x1           1   
.bss.gmac_dcpt_array    0x2045f000           0xf0         240   
.bss.printBuff          0x2045f0f0          0xa00        2560   
.data.impure_data       0x2045faf0          0x428        1064   
.bss.printBuffer        0x2045ff18           0xc8         200   
.bss.tcpip_stack_ctrl_d 0x2045ffe0           0x20          32   
         Total RAM used  :      0x2bd1       11217  2.9% of 0x60000
        --------------------------------------------------------------------------
            Total Data Memory used  :      0x2bd1       11217  2.9% of 0x60000
        --------------------------------------------------------------------------


Dynamic Data-Memory Reservation
section                    address  length [bytes]      (dec)  Description
-------                 ----------  -------------------------  -----------
heap                    0x20401bd8        0x17ac0       96960  Reserved for heap 
stack                   0x204196b0        0x45948      285000  Reserved for stack 

        --------------------------------------------------------------------------

Discarded input sections

 .text          0x00000000        0x0 c:/program files (x86)/microchip/xc32/v2.15/bin/bin/../../lib/gcc/pic32c/6.2.1/v7e-m/fpv5/hard/crti.o
 .data          0x00000000        0x0 c:/program files (x86)/microchip/xc32/v2.15/bin/bin/../../lib/gcc/pic32c/6.2.1/v7e-m/fpv5/hard/crti.o
 .bss           0x00000000        0x0 c:/program files (x86)/microchip/xc32/v2.15/bin/bin/../../lib/gcc/pic32c/6.2.1/v7e-m/fpv5/hard/crti.o
 .data          0x00000000        0x4 c:/program files (x86)/microchip/xc32/v2.15/bin/bin/../../lib/gcc/pic32c/6.2.1/v7e-m/fpv5/hard/crtbegin.o
 .text          0x00000000       0x74 c:/program files (x86)/microchip/xc32/v2.15/bin/bin/../../lib/gcc/pic32c/6.2.1/../../../../pic32c/lib/v7e-m/fpv5/hard/crt0.o
 .data          0x00000000        0x0 c:/program files (x86)/microchip/xc32/v2.15/bin/bin/../../lib/gcc/pic32c/6.2.1/../../../../pic32c/lib/v7e-m/fpv5/hard/crt0.o
 .bss           0x00000000        0x0 c:/program files (x86)/microchip/xc32/v2.15/bin/bin/../../lib/gcc/pic32c/6.2.1/../../../../pic32c/lib/v7e-m/fpv5/hard/crt0.o
 .ARM.extab     0x00000000        0x0 c:/program files (x86)/microchip/xc32/v2.15/bin/bin/../../lib/gcc/pic32c/6.2.1/../../../../pic32c/lib/v7e-m/fpv5/hard/crt0.o
 .ARM.exidx     0x00000000        0x8 c:/program files (x86)/microchip/xc32/v2.15/bin/bin/../../lib/gcc/pic32c/6.2.1/../../../../pic32c/lib/v7e-m/fpv5/hard/crt0.o
 .debug_line    0x00000000       0xcc c:/program files (x86)/microchip/xc32/v2.15/bin/bin/../../lib/gcc/pic32c/6.2.1/../../../../pic32c/lib/v7e-m/fpv5/hard/crt0.o
 .debug_info    0x00000000      0x11d c:/program files (x86)/microchip/xc32/v2.15/bin/bin/../../lib/gcc/pic32c/6.2.1/../../../../pic32c/lib/v7e-m/fpv5/hard/crt0.o
 .debug_abbrev  0x00000000       0x14 c:/program files (x86)/microchip/xc32/v2.15/bin/bin/../../lib/gcc/pic32c/6.2.1/../../../../pic32c/lib/v7e-m/fpv5/hard/crt0.o
 .debug_aranges
                0x00000000       0x20 c:/program files (x86)/microchip/xc32/v2.15/bin/bin/../../lib/gcc/pic32c/6.2.1/../../../../pic32c/lib/v7e-m/fpv5/hard/crt0.o
 .ARM.attributes
                0x00000000       0x1e c:/program files (x86)/microchip/xc32/v2.15/bin/bin/../../lib/gcc/pic32c/6.2.1/../../../../pic32c/lib/v7e-m/fpv5/hard/crt0.o
 .text          0x00000000        0x0 build/sam_e70_xult_freertos/production/_ext/683629640/bsp.o
 .data          0x00000000        0x0 build/sam_e70_xult_freertos/production/_ext/683629640/bsp.o
 .bss           0x00000000        0x0 build/sam_e70_xult_freertos/production/_ext/683629640/bsp.o
 .text          0x00000000        0x0 build/sam_e70_xult_freertos/production/_ext/1607428259/drv_ethphy.o
 .data          0x00000000        0x0 build/sam_e70_xult_freertos/production/_ext/1607428259/drv_ethphy.o
 .bss           0x00000000        0x0 build/sam_e70_xult_freertos/production/_ext/1607428259/drv_ethphy.o
 .bss._PhyStayAssertLoop
                0x00000000        0x4 build/sam_e70_xult_freertos/production/_ext/1607428259/drv_ethphy.o
 .bss._PhyStayCondLoop
                0x00000000        0x4 build/sam_e70_xult_freertos/production/_ext/1607428259/drv_ethphy.o
 .text          0x00000000        0x0 build/sam_e70_xult_freertos/production/_ext/1607428259/drv_extphy_smsc8740.o
 .data          0x00000000        0x0 build/sam_e70_xult_freertos/production/_ext/1607428259/drv_extphy_smsc8740.o
 .bss           0x00000000        0x0 build/sam_e70_xult_freertos/production/_ext/1607428259/drv_extphy_smsc8740.o
 .text          0x00000000        0x0 build/sam_e70_xult_freertos/production/_ext/1619526243/drv_gmac.o
 .data          0x00000000        0x0 build/sam_e70_xult_freertos/production/_ext/1619526243/drv_gmac.o
 .bss           0x00000000        0x0 build/sam_e70_xult_freertos/production/_ext/1619526243/drv_gmac.o
 .text          0x00000000        0x0 build/sam_e70_xult_freertos/production/_ext/1619526243/drv_gmac_lib_samE7x_V7x.o
 .data          0x00000000        0x0 build/sam_e70_xult_freertos/production/_ext/1619526243/drv_gmac_lib_samE7x_V7x.o
 .bss           0x00000000        0x0 build/sam_e70_xult_freertos/production/_ext/1619526243/drv_gmac_lib_samE7x_V7x.o
 .text          0x00000000        0x0 build/sam_e70_xult_freertos/production/_ext/511568427/drv_miim.o
 .data          0x00000000        0x0 build/sam_e70_xult_freertos/production/_ext/511568427/drv_miim.o
 .bss           0x00000000        0x0 build/sam_e70_xult_freertos/production/_ext/511568427/drv_miim.o
 .text.Helper_SingleListInitialize
                0x00000000        0xa build/sam_e70_xult_freertos/production/_ext/511568427/drv_miim.o
 .bss._MIIMStayCondLoop
                0x00000000        0x4 build/sam_e70_xult_freertos/production/_ext/511568427/drv_miim.o
 .text          0x00000000        0x0 build/sam_e70_xult_freertos/production/_ext/810785262/helpers.o
 .data          0x00000000        0x0 build/sam_e70_xult_freertos/production/_ext/810785262/helpers.o
 .bss           0x00000000        0x0 build/sam_e70_xult_freertos/production/_ext/810785262/helpers.o
 .text.uitoa    0x00000000       0x60 build/sam_e70_xult_freertos/production/_ext/810785262/helpers.o
 .text.strncpy_m
                0x00000000       0x70 build/sam_e70_xult_freertos/production/_ext/810785262/helpers.o
 .text.stricmp  0x00000000       0x6a build/sam_e70_xult_freertos/production/_ext/810785262/helpers.o
 .text          0x00000000        0x0 build/sam_e70_xult_freertos/production/_ext/810785262/dns.o
 .data          0x00000000        0x0 build/sam_e70_xult_freertos/production/_ext/810785262/dns.o
 .bss           0x00000000        0x0 build/sam_e70_xult_freertos/production/_ext/810785262/dns.o
 .text.TCPIP_DNS_Send_Query
                0x00000000        0xa build/sam_e70_xult_freertos/production/_ext/810785262/dns.o
 .text.TCPIP_DNS_IsNameResolved
                0x00000000        0xa build/sam_e70_xult_freertos/production/_ext/810785262/dns.o
 .text.TCPIP_DNS_IsEnabled
                0x00000000       0x1e build/sam_e70_xult_freertos/production/_ext/810785262/dns.o
 .text          0x00000000        0x0 build/sam_e70_xult_freertos/production/_ext/810785262/icmp.o
 .data          0x00000000        0x0 build/sam_e70_xult_freertos/production/_ext/810785262/icmp.o
 .bss           0x00000000        0x0 build/sam_e70_xult_freertos/production/_ext/810785262/icmp.o
 .text          0x00000000        0x0 build/sam_e70_xult_freertos/production/_ext/810785262/tcp.o
 .data          0x00000000        0x0 build/sam_e70_xult_freertos/production/_ext/810785262/tcp.o
 .bss           0x00000000        0x0 build/sam_e70_xult_freertos/production/_ext/810785262/tcp.o
 .text.TCPIP_TCP_SocketTraceSet
                0x00000000        0x4 build/sam_e70_xult_freertos/production/_ext/810785262/tcp.o
 .text.TCPIP_TCP_ServerOpen
                0x00000000       0xa8 build/sam_e70_xult_freertos/production/_ext/810785262/tcp.o
 .text.TCPIP_TCP_WasReset
                0x00000000       0x2a build/sam_e70_xult_freertos/production/_ext/810785262/tcp.o
 .text.TCPIP_TCP_Disconnect
                0x00000000       0x1a build/sam_e70_xult_freertos/production/_ext/810785262/tcp.o
 .text.TCPIP_TCP_Abort
                0x00000000       0x14 build/sam_e70_xult_freertos/production/_ext/810785262/tcp.o
 .text.TCPIP_TCP_Connect
                0x00000000       0x2e build/sam_e70_xult_freertos/production/_ext/810785262/tcp.o
 .text.TCPIP_TCP_Close
                0x00000000       0x3c build/sam_e70_xult_freertos/production/_ext/810785262/tcp.o
 .text.TCPIP_TCP_SocketsNumberGet
                0x00000000        0xc build/sam_e70_xult_freertos/production/_ext/810785262/tcp.o
 .text.TCPIP_TCP_Flush
                0x00000000       0x24 build/sam_e70_xult_freertos/production/_ext/810785262/tcp.o
 .text.TCPIP_TCP_Put
                0x00000000       0x18 build/sam_e70_xult_freertos/production/_ext/810785262/tcp.o
 .text.TCPIP_TCP_StringPut
                0x00000000       0x1a build/sam_e70_xult_freertos/production/_ext/810785262/tcp.o
 .text.TCPIP_TCP_FifoTxFullGet
                0x00000000       0x3c build/sam_e70_xult_freertos/production/_ext/810785262/tcp.o
 .text.TCPIP_TCP_SocketInfoGet
                0x00000000       0x6e build/sam_e70_xult_freertos/production/_ext/810785262/tcp.o
 .text.TCPIP_TCP_FifoTxFreeGet
                0x00000000       0x20 build/sam_e70_xult_freertos/production/_ext/810785262/tcp.o
 .text.TCPIP_TCP_Discard
                0x00000000       0x26 build/sam_e70_xult_freertos/production/_ext/810785262/tcp.o
 .text.TCPIP_TCP_Get
                0x00000000        0xa build/sam_e70_xult_freertos/production/_ext/810785262/tcp.o
 .text.TCPIP_TCP_FifoRxFreeGet
                0x00000000       0x1e build/sam_e70_xult_freertos/production/_ext/810785262/tcp.o
 .text.TCPIP_TCP_ArrayPeek
                0x00000000       0x62 build/sam_e70_xult_freertos/production/_ext/810785262/tcp.o
 .text.TCPIP_TCP_Peek
                0x00000000       0x1a build/sam_e70_xult_freertos/production/_ext/810785262/tcp.o
 .text.TCPIP_TCP_ArrayFind
                0x00000000      0x262 build/sam_e70_xult_freertos/production/_ext/810785262/tcp.o
 .text.TCPIP_TCP_Find
                0x00000000       0x20 build/sam_e70_xult_freertos/production/_ext/810785262/tcp.o
 .text.TCPIP_TCP_FifoSizeAdjust
                0x00000000      0x2fc build/sam_e70_xult_freertos/production/_ext/810785262/tcp.o
 .text.TCPIP_TCP_SocketNetSet
                0x00000000       0x2a build/sam_e70_xult_freertos/production/_ext/810785262/tcp.o
 .text.TCPIP_TCP_SocketNetGet
                0x00000000       0x10 build/sam_e70_xult_freertos/production/_ext/810785262/tcp.o
 .text.TCPIP_TCP_Bind
                0x00000000       0xce build/sam_e70_xult_freertos/production/_ext/810785262/tcp.o
 .text.TCPIP_TCP_OptionsSet
                0x00000000      0x106 build/sam_e70_xult_freertos/production/_ext/810785262/tcp.o
 .text.TCPIP_TCP_OptionsGet
                0x00000000       0xb2 build/sam_e70_xult_freertos/production/_ext/810785262/tcp.o
 .text.TCPIP_TCP_DestinationIPAddressSet
                0x00000000       0x4e build/sam_e70_xult_freertos/production/_ext/810785262/tcp.o
 .text.TCPIP_TCP_RemoteBind
                0x00000000       0x4e build/sam_e70_xult_freertos/production/_ext/810785262/tcp.o
 .text.TCPIP_TCP_SourceIPAddressSet
                0x00000000       0x2e build/sam_e70_xult_freertos/production/_ext/810785262/tcp.o
 .text.TCPIP_TCP_SignalHandlerRegister
                0x00000000       0x2c build/sam_e70_xult_freertos/production/_ext/810785262/tcp.o
 .text.TCPIP_TCP_SignalHandlerDeregister
                0x00000000       0x24 build/sam_e70_xult_freertos/production/_ext/810785262/tcp.o
 .text.TCPIP_TCP_IsReady
                0x00000000        0x4 build/sam_e70_xult_freertos/production/_ext/810785262/tcp.o
 .text          0x00000000        0x0 build/sam_e70_xult_freertos/production/_ext/810785262/dhcp.o
 .data          0x00000000        0x0 build/sam_e70_xult_freertos/production/_ext/810785262/dhcp.o
 .bss           0x00000000        0x0 build/sam_e70_xult_freertos/production/_ext/810785262/dhcp.o
 .text.TCPIP_DHCP_IsBound
                0x00000000       0x48 build/sam_e70_xult_freertos/production/_ext/810785262/dhcp.o
 .text.TCPIP_DHCP_IsServerDetected
                0x00000000       0x48 build/sam_e70_xult_freertos/production/_ext/810785262/dhcp.o
 .text.TCPIP_DHCP_RequestTimeoutSet
                0x00000000       0x58 build/sam_e70_xult_freertos/production/_ext/810785262/dhcp.o
 .text.TCPIP_DHCP_HandlerRegister
                0x00000000       0x34 build/sam_e70_xult_freertos/production/_ext/810785262/dhcp.o
 .text.TCPIP_DHCP_HandlerDeRegister
                0x00000000       0x24 build/sam_e70_xult_freertos/production/_ext/810785262/dhcp.o
 .text.TCPIP_DHCP_HostNameCallbackRegister
                0x00000000       0x54 build/sam_e70_xult_freertos/production/_ext/810785262/dhcp.o
 .text          0x00000000        0x0 build/sam_e70_xult_freertos/production/_ext/810785262/arp.o
 .data          0x00000000        0x0 build/sam_e70_xult_freertos/production/_ext/810785262/arp.o
 .bss           0x00000000        0x0 build/sam_e70_xult_freertos/production/_ext/810785262/arp.o
 .text.TCPIP_ARP_Resolve
                0x00000000       0x46 build/sam_e70_xult_freertos/production/_ext/810785262/arp.o
 .text.TCPIP_ARP_EntrySet
                0x00000000       0xe4 build/sam_e70_xult_freertos/production/_ext/810785262/arp.o
 .text.TCPIP_ARP_EntryRemoveAll
                0x00000000       0x84 build/sam_e70_xult_freertos/production/_ext/810785262/arp.o
 .text.TCPIP_ARP_CacheThresholdSet
                0x00000000       0x50 build/sam_e70_xult_freertos/production/_ext/810785262/arp.o
 .text          0x00000000        0x0 build/sam_e70_xult_freertos/production/_ext/810785262/tcpip_commands.o
 .data          0x00000000        0x0 build/sam_e70_xult_freertos/production/_ext/810785262/tcpip_commands.o
 .bss           0x00000000        0x0 build/sam_e70_xult_freertos/production/_ext/810785262/tcpip_commands.o
 .text          0x00000000        0x0 build/sam_e70_xult_freertos/production/_ext/810785262/ipv4.o
 .data          0x00000000        0x0 build/sam_e70_xult_freertos/production/_ext/810785262/ipv4.o
 .bss           0x00000000        0x0 build/sam_e70_xult_freertos/production/_ext/810785262/ipv4.o
 .text.TCPIP_IPV4_PacketFilterSet
                0x00000000       0x24 build/sam_e70_xult_freertos/production/_ext/810785262/ipv4.o
 .text.TCPIP_IPV4_PacketFilterClear
                0x00000000       0x24 build/sam_e70_xult_freertos/production/_ext/810785262/ipv4.o
 .text.TCPIP_IPV4_PacketAlloc
                0x00000000       0x7a build/sam_e70_xult_freertos/production/_ext/810785262/ipv4.o
 .text.TCPIP_IPV4_PacketOptionFieldSet
                0x00000000       0x36 build/sam_e70_xult_freertos/production/_ext/810785262/ipv4.o
 .text.TCPIP_IPV4_PacketOptionListGet
                0x00000000       0x62 build/sam_e70_xult_freertos/production/_ext/810785262/ipv4.o
 .text.TCPIP_IPV4_PacketOptionGet
                0x00000000       0x7c build/sam_e70_xult_freertos/production/_ext/810785262/ipv4.o
 .text          0x00000000        0x0 build/sam_e70_xult_freertos/production/_ext/810785262/tcpip_heap_alloc.o
 .data          0x00000000        0x0 build/sam_e70_xult_freertos/production/_ext/810785262/tcpip_heap_alloc.o
 .bss           0x00000000        0x0 build/sam_e70_xult_freertos/production/_ext/810785262/tcpip_heap_alloc.o
 .text._TCPIP_HEAP_PointerMapCached
                0x00000000        0x2 build/sam_e70_xult_freertos/production/_ext/810785262/tcpip_heap_alloc.o
 .text          0x00000000        0x0 build/sam_e70_xult_freertos/production/_ext/810785262/tcpip_heap_internal.o
 .data          0x00000000        0x0 build/sam_e70_xult_freertos/production/_ext/810785262/tcpip_heap_internal.o
 .bss           0x00000000        0x0 build/sam_e70_xult_freertos/production/_ext/810785262/tcpip_heap_internal.o
 .text          0x00000000        0x0 build/sam_e70_xult_freertos/production/_ext/810785262/hash_fnv.o
 .data          0x00000000        0x0 build/sam_e70_xult_freertos/production/_ext/810785262/hash_fnv.o
 .bss           0x00000000        0x0 build/sam_e70_xult_freertos/production/_ext/810785262/hash_fnv.o
 .text.fnv_32a_hash
                0x00000000       0x30 build/sam_e70_xult_freertos/production/_ext/810785262/hash_fnv.o
 .text          0x00000000        0x0 build/sam_e70_xult_freertos/production/_ext/810785262/oahash.o
 .data          0x00000000        0x0 build/sam_e70_xult_freertos/production/_ext/810785262/oahash.o
 .bss           0x00000000        0x0 build/sam_e70_xult_freertos/production/_ext/810785262/oahash.o
 .text          0x00000000        0x0 build/sam_e70_xult_freertos/production/_ext/810785262/tcpip_helpers.o
 .data          0x00000000        0x0 build/sam_e70_xult_freertos/production/_ext/810785262/tcpip_helpers.o
 .bss           0x00000000        0x0 build/sam_e70_xult_freertos/production/_ext/810785262/tcpip_helpers.o
 .text._TCPIP_Helper_SecurePortEntry
                0x00000000       0x38 build/sam_e70_xult_freertos/production/_ext/810785262/tcpip_helpers.o
 .text.TCPIP_Helper_IsPrivateAddress
                0x00000000       0x2c build/sam_e70_xult_freertos/production/_ext/810785262/tcpip_helpers.o
 .text.TCPIP_Helper_PowerModeToString
                0x00000000       0x18 build/sam_e70_xult_freertos/production/_ext/810785262/tcpip_helpers.o
 .text.TCPIP_Helper_Base64Decode
                0x00000000       0xea build/sam_e70_xult_freertos/production/_ext/810785262/tcpip_helpers.o
 .text.TCPIP_Helper_Base64Encode
                0x00000000      0x104 build/sam_e70_xult_freertos/production/_ext/810785262/tcpip_helpers.o
 .text.TCPIP_Helper_FindCommonPrefix
                0x00000000       0x4e build/sam_e70_xult_freertos/production/_ext/810785262/tcpip_helpers.o
 .text.TCPIP_Helper_SingleListHeadAdd
                0x00000000       0x16 build/sam_e70_xult_freertos/production/_ext/810785262/tcpip_helpers.o
 .text.TCPIP_Helper_SingleListMidAdd
                0x00000000        0xe build/sam_e70_xult_freertos/production/_ext/810785262/tcpip_helpers.o
 .text.TCPIP_Helper_SingleListNextRemove
                0x00000000       0x26 build/sam_e70_xult_freertos/production/_ext/810785262/tcpip_helpers.o
 .text.TCPIP_Helper_SingleListFind
                0x00000000       0x20 build/sam_e70_xult_freertos/production/_ext/810785262/tcpip_helpers.o
 .text.TCPIP_Helper_ProtectedSingleListHeadAdd
                0x00000000       0x2a build/sam_e70_xult_freertos/production/_ext/810785262/tcpip_helpers.o
 .text.TCPIP_Helper_ProtectedSingleListMidAdd
                0x00000000       0x30 build/sam_e70_xult_freertos/production/_ext/810785262/tcpip_helpers.o
 .text.TCPIP_Helper_ProtectedSingleListNextRemove
                0x00000000       0x30 build/sam_e70_xult_freertos/production/_ext/810785262/tcpip_helpers.o
 .text.TCPIP_Helper_ProtectedSingleListAppend
                0x00000000       0x2a build/sam_e70_xult_freertos/production/_ext/810785262/tcpip_helpers.o
 .text.TCPIP_Helper_DoubleListInitialize
                0x00000000        0xa build/sam_e70_xult_freertos/production/_ext/810785262/tcpip_helpers.o
 .text.TCPIP_Helper_DoubleListHeadAdd
                0x00000000       0x22 build/sam_e70_xult_freertos/production/_ext/810785262/tcpip_helpers.o
 .text.TCPIP_Helper_DoubleListTailAdd
                0x00000000       0x24 build/sam_e70_xult_freertos/production/_ext/810785262/tcpip_helpers.o
 .text.TCPIP_Helper_DoubleListMidAdd
                0x00000000       0x14 build/sam_e70_xult_freertos/production/_ext/810785262/tcpip_helpers.o
 .text.TCPIP_Helper_DoubleListHeadRemove
                0x00000000       0x24 build/sam_e70_xult_freertos/production/_ext/810785262/tcpip_helpers.o
 .text.TCPIP_Helper_DoubleListTailRemove
                0x00000000       0x24 build/sam_e70_xult_freertos/production/_ext/810785262/tcpip_helpers.o
 .text.TCPIP_Helper_DoubleListMidRemove
                0x00000000       0x14 build/sam_e70_xult_freertos/production/_ext/810785262/tcpip_helpers.o
 .text.TCPIP_Helper_DoubleListNodeRemove
                0x00000000       0x20 build/sam_e70_xult_freertos/production/_ext/810785262/tcpip_helpers.o
 .text.TCPIP_Helper_DoubleListFind
                0x00000000       0x20 build/sam_e70_xult_freertos/production/_ext/810785262/tcpip_helpers.o
 .text.TCPIP_Helper_ProtectedDoubleListInitialize
                0x00000000       0x22 build/sam_e70_xult_freertos/production/_ext/810785262/tcpip_helpers.o
 .text.TCPIP_Helper_ProtectedDoubleListDeinitialize
                0x00000000       0x30 build/sam_e70_xult_freertos/production/_ext/810785262/tcpip_helpers.o
 .text.TCPIP_Helper_ProtectedDoubleListHeadAdd
                0x00000000       0x2a build/sam_e70_xult_freertos/production/_ext/810785262/tcpip_helpers.o
 .text.TCPIP_Helper_ProtectedDoubleListTailAdd
                0x00000000       0x2a build/sam_e70_xult_freertos/production/_ext/810785262/tcpip_helpers.o
 .text.TCPIP_Helper_ProtectedDoubleListMidAdd
                0x00000000       0x2e build/sam_e70_xult_freertos/production/_ext/810785262/tcpip_helpers.o
 .text.TCPIP_Helper_ProtectedDoubleListHeadRemove
                0x00000000       0x2c build/sam_e70_xult_freertos/production/_ext/810785262/tcpip_helpers.o
 .text.TCPIP_Helper_ProtectedDoubleListTailRemove
                0x00000000       0x2c build/sam_e70_xult_freertos/production/_ext/810785262/tcpip_helpers.o
 .text.TCPIP_Helper_ProtectedDoubleListMidRemove
                0x00000000       0x2a build/sam_e70_xult_freertos/production/_ext/810785262/tcpip_helpers.o
 .text.TCPIP_Helper_ProtectedDoubleListNodeRemove
                0x00000000       0x2a build/sam_e70_xult_freertos/production/_ext/810785262/tcpip_helpers.o
 .text.TCPIP_Helper_ProtectedDoubleListRemoveAll
                0x00000000       0x2a build/sam_e70_xult_freertos/production/_ext/810785262/tcpip_helpers.o
 .text.TCPIP_Helper_ProtectedDoubleListLock
                0x00000000       0x14 build/sam_e70_xult_freertos/production/_ext/810785262/tcpip_helpers.o
 .text.TCPIP_Helper_ProtectedDoubleListUnlock
                0x00000000       0x10 build/sam_e70_xult_freertos/production/_ext/810785262/tcpip_helpers.o
 .text.TCPIP_Helper_TCPSecurePortGet
                0x00000000       0x16 build/sam_e70_xult_freertos/production/_ext/810785262/tcpip_helpers.o
 .text.TCPIP_Helper_UDPSecurePortGet
                0x00000000       0x16 build/sam_e70_xult_freertos/production/_ext/810785262/tcpip_helpers.o
 .text.TCPIP_Helper_SecurePortGetByIndex
                0x00000000       0x34 build/sam_e70_xult_freertos/production/_ext/810785262/tcpip_helpers.o
 .text.TCPIP_Helper_SecurePortSet
                0x00000000       0x5e build/sam_e70_xult_freertos/production/_ext/810785262/tcpip_helpers.o
 .data.tcpSecurePortTbl
                0x00000000       0x28 build/sam_e70_xult_freertos/production/_ext/810785262/tcpip_helpers.o
 .text          0x00000000        0x0 build/sam_e70_xult_freertos/production/_ext/810785262/tcpip_manager.o
 .data          0x00000000        0x0 build/sam_e70_xult_freertos/production/_ext/810785262/tcpip_manager.o
 .bss           0x00000000        0x0 build/sam_e70_xult_freertos/production/_ext/810785262/tcpip_manager.o
 .text._NetConfigStringToBuffer
                0x00000000       0x54 build/sam_e70_xult_freertos/production/_ext/810785262/tcpip_manager.o
 .text.TCPIP_STACK_NetMulticastGet
                0x00000000        0x4 build/sam_e70_xult_freertos/production/_ext/810785262/tcpip_manager.o
 .text.TCPIP_STACK_NetMulticastSet
                0x00000000        0x4 build/sam_e70_xult_freertos/production/_ext/810785262/tcpip_manager.o
 .text.TCPIP_STACK_MacToNet
                0x00000000       0x3c build/sam_e70_xult_freertos/production/_ext/810785262/tcpip_manager.o
 .text.TCPIP_STACK_MacToNetIndex
                0x00000000       0x44 build/sam_e70_xult_freertos/production/_ext/810785262/tcpip_manager.o
 .text.TCPIP_STACK_MACObjectGet
                0x00000000        0xa build/sam_e70_xult_freertos/production/_ext/810785262/tcpip_manager.o
 .text.TCPIP_STACK_NetAddressDnsSecond
                0x00000000       0x18 build/sam_e70_xult_freertos/production/_ext/810785262/tcpip_manager.o
 .text.TCPIP_STACK_NetAddressDnsSecondSet
                0x00000000       0x1c build/sam_e70_xult_freertos/production/_ext/810785262/tcpip_manager.o
 .text.TCPIP_STACK_NetMACIdGet
                0x00000000       0x18 build/sam_e70_xult_freertos/production/_ext/810785262/tcpip_manager.o
 .text.TCPIP_STACK_ModuleConfigGet
                0x00000000       0x4c build/sam_e70_xult_freertos/production/_ext/810785262/tcpip_manager.o
 .text.TCPIP_STACK_NetConfigGet
                0x00000000       0x44 build/sam_e70_xult_freertos/production/_ext/810785262/tcpip_manager.o
 .text.TCPIP_STACK_NetConfigSet
                0x00000000      0x1b2 build/sam_e70_xult_freertos/production/_ext/810785262/tcpip_manager.o
 .text.TCPIP_STACK_MACIdToString
                0x00000000       0x3c build/sam_e70_xult_freertos/production/_ext/810785262/tcpip_manager.o
 .text.TCPIP_STACK_EventsPendingGet
                0x00000000       0x20 build/sam_e70_xult_freertos/production/_ext/810785262/tcpip_manager.o
 .text.TCPIP_STACK_NetStaticIPv6AddressGet
                0x00000000        0x4 build/sam_e70_xult_freertos/production/_ext/810785262/tcpip_manager.o
 .text.TCPIP_STACK_NetDefaultIPv6GatewayGet
                0x00000000        0x4 build/sam_e70_xult_freertos/production/_ext/810785262/tcpip_manager.o
 .text.TCPIP_STACK_AddressIsOfNetUp
                0x00000000       0x34 build/sam_e70_xult_freertos/production/_ext/810785262/tcpip_manager.o
 .text.TCPIP_STACK_NetMACId
                0x00000000        0xc build/sam_e70_xult_freertos/production/_ext/810785262/tcpip_manager.o
 .text.TCPIP_STACK_NetToMAC
                0x00000000        0xa build/sam_e70_xult_freertos/production/_ext/810785262/tcpip_manager.o
 .text.TCPIP_STACK_VersionGet
                0x00000000        0x8 build/sam_e70_xult_freertos/production/_ext/810785262/tcpip_manager.o
 .text.TCPIP_STACK_VersionStrGet
                0x00000000        0x8 build/sam_e70_xult_freertos/production/_ext/810785262/tcpip_manager.o
 .text.TCPIP_MODULE_SignalFunctionRegister
                0x00000000       0x3c build/sam_e70_xult_freertos/production/_ext/810785262/tcpip_manager.o
 .text.TCPIP_MODULE_SignalFunctionDeregister
                0x00000000        0xe build/sam_e70_xult_freertos/production/_ext/810785262/tcpip_manager.o
 .text.TCPIP_MODULE_SignalGet
                0x00000000       0x2c build/sam_e70_xult_freertos/production/_ext/810785262/tcpip_manager.o
 .text.TCPIP_STACK_HEAP_Size
                0x00000000        0xe build/sam_e70_xult_freertos/production/_ext/810785262/tcpip_manager.o
 .text.TCPIP_STACK_HEAP_MaxSize
                0x00000000        0xe build/sam_e70_xult_freertos/production/_ext/810785262/tcpip_manager.o
 .text.TCPIP_STACK_HEAP_FreeSize
                0x00000000        0xe build/sam_e70_xult_freertos/production/_ext/810785262/tcpip_manager.o
 .text.TCPIP_STACK_HEAP_HighWatermark
                0x00000000        0xe build/sam_e70_xult_freertos/production/_ext/810785262/tcpip_manager.o
 .text.TCPIP_STACK_HEAP_LastError
                0x00000000       0x10 build/sam_e70_xult_freertos/production/_ext/810785262/tcpip_manager.o
 .text._TCPIPStackHeapConfig
                0x00000000        0x8 build/sam_e70_xult_freertos/production/_ext/810785262/tcpip_manager.o
 .text          0x00000000        0x0 build/sam_e70_xult_freertos/production/_ext/810785262/tcpip_notify.o
 .data          0x00000000        0x0 build/sam_e70_xult_freertos/production/_ext/810785262/tcpip_notify.o
 .bss           0x00000000        0x0 build/sam_e70_xult_freertos/production/_ext/810785262/tcpip_notify.o
 .text          0x00000000        0x0 build/sam_e70_xult_freertos/production/_ext/810785262/tcpip_packet.o
 .data          0x00000000        0x0 build/sam_e70_xult_freertos/production/_ext/810785262/tcpip_packet.o
 .bss           0x00000000        0x0 build/sam_e70_xult_freertos/production/_ext/810785262/tcpip_packet.o
 .text.TCPIP_PKT_SegmentAppend
                0x00000000       0x14 build/sam_e70_xult_freertos/production/_ext/810785262/tcpip_packet.o
 .text._TCPIP_PKT_SegmentAlloc
                0x00000000       0x60 build/sam_e70_xult_freertos/production/_ext/810785262/tcpip_packet.o
 .text._TCPIP_PKT_SegmentFree
                0x00000000       0x1c build/sam_e70_xult_freertos/production/_ext/810785262/tcpip_packet.o
 .text          0x00000000        0x0 build/sam_e70_xult_freertos/production/_ext/810785262/udp.o
 .data          0x00000000        0x0 build/sam_e70_xult_freertos/production/_ext/810785262/udp.o
 .bss           0x00000000        0x0 build/sam_e70_xult_freertos/production/_ext/810785262/udp.o
 .text.TCPIP_UDP_OpenServerSkt
                0x00000000       0xc8 build/sam_e70_xult_freertos/production/_ext/810785262/udp.o
 .text.TCPIP_UDP_ServerOpen
                0x00000000        0xa build/sam_e70_xult_freertos/production/_ext/810785262/udp.o
 .text.TCPIP_UDP_IsConnected
                0x00000000       0x2c build/sam_e70_xult_freertos/production/_ext/810785262/udp.o
 .text.TCPIP_UDP_Put
                0x00000000       0x18 build/sam_e70_xult_freertos/production/_ext/810785262/udp.o
 .text.TCPIP_UDP_StringPut
                0x00000000       0x2a build/sam_e70_xult_freertos/production/_ext/810785262/udp.o
 .text.TCPIP_UDP_TxCountGet
                0x00000000       0x22 build/sam_e70_xult_freertos/production/_ext/810785262/udp.o
 .text.TCPIP_UDP_Get
                0x00000000        0xa build/sam_e70_xult_freertos/production/_ext/810785262/udp.o
 .text.TCPIP_UDP_SocketNetGet
                0x00000000       0x10 build/sam_e70_xult_freertos/production/_ext/810785262/udp.o
 .text.TCPIP_UDP_RemoteBind
                0x00000000       0xa6 build/sam_e70_xult_freertos/production/_ext/810785262/udp.o
 .text.TCPIP_UDP_SetSplitPayload
                0x00000000       0x56 build/sam_e70_xult_freertos/production/_ext/810785262/udp.o
 .text.TCPIP_UDP_SignalHandlerDeregister
                0x00000000       0x24 build/sam_e70_xult_freertos/production/_ext/810785262/udp.o
 .text.TCPIP_UDP_SocketsNumberGet
                0x00000000        0xc build/sam_e70_xult_freertos/production/_ext/810785262/udp.o
 .text          0x00000000        0x0 build/sam_e70_xult_freertos/production/_ext/45647770/plib_clk.o
 .data          0x00000000        0x0 build/sam_e70_xult_freertos/production/_ext/45647770/plib_clk.o
 .bss           0x00000000        0x0 build/sam_e70_xult_freertos/production/_ext/45647770/plib_clk.o
 .text          0x00000000        0x0 build/sam_e70_xult_freertos/production/_ext/45638026/plib_mpu.o
 .data          0x00000000        0x0 build/sam_e70_xult_freertos/production/_ext/45638026/plib_mpu.o
 .bss           0x00000000        0x0 build/sam_e70_xult_freertos/production/_ext/45638026/plib_mpu.o
 .text          0x00000000        0x0 build/sam_e70_xult_freertos/production/_ext/1414743522/plib_nvic.o
 .data          0x00000000        0x0 build/sam_e70_xult_freertos/production/_ext/1414743522/plib_nvic.o
 .bss           0x00000000        0x0 build/sam_e70_xult_freertos/production/_ext/1414743522/plib_nvic.o
 .text          0x00000000        0x0 build/sam_e70_xult_freertos/production/_ext/45635366/plib_pio.o
 .data          0x00000000        0x0 build/sam_e70_xult_freertos/production/_ext/45635366/plib_pio.o
 .bss           0x00000000        0x0 build/sam_e70_xult_freertos/production/_ext/45635366/plib_pio.o
 .text.PIO_PortRead
                0x00000000        0x4 build/sam_e70_xult_freertos/production/_ext/45635366/plib_pio.o
 .text.PIO_PortWrite
                0x00000000        0xc build/sam_e70_xult_freertos/production/_ext/45635366/plib_pio.o
 .text.PIO_PortLatchRead
                0x00000000        0x4 build/sam_e70_xult_freertos/production/_ext/45635366/plib_pio.o
 .text.PIO_PortSet
                0x00000000        0x4 build/sam_e70_xult_freertos/production/_ext/45635366/plib_pio.o
 .text.PIO_PortClear
                0x00000000        0x4 build/sam_e70_xult_freertos/production/_ext/45635366/plib_pio.o
 .text.PIO_PortToggle
                0x00000000        0x8 build/sam_e70_xult_freertos/production/_ext/45635366/plib_pio.o
 .text.PIO_PortInputEnable
                0x00000000        0x4 build/sam_e70_xult_freertos/production/_ext/45635366/plib_pio.o
 .text.PIO_PortOutputEnable
                0x00000000        0x4 build/sam_e70_xult_freertos/production/_ext/45635366/plib_pio.o
 .text          0x00000000        0x0 build/sam_e70_xult_freertos/production/_ext/1245453995/plib_tc0.o
 .data          0x00000000        0x0 build/sam_e70_xult_freertos/production/_ext/1245453995/plib_tc0.o
 .bss           0x00000000        0x0 build/sam_e70_xult_freertos/production/_ext/1245453995/plib_tc0.o
 .text.TC0_CH0_TimerPeriodGet
                0x00000000        0xc build/sam_e70_xult_freertos/production/_ext/1245453995/plib_tc0.o
 .text          0x00000000        0x0 build/sam_e70_xult_freertos/production/_ext/901008055/plib_usart1.o
 .data          0x00000000        0x0 build/sam_e70_xult_freertos/production/_ext/901008055/plib_usart1.o
 .bss           0x00000000        0x0 build/sam_e70_xult_freertos/production/_ext/901008055/plib_usart1.o
 .text.USART1_SerialSetup
                0x00000000       0x74 build/sam_e70_xult_freertos/production/_ext/901008055/plib_usart1.o
 .text.USART1_WriteIsBusy
                0x00000000        0xc build/sam_e70_xult_freertos/production/_ext/901008055/plib_usart1.o
 .text.USART1_ReadIsBusy
                0x00000000        0xc build/sam_e70_xult_freertos/production/_ext/901008055/plib_usart1.o
 .text.USART1_WriteCountGet
                0x00000000        0xc build/sam_e70_xult_freertos/production/_ext/901008055/plib_usart1.o
 .text.USART1_ReadCountGet
                0x00000000        0xc build/sam_e70_xult_freertos/production/_ext/901008055/plib_usart1.o
 .text          0x00000000        0x0 build/sam_e70_xult_freertos/production/_ext/146190766/xc32_monitor.o
 .data          0x00000000        0x0 build/sam_e70_xult_freertos/production/_ext/146190766/xc32_monitor.o
 .bss           0x00000000        0x0 build/sam_e70_xult_freertos/production/_ext/146190766/xc32_monitor.o
 .text._mon_getc
                0x00000000        0x4 build/sam_e70_xult_freertos/production/_ext/146190766/xc32_monitor.o
 .text._mon_putc
                0x00000000        0x2 build/sam_e70_xult_freertos/production/_ext/146190766/xc32_monitor.o
 .debug_info    0x00000000      0x24e build/sam_e70_xult_freertos/production/_ext/146190766/xc32_monitor.o
 .debug_abbrev  0x00000000       0x75 build/sam_e70_xult_freertos/production/_ext/146190766/xc32_monitor.o
 .debug_loc     0x00000000       0x21 build/sam_e70_xult_freertos/production/_ext/146190766/xc32_monitor.o
 .debug_aranges
                0x00000000       0x28 build/sam_e70_xult_freertos/production/_ext/146190766/xc32_monitor.o
 .debug_ranges  0x00000000       0x18 build/sam_e70_xult_freertos/production/_ext/146190766/xc32_monitor.o
 .debug_line    0x00000000       0x78 build/sam_e70_xult_freertos/production/_ext/146190766/xc32_monitor.o
 .debug_str     0x00000000        0x0 build/sam_e70_xult_freertos/production/_ext/146190766/xc32_monitor.o
 .comment       0x00000000       0x3d build/sam_e70_xult_freertos/production/_ext/146190766/xc32_monitor.o
 .debug_frame   0x00000000       0x30 build/sam_e70_xult_freertos/production/_ext/146190766/xc32_monitor.o
 .ARM.attributes
                0x00000000       0x37 build/sam_e70_xult_freertos/production/_ext/146190766/xc32_monitor.o
 .text          0x00000000        0x0 build/sam_e70_xult_freertos/production/_ext/992551865/sys_cache.o
 .data          0x00000000        0x0 build/sam_e70_xult_freertos/production/_ext/992551865/sys_cache.o
 .bss           0x00000000        0x0 build/sam_e70_xult_freertos/production/_ext/992551865/sys_cache.o
 .text.SYS_CACHE_EnableCaches
                0x00000000       0xa4 build/sam_e70_xult_freertos/production/_ext/992551865/sys_cache.o
 .text.SYS_CACHE_DisableCaches
                0x00000000       0x9c build/sam_e70_xult_freertos/production/_ext/992551865/sys_cache.o
 .text.SYS_CACHE_EnableICache
                0x00000000       0x38 build/sam_e70_xult_freertos/production/_ext/992551865/sys_cache.o
 .text.SYS_CACHE_DisableICache
                0x00000000       0x30 build/sam_e70_xult_freertos/production/_ext/992551865/sys_cache.o
 .text.SYS_CACHE_InvalidateICache
                0x00000000       0x28 build/sam_e70_xult_freertos/production/_ext/992551865/sys_cache.o
 .text.SYS_CACHE_EnableDCache
                0x00000000       0x74 build/sam_e70_xult_freertos/production/_ext/992551865/sys_cache.o
 .text.SYS_CACHE_DisableDCache
                0x00000000       0x74 build/sam_e70_xult_freertos/production/_ext/992551865/sys_cache.o
 .text.SYS_CACHE_InvalidateDCache
                0x00000000       0x68 build/sam_e70_xult_freertos/production/_ext/992551865/sys_cache.o
 .text.SYS_CACHE_CleanDCache
                0x00000000       0x68 build/sam_e70_xult_freertos/production/_ext/992551865/sys_cache.o
 .text.SYS_CACHE_CleanInvalidateDCache
                0x00000000       0x68 build/sam_e70_xult_freertos/production/_ext/992551865/sys_cache.o
 .text.SYS_CACHE_InvalidateDCache_by_Addr
                0x00000000       0x30 build/sam_e70_xult_freertos/production/_ext/992551865/sys_cache.o
 .text.SYS_CACHE_CleanDCache_by_Addr
                0x00000000       0x30 build/sam_e70_xult_freertos/production/_ext/992551865/sys_cache.o
 .text.SYS_CACHE_CleanInvalidateDCache_by_Addr
                0x00000000       0x30 build/sam_e70_xult_freertos/production/_ext/992551865/sys_cache.o
 .debug_info    0x00000000     0x139e build/sam_e70_xult_freertos/production/_ext/992551865/sys_cache.o
 .debug_abbrev  0x00000000      0x181 build/sam_e70_xult_freertos/production/_ext/992551865/sys_cache.o
 .debug_loc     0x00000000      0x4ac build/sam_e70_xult_freertos/production/_ext/992551865/sys_cache.o
 .debug_aranges
                0x00000000       0x80 build/sam_e70_xult_freertos/production/_ext/992551865/sys_cache.o
 .debug_ranges  0x00000000       0x70 build/sam_e70_xult_freertos/production/_ext/992551865/sys_cache.o
 .debug_line    0x00000000      0x42a build/sam_e70_xult_freertos/production/_ext/992551865/sys_cache.o
 .debug_str     0x00000000       0x25 build/sam_e70_xult_freertos/production/_ext/992551865/sys_cache.o
 .comment       0x00000000       0x3d build/sam_e70_xult_freertos/production/_ext/992551865/sys_cache.o
 .debug_frame   0x00000000      0x150 build/sam_e70_xult_freertos/production/_ext/992551865/sys_cache.o
 .ARM.attributes
                0x00000000       0x37 build/sam_e70_xult_freertos/production/_ext/992551865/sys_cache.o
 .text          0x00000000        0x0 build/sam_e70_xult_freertos/production/_ext/762686499/sys_console.o
 .data          0x00000000        0x0 build/sam_e70_xult_freertos/production/_ext/762686499/sys_console.o
 .bss           0x00000000        0x0 build/sam_e70_xult_freertos/production/_ext/762686499/sys_console.o
 .text.SYS_CONSOLE_Tasks
                0x00000000       0x2c build/sam_e70_xult_freertos/production/_ext/762686499/sys_console.o
 .text.SYS_CONSOLE_RegisterCallback
                0x00000000       0x28 build/sam_e70_xult_freertos/production/_ext/762686499/sys_console.o
 .text          0x00000000        0x0 build/sam_e70_xult_freertos/production/_ext/762686499/sys_console_uart.o
 .data          0x00000000        0x0 build/sam_e70_xult_freertos/production/_ext/762686499/sys_console_uart.o
 .bss           0x00000000        0x0 build/sam_e70_xult_freertos/production/_ext/762686499/sys_console_uart.o
 .text          0x00000000        0x0 build/sam_e70_xult_freertos/production/_ext/762686499/sys_debug.o
 .data          0x00000000        0x0 build/sam_e70_xult_freertos/production/_ext/762686499/sys_debug.o
 .bss           0x00000000        0x0 build/sam_e70_xult_freertos/production/_ext/762686499/sys_debug.o
 .text.SYS_DEBUG_Tasks
                0x00000000        0x2 build/sam_e70_xult_freertos/production/_ext/762686499/sys_debug.o
 .text.SYS_DEBUG_Status
                0x00000000        0xc build/sam_e70_xult_freertos/production/_ext/762686499/sys_debug.o
 .text.SYS_DEBUG_Message
                0x00000000       0x1c build/sam_e70_xult_freertos/production/_ext/762686499/sys_debug.o
 .text.SYS_DEBUG_ErrorLevelSet
                0x00000000        0xc build/sam_e70_xult_freertos/production/_ext/762686499/sys_debug.o
 .text          0x00000000        0x0 build/sam_e70_xult_freertos/production/_ext/762686499/sys_command.o
 .data          0x00000000        0x0 build/sam_e70_xult_freertos/production/_ext/762686499/sys_command.o
 .bss           0x00000000        0x0 build/sam_e70_xult_freertos/production/_ext/762686499/sys_command.o
 .text.SYS_CMD_RegisterCallback
                0x00000000       0x2c build/sam_e70_xult_freertos/production/_ext/762686499/sys_command.o
 .text.SYS_CMD_READY_TO_WRITE
                0x00000000       0x48 build/sam_e70_xult_freertos/production/_ext/762686499/sys_command.o
 .text          0x00000000        0x0 build/sam_e70_xult_freertos/production/_ext/1775855163/sys_int.o
 .data          0x00000000        0x0 build/sam_e70_xult_freertos/production/_ext/1775855163/sys_int.o
 .bss           0x00000000        0x0 build/sam_e70_xult_freertos/production/_ext/1775855163/sys_int.o
 .text.SYS_INT_Enable
                0x00000000        0x8 build/sam_e70_xult_freertos/production/_ext/1775855163/sys_int.o
 .text          0x00000000        0x0 build/sam_e70_xult_freertos/production/_ext/912870411/sys_time.o
 .data          0x00000000        0x0 build/sam_e70_xult_freertos/production/_ext/912870411/sys_time.o
 .bss           0x00000000        0x0 build/sam_e70_xult_freertos/production/_ext/912870411/sys_time.o
 .text.SYS_TIME_Deinitialize
                0x00000000       0x30 build/sam_e70_xult_freertos/production/_ext/912870411/sys_time.o
 .text.SYS_TIME_Status
                0x00000000       0x14 build/sam_e70_xult_freertos/production/_ext/912870411/sys_time.o
 .text.SYS_TIME_CounterGet
                0x00000000        0x8 build/sam_e70_xult_freertos/production/_ext/912870411/sys_time.o
 .text.SYS_TIME_CounterSet
                0x00000000       0x20 build/sam_e70_xult_freertos/production/_ext/912870411/sys_time.o
 .text.SYS_TIME_CountToUS
                0x00000000       0x34 build/sam_e70_xult_freertos/production/_ext/912870411/sys_time.o
 .text.SYS_TIME_CountToMS
                0x00000000       0x34 build/sam_e70_xult_freertos/production/_ext/912870411/sys_time.o
 .text.SYS_TIME_USToCount
                0x00000000       0x3c build/sam_e70_xult_freertos/production/_ext/912870411/sys_time.o
 .text.SYS_TIME_TimerCreate
                0x00000000       0x1c build/sam_e70_xult_freertos/production/_ext/912870411/sys_time.o
 .text.SYS_TIME_TimerReload
                0x00000000       0x8c build/sam_e70_xult_freertos/production/_ext/912870411/sys_time.o
 .text.SYS_TIME_TimerStop
                0x00000000       0x3c build/sam_e70_xult_freertos/production/_ext/912870411/sys_time.o
 .text.SYS_TIME_TimerCounterGet
                0x00000000       0x78 build/sam_e70_xult_freertos/production/_ext/912870411/sys_time.o
 .text.SYS_TIME_TimerPeriodHasExpired
                0x00000000       0x28 build/sam_e70_xult_freertos/production/_ext/912870411/sys_time.o
 .text.SYS_TIME_DelayUS
                0x00000000       0x3c build/sam_e70_xult_freertos/production/_ext/912870411/sys_time.o
 .text.SYS_TIME_DelayMS
                0x00000000       0x3c build/sam_e70_xult_freertos/production/_ext/912870411/sys_time.o
 .text.SYS_TIME_DelayIsComplete
                0x00000000       0x18 build/sam_e70_xult_freertos/production/_ext/912870411/sys_time.o
 .text.SYS_TIME_CallbackRegisterUS
                0x00000000       0x50 build/sam_e70_xult_freertos/production/_ext/912870411/sys_time.o
 .text          0x00000000        0x0 build/sam_e70_xult_freertos/production/_ext/231871610/sys_time_h2_adapter.o
 .data          0x00000000        0x0 build/sam_e70_xult_freertos/production/_ext/231871610/sys_time_h2_adapter.o
 .bss           0x00000000        0x0 build/sam_e70_xult_freertos/production/_ext/231871610/sys_time_h2_adapter.o
 .text          0x00000000        0x0 build/sam_e70_xult_freertos/production/_ext/1552905064/tasks.o
 .data          0x00000000        0x0 build/sam_e70_xult_freertos/production/_ext/1552905064/tasks.o
 .bss           0x00000000        0x0 build/sam_e70_xult_freertos/production/_ext/1552905064/tasks.o
 .text          0x00000000        0x0 build/sam_e70_xult_freertos/production/_ext/1552905064/initialization.o
 .data          0x00000000        0x0 build/sam_e70_xult_freertos/production/_ext/1552905064/initialization.o
 .bss           0x00000000        0x0 build/sam_e70_xult_freertos/production/_ext/1552905064/initialization.o
 .rodata.tcpipICMPInitData
                0x00000000        0x4 build/sam_e70_xult_freertos/production/_ext/1552905064/initialization.o
 .text          0x00000000        0x0 build/sam_e70_xult_freertos/production/_ext/1552905064/interrupts.o
 .data          0x00000000        0x0 build/sam_e70_xult_freertos/production/_ext/1552905064/interrupts.o
 .bss           0x00000000        0x0 build/sam_e70_xult_freertos/production/_ext/1552905064/interrupts.o
 .text          0x00000000        0x0 build/sam_e70_xult_freertos/production/_ext/1552905064/exceptions.o
 .data          0x00000000        0x0 build/sam_e70_xult_freertos/production/_ext/1552905064/exceptions.o
 .bss           0x00000000        0x0 build/sam_e70_xult_freertos/production/_ext/1552905064/exceptions.o
 .text          0x00000000        0x0 build/sam_e70_xult_freertos/production/_ext/1552905064/startup_xc32.o
 .data          0x00000000        0x0 build/sam_e70_xult_freertos/production/_ext/1552905064/startup_xc32.o
 .bss           0x00000000        0x0 build/sam_e70_xult_freertos/production/_ext/1552905064/startup_xc32.o
 .text          0x00000000        0x0 build/sam_e70_xult_freertos/production/_ext/1552905064/libc_syscalls.o
 .data          0x00000000        0x0 build/sam_e70_xult_freertos/production/_ext/1552905064/libc_syscalls.o
 .bss           0x00000000        0x0 build/sam_e70_xult_freertos/production/_ext/1552905064/libc_syscalls.o
 .text._exit    0x00000000        0x2 build/sam_e70_xult_freertos/production/_ext/1552905064/libc_syscalls.o
 .debug_info    0x00000000      0xe67 build/sam_e70_xult_freertos/production/_ext/1552905064/libc_syscalls.o
 .debug_abbrev  0x00000000      0x1a8 build/sam_e70_xult_freertos/production/_ext/1552905064/libc_syscalls.o
 .debug_aranges
                0x00000000       0x20 build/sam_e70_xult_freertos/production/_ext/1552905064/libc_syscalls.o
 .debug_ranges  0x00000000       0x10 build/sam_e70_xult_freertos/production/_ext/1552905064/libc_syscalls.o
 .debug_line    0x00000000      0x1f5 build/sam_e70_xult_freertos/production/_ext/1552905064/libc_syscalls.o
 .debug_str     0x00000000        0xe build/sam_e70_xult_freertos/production/_ext/1552905064/libc_syscalls.o
 .comment       0x00000000       0x3d build/sam_e70_xult_freertos/production/_ext/1552905064/libc_syscalls.o
 .debug_frame   0x00000000       0x20 build/sam_e70_xult_freertos/production/_ext/1552905064/libc_syscalls.o
 .ARM.attributes
                0x00000000       0x37 build/sam_e70_xult_freertos/production/_ext/1552905064/libc_syscalls.o
 .text          0x00000000        0x0 build/sam_e70_xult_freertos/production/_ext/1552905064/freertos_hooks.o
 .data          0x00000000        0x0 build/sam_e70_xult_freertos/production/_ext/1552905064/freertos_hooks.o
 .bss           0x00000000        0x0 build/sam_e70_xult_freertos/production/_ext/1552905064/freertos_hooks.o
 .text.vApplicationIdleHook
                0x00000000        0x2 build/sam_e70_xult_freertos/production/_ext/1552905064/freertos_hooks.o
 .text.vApplicationTickHook
                0x00000000        0x2 build/sam_e70_xult_freertos/production/_ext/1552905064/freertos_hooks.o
 .text.vAssertCalled
                0x00000000       0x1c build/sam_e70_xult_freertos/production/_ext/1552905064/freertos_hooks.o
 .text          0x00000000        0x0 build/sam_e70_xult_freertos/production/_ext/977623654/port.o
 .data          0x00000000        0x0 build/sam_e70_xult_freertos/production/_ext/977623654/port.o
 .bss           0x00000000        0x0 build/sam_e70_xult_freertos/production/_ext/977623654/port.o
 .text.vPortEndScheduler
                0x00000000        0x2 build/sam_e70_xult_freertos/production/_ext/977623654/port.o
 .text          0x00000000        0x0 build/sam_e70_xult_freertos/production/_ext/1665200909/heap_3.o
 .data          0x00000000        0x0 build/sam_e70_xult_freertos/production/_ext/1665200909/heap_3.o
 .bss           0x00000000        0x0 build/sam_e70_xult_freertos/production/_ext/1665200909/heap_3.o
 .text          0x00000000        0x0 build/sam_e70_xult_freertos/production/_ext/404212886/croutine.o
 .data          0x00000000        0x0 build/sam_e70_xult_freertos/production/_ext/404212886/croutine.o
 .bss           0x00000000        0x0 build/sam_e70_xult_freertos/production/_ext/404212886/croutine.o
 .debug_info    0x00000000      0x293 build/sam_e70_xult_freertos/production/_ext/404212886/croutine.o
 .debug_abbrev  0x00000000       0x1b build/sam_e70_xult_freertos/production/_ext/404212886/croutine.o
 .debug_aranges
                0x00000000       0x18 build/sam_e70_xult_freertos/production/_ext/404212886/croutine.o
 .debug_line    0x00000000       0x1d build/sam_e70_xult_freertos/production/_ext/404212886/croutine.o
 .debug_str     0x00000000        0x0 build/sam_e70_xult_freertos/production/_ext/404212886/croutine.o
 .comment       0x00000000       0x3d build/sam_e70_xult_freertos/production/_ext/404212886/croutine.o
 .ARM.attributes
                0x00000000       0x37 build/sam_e70_xult_freertos/production/_ext/404212886/croutine.o
 .text          0x00000000        0x0 build/sam_e70_xult_freertos/production/_ext/404212886/list.o
 .data          0x00000000        0x0 build/sam_e70_xult_freertos/production/_ext/404212886/list.o
 .bss           0x00000000        0x0 build/sam_e70_xult_freertos/production/_ext/404212886/list.o
 .text          0x00000000        0x0 build/sam_e70_xult_freertos/production/_ext/404212886/queue.o
 .data          0x00000000        0x0 build/sam_e70_xult_freertos/production/_ext/404212886/queue.o
 .bss           0x00000000        0x0 build/sam_e70_xult_freertos/production/_ext/404212886/queue.o
 .text.prvCopyDataFromQueue
                0x00000000       0x24 build/sam_e70_xult_freertos/production/_ext/404212886/queue.o
 .text.xQueueGenericSendFromISR
                0x00000000       0x6e build/sam_e70_xult_freertos/production/_ext/404212886/queue.o
 .text.xQueueGiveFromISR
                0x00000000       0x64 build/sam_e70_xult_freertos/production/_ext/404212886/queue.o
 .text.xQueueReceive
                0x00000000      0x114 build/sam_e70_xult_freertos/production/_ext/404212886/queue.o
 .text.xQueuePeek
                0x00000000      0x110 build/sam_e70_xult_freertos/production/_ext/404212886/queue.o
 .text.xQueueReceiveFromISR
                0x00000000       0x72 build/sam_e70_xult_freertos/production/_ext/404212886/queue.o
 .text.xQueuePeekFromISR
                0x00000000       0x34 build/sam_e70_xult_freertos/production/_ext/404212886/queue.o
 .text.uxQueueMessagesWaiting
                0x00000000       0x12 build/sam_e70_xult_freertos/production/_ext/404212886/queue.o
 .text.uxQueueSpacesAvailable
                0x00000000       0x16 build/sam_e70_xult_freertos/production/_ext/404212886/queue.o
 .text.uxQueueMessagesWaitingFromISR
                0x00000000        0x4 build/sam_e70_xult_freertos/production/_ext/404212886/queue.o
 .text.xQueueIsQueueEmptyFromISR
                0x00000000        0xa build/sam_e70_xult_freertos/production/_ext/404212886/queue.o
 .text.xQueueIsQueueFullFromISR
                0x00000000        0xe build/sam_e70_xult_freertos/production/_ext/404212886/queue.o
 .text          0x00000000        0x0 build/sam_e70_xult_freertos/production/_ext/404212886/FreeRTOS_tasks.o
 .data          0x00000000        0x0 build/sam_e70_xult_freertos/production/_ext/404212886/FreeRTOS_tasks.o
 .bss           0x00000000        0x0 build/sam_e70_xult_freertos/production/_ext/404212886/FreeRTOS_tasks.o
 .text.prvTaskIsTaskSuspended
                0x00000000       0x28 build/sam_e70_xult_freertos/production/_ext/404212886/FreeRTOS_tasks.o
 .text.vTaskDelete
                0x00000000       0xcc build/sam_e70_xult_freertos/production/_ext/404212886/FreeRTOS_tasks.o
 .text.uxTaskPriorityGet
                0x00000000       0x20 build/sam_e70_xult_freertos/production/_ext/404212886/FreeRTOS_tasks.o
 .text.uxTaskPriorityGetFromISR
                0x00000000       0x2c build/sam_e70_xult_freertos/production/_ext/404212886/FreeRTOS_tasks.o
 .text.vTaskPrioritySet
                0x00000000       0xd0 build/sam_e70_xult_freertos/production/_ext/404212886/FreeRTOS_tasks.o
 .text.vTaskResume
                0x00000000       0x78 build/sam_e70_xult_freertos/production/_ext/404212886/FreeRTOS_tasks.o
 .text.xTaskResumeFromISR
                0x00000000       0x8c build/sam_e70_xult_freertos/production/_ext/404212886/FreeRTOS_tasks.o
 .text.vTaskEndScheduler
                0x00000000       0x28 build/sam_e70_xult_freertos/production/_ext/404212886/FreeRTOS_tasks.o
 .text.xTaskGetTickCount
                0x00000000        0xc build/sam_e70_xult_freertos/production/_ext/404212886/FreeRTOS_tasks.o
 .text.xTaskGetTickCountFromISR
                0x00000000        0xc build/sam_e70_xult_freertos/production/_ext/404212886/FreeRTOS_tasks.o
 .text.uxTaskGetNumberOfTasks
                0x00000000        0xc build/sam_e70_xult_freertos/production/_ext/404212886/FreeRTOS_tasks.o
 .text.pcTaskGetName
                0x00000000       0x14 build/sam_e70_xult_freertos/production/_ext/404212886/FreeRTOS_tasks.o
 .text.vTaskDelayUntil
                0x00000000       0x68 build/sam_e70_xult_freertos/production/_ext/404212886/FreeRTOS_tasks.o
 .text.vTaskSuspend
                0x00000000       0xd0 build/sam_e70_xult_freertos/production/_ext/404212886/FreeRTOS_tasks.o
 .text.vTaskPlaceOnUnorderedEventList
                0x00000000       0x24 build/sam_e70_xult_freertos/production/_ext/404212886/FreeRTOS_tasks.o
 .text.vTaskRemoveFromUnorderedEventList
                0x00000000       0x58 build/sam_e70_xult_freertos/production/_ext/404212886/FreeRTOS_tasks.o
 .text.vTaskSetTimeOutState
                0x00000000       0x24 build/sam_e70_xult_freertos/production/_ext/404212886/FreeRTOS_tasks.o
 .text.xTaskGetCurrentTaskHandle
                0x00000000        0xc build/sam_e70_xult_freertos/production/_ext/404212886/FreeRTOS_tasks.o
 .text.uxTaskResetEventItemValue
                0x00000000       0x18 build/sam_e70_xult_freertos/production/_ext/404212886/FreeRTOS_tasks.o
 .text.ulTaskNotifyTake
                0x00000000       0x78 build/sam_e70_xult_freertos/production/_ext/404212886/FreeRTOS_tasks.o
 .text.xTaskNotifyWait
                0x00000000       0x98 build/sam_e70_xult_freertos/production/_ext/404212886/FreeRTOS_tasks.o
 .text.xTaskGenericNotify
                0x00000000       0xb4 build/sam_e70_xult_freertos/production/_ext/404212886/FreeRTOS_tasks.o
 .text.xTaskGenericNotifyFromISR
                0x00000000       0xd8 build/sam_e70_xult_freertos/production/_ext/404212886/FreeRTOS_tasks.o
 .text.vTaskNotifyGiveFromISR
                0x00000000       0xa8 build/sam_e70_xult_freertos/production/_ext/404212886/FreeRTOS_tasks.o
 .text.xTaskNotifyStateClear
                0x00000000       0x34 build/sam_e70_xult_freertos/production/_ext/404212886/FreeRTOS_tasks.o
 .text          0x00000000        0x0 build/sam_e70_xult_freertos/production/_ext/404212886/timers.o
 .data          0x00000000        0x0 build/sam_e70_xult_freertos/production/_ext/404212886/timers.o
 .bss           0x00000000        0x0 build/sam_e70_xult_freertos/production/_ext/404212886/timers.o
 .debug_info    0x00000000      0xdbf build/sam_e70_xult_freertos/production/_ext/404212886/timers.o
 .debug_abbrev  0x00000000      0x171 build/sam_e70_xult_freertos/production/_ext/404212886/timers.o
 .debug_aranges
                0x00000000       0x18 build/sam_e70_xult_freertos/production/_ext/404212886/timers.o
 .debug_line    0x00000000      0x119 build/sam_e70_xult_freertos/production/_ext/404212886/timers.o
 .debug_str     0x00000000        0xe build/sam_e70_xult_freertos/production/_ext/404212886/timers.o
 .comment       0x00000000       0x3d build/sam_e70_xult_freertos/production/_ext/404212886/timers.o
 .ARM.attributes
                0x00000000       0x37 build/sam_e70_xult_freertos/production/_ext/404212886/timers.o
 .text          0x00000000        0x0 build/sam_e70_xult_freertos/production/_ext/404212886/event_groups.o
 .data          0x00000000        0x0 build/sam_e70_xult_freertos/production/_ext/404212886/event_groups.o
 .bss           0x00000000        0x0 build/sam_e70_xult_freertos/production/_ext/404212886/event_groups.o
 .text.xEventGroupCreate
                0x00000000       0x1a build/sam_e70_xult_freertos/production/_ext/404212886/event_groups.o
 .text.xEventGroupWaitBits
                0x00000000       0xc0 build/sam_e70_xult_freertos/production/_ext/404212886/event_groups.o
 .text.xEventGroupClearBits
                0x00000000       0x1a build/sam_e70_xult_freertos/production/_ext/404212886/event_groups.o
 .text.xEventGroupGetBitsFromISR
                0x00000000       0x20 build/sam_e70_xult_freertos/production/_ext/404212886/event_groups.o
 .text.xEventGroupSetBits
                0x00000000       0x74 build/sam_e70_xult_freertos/production/_ext/404212886/event_groups.o
 .text.xEventGroupSync
                0x00000000       0x94 build/sam_e70_xult_freertos/production/_ext/404212886/event_groups.o
 .text.vEventGroupDelete
                0x00000000       0x2a build/sam_e70_xult_freertos/production/_ext/404212886/event_groups.o
 .text.vEventGroupSetBitsCallback
                0x00000000        0x8 build/sam_e70_xult_freertos/production/_ext/404212886/event_groups.o
 .text.vEventGroupClearBitsCallback
                0x00000000        0x8 build/sam_e70_xult_freertos/production/_ext/404212886/event_groups.o
 .debug_info    0x00000000     0x18d4 build/sam_e70_xult_freertos/production/_ext/404212886/event_groups.o
 .debug_abbrev  0x00000000      0x3a8 build/sam_e70_xult_freertos/production/_ext/404212886/event_groups.o
 .debug_loc     0x00000000      0x921 build/sam_e70_xult_freertos/production/_ext/404212886/event_groups.o
 .debug_aranges
                0x00000000       0x60 build/sam_e70_xult_freertos/production/_ext/404212886/event_groups.o
 .debug_ranges  0x00000000       0x98 build/sam_e70_xult_freertos/production/_ext/404212886/event_groups.o
 .debug_line    0x00000000      0x3c5 build/sam_e70_xult_freertos/production/_ext/404212886/event_groups.o
 .debug_str     0x00000000      0x1ba build/sam_e70_xult_freertos/production/_ext/404212886/event_groups.o
 .comment       0x00000000       0x3d build/sam_e70_xult_freertos/production/_ext/404212886/event_groups.o
 .debug_frame   0x00000000      0x100 build/sam_e70_xult_freertos/production/_ext/404212886/event_groups.o
 .ARM.attributes
                0x00000000       0x37 build/sam_e70_xult_freertos/production/_ext/404212886/event_groups.o
 .text          0x00000000        0x0 build/sam_e70_xult_freertos/production/_ext/404212886/stream_buffer.o
 .data          0x00000000        0x0 build/sam_e70_xult_freertos/production/_ext/404212886/stream_buffer.o
 .bss           0x00000000        0x0 build/sam_e70_xult_freertos/production/_ext/404212886/stream_buffer.o
 .text.prvBytesInBuffer
                0x00000000       0x12 build/sam_e70_xult_freertos/production/_ext/404212886/stream_buffer.o
 .text.prvWriteBytesToBuffer
                0x00000000       0x44 build/sam_e70_xult_freertos/production/_ext/404212886/stream_buffer.o
 .text.prvWriteMessageToBuffer
                0x00000000       0x44 build/sam_e70_xult_freertos/production/_ext/404212886/stream_buffer.o
 .text.prvReadBytesFromBuffer
                0x00000000       0x50 build/sam_e70_xult_freertos/production/_ext/404212886/stream_buffer.o
 .text.prvReadMessageFromBuffer
                0x00000000       0x44 build/sam_e70_xult_freertos/production/_ext/404212886/stream_buffer.o
 .text.xStreamBufferGenericCreate
                0x00000000       0x36 build/sam_e70_xult_freertos/production/_ext/404212886/stream_buffer.o
 .text.vStreamBufferDelete
                0x00000000       0x1a build/sam_e70_xult_freertos/production/_ext/404212886/stream_buffer.o
 .text.xStreamBufferReset
                0x00000000       0x4a build/sam_e70_xult_freertos/production/_ext/404212886/stream_buffer.o
 .text.xStreamBufferSetTriggerLevel
                0x00000000       0x16 build/sam_e70_xult_freertos/production/_ext/404212886/stream_buffer.o
 .text.xStreamBufferSpacesAvailable
                0x00000000       0x14 build/sam_e70_xult_freertos/production/_ext/404212886/stream_buffer.o
 .text.xStreamBufferBytesAvailable
                0x00000000        0x8 build/sam_e70_xult_freertos/production/_ext/404212886/stream_buffer.o
 .text.xStreamBufferSend
                0x00000000       0xbc build/sam_e70_xult_freertos/production/_ext/404212886/stream_buffer.o
 .text.xStreamBufferSendFromISR
                0x00000000       0x7a build/sam_e70_xult_freertos/production/_ext/404212886/stream_buffer.o
 .text.xStreamBufferReceive
                0x00000000       0x9c build/sam_e70_xult_freertos/production/_ext/404212886/stream_buffer.o
 .text.xStreamBufferReceiveFromISR
                0x00000000       0x70 build/sam_e70_xult_freertos/production/_ext/404212886/stream_buffer.o
 .text.xStreamBufferIsEmpty
                0x00000000        0xe build/sam_e70_xult_freertos/production/_ext/404212886/stream_buffer.o
 .text.xStreamBufferIsFull
                0x00000000       0x18 build/sam_e70_xult_freertos/production/_ext/404212886/stream_buffer.o
 .text.xStreamBufferSendCompletedFromISR
                0x00000000       0x42 build/sam_e70_xult_freertos/production/_ext/404212886/stream_buffer.o
 .text.xStreamBufferReceiveCompletedFromISR
                0x00000000       0x42 build/sam_e70_xult_freertos/production/_ext/404212886/stream_buffer.o
 .debug_info    0x00000000     0x2297 build/sam_e70_xult_freertos/production/_ext/404212886/stream_buffer.o
 .debug_abbrev  0x00000000      0x3cc build/sam_e70_xult_freertos/production/_ext/404212886/stream_buffer.o
 .debug_loc     0x00000000     0x12f2 build/sam_e70_xult_freertos/production/_ext/404212886/stream_buffer.o
 .debug_aranges
                0x00000000       0xb0 build/sam_e70_xult_freertos/production/_ext/404212886/stream_buffer.o
 .debug_ranges  0x00000000       0xb8 build/sam_e70_xult_freertos/production/_ext/404212886/stream_buffer.o
 .debug_line    0x00000000      0x4de build/sam_e70_xult_freertos/production/_ext/404212886/stream_buffer.o
 .debug_str     0x00000000      0x23d build/sam_e70_xult_freertos/production/_ext/404212886/stream_buffer.o
 .comment       0x00000000       0x3d build/sam_e70_xult_freertos/production/_ext/404212886/stream_buffer.o
 .debug_frame   0x00000000      0x258 build/sam_e70_xult_freertos/production/_ext/404212886/stream_buffer.o
 .ARM.attributes
                0x00000000       0x37 build/sam_e70_xult_freertos/production/_ext/404212886/stream_buffer.o
 .text          0x00000000        0x0 build/sam_e70_xult_freertos/production/_ext/281930714/osal_freertos.o
 .data          0x00000000        0x0 build/sam_e70_xult_freertos/production/_ext/281930714/osal_freertos.o
 .bss           0x00000000        0x0 build/sam_e70_xult_freertos/production/_ext/281930714/osal_freertos.o
 .text.OSAL_SEM_PostISR
                0x00000000       0x3c build/sam_e70_xult_freertos/production/_ext/281930714/osal_freertos.o
 .text.OSAL_SEM_GetCount
                0x00000000       0x12 build/sam_e70_xult_freertos/production/_ext/281930714/osal_freertos.o
 .text.OSAL_MUTEX_Delete
                0x00000000       0x1a build/sam_e70_xult_freertos/production/_ext/281930714/osal_freertos.o
 .text.OSAL_Initialize
                0x00000000        0x4 build/sam_e70_xult_freertos/production/_ext/281930714/osal_freertos.o
 .text          0x00000000        0x0 build/sam_e70_xult_freertos/production/_ext/1360937237/app_commands.o
 .data          0x00000000        0x0 build/sam_e70_xult_freertos/production/_ext/1360937237/app_commands.o
 .bss           0x00000000        0x0 build/sam_e70_xult_freertos/production/_ext/1360937237/app_commands.o
 .text          0x00000000        0x0 build/sam_e70_xult_freertos/production/_ext/1360937237/app.o
 .data          0x00000000        0x0 build/sam_e70_xult_freertos/production/_ext/1360937237/app.o
 .bss           0x00000000        0x0 build/sam_e70_xult_freertos/production/_ext/1360937237/app.o
 .text          0x00000000        0x0 build/sam_e70_xult_freertos/production/_ext/1360937237/main.o
 .data          0x00000000        0x0 build/sam_e70_xult_freertos/production/_ext/1360937237/main.o
 .bss           0x00000000        0x0 build/sam_e70_xult_freertos/production/_ext/1360937237/main.o
 .text          0x00000000        0x0 c:/program files (x86)/microchip/xc32/v2.15/bin/bin/../../lib/gcc/pic32c/6.2.1/../../../../pic32c/lib/v7e-m/fpv5/hard\libpic32c.a(data_init.o)
 .data          0x00000000        0x0 c:/program files (x86)/microchip/xc32/v2.15/bin/bin/../../lib/gcc/pic32c/6.2.1/../../../../pic32c/lib/v7e-m/fpv5/hard\libpic32c.a(data_init.o)
 .bss           0x00000000        0x0 c:/program files (x86)/microchip/xc32/v2.15/bin/bin/../../lib/gcc/pic32c/6.2.1/../../../../pic32c/lib/v7e-m/fpv5/hard\libpic32c.a(data_init.o)
 .data          0x00000000        0x0 c:/program files (x86)/microchip/xc32/v2.15/bin/bin/../../lib/gcc/pic32c/6.2.1/v7e-m/fpv5/hard\libgcc.a(_aeabi_uldivmod.o)
 .bss           0x00000000        0x0 c:/program files (x86)/microchip/xc32/v2.15/bin/bin/../../lib/gcc/pic32c/6.2.1/v7e-m/fpv5/hard\libgcc.a(_aeabi_uldivmod.o)
 .data          0x00000000        0x0 c:/program files (x86)/microchip/xc32/v2.15/bin/bin/../../lib/gcc/pic32c/6.2.1/v7e-m/fpv5/hard\libgcc.a(_udivmoddi4.o)
 .bss           0x00000000        0x0 c:/program files (x86)/microchip/xc32/v2.15/bin/bin/../../lib/gcc/pic32c/6.2.1/v7e-m/fpv5/hard\libgcc.a(_udivmoddi4.o)
 .ARM.extab     0x00000000        0x0 c:/program files (x86)/microchip/xc32/v2.15/bin/bin/../../lib/gcc/pic32c/6.2.1/v7e-m/fpv5/hard\libgcc.a(_udivmoddi4.o)
 .data          0x00000000        0x0 c:/program files (x86)/microchip/xc32/v2.15/bin/bin/../../lib/gcc/pic32c/6.2.1/v7e-m/fpv5/hard\libgcc.a(_dvmd_tls.o)
 .bss           0x00000000        0x0 c:/program files (x86)/microchip/xc32/v2.15/bin/bin/../../lib/gcc/pic32c/6.2.1/v7e-m/fpv5/hard\libgcc.a(_dvmd_tls.o)
 .text          0x00000000        0x0 c:/program files (x86)/microchip/xc32/v2.15/bin/bin/../../lib/gcc/pic32c/6.2.1/../../../../pic32c/lib/v7e-m/fpv5/hard\libc.a(lib_a-atoi.o)
 .data          0x00000000        0x0 c:/program files (x86)/microchip/xc32/v2.15/bin/bin/../../lib/gcc/pic32c/6.2.1/../../../../pic32c/lib/v7e-m/fpv5/hard\libc.a(lib_a-atoi.o)
 .bss           0x00000000        0x0 c:/program files (x86)/microchip/xc32/v2.15/bin/bin/../../lib/gcc/pic32c/6.2.1/../../../../pic32c/lib/v7e-m/fpv5/hard\libc.a(lib_a-atoi.o)
 .text._atoi_r  0x00000000        0x8 c:/program files (x86)/microchip/xc32/v2.15/bin/bin/../../lib/gcc/pic32c/6.2.1/../../../../pic32c/lib/v7e-m/fpv5/hard\libc.a(lib_a-atoi.o)
 .text          0x00000000        0x0 c:/program files (x86)/microchip/xc32/v2.15/bin/bin/../../lib/gcc/pic32c/6.2.1/../../../../pic32c/lib/v7e-m/fpv5/hard\libc.a(lib_a-calloc.o)
 .data          0x00000000        0x0 c:/program files (x86)/microchip/xc32/v2.15/bin/bin/../../lib/gcc/pic32c/6.2.1/../../../../pic32c/lib/v7e-m/fpv5/hard\libc.a(lib_a-calloc.o)
 .bss           0x00000000        0x0 c:/program files (x86)/microchip/xc32/v2.15/bin/bin/../../lib/gcc/pic32c/6.2.1/../../../../pic32c/lib/v7e-m/fpv5/hard\libc.a(lib_a-calloc.o)
 .text          0x00000000        0x0 c:/program files (x86)/microchip/xc32/v2.15/bin/bin/../../lib/gcc/pic32c/6.2.1/../../../../pic32c/lib/v7e-m/fpv5/hard\libc.a(lib_a-callocr.o)
 .data          0x00000000        0x0 c:/program files (x86)/microchip/xc32/v2.15/bin/bin/../../lib/gcc/pic32c/6.2.1/../../../../pic32c/lib/v7e-m/fpv5/hard\libc.a(lib_a-callocr.o)
 .bss           0x00000000        0x0 c:/program files (x86)/microchip/xc32/v2.15/bin/bin/../../lib/gcc/pic32c/6.2.1/../../../../pic32c/lib/v7e-m/fpv5/hard\libc.a(lib_a-callocr.o)
 .text          0x00000000        0x0 c:/program files (x86)/microchip/xc32/v2.15/bin/bin/../../lib/gcc/pic32c/6.2.1/../../../../pic32c/lib/v7e-m/fpv5/hard\libc.a(lib_a-exit.o)
 .data          0x00000000        0x0 c:/program files (x86)/microchip/xc32/v2.15/bin/bin/../../lib/gcc/pic32c/6.2.1/../../../../pic32c/lib/v7e-m/fpv5/hard\libc.a(lib_a-exit.o)
 .bss           0x00000000        0x0 c:/program files (x86)/microchip/xc32/v2.15/bin/bin/../../lib/gcc/pic32c/6.2.1/../../../../pic32c/lib/v7e-m/fpv5/hard\libc.a(lib_a-exit.o)
 .text.exit     0x00000000       0x20 c:/program files (x86)/microchip/xc32/v2.15/bin/bin/../../lib/gcc/pic32c/6.2.1/../../../../pic32c/lib/v7e-m/fpv5/hard\libc.a(lib_a-exit.o)
 .debug_info    0x00000000      0xeb1 c:/program files (x86)/microchip/xc32/v2.15/bin/bin/../../lib/gcc/pic32c/6.2.1/../../../../pic32c/lib/v7e-m/fpv5/hard\libc.a(lib_a-exit.o)
 .debug_abbrev  0x00000000      0x1e9 c:/program files (x86)/microchip/xc32/v2.15/bin/bin/../../lib/gcc/pic32c/6.2.1/../../../../pic32c/lib/v7e-m/fpv5/hard\libc.a(lib_a-exit.o)
 .debug_loc     0x00000000       0x3e c:/program files (x86)/microchip/xc32/v2.15/bin/bin/../../lib/gcc/pic32c/6.2.1/../../../../pic32c/lib/v7e-m/fpv5/hard\libc.a(lib_a-exit.o)
 .debug_aranges
                0x00000000       0x20 c:/program files (x86)/microchip/xc32/v2.15/bin/bin/../../lib/gcc/pic32c/6.2.1/../../../../pic32c/lib/v7e-m/fpv5/hard\libc.a(lib_a-exit.o)
 .debug_ranges  0x00000000       0x10 c:/program files (x86)/microchip/xc32/v2.15/bin/bin/../../lib/gcc/pic32c/6.2.1/../../../../pic32c/lib/v7e-m/fpv5/hard\libc.a(lib_a-exit.o)
 .debug_line    0x00000000      0x258 c:/program files (x86)/microchip/xc32/v2.15/bin/bin/../../lib/gcc/pic32c/6.2.1/../../../../pic32c/lib/v7e-m/fpv5/hard\libc.a(lib_a-exit.o)
 .debug_str     0x00000000       0x1f c:/program files (x86)/microchip/xc32/v2.15/bin/bin/../../lib/gcc/pic32c/6.2.1/../../../../pic32c/lib/v7e-m/fpv5/hard\libc.a(lib_a-exit.o)
 .comment       0x00000000       0x3d c:/program files (x86)/microchip/xc32/v2.15/bin/bin/../../lib/gcc/pic32c/6.2.1/../../../../pic32c/lib/v7e-m/fpv5/hard\libc.a(lib_a-exit.o)
 .debug_frame   0x00000000       0x28 c:/program files (x86)/microchip/xc32/v2.15/bin/bin/../../lib/gcc/pic32c/6.2.1/../../../../pic32c/lib/v7e-m/fpv5/hard\libc.a(lib_a-exit.o)
 .ARM.attributes
                0x00000000       0x32 c:/program files (x86)/microchip/xc32/v2.15/bin/bin/../../lib/gcc/pic32c/6.2.1/../../../../pic32c/lib/v7e-m/fpv5/hard\libc.a(lib_a-exit.o)
 .text          0x00000000        0x0 c:/program files (x86)/microchip/xc32/v2.15/bin/bin/../../lib/gcc/pic32c/6.2.1/../../../../pic32c/lib/v7e-m/fpv5/hard\libc.a(lib_a-impure.o)
 .data          0x00000000        0x0 c:/program files (x86)/microchip/xc32/v2.15/bin/bin/../../lib/gcc/pic32c/6.2.1/../../../../pic32c/lib/v7e-m/fpv5/hard\libc.a(lib_a-impure.o)
 .bss           0x00000000        0x0 c:/program files (x86)/microchip/xc32/v2.15/bin/bin/../../lib/gcc/pic32c/6.2.1/../../../../pic32c/lib/v7e-m/fpv5/hard\libc.a(lib_a-impure.o)
 .text          0x00000000        0x0 c:/program files (x86)/microchip/xc32/v2.15/bin/bin/../../lib/gcc/pic32c/6.2.1/../../../../pic32c/lib/v7e-m/fpv5/hard\libc.a(lib_a-init.o)
 .data          0x00000000        0x0 c:/program files (x86)/microchip/xc32/v2.15/bin/bin/../../lib/gcc/pic32c/6.2.1/../../../../pic32c/lib/v7e-m/fpv5/hard\libc.a(lib_a-init.o)
 .bss           0x00000000        0x0 c:/program files (x86)/microchip/xc32/v2.15/bin/bin/../../lib/gcc/pic32c/6.2.1/../../../../pic32c/lib/v7e-m/fpv5/hard\libc.a(lib_a-init.o)
 .text          0x00000000        0x0 c:/program files (x86)/microchip/xc32/v2.15/bin/bin/../../lib/gcc/pic32c/6.2.1/../../../../pic32c/lib/v7e-m/fpv5/hard\libc.a(lib_a-locale.o)
 .data          0x00000000        0x0 c:/program files (x86)/microchip/xc32/v2.15/bin/bin/../../lib/gcc/pic32c/6.2.1/../../../../pic32c/lib/v7e-m/fpv5/hard\libc.a(lib_a-locale.o)
 .bss           0x00000000        0x0 c:/program files (x86)/microchip/xc32/v2.15/bin/bin/../../lib/gcc/pic32c/6.2.1/../../../../pic32c/lib/v7e-m/fpv5/hard\libc.a(lib_a-locale.o)
 .text._setlocale_r
                0x00000000       0x40 c:/program files (x86)/microchip/xc32/v2.15/bin/bin/../../lib/gcc/pic32c/6.2.1/../../../../pic32c/lib/v7e-m/fpv5/hard\libc.a(lib_a-locale.o)
 .text.__locale_mb_cur_max
                0x00000000       0x1c c:/program files (x86)/microchip/xc32/v2.15/bin/bin/../../lib/gcc/pic32c/6.2.1/../../../../pic32c/lib/v7e-m/fpv5/hard\libc.a(lib_a-locale.o)
 .text.setlocale
                0x00000000       0x10 c:/program files (x86)/microchip/xc32/v2.15/bin/bin/../../lib/gcc/pic32c/6.2.1/../../../../pic32c/lib/v7e-m/fpv5/hard\libc.a(lib_a-locale.o)
 .bss._PathLocale
                0x00000000        0x4 c:/program files (x86)/microchip/xc32/v2.15/bin/bin/../../lib/gcc/pic32c/6.2.1/../../../../pic32c/lib/v7e-m/fpv5/hard\libc.a(lib_a-locale.o)
 .text          0x00000000        0x0 c:/program files (x86)/microchip/xc32/v2.15/bin/bin/../../lib/gcc/pic32c/6.2.1/../../../../pic32c/lib/v7e-m/fpv5/hard\libc.a(lib_a-malloc.o)
 .data          0x00000000        0x0 c:/program files (x86)/microchip/xc32/v2.15/bin/bin/../../lib/gcc/pic32c/6.2.1/../../../../pic32c/lib/v7e-m/fpv5/hard\libc.a(lib_a-malloc.o)
 .bss           0x00000000        0x0 c:/program files (x86)/microchip/xc32/v2.15/bin/bin/../../lib/gcc/pic32c/6.2.1/../../../../pic32c/lib/v7e-m/fpv5/hard\libc.a(lib_a-malloc.o)
 .text          0x00000000        0x0 c:/program files (x86)/microchip/xc32/v2.15/bin/bin/../../lib/gcc/pic32c/6.2.1/../../../../pic32c/lib/v7e-m/fpv5/hard\libc.a(lib_a-mallocr.o)
 .data          0x00000000        0x0 c:/program files (x86)/microchip/xc32/v2.15/bin/bin/../../lib/gcc/pic32c/6.2.1/../../../../pic32c/lib/v7e-m/fpv5/hard\libc.a(lib_a-mallocr.o)
 .bss           0x00000000        0x0 c:/program files (x86)/microchip/xc32/v2.15/bin/bin/../../lib/gcc/pic32c/6.2.1/../../../../pic32c/lib/v7e-m/fpv5/hard\libc.a(lib_a-mallocr.o)
 .text          0x00000000        0x0 c:/program files (x86)/microchip/xc32/v2.15/bin/bin/../../lib/gcc/pic32c/6.2.1/../../../../pic32c/lib/v7e-m/fpv5/hard\libc.a(lib_a-mbtowc_r.o)
 .data          0x00000000        0x0 c:/program files (x86)/microchip/xc32/v2.15/bin/bin/../../lib/gcc/pic32c/6.2.1/../../../../pic32c/lib/v7e-m/fpv5/hard\libc.a(lib_a-mbtowc_r.o)
 .bss           0x00000000        0x0 c:/program files (x86)/microchip/xc32/v2.15/bin/bin/../../lib/gcc/pic32c/6.2.1/../../../../pic32c/lib/v7e-m/fpv5/hard\libc.a(lib_a-mbtowc_r.o)
 .text._mbtowc_r
                0x00000000       0x24 c:/program files (x86)/microchip/xc32/v2.15/bin/bin/../../lib/gcc/pic32c/6.2.1/../../../../pic32c/lib/v7e-m/fpv5/hard\libc.a(lib_a-mbtowc_r.o)
 .text          0x00000000        0x0 c:/program files (x86)/microchip/xc32/v2.15/bin/bin/../../lib/gcc/pic32c/6.2.1/../../../../pic32c/lib/v7e-m/fpv5/hard\libc.a(lib_a-memcmp.o)
 .data          0x00000000        0x0 c:/program files (x86)/microchip/xc32/v2.15/bin/bin/../../lib/gcc/pic32c/6.2.1/../../../../pic32c/lib/v7e-m/fpv5/hard\libc.a(lib_a-memcmp.o)
 .bss           0x00000000        0x0 c:/program files (x86)/microchip/xc32/v2.15/bin/bin/../../lib/gcc/pic32c/6.2.1/../../../../pic32c/lib/v7e-m/fpv5/hard\libc.a(lib_a-memcmp.o)
 .data          0x00000000        0x0 c:/program files (x86)/microchip/xc32/v2.15/bin/bin/../../lib/gcc/pic32c/6.2.1/../../../../pic32c/lib/v7e-m/fpv5/hard\libc.a(lib_a-memcpy.o)
 .bss           0x00000000        0x0 c:/program files (x86)/microchip/xc32/v2.15/bin/bin/../../lib/gcc/pic32c/6.2.1/../../../../pic32c/lib/v7e-m/fpv5/hard\libc.a(lib_a-memcpy.o)
 .text          0x00000000        0x0 c:/program files (x86)/microchip/xc32/v2.15/bin/bin/../../lib/gcc/pic32c/6.2.1/../../../../pic32c/lib/v7e-m/fpv5/hard\libc.a(lib_a-memset.o)
 .data          0x00000000        0x0 c:/program files (x86)/microchip/xc32/v2.15/bin/bin/../../lib/gcc/pic32c/6.2.1/../../../../pic32c/lib/v7e-m/fpv5/hard\libc.a(lib_a-memset.o)
 .bss           0x00000000        0x0 c:/program files (x86)/microchip/xc32/v2.15/bin/bin/../../lib/gcc/pic32c/6.2.1/../../../../pic32c/lib/v7e-m/fpv5/hard\libc.a(lib_a-memset.o)
 .text          0x00000000        0x0 c:/program files (x86)/microchip/xc32/v2.15/bin/bin/../../lib/gcc/pic32c/6.2.1/../../../../pic32c/lib/v7e-m/fpv5/hard\libc.a(lib_a-mlock.o)
 .data          0x00000000        0x0 c:/program files (x86)/microchip/xc32/v2.15/bin/bin/../../lib/gcc/pic32c/6.2.1/../../../../pic32c/lib/v7e-m/fpv5/hard\libc.a(lib_a-mlock.o)
 .bss           0x00000000        0x0 c:/program files (x86)/microchip/xc32/v2.15/bin/bin/../../lib/gcc/pic32c/6.2.1/../../../../pic32c/lib/v7e-m/fpv5/hard\libc.a(lib_a-mlock.o)
 .text          0x00000000        0x0 c:/program files (x86)/microchip/xc32/v2.15/bin/bin/../../lib/gcc/pic32c/6.2.1/../../../../pic32c/lib/v7e-m/fpv5/hard\libc.a(lib_a-rand.o)
 .data          0x00000000        0x0 c:/program files (x86)/microchip/xc32/v2.15/bin/bin/../../lib/gcc/pic32c/6.2.1/../../../../pic32c/lib/v7e-m/fpv5/hard\libc.a(lib_a-rand.o)
 .bss           0x00000000        0x0 c:/program files (x86)/microchip/xc32/v2.15/bin/bin/../../lib/gcc/pic32c/6.2.1/../../../../pic32c/lib/v7e-m/fpv5/hard\libc.a(lib_a-rand.o)
 .text.srand    0x00000000       0x14 c:/program files (x86)/microchip/xc32/v2.15/bin/bin/../../lib/gcc/pic32c/6.2.1/../../../../pic32c/lib/v7e-m/fpv5/hard\libc.a(lib_a-rand.o)
 .text          0x00000000        0x0 c:/program files (x86)/microchip/xc32/v2.15/bin/bin/../../lib/gcc/pic32c/6.2.1/../../../../pic32c/lib/v7e-m/fpv5/hard\libc.a(lib_a-sbrkr.o)
 .data          0x00000000        0x0 c:/program files (x86)/microchip/xc32/v2.15/bin/bin/../../lib/gcc/pic32c/6.2.1/../../../../pic32c/lib/v7e-m/fpv5/hard\libc.a(lib_a-sbrkr.o)
 .bss           0x00000000        0x0 c:/program files (x86)/microchip/xc32/v2.15/bin/bin/../../lib/gcc/pic32c/6.2.1/../../../../pic32c/lib/v7e-m/fpv5/hard\libc.a(lib_a-sbrkr.o)
 .text          0x00000000        0x0 c:/program files (x86)/microchip/xc32/v2.15/bin/bin/../../lib/gcc/pic32c/6.2.1/../../../../pic32c/lib/v7e-m/fpv5/hard\libc.a(lib_a-snprintf.o)
 .data          0x00000000        0x0 c:/program files (x86)/microchip/xc32/v2.15/bin/bin/../../lib/gcc/pic32c/6.2.1/../../../../pic32c/lib/v7e-m/fpv5/hard\libc.a(lib_a-snprintf.o)
 .bss           0x00000000        0x0 c:/program files (x86)/microchip/xc32/v2.15/bin/bin/../../lib/gcc/pic32c/6.2.1/../../../../pic32c/lib/v7e-m/fpv5/hard\libc.a(lib_a-snprintf.o)
 .text._snprintf_r
                0x00000000       0x90 c:/program files (x86)/microchip/xc32/v2.15/bin/bin/../../lib/gcc/pic32c/6.2.1/../../../../pic32c/lib/v7e-m/fpv5/hard\libc.a(lib_a-snprintf.o)
 .text          0x00000000        0x0 c:/program files (x86)/microchip/xc32/v2.15/bin/bin/../../lib/gcc/pic32c/6.2.1/../../../../pic32c/lib/v7e-m/fpv5/hard\libc.a(lib_a-sprintf.o)
 .data          0x00000000        0x0 c:/program files (x86)/microchip/xc32/v2.15/bin/bin/../../lib/gcc/pic32c/6.2.1/../../../../pic32c/lib/v7e-m/fpv5/hard\libc.a(lib_a-sprintf.o)
 .bss           0x00000000        0x0 c:/program files (x86)/microchip/xc32/v2.15/bin/bin/../../lib/gcc/pic32c/6.2.1/../../../../pic32c/lib/v7e-m/fpv5/hard\libc.a(lib_a-sprintf.o)
 .text._sprintf_r
                0x00000000       0x44 c:/program files (x86)/microchip/xc32/v2.15/bin/bin/../../lib/gcc/pic32c/6.2.1/../../../../pic32c/lib/v7e-m/fpv5/hard\libc.a(lib_a-sprintf.o)
 .data          0x00000000        0x0 c:/program files (x86)/microchip/xc32/v2.15/bin/bin/../../lib/gcc/pic32c/6.2.1/../../../../pic32c/lib/v7e-m/fpv5/hard\libc.a(lib_a-strcmp.o)
 .bss           0x00000000        0x0 c:/program files (x86)/microchip/xc32/v2.15/bin/bin/../../lib/gcc/pic32c/6.2.1/../../../../pic32c/lib/v7e-m/fpv5/hard\libc.a(lib_a-strcmp.o)
 .text          0x00000000        0x0 c:/program files (x86)/microchip/xc32/v2.15/bin/bin/../../lib/gcc/pic32c/6.2.1/../../../../pic32c/lib/v7e-m/fpv5/hard\libc.a(lib_a-strcpy.o)
 .data          0x00000000        0x0 c:/program files (x86)/microchip/xc32/v2.15/bin/bin/../../lib/gcc/pic32c/6.2.1/../../../../pic32c/lib/v7e-m/fpv5/hard\libc.a(lib_a-strcpy.o)
 .bss           0x00000000        0x0 c:/program files (x86)/microchip/xc32/v2.15/bin/bin/../../lib/gcc/pic32c/6.2.1/../../../../pic32c/lib/v7e-m/fpv5/hard\libc.a(lib_a-strcpy.o)
 .data          0x00000000        0x0 c:/program files (x86)/microchip/xc32/v2.15/bin/bin/../../lib/gcc/pic32c/6.2.1/../../../../pic32c/lib/v7e-m/fpv5/hard\libc.a(lib_a-strlen.o)
 .bss           0x00000000        0x0 c:/program files (x86)/microchip/xc32/v2.15/bin/bin/../../lib/gcc/pic32c/6.2.1/../../../../pic32c/lib/v7e-m/fpv5/hard\libc.a(lib_a-strlen.o)
 .text          0x00000000        0x0 c:/program files (x86)/microchip/xc32/v2.15/bin/bin/../../lib/gcc/pic32c/6.2.1/../../../../pic32c/lib/v7e-m/fpv5/hard\libc.a(lib_a-strncat.o)
 .data          0x00000000        0x0 c:/program files (x86)/microchip/xc32/v2.15/bin/bin/../../lib/gcc/pic32c/6.2.1/../../../../pic32c/lib/v7e-m/fpv5/hard\libc.a(lib_a-strncat.o)
 .bss           0x00000000        0x0 c:/program files (x86)/microchip/xc32/v2.15/bin/bin/../../lib/gcc/pic32c/6.2.1/../../../../pic32c/lib/v7e-m/fpv5/hard\libc.a(lib_a-strncat.o)
 .text          0x00000000        0x0 c:/program files (x86)/microchip/xc32/v2.15/bin/bin/../../lib/gcc/pic32c/6.2.1/../../../../pic32c/lib/v7e-m/fpv5/hard\libc.a(lib_a-strncpy.o)
 .data          0x00000000        0x0 c:/program files (x86)/microchip/xc32/v2.15/bin/bin/../../lib/gcc/pic32c/6.2.1/../../../../pic32c/lib/v7e-m/fpv5/hard\libc.a(lib_a-strncpy.o)
 .bss           0x00000000        0x0 c:/program files (x86)/microchip/xc32/v2.15/bin/bin/../../lib/gcc/pic32c/6.2.1/../../../../pic32c/lib/v7e-m/fpv5/hard\libc.a(lib_a-strncpy.o)
 .text          0x00000000        0x0 c:/program files (x86)/microchip/xc32/v2.15/bin/bin/../../lib/gcc/pic32c/6.2.1/../../../../pic32c/lib/v7e-m/fpv5/hard\libc.a(lib_a-strstr.o)
 .data          0x00000000        0x0 c:/program files (x86)/microchip/xc32/v2.15/bin/bin/../../lib/gcc/pic32c/6.2.1/../../../../pic32c/lib/v7e-m/fpv5/hard\libc.a(lib_a-strstr.o)
 .bss           0x00000000        0x0 c:/program files (x86)/microchip/xc32/v2.15/bin/bin/../../lib/gcc/pic32c/6.2.1/../../../../pic32c/lib/v7e-m/fpv5/hard\libc.a(lib_a-strstr.o)
 .text          0x00000000        0x0 c:/program files (x86)/microchip/xc32/v2.15/bin/bin/../../lib/gcc/pic32c/6.2.1/../../../../pic32c/lib/v7e-m/fpv5/hard\libc.a(lib_a-strtok.o)
 .data          0x00000000        0x0 c:/program files (x86)/microchip/xc32/v2.15/bin/bin/../../lib/gcc/pic32c/6.2.1/../../../../pic32c/lib/v7e-m/fpv5/hard\libc.a(lib_a-strtok.o)
 .bss           0x00000000        0x0 c:/program files (x86)/microchip/xc32/v2.15/bin/bin/../../lib/gcc/pic32c/6.2.1/../../../../pic32c/lib/v7e-m/fpv5/hard\libc.a(lib_a-strtok.o)
 .text          0x00000000        0x0 c:/program files (x86)/microchip/xc32/v2.15/bin/bin/../../lib/gcc/pic32c/6.2.1/../../../../pic32c/lib/v7e-m/fpv5/hard\libc.a(lib_a-strtok_r.o)
 .data          0x00000000        0x0 c:/program files (x86)/microchip/xc32/v2.15/bin/bin/../../lib/gcc/pic32c/6.2.1/../../../../pic32c/lib/v7e-m/fpv5/hard\libc.a(lib_a-strtok_r.o)
 .bss           0x00000000        0x0 c:/program files (x86)/microchip/xc32/v2.15/bin/bin/../../lib/gcc/pic32c/6.2.1/../../../../pic32c/lib/v7e-m/fpv5/hard\libc.a(lib_a-strtok_r.o)
 .text.strtok_r
                0x00000000        0x8 c:/program files (x86)/microchip/xc32/v2.15/bin/bin/../../lib/gcc/pic32c/6.2.1/../../../../pic32c/lib/v7e-m/fpv5/hard\libc.a(lib_a-strtok_r.o)
 .text          0x00000000        0x0 c:/program files (x86)/microchip/xc32/v2.15/bin/bin/../../lib/gcc/pic32c/6.2.1/../../../../pic32c/lib/v7e-m/fpv5/hard\libc.a(lib_a-strtol.o)
 .data          0x00000000        0x0 c:/program files (x86)/microchip/xc32/v2.15/bin/bin/../../lib/gcc/pic32c/6.2.1/../../../../pic32c/lib/v7e-m/fpv5/hard\libc.a(lib_a-strtol.o)
 .bss           0x00000000        0x0 c:/program files (x86)/microchip/xc32/v2.15/bin/bin/../../lib/gcc/pic32c/6.2.1/../../../../pic32c/lib/v7e-m/fpv5/hard\libc.a(lib_a-strtol.o)
 .text._strtol_r
                0x00000000       0x24 c:/program files (x86)/microchip/xc32/v2.15/bin/bin/../../lib/gcc/pic32c/6.2.1/../../../../pic32c/lib/v7e-m/fpv5/hard\libc.a(lib_a-strtol.o)
 .text.strtol_l
                0x00000000       0x20 c:/program files (x86)/microchip/xc32/v2.15/bin/bin/../../lib/gcc/pic32c/6.2.1/../../../../pic32c/lib/v7e-m/fpv5/hard\libc.a(lib_a-strtol.o)
 .text          0x00000000        0x0 c:/program files (x86)/microchip/xc32/v2.15/bin/bin/../../lib/gcc/pic32c/6.2.1/../../../../pic32c/lib/v7e-m/fpv5/hard\libc.a(lib_a-svfprintf.o)
 .data          0x00000000        0x0 c:/program files (x86)/microchip/xc32/v2.15/bin/bin/../../lib/gcc/pic32c/6.2.1/../../../../pic32c/lib/v7e-m/fpv5/hard\libc.a(lib_a-svfprintf.o)
 .bss           0x00000000        0x0 c:/program files (x86)/microchip/xc32/v2.15/bin/bin/../../lib/gcc/pic32c/6.2.1/../../../../pic32c/lib/v7e-m/fpv5/hard\libc.a(lib_a-svfprintf.o)
 .text          0x00000000        0x0 c:/program files (x86)/microchip/xc32/v2.15/bin/bin/../../lib/gcc/pic32c/6.2.1/../../../../pic32c/lib/v7e-m/fpv5/hard\libc.a(lib_a-vsnprintf.o)
 .data          0x00000000        0x0 c:/program files (x86)/microchip/xc32/v2.15/bin/bin/../../lib/gcc/pic32c/6.2.1/../../../../pic32c/lib/v7e-m/fpv5/hard\libc.a(lib_a-vsnprintf.o)
 .bss           0x00000000        0x0 c:/program files (x86)/microchip/xc32/v2.15/bin/bin/../../lib/gcc/pic32c/6.2.1/../../../../pic32c/lib/v7e-m/fpv5/hard\libc.a(lib_a-vsnprintf.o)
 .text          0x00000000        0x0 c:/program files (x86)/microchip/xc32/v2.15/bin/bin/../../lib/gcc/pic32c/6.2.1/../../../../pic32c/lib/v7e-m/fpv5/hard\libc.a(lib_a-wctomb_r.o)
 .data          0x00000000        0x0 c:/program files (x86)/microchip/xc32/v2.15/bin/bin/../../lib/gcc/pic32c/6.2.1/../../../../pic32c/lib/v7e-m/fpv5/hard\libc.a(lib_a-wctomb_r.o)
 .bss           0x00000000        0x0 c:/program files (x86)/microchip/xc32/v2.15/bin/bin/../../lib/gcc/pic32c/6.2.1/../../../../pic32c/lib/v7e-m/fpv5/hard\libc.a(lib_a-wctomb_r.o)
 .text._wctomb_r
                0x00000000       0x24 c:/program files (x86)/microchip/xc32/v2.15/bin/bin/../../lib/gcc/pic32c/6.2.1/../../../../pic32c/lib/v7e-m/fpv5/hard\libc.a(lib_a-wctomb_r.o)
 .text          0x00000000        0x0 c:/program files (x86)/microchip/xc32/v2.15/bin/bin/../../lib/gcc/pic32c/6.2.1/../../../../pic32c/lib/v7e-m/fpv5/hard\libc.a(lib_a-__call_atexit.o)
 .data          0x00000000        0x0 c:/program files (x86)/microchip/xc32/v2.15/bin/bin/../../lib/gcc/pic32c/6.2.1/../../../../pic32c/lib/v7e-m/fpv5/hard\libc.a(lib_a-__call_atexit.o)
 .bss           0x00000000        0x0 c:/program files (x86)/microchip/xc32/v2.15/bin/bin/../../lib/gcc/pic32c/6.2.1/../../../../pic32c/lib/v7e-m/fpv5/hard\libc.a(lib_a-__call_atexit.o)
 .text.__call_exitprocs
                0x00000000       0xd4 c:/program files (x86)/microchip/xc32/v2.15/bin/bin/../../lib/gcc/pic32c/6.2.1/../../../../pic32c/lib/v7e-m/fpv5/hard\libc.a(lib_a-__call_atexit.o)
 .text          0x00000000        0x0 c:/program files (x86)/microchip/xc32/v2.15/bin/bin/../../lib/gcc/pic32c/6.2.1/../../../../pic32c/lib/v7e-m/fpv5/hard\libc.a(lib_a-atexit.o)
 .data          0x00000000        0x0 c:/program files (x86)/microchip/xc32/v2.15/bin/bin/../../lib/gcc/pic32c/6.2.1/../../../../pic32c/lib/v7e-m/fpv5/hard\libc.a(lib_a-atexit.o)
 .bss           0x00000000        0x0 c:/program files (x86)/microchip/xc32/v2.15/bin/bin/../../lib/gcc/pic32c/6.2.1/../../../../pic32c/lib/v7e-m/fpv5/hard\libc.a(lib_a-atexit.o)
 .text          0x00000000        0x0 c:/program files (x86)/microchip/xc32/v2.15/bin/bin/../../lib/gcc/pic32c/6.2.1/../../../../pic32c/lib/v7e-m/fpv5/hard\libc.a(lib_a-ctype_.o)
 .data          0x00000000        0x0 c:/program files (x86)/microchip/xc32/v2.15/bin/bin/../../lib/gcc/pic32c/6.2.1/../../../../pic32c/lib/v7e-m/fpv5/hard\libc.a(lib_a-ctype_.o)
 .bss           0x00000000        0x0 c:/program files (x86)/microchip/xc32/v2.15/bin/bin/../../lib/gcc/pic32c/6.2.1/../../../../pic32c/lib/v7e-m/fpv5/hard\libc.a(lib_a-ctype_.o)
 .text          0x00000000        0x0 c:/program files (x86)/microchip/xc32/v2.15/bin/bin/../../lib/gcc/pic32c/6.2.1/../../../../pic32c/lib/v7e-m/fpv5/hard\libc.a(lib_a-dtoa.o)
 .data          0x00000000        0x0 c:/program files (x86)/microchip/xc32/v2.15/bin/bin/../../lib/gcc/pic32c/6.2.1/../../../../pic32c/lib/v7e-m/fpv5/hard\libc.a(lib_a-dtoa.o)
 .bss           0x00000000        0x0 c:/program files (x86)/microchip/xc32/v2.15/bin/bin/../../lib/gcc/pic32c/6.2.1/../../../../pic32c/lib/v7e-m/fpv5/hard\libc.a(lib_a-dtoa.o)
 .text          0x00000000        0x0 c:/program files (x86)/microchip/xc32/v2.15/bin/bin/../../lib/gcc/pic32c/6.2.1/../../../../pic32c/lib/v7e-m/fpv5/hard\libc.a(lib_a-fini.o)
 .data          0x00000000        0x0 c:/program files (x86)/microchip/xc32/v2.15/bin/bin/../../lib/gcc/pic32c/6.2.1/../../../../pic32c/lib/v7e-m/fpv5/hard\libc.a(lib_a-fini.o)
 .bss           0x00000000        0x0 c:/program files (x86)/microchip/xc32/v2.15/bin/bin/../../lib/gcc/pic32c/6.2.1/../../../../pic32c/lib/v7e-m/fpv5/hard\libc.a(lib_a-fini.o)
 .text          0x00000000        0x0 c:/program files (x86)/microchip/xc32/v2.15/bin/bin/../../lib/gcc/pic32c/6.2.1/../../../../pic32c/lib/v7e-m/fpv5/hard\libc.a(lib_a-freer.o)
 .data          0x00000000        0x0 c:/program files (x86)/microchip/xc32/v2.15/bin/bin/../../lib/gcc/pic32c/6.2.1/../../../../pic32c/lib/v7e-m/fpv5/hard\libc.a(lib_a-freer.o)
 .bss           0x00000000        0x0 c:/program files (x86)/microchip/xc32/v2.15/bin/bin/../../lib/gcc/pic32c/6.2.1/../../../../pic32c/lib/v7e-m/fpv5/hard\libc.a(lib_a-freer.o)
 .text          0x00000000        0x0 c:/program files (x86)/microchip/xc32/v2.15/bin/bin/../../lib/gcc/pic32c/6.2.1/../../../../pic32c/lib/v7e-m/fpv5/hard\libc.a(lib_a-localeconv.o)
 .data          0x00000000        0x0 c:/program files (x86)/microchip/xc32/v2.15/bin/bin/../../lib/gcc/pic32c/6.2.1/../../../../pic32c/lib/v7e-m/fpv5/hard\libc.a(lib_a-localeconv.o)
 .bss           0x00000000        0x0 c:/program files (x86)/microchip/xc32/v2.15/bin/bin/../../lib/gcc/pic32c/6.2.1/../../../../pic32c/lib/v7e-m/fpv5/hard\libc.a(lib_a-localeconv.o)
 .text.__localeconv_l
                0x00000000        0x4 c:/program files (x86)/microchip/xc32/v2.15/bin/bin/../../lib/gcc/pic32c/6.2.1/../../../../pic32c/lib/v7e-m/fpv5/hard\libc.a(lib_a-localeconv.o)
 .text.localeconv
                0x00000000       0x1c c:/program files (x86)/microchip/xc32/v2.15/bin/bin/../../lib/gcc/pic32c/6.2.1/../../../../pic32c/lib/v7e-m/fpv5/hard\libc.a(lib_a-localeconv.o)
 .data          0x00000000        0x0 c:/program files (x86)/microchip/xc32/v2.15/bin/bin/../../lib/gcc/pic32c/6.2.1/../../../../pic32c/lib/v7e-m/fpv5/hard\libc.a(lib_a-memchr.o)
 .bss           0x00000000        0x0 c:/program files (x86)/microchip/xc32/v2.15/bin/bin/../../lib/gcc/pic32c/6.2.1/../../../../pic32c/lib/v7e-m/fpv5/hard\libc.a(lib_a-memchr.o)
 .text          0x00000000        0x0 c:/program files (x86)/microchip/xc32/v2.15/bin/bin/../../lib/gcc/pic32c/6.2.1/../../../../pic32c/lib/v7e-m/fpv5/hard\libc.a(lib_a-mprec.o)
 .data          0x00000000        0x0 c:/program files (x86)/microchip/xc32/v2.15/bin/bin/../../lib/gcc/pic32c/6.2.1/../../../../pic32c/lib/v7e-m/fpv5/hard\libc.a(lib_a-mprec.o)
 .bss           0x00000000        0x0 c:/program files (x86)/microchip/xc32/v2.15/bin/bin/../../lib/gcc/pic32c/6.2.1/../../../../pic32c/lib/v7e-m/fpv5/hard\libc.a(lib_a-mprec.o)
 .text.__s2b    0x00000000       0x9c c:/program files (x86)/microchip/xc32/v2.15/bin/bin/../../lib/gcc/pic32c/6.2.1/../../../../pic32c/lib/v7e-m/fpv5/hard\libc.a(lib_a-mprec.o)
 .text.__ulp    0x00000000       0x54 c:/program files (x86)/microchip/xc32/v2.15/bin/bin/../../lib/gcc/pic32c/6.2.1/../../../../pic32c/lib/v7e-m/fpv5/hard\libc.a(lib_a-mprec.o)
 .text.__b2d    0x00000000       0xc4 c:/program files (x86)/microchip/xc32/v2.15/bin/bin/../../lib/gcc/pic32c/6.2.1/../../../../pic32c/lib/v7e-m/fpv5/hard\libc.a(lib_a-mprec.o)
 .text.__ratio  0x00000000       0x60 c:/program files (x86)/microchip/xc32/v2.15/bin/bin/../../lib/gcc/pic32c/6.2.1/../../../../pic32c/lib/v7e-m/fpv5/hard\libc.a(lib_a-mprec.o)
 .text._mprec_log10
                0x00000000       0x28 c:/program files (x86)/microchip/xc32/v2.15/bin/bin/../../lib/gcc/pic32c/6.2.1/../../../../pic32c/lib/v7e-m/fpv5/hard\libc.a(lib_a-mprec.o)
 .text.__copybits
                0x00000000       0x48 c:/program files (x86)/microchip/xc32/v2.15/bin/bin/../../lib/gcc/pic32c/6.2.1/../../../../pic32c/lib/v7e-m/fpv5/hard\libc.a(lib_a-mprec.o)
 .text.__any_on
                0x00000000       0x60 c:/program files (x86)/microchip/xc32/v2.15/bin/bin/../../lib/gcc/pic32c/6.2.1/../../../../pic32c/lib/v7e-m/fpv5/hard\libc.a(lib_a-mprec.o)
 .rodata.__mprec_tinytens
                0x00000000       0x28 c:/program files (x86)/microchip/xc32/v2.15/bin/bin/../../lib/gcc/pic32c/6.2.1/../../../../pic32c/lib/v7e-m/fpv5/hard\libc.a(lib_a-mprec.o)
 .text          0x00000000        0x0 c:/program files (x86)/microchip/xc32/v2.15/bin/bin/../../lib/gcc/pic32c/6.2.1/../../../../pic32c/lib/v7e-m/fpv5/hard\libc.a(lib_a-reent.o)
 .data          0x00000000        0x0 c:/program files (x86)/microchip/xc32/v2.15/bin/bin/../../lib/gcc/pic32c/6.2.1/../../../../pic32c/lib/v7e-m/fpv5/hard\libc.a(lib_a-reent.o)
 .bss           0x00000000        0x0 c:/program files (x86)/microchip/xc32/v2.15/bin/bin/../../lib/gcc/pic32c/6.2.1/../../../../pic32c/lib/v7e-m/fpv5/hard\libc.a(lib_a-reent.o)
 .text.cleanup_glue
                0x00000000       0x1c c:/program files (x86)/microchip/xc32/v2.15/bin/bin/../../lib/gcc/pic32c/6.2.1/../../../../pic32c/lib/v7e-m/fpv5/hard\libc.a(lib_a-reent.o)
 .text._reclaim_reent
                0x00000000       0x88 c:/program files (x86)/microchip/xc32/v2.15/bin/bin/../../lib/gcc/pic32c/6.2.1/../../../../pic32c/lib/v7e-m/fpv5/hard\libc.a(lib_a-reent.o)
 .text          0x00000000        0x0 c:/program files (x86)/microchip/xc32/v2.15/bin/bin/../../lib/gcc/pic32c/6.2.1/../../../../pic32c/lib/v7e-m/fpv5/hard\libc.a(lib_a-s_frexp.o)
 .data          0x00000000        0x0 c:/program files (x86)/microchip/xc32/v2.15/bin/bin/../../lib/gcc/pic32c/6.2.1/../../../../pic32c/lib/v7e-m/fpv5/hard\libc.a(lib_a-s_frexp.o)
 .bss           0x00000000        0x0 c:/program files (x86)/microchip/xc32/v2.15/bin/bin/../../lib/gcc/pic32c/6.2.1/../../../../pic32c/lib/v7e-m/fpv5/hard\libc.a(lib_a-s_frexp.o)
 .text          0x00000000        0x0 c:/program files (x86)/microchip/xc32/v2.15/bin/bin/../../lib/gcc/pic32c/6.2.1/../../../../pic32c/lib/v7e-m/fpv5/hard\libc.a(lib_a-strchr.o)
 .data          0x00000000        0x0 c:/program files (x86)/microchip/xc32/v2.15/bin/bin/../../lib/gcc/pic32c/6.2.1/../../../../pic32c/lib/v7e-m/fpv5/hard\libc.a(lib_a-strchr.o)
 .bss           0x00000000        0x0 c:/program files (x86)/microchip/xc32/v2.15/bin/bin/../../lib/gcc/pic32c/6.2.1/../../../../pic32c/lib/v7e-m/fpv5/hard\libc.a(lib_a-strchr.o)
 .text          0x00000000        0x0 c:/program files (x86)/microchip/xc32/v2.15/bin/bin/../../lib/gcc/pic32c/6.2.1/../../../../pic32c/lib/v7e-m/fpv5/hard\libc.a(lib_a-svfiprintf.o)
 .data          0x00000000        0x0 c:/program files (x86)/microchip/xc32/v2.15/bin/bin/../../lib/gcc/pic32c/6.2.1/../../../../pic32c/lib/v7e-m/fpv5/hard\libc.a(lib_a-svfiprintf.o)
 .bss           0x00000000        0x0 c:/program files (x86)/microchip/xc32/v2.15/bin/bin/../../lib/gcc/pic32c/6.2.1/../../../../pic32c/lib/v7e-m/fpv5/hard\libc.a(lib_a-svfiprintf.o)
 .text._svfiprintf_r
                0x00000000      0xb28 c:/program files (x86)/microchip/xc32/v2.15/bin/bin/../../lib/gcc/pic32c/6.2.1/../../../../pic32c/lib/v7e-m/fpv5/hard\libc.a(lib_a-svfiprintf.o)
 .rodata        0x00000000       0x30 c:/program files (x86)/microchip/xc32/v2.15/bin/bin/../../lib/gcc/pic32c/6.2.1/../../../../pic32c/lib/v7e-m/fpv5/hard\libc.a(lib_a-svfiprintf.o)
 .rodata.blanks.8331
                0x00000000       0x10 c:/program files (x86)/microchip/xc32/v2.15/bin/bin/../../lib/gcc/pic32c/6.2.1/../../../../pic32c/lib/v7e-m/fpv5/hard\libc.a(lib_a-svfiprintf.o)
 .rodata.zeroes.8332
                0x00000000       0x10 c:/program files (x86)/microchip/xc32/v2.15/bin/bin/../../lib/gcc/pic32c/6.2.1/../../../../pic32c/lib/v7e-m/fpv5/hard\libc.a(lib_a-svfiprintf.o)
 .text          0x00000000        0x0 c:/program files (x86)/microchip/xc32/v2.15/bin/bin/../../lib/gcc/pic32c/6.2.1/../../../../pic32c/lib/v7e-m/fpv5/hard\libc.a(lib_a-__atexit.o)
 .data          0x00000000        0x0 c:/program files (x86)/microchip/xc32/v2.15/bin/bin/../../lib/gcc/pic32c/6.2.1/../../../../pic32c/lib/v7e-m/fpv5/hard\libc.a(lib_a-__atexit.o)
 .bss           0x00000000        0x0 c:/program files (x86)/microchip/xc32/v2.15/bin/bin/../../lib/gcc/pic32c/6.2.1/../../../../pic32c/lib/v7e-m/fpv5/hard\libc.a(lib_a-__atexit.o)
 .text          0x00000000        0x0 c:/program files (x86)/microchip/xc32/v2.15/bin/bin/../../lib/gcc/pic32c/6.2.1/../../../../pic32c/lib/v7e-m/fpv5/hard\libc.a(lib_a-memmove.o)
 .data          0x00000000        0x0 c:/program files (x86)/microchip/xc32/v2.15/bin/bin/../../lib/gcc/pic32c/6.2.1/../../../../pic32c/lib/v7e-m/fpv5/hard\libc.a(lib_a-memmove.o)
 .bss           0x00000000        0x0 c:/program files (x86)/microchip/xc32/v2.15/bin/bin/../../lib/gcc/pic32c/6.2.1/../../../../pic32c/lib/v7e-m/fpv5/hard\libc.a(lib_a-memmove.o)
 .text          0x00000000        0x0 c:/program files (x86)/microchip/xc32/v2.15/bin/bin/../../lib/gcc/pic32c/6.2.1/../../../../pic32c/lib/v7e-m/fpv5/hard\libc.a(lib_a-reallocr.o)
 .data          0x00000000        0x0 c:/program files (x86)/microchip/xc32/v2.15/bin/bin/../../lib/gcc/pic32c/6.2.1/../../../../pic32c/lib/v7e-m/fpv5/hard\libc.a(lib_a-reallocr.o)
 .bss           0x00000000        0x0 c:/program files (x86)/microchip/xc32/v2.15/bin/bin/../../lib/gcc/pic32c/6.2.1/../../../../pic32c/lib/v7e-m/fpv5/hard\libc.a(lib_a-reallocr.o)
 .text          0x00000000        0x0 c:/program files (x86)/microchip/xc32/v2.15/bin/bin/../../lib/gcc/pic32c/6.2.1/../../../../pic32c/lib/v7e-m/fpv5/hard\libpic32c.a(sbrk.o)
 .data          0x00000000        0x0 c:/program files (x86)/microchip/xc32/v2.15/bin/bin/../../lib/gcc/pic32c/6.2.1/../../../../pic32c/lib/v7e-m/fpv5/hard\libpic32c.a(sbrk.o)
 .text          0x00000000        0x0 c:/program files (x86)/microchip/xc32/v2.15/bin/bin/../../lib/gcc/pic32c/6.2.1/v7e-m/fpv5/hard/crtend.o
 .data          0x00000000        0x0 c:/program files (x86)/microchip/xc32/v2.15/bin/bin/../../lib/gcc/pic32c/6.2.1/v7e-m/fpv5/hard/crtend.o
 .bss           0x00000000        0x0 c:/program files (x86)/microchip/xc32/v2.15/bin/bin/../../lib/gcc/pic32c/6.2.1/v7e-m/fpv5/hard/crtend.o
 .eh_frame      0x00000000        0x4 c:/program files (x86)/microchip/xc32/v2.15/bin/bin/../../lib/gcc/pic32c/6.2.1/v7e-m/fpv5/hard/crtend.o
 .jcr           0x00000000        0x4 c:/program files (x86)/microchip/xc32/v2.15/bin/bin/../../lib/gcc/pic32c/6.2.1/v7e-m/fpv5/hard/crtend.o
 .comment       0x00000000       0x3d c:/program files (x86)/microchip/xc32/v2.15/bin/bin/../../lib/gcc/pic32c/6.2.1/v7e-m/fpv5/hard/crtend.o
 .ARM.attributes
                0x00000000       0x32 c:/program files (x86)/microchip/xc32/v2.15/bin/bin/../../lib/gcc/pic32c/6.2.1/v7e-m/fpv5/hard/crtend.o
 .text          0x00000000        0x0 c:/program files (x86)/microchip/xc32/v2.15/bin/bin/../../lib/gcc/pic32c/6.2.1/v7e-m/fpv5/hard/crtn.o
 .data          0x00000000        0x0 c:/program files (x86)/microchip/xc32/v2.15/bin/bin/../../lib/gcc/pic32c/6.2.1/v7e-m/fpv5/hard/crtn.o
 .bss           0x00000000        0x0 c:/program files (x86)/microchip/xc32/v2.15/bin/bin/../../lib/gcc/pic32c/6.2.1/v7e-m/fpv5/hard/crtn.o

Memory Configuration

Name             Origin             Length             Attributes
rom              0x00400000         0x00200000         xr
ram              0x20400000         0x00060000         xrw
itcm             0x00000000         0x00000000         xrw
dtcm             0x20000000         0x00000000         xrw
*default*        0x00000000         0xffffffff
tcm              0x00000000         0xffffffff

Linker script and memory map

LOAD c:/program files (x86)/microchip/xc32/v2.15/bin/bin/../../lib/gcc/pic32c/6.2.1/v7e-m/fpv5/hard/crti.o
LOAD c:/program files (x86)/microchip/xc32/v2.15/bin/bin/../../lib/gcc/pic32c/6.2.1/v7e-m/fpv5/hard/crtbegin.o
LOAD c:/program files (x86)/microchip/xc32/v2.15/bin/bin/../../lib/gcc/pic32c/6.2.1/../../../../pic32c/lib/v7e-m/fpv5/hard/crt0.o
LOAD build/sam_e70_xult_freertos/production/_ext/683629640/bsp.o
LOAD build/sam_e70_xult_freertos/production/_ext/1607428259/drv_ethphy.o
LOAD build/sam_e70_xult_freertos/production/_ext/1607428259/drv_extphy_smsc8740.o
LOAD build/sam_e70_xult_freertos/production/_ext/1619526243/drv_gmac.o
LOAD build/sam_e70_xult_freertos/production/_ext/1619526243/drv_gmac_lib_samE7x_V7x.o
LOAD build/sam_e70_xult_freertos/production/_ext/511568427/drv_miim.o
LOAD build/sam_e70_xult_freertos/production/_ext/810785262/helpers.o
LOAD build/sam_e70_xult_freertos/production/_ext/810785262/dns.o
LOAD build/sam_e70_xult_freertos/production/_ext/810785262/icmp.o
LOAD build/sam_e70_xult_freertos/production/_ext/810785262/tcp.o
LOAD build/sam_e70_xult_freertos/production/_ext/810785262/dhcp.o
LOAD build/sam_e70_xult_freertos/production/_ext/810785262/arp.o
LOAD build/sam_e70_xult_freertos/production/_ext/810785262/tcpip_commands.o
LOAD build/sam_e70_xult_freertos/production/_ext/810785262/ipv4.o
LOAD build/sam_e70_xult_freertos/production/_ext/810785262/tcpip_heap_alloc.o
LOAD build/sam_e70_xult_freertos/production/_ext/810785262/tcpip_heap_internal.o
LOAD build/sam_e70_xult_freertos/production/_ext/810785262/hash_fnv.o
LOAD build/sam_e70_xult_freertos/production/_ext/810785262/oahash.o
LOAD build/sam_e70_xult_freertos/production/_ext/810785262/tcpip_helpers.o
LOAD build/sam_e70_xult_freertos/production/_ext/810785262/tcpip_manager.o
LOAD build/sam_e70_xult_freertos/production/_ext/810785262/tcpip_notify.o
LOAD build/sam_e70_xult_freertos/production/_ext/810785262/tcpip_packet.o
LOAD build/sam_e70_xult_freertos/production/_ext/810785262/udp.o
LOAD build/sam_e70_xult_freertos/production/_ext/45647770/plib_clk.o
LOAD build/sam_e70_xult_freertos/production/_ext/45638026/plib_mpu.o
LOAD build/sam_e70_xult_freertos/production/_ext/1414743522/plib_nvic.o
LOAD build/sam_e70_xult_freertos/production/_ext/45635366/plib_pio.o
LOAD build/sam_e70_xult_freertos/production/_ext/1245453995/plib_tc0.o
LOAD build/sam_e70_xult_freertos/production/_ext/901008055/plib_usart1.o
LOAD build/sam_e70_xult_freertos/production/_ext/146190766/xc32_monitor.o
LOAD build/sam_e70_xult_freertos/production/_ext/992551865/sys_cache.o
LOAD build/sam_e70_xult_freertos/production/_ext/762686499/sys_console.o
LOAD build/sam_e70_xult_freertos/production/_ext/762686499/sys_console_uart.o
LOAD build/sam_e70_xult_freertos/production/_ext/762686499/sys_debug.o
LOAD build/sam_e70_xult_freertos/production/_ext/762686499/sys_command.o
LOAD build/sam_e70_xult_freertos/production/_ext/1775855163/sys_int.o
LOAD build/sam_e70_xult_freertos/production/_ext/912870411/sys_time.o
LOAD build/sam_e70_xult_freertos/production/_ext/231871610/sys_time_h2_adapter.o
LOAD build/sam_e70_xult_freertos/production/_ext/1552905064/tasks.o
LOAD build/sam_e70_xult_freertos/production/_ext/1552905064/initialization.o
LOAD build/sam_e70_xult_freertos/production/_ext/1552905064/interrupts.o
LOAD build/sam_e70_xult_freertos/production/_ext/1552905064/exceptions.o
LOAD build/sam_e70_xult_freertos/production/_ext/1552905064/startup_xc32.o
LOAD build/sam_e70_xult_freertos/production/_ext/1552905064/libc_syscalls.o
LOAD build/sam_e70_xult_freertos/production/_ext/1552905064/freertos_hooks.o
LOAD build/sam_e70_xult_freertos/production/_ext/977623654/port.o
LOAD build/sam_e70_xult_freertos/production/_ext/1665200909/heap_3.o
LOAD build/sam_e70_xult_freertos/production/_ext/404212886/croutine.o
LOAD build/sam_e70_xult_freertos/production/_ext/404212886/list.o
LOAD build/sam_e70_xult_freertos/production/_ext/404212886/queue.o
LOAD build/sam_e70_xult_freertos/production/_ext/404212886/FreeRTOS_tasks.o
LOAD build/sam_e70_xult_freertos/production/_ext/404212886/timers.o
LOAD build/sam_e70_xult_freertos/production/_ext/404212886/event_groups.o
LOAD build/sam_e70_xult_freertos/production/_ext/404212886/stream_buffer.o
LOAD build/sam_e70_xult_freertos/production/_ext/281930714/osal_freertos.o
LOAD build/sam_e70_xult_freertos/production/_ext/1360937237/app_commands.o
LOAD build/sam_e70_xult_freertos/production/_ext/1360937237/app.o
LOAD build/sam_e70_xult_freertos/production/_ext/1360937237/main.o
                0x00000001                __MPLAB_BUILD = 0x1
                0x00017ac0                _min_heap_size = 0x17ac0
START GROUP
LOAD c:/program files (x86)/microchip/xc32/v2.15/bin/bin/../../lib/gcc/pic32c/6.2.1/../../../../pic32c/lib/v7e-m/fpv5/hard\libpic32c.a
LOAD c:/program files (x86)/microchip/xc32/v2.15/bin/bin/../../lib/gcc/pic32c/6.2.1/v7e-m/fpv5/hard\libgcc.a
LOAD c:/program files (x86)/microchip/xc32/v2.15/bin/bin/../../lib/gcc/pic32c/6.2.1/../../../../pic32c/lib/v7e-m/fpv5/hard\libc.a
LOAD c:/program files (x86)/microchip/xc32/v2.15/bin/bin/../../lib/gcc/pic32c/6.2.1/../../../../pic32c/lib/v7e-m/fpv5/hard\libm.a
END GROUP
LOAD c:/program files (x86)/microchip/xc32/v2.15/bin/bin/../../lib/gcc/pic32c/6.2.1/v7e-m/fpv5/hard/crtend.o
LOAD c:/program files (x86)/microchip/xc32/v2.15/bin/bin/../../lib/gcc/pic32c/6.2.1/v7e-m/fpv5/hard/crtn.o
                0x00600000                __rom_end = (ORIGIN (rom) + LENGTH (rom))
                0x20460000                __ram_end = (ORIGIN (ram) + LENGTH (ram))

.vectors        0x00400000      0x168
                0x00400000                . = ALIGN (0x4)
                0x00400000                _sfixed = .
 *(.vectors .vectors.* .vectors_default .vectors_default.*)
 .vectors       0x00400000      0x168 build/sam_e70_xult_freertos/production/_ext/1552905064/interrupts.o
                0x00400000                exception_table
 *(.isr_vector)
 *(.reset*)
 *(.after_vectors)

.text           0x00400168       0x24
                0x00400168                . = ALIGN (0x4)
 *(.glue_7t)
 .glue_7t       0x00400168        0x0 linker stubs
 *(.glue_7)
 .glue_7        0x00400168        0x0 linker stubs
 *(.gnu.linkonce.r.*)
 *(.ARM.extab* .gnu.linkonce.armextab.*)
                0x00400168                . = ALIGN (0x4)
 *(.init)
 .init          0x00400168        0x4 c:/program files (x86)/microchip/xc32/v2.15/bin/bin/../../lib/gcc/pic32c/6.2.1/v7e-m/fpv5/hard/crti.o
                0x00400168                _init
 .init          0x0040016c        0x8 c:/program files (x86)/microchip/xc32/v2.15/bin/bin/../../lib/gcc/pic32c/6.2.1/v7e-m/fpv5/hard/crtn.o
                0x00400174                . = ALIGN (0x4)
                0x00400174                __preinit_array_start = .
 *(.preinit_array)
                0x00400174                __preinit_array_end = .
                0x00400174                . = ALIGN (0x4)
                0x00400174                __init_array_start = .
 *(SORT(.init_array.*))
 .init_array.00000
                0x00400174        0x4 c:/program files (x86)/microchip/xc32/v2.15/bin/bin/../../lib/gcc/pic32c/6.2.1/../../../../pic32c/lib/v7e-m/fpv5/hard\libc.a(lib_a-__call_atexit.o)
 *(.init_array)
 .init_array    0x00400178        0x4 c:/program files (x86)/microchip/xc32/v2.15/bin/bin/../../lib/gcc/pic32c/6.2.1/v7e-m/fpv5/hard/crtbegin.o
                0x0040017c                __init_array_end = .
                0x0040017c                . = ALIGN (0x4)
 *crtbegin.o(.ctors)
 *(EXCLUDE_FILE(*crtend.o) .ctors)
 *(SORT(.ctors.*))
 *crtend.o(.ctors)
                0x0040017c                . = ALIGN (0x4)
 *(.fini)
 .fini          0x0040017c        0x4 c:/program files (x86)/microchip/xc32/v2.15/bin/bin/../../lib/gcc/pic32c/6.2.1/v7e-m/fpv5/hard/crti.o
                0x0040017c                _fini
 .fini          0x00400180        0x8 c:/program files (x86)/microchip/xc32/v2.15/bin/bin/../../lib/gcc/pic32c/6.2.1/v7e-m/fpv5/hard/crtn.o
                0x00400188                . = ALIGN (0x4)
                0x00400188                __fini_array_start = .
 *(.fini_array)
 .fini_array    0x00400188        0x4 c:/program files (x86)/microchip/xc32/v2.15/bin/bin/../../lib/gcc/pic32c/6.2.1/v7e-m/fpv5/hard/crtbegin.o
 *(SORT(.fini_array.*))
                0x0040018c                __fini_array_end = .
 *crtbegin.o(.dtors)
 *(EXCLUDE_FILE(*crtend.o) .dtors)
 *(SORT(.dtors.*))
 *crtend.o(.dtors)
                0x0040018c                . = ALIGN (0x4)
                0x0040018c                _efixed = .
                [!provide]                PROVIDE (__exidx_start, .)

.ARM.exidx      0x0040018c        0x8
 *(.ARM.exidx* .gnu.linkonce.armexidx.*)
 .ARM.exidx     0x0040018c        0x8 c:/program files (x86)/microchip/xc32/v2.15/bin/bin/../../lib/gcc/pic32c/6.2.1/v7e-m/fpv5/hard\libgcc.a(_udivmoddi4.o)
                [!provide]                PROVIDE (__exidx_end, .)
                0x00400194                . = ALIGN (0x4)
                0x00400194                _etext = .

.bss            0x20400000      0x5f0
                0x20400000                . = ALIGN (0x4)
                0x20400000                __bss_start__ = .
                0x20400000                _sbss = .
                0x20400000                _szero = .
 *(COMMON)
 COMMON         0x20400000        0x8 build/sam_e70_xult_freertos/production/_ext/1245453995/plib_tc0.o
                0x20400000                TC0_CH0_CallbackObj
 COMMON         0x20400008       0x30 build/sam_e70_xult_freertos/production/_ext/901008055/plib_usart1.o
                0x20400008                usart1Obj
 COMMON         0x20400038        0x9 build/sam_e70_xult_freertos/production/_ext/762686499/sys_debug.o
                0x20400038                sysDebugInstance
                0x20400040                gblErrLvl
 *fill*         0x20400041        0x3 
 COMMON         0x20400044        0x4 build/sam_e70_xult_freertos/production/_ext/1552905064/tasks.o
                0x20400044                xAPP_Tasks
 COMMON         0x20400048       0x14 build/sam_e70_xult_freertos/production/_ext/1552905064/initialization.o
                0x20400048                sysObj
 COMMON         0x2040005c       0xff build/sam_e70_xult_freertos/production/_ext/1360937237/app_commands.o
                0x2040005c                APP_URL_Buffer
 *fill*         0x2040015b        0x1 
 COMMON         0x2040015c      0x490 build/sam_e70_xult_freertos/production/_ext/1360937237/app.o
                0x2040015c                appData
                0x2040016c                jsonBuffer
                0x2040056c                cityBuffer
 COMMON         0x204005ec        0x4 c:/program files (x86)/microchip/xc32/v2.15/bin/bin/../../lib/gcc/pic32c/6.2.1/../../../../pic32c/lib/v7e-m/fpv5/hard\libc.a(lib_a-reent.o)
                0x204005ec                errno
                0x204005f0                . = ALIGN (0x4)
                0x204005f0                __bss_end__ = .
                0x204005f0                _ebss = .
                0x204005f0                _ezero = .
                0x204005f0                . = ALIGN (0x4)
                0x204005f0                _end = .
                0x2045ffff                _ram_end_ = ((ORIGIN (ram) + LENGTH (ram)) - 0x1)
OUTPUT(dist/sam_e70_xult_freertos/production/sam_e70_xult_freertos.X.production.elf elf32-littlearm)
LOAD stack
LOAD data_init

.ARM.attributes
                0x00000000       0x2e
 .ARM.attributes
                0x00000000       0x20 c:/program files (x86)/microchip/xc32/v2.15/bin/bin/../../lib/gcc/pic32c/6.2.1/v7e-m/fpv5/hard/crti.o
 .ARM.attributes
                0x00000020       0x32 c:/program files (x86)/microchip/xc32/v2.15/bin/bin/../../lib/gcc/pic32c/6.2.1/v7e-m/fpv5/hard/crtbegin.o
 .ARM.attributes
                0x00000052       0x37 build/sam_e70_xult_freertos/production/_ext/683629640/bsp.o
 .ARM.attributes
                0x00000089       0x37 build/sam_e70_xult_freertos/production/_ext/1607428259/drv_ethphy.o
 .ARM.attributes
                0x000000c0       0x37 build/sam_e70_xult_freertos/production/_ext/1607428259/drv_extphy_smsc8740.o
 .ARM.attributes
                0x000000f7       0x37 build/sam_e70_xult_freertos/production/_ext/1619526243/drv_gmac.o
 .ARM.attributes
                0x0000012e       0x37 build/sam_e70_xult_freertos/production/_ext/1619526243/drv_gmac_lib_samE7x_V7x.o
 .ARM.attributes
                0x00000165       0x37 build/sam_e70_xult_freertos/production/_ext/511568427/drv_miim.o
 .ARM.attributes
                0x0000019c       0x37 build/sam_e70_xult_freertos/production/_ext/810785262/helpers.o
 .ARM.attributes
                0x000001d3       0x37 build/sam_e70_xult_freertos/production/_ext/810785262/dns.o
 .ARM.attributes
                0x0000020a       0x37 build/sam_e70_xult_freertos/production/_ext/810785262/icmp.o
 .ARM.attributes
                0x00000241       0x37 build/sam_e70_xult_freertos/production/_ext/810785262/tcp.o
 .ARM.attributes
                0x00000278       0x37 build/sam_e70_xult_freertos/production/_ext/810785262/dhcp.o
 .ARM.attributes
                0x000002af       0x37 build/sam_e70_xult_freertos/production/_ext/810785262/arp.o
 .ARM.attributes
                0x000002e6       0x37 build/sam_e70_xult_freertos/production/_ext/810785262/tcpip_commands.o
 .ARM.attributes
                0x0000031d       0x37 build/sam_e70_xult_freertos/production/_ext/810785262/ipv4.o
 .ARM.attributes
                0x00000354       0x37 build/sam_e70_xult_freertos/production/_ext/810785262/tcpip_heap_alloc.o
 .ARM.attributes
                0x0000038b       0x37 build/sam_e70_xult_freertos/production/_ext/810785262/tcpip_heap_internal.o
 .ARM.attributes
                0x000003c2       0x37 build/sam_e70_xult_freertos/production/_ext/810785262/hash_fnv.o
 .ARM.attributes
                0x000003f9       0x37 build/sam_e70_xult_freertos/production/_ext/810785262/oahash.o
 .ARM.attributes
                0x00000430       0x37 build/sam_e70_xult_freertos/production/_ext/810785262/tcpip_helpers.o
 .ARM.attributes
                0x00000467       0x37 build/sam_e70_xult_freertos/production/_ext/810785262/tcpip_manager.o
 .ARM.attributes
                0x0000049e       0x37 build/sam_e70_xult_freertos/production/_ext/810785262/tcpip_notify.o
 .ARM.attributes
                0x000004d5       0x37 build/sam_e70_xult_freertos/production/_ext/810785262/tcpip_packet.o
 .ARM.attributes
                0x0000050c       0x37 build/sam_e70_xult_freertos/production/_ext/810785262/udp.o
 .ARM.attributes
                0x00000543       0x37 build/sam_e70_xult_freertos/production/_ext/45647770/plib_clk.o
 .ARM.attributes
                0x0000057a       0x37 build/sam_e70_xult_freertos/production/_ext/45638026/plib_mpu.o
 .ARM.attributes
                0x000005b1       0x37 build/sam_e70_xult_freertos/production/_ext/1414743522/plib_nvic.o
 .ARM.attributes
                0x000005e8       0x37 build/sam_e70_xult_freertos/production/_ext/45635366/plib_pio.o
 .ARM.attributes
                0x0000061f       0x37 build/sam_e70_xult_freertos/production/_ext/1245453995/plib_tc0.o
 .ARM.attributes
                0x00000656       0x37 build/sam_e70_xult_freertos/production/_ext/901008055/plib_usart1.o
 .ARM.attributes
                0x0000068d       0x37 build/sam_e70_xult_freertos/production/_ext/762686499/sys_console.o
 .ARM.attributes
                0x000006c4       0x37 build/sam_e70_xult_freertos/production/_ext/762686499/sys_console_uart.o
 .ARM.attributes
                0x000006fb       0x37 build/sam_e70_xult_freertos/production/_ext/762686499/sys_debug.o
 .ARM.attributes
                0x00000732       0x37 build/sam_e70_xult_freertos/production/_ext/762686499/sys_command.o
 .ARM.attributes
                0x00000769       0x37 build/sam_e70_xult_freertos/production/_ext/1775855163/sys_int.o
 .ARM.attributes
                0x000007a0       0x37 build/sam_e70_xult_freertos/production/_ext/912870411/sys_time.o
 .ARM.attributes
                0x000007d7       0x37 build/sam_e70_xult_freertos/production/_ext/231871610/sys_time_h2_adapter.o
 .ARM.attributes
                0x0000080e       0x37 build/sam_e70_xult_freertos/production/_ext/1552905064/tasks.o
 .ARM.attributes
                0x00000845       0x37 build/sam_e70_xult_freertos/production/_ext/1552905064/initialization.o
 .ARM.attributes
                0x0000087c       0x37 build/sam_e70_xult_freertos/production/_ext/1552905064/interrupts.o
 .ARM.attributes
                0x000008b3       0x37 build/sam_e70_xult_freertos/production/_ext/1552905064/exceptions.o
 .ARM.attributes
                0x000008ea       0x37 build/sam_e70_xult_freertos/production/_ext/1552905064/startup_xc32.o
 .ARM.attributes
                0x00000921       0x37 build/sam_e70_xult_freertos/production/_ext/1552905064/freertos_hooks.o
 .ARM.attributes
                0x00000958       0x37 build/sam_e70_xult_freertos/production/_ext/977623654/port.o
 .ARM.attributes
                0x0000098f       0x37 build/sam_e70_xult_freertos/production/_ext/1665200909/heap_3.o
 .ARM.attributes
                0x000009c6       0x37 build/sam_e70_xult_freertos/production/_ext/404212886/list.o
 .ARM.attributes
                0x000009fd       0x37 build/sam_e70_xult_freertos/production/_ext/404212886/queue.o
 .ARM.attributes
                0x00000a34       0x37 build/sam_e70_xult_freertos/production/_ext/404212886/FreeRTOS_tasks.o
 .ARM.attributes
                0x00000a6b       0x37 build/sam_e70_xult_freertos/production/_ext/281930714/osal_freertos.o
 .ARM.attributes
                0x00000aa2       0x37 build/sam_e70_xult_freertos/production/_ext/1360937237/app_commands.o
 .ARM.attributes
                0x00000ad9       0x37 build/sam_e70_xult_freertos/production/_ext/1360937237/app.o
 .ARM.attributes
                0x00000b10       0x37 build/sam_e70_xult_freertos/production/_ext/1360937237/main.o
 .ARM.attributes
                0x00000b47       0x32 c:/program files (x86)/microchip/xc32/v2.15/bin/bin/../../lib/gcc/pic32c/6.2.1/../../../../pic32c/lib/v7e-m/fpv5/hard\libpic32c.a(data_init.o)
 .ARM.attributes
                0x00000b79       0x20 c:/program files (x86)/microchip/xc32/v2.15/bin/bin/../../lib/gcc/pic32c/6.2.1/v7e-m/fpv5/hard\libgcc.a(_aeabi_uldivmod.o)
 .ARM.attributes
                0x00000b99       0x32 c:/program files (x86)/microchip/xc32/v2.15/bin/bin/../../lib/gcc/pic32c/6.2.1/v7e-m/fpv5/hard\libgcc.a(_udivmoddi4.o)
 .ARM.attributes
                0x00000bcb       0x20 c:/program files (x86)/microchip/xc32/v2.15/bin/bin/../../lib/gcc/pic32c/6.2.1/v7e-m/fpv5/hard\libgcc.a(_dvmd_tls.o)
 .ARM.attributes
                0x00000beb       0x32 c:/program files (x86)/microchip/xc32/v2.15/bin/bin/../../lib/gcc/pic32c/6.2.1/../../../../pic32c/lib/v7e-m/fpv5/hard\libc.a(lib_a-atoi.o)
 .ARM.attributes
                0x00000c1d       0x32 c:/program files (x86)/microchip/xc32/v2.15/bin/bin/../../lib/gcc/pic32c/6.2.1/../../../../pic32c/lib/v7e-m/fpv5/hard\libc.a(lib_a-calloc.o)
 .ARM.attributes
                0x00000c4f       0x32 c:/program files (x86)/microchip/xc32/v2.15/bin/bin/../../lib/gcc/pic32c/6.2.1/../../../../pic32c/lib/v7e-m/fpv5/hard\libc.a(lib_a-callocr.o)
 .ARM.attributes
                0x00000c81       0x32 c:/program files (x86)/microchip/xc32/v2.15/bin/bin/../../lib/gcc/pic32c/6.2.1/../../../../pic32c/lib/v7e-m/fpv5/hard\libc.a(lib_a-impure.o)
 .ARM.attributes
                0x00000cb3       0x32 c:/program files (x86)/microchip/xc32/v2.15/bin/bin/../../lib/gcc/pic32c/6.2.1/../../../../pic32c/lib/v7e-m/fpv5/hard\libc.a(lib_a-init.o)
 .ARM.attributes
                0x00000ce5       0x32 c:/program files (x86)/microchip/xc32/v2.15/bin/bin/../../lib/gcc/pic32c/6.2.1/../../../../pic32c/lib/v7e-m/fpv5/hard\libc.a(lib_a-locale.o)
 .ARM.attributes
                0x00000d17       0x32 c:/program files (x86)/microchip/xc32/v2.15/bin/bin/../../lib/gcc/pic32c/6.2.1/../../../../pic32c/lib/v7e-m/fpv5/hard\libc.a(lib_a-malloc.o)
 .ARM.attributes
                0x00000d49       0x32 c:/program files (x86)/microchip/xc32/v2.15/bin/bin/../../lib/gcc/pic32c/6.2.1/../../../../pic32c/lib/v7e-m/fpv5/hard\libc.a(lib_a-mallocr.o)
 .ARM.attributes
                0x00000d7b       0x32 c:/program files (x86)/microchip/xc32/v2.15/bin/bin/../../lib/gcc/pic32c/6.2.1/../../../../pic32c/lib/v7e-m/fpv5/hard\libc.a(lib_a-mbtowc_r.o)
 .ARM.attributes
                0x00000dad       0x32 c:/program files (x86)/microchip/xc32/v2.15/bin/bin/../../lib/gcc/pic32c/6.2.1/../../../../pic32c/lib/v7e-m/fpv5/hard\libc.a(lib_a-memcmp.o)
 .ARM.attributes
                0x00000ddf       0x1e c:/program files (x86)/microchip/xc32/v2.15/bin/bin/../../lib/gcc/pic32c/6.2.1/../../../../pic32c/lib/v7e-m/fpv5/hard\libc.a(lib_a-memcpy.o)
 .ARM.attributes
                0x00000dfd       0x32 c:/program files (x86)/microchip/xc32/v2.15/bin/bin/../../lib/gcc/pic32c/6.2.1/../../../../pic32c/lib/v7e-m/fpv5/hard\libc.a(lib_a-memset.o)
 .ARM.attributes
                0x00000e2f       0x32 c:/program files (x86)/microchip/xc32/v2.15/bin/bin/../../lib/gcc/pic32c/6.2.1/../../../../pic32c/lib/v7e-m/fpv5/hard\libc.a(lib_a-mlock.o)
 .ARM.attributes
                0x00000e61       0x32 c:/program files (x86)/microchip/xc32/v2.15/bin/bin/../../lib/gcc/pic32c/6.2.1/../../../../pic32c/lib/v7e-m/fpv5/hard\libc.a(lib_a-rand.o)
 .ARM.attributes
                0x00000e93       0x32 c:/program files (x86)/microchip/xc32/v2.15/bin/bin/../../lib/gcc/pic32c/6.2.1/../../../../pic32c/lib/v7e-m/fpv5/hard\libc.a(lib_a-sbrkr.o)
 .ARM.attributes
                0x00000ec5       0x32 c:/program files (x86)/microchip/xc32/v2.15/bin/bin/../../lib/gcc/pic32c/6.2.1/../../../../pic32c/lib/v7e-m/fpv5/hard\libc.a(lib_a-snprintf.o)
 .ARM.attributes
                0x00000ef7       0x32 c:/program files (x86)/microchip/xc32/v2.15/bin/bin/../../lib/gcc/pic32c/6.2.1/../../../../pic32c/lib/v7e-m/fpv5/hard\libc.a(lib_a-sprintf.o)
 .ARM.attributes
                0x00000f29       0x1e c:/program files (x86)/microchip/xc32/v2.15/bin/bin/../../lib/gcc/pic32c/6.2.1/../../../../pic32c/lib/v7e-m/fpv5/hard\libc.a(lib_a-strcmp.o)
 .ARM.attributes
                0x00000f47       0x32 c:/program files (x86)/microchip/xc32/v2.15/bin/bin/../../lib/gcc/pic32c/6.2.1/../../../../pic32c/lib/v7e-m/fpv5/hard\libc.a(lib_a-strcpy.o)
 .ARM.attributes
                0x00000f79       0x1e c:/program files (x86)/microchip/xc32/v2.15/bin/bin/../../lib/gcc/pic32c/6.2.1/../../../../pic32c/lib/v7e-m/fpv5/hard\libc.a(lib_a-strlen.o)
 .ARM.attributes
                0x00000f97       0x32 c:/program files (x86)/microchip/xc32/v2.15/bin/bin/../../lib/gcc/pic32c/6.2.1/../../../../pic32c/lib/v7e-m/fpv5/hard\libc.a(lib_a-strncat.o)
 .ARM.attributes
                0x00000fc9       0x32 c:/program files (x86)/microchip/xc32/v2.15/bin/bin/../../lib/gcc/pic32c/6.2.1/../../../../pic32c/lib/v7e-m/fpv5/hard\libc.a(lib_a-strncpy.o)
 .ARM.attributes
                0x00000ffb       0x32 c:/program files (x86)/microchip/xc32/v2.15/bin/bin/../../lib/gcc/pic32c/6.2.1/../../../../pic32c/lib/v7e-m/fpv5/hard\libc.a(lib_a-strstr.o)
 .ARM.attributes
                0x0000102d       0x32 c:/program files (x86)/microchip/xc32/v2.15/bin/bin/../../lib/gcc/pic32c/6.2.1/../../../../pic32c/lib/v7e-m/fpv5/hard\libc.a(lib_a-strtok.o)
 .ARM.attributes
                0x0000105f       0x32 c:/program files (x86)/microchip/xc32/v2.15/bin/bin/../../lib/gcc/pic32c/6.2.1/../../../../pic32c/lib/v7e-m/fpv5/hard\libc.a(lib_a-strtok_r.o)
 .ARM.attributes
                0x00001091       0x32 c:/program files (x86)/microchip/xc32/v2.15/bin/bin/../../lib/gcc/pic32c/6.2.1/../../../../pic32c/lib/v7e-m/fpv5/hard\libc.a(lib_a-strtol.o)
 .ARM.attributes
                0x000010c3       0x32 c:/program files (x86)/microchip/xc32/v2.15/bin/bin/../../lib/gcc/pic32c/6.2.1/../../../../pic32c/lib/v7e-m/fpv5/hard\libc.a(lib_a-svfprintf.o)
 .ARM.attributes
                0x000010f5       0x32 c:/program files (x86)/microchip/xc32/v2.15/bin/bin/../../lib/gcc/pic32c/6.2.1/../../../../pic32c/lib/v7e-m/fpv5/hard\libc.a(lib_a-vsnprintf.o)
 .ARM.attributes
                0x00001127       0x32 c:/program files (x86)/microchip/xc32/v2.15/bin/bin/../../lib/gcc/pic32c/6.2.1/../../../../pic32c/lib/v7e-m/fpv5/hard\libc.a(lib_a-wctomb_r.o)
 .ARM.attributes
                0x00001159       0x32 c:/program files (x86)/microchip/xc32/v2.15/bin/bin/../../lib/gcc/pic32c/6.2.1/../../../../pic32c/lib/v7e-m/fpv5/hard\libc.a(lib_a-__call_atexit.o)
 .ARM.attributes
                0x0000118b       0x32 c:/program files (x86)/microchip/xc32/v2.15/bin/bin/../../lib/gcc/pic32c/6.2.1/../../../../pic32c/lib/v7e-m/fpv5/hard\libc.a(lib_a-atexit.o)
 .ARM.attributes
                0x000011bd       0x32 c:/program files (x86)/microchip/xc32/v2.15/bin/bin/../../lib/gcc/pic32c/6.2.1/../../../../pic32c/lib/v7e-m/fpv5/hard\libc.a(lib_a-ctype_.o)
 .ARM.attributes
                0x000011ef       0x32 c:/program files (x86)/microchip/xc32/v2.15/bin/bin/../../lib/gcc/pic32c/6.2.1/../../../../pic32c/lib/v7e-m/fpv5/hard\libc.a(lib_a-dtoa.o)
 .ARM.attributes
                0x00001221       0x32 c:/program files (x86)/microchip/xc32/v2.15/bin/bin/../../lib/gcc/pic32c/6.2.1/../../../../pic32c/lib/v7e-m/fpv5/hard\libc.a(lib_a-fini.o)
 .ARM.attributes
                0x00001253       0x32 c:/program files (x86)/microchip/xc32/v2.15/bin/bin/../../lib/gcc/pic32c/6.2.1/../../../../pic32c/lib/v7e-m/fpv5/hard\libc.a(lib_a-freer.o)
 .ARM.attributes
                0x00001285       0x32 c:/program files (x86)/microchip/xc32/v2.15/bin/bin/../../lib/gcc/pic32c/6.2.1/../../../../pic32c/lib/v7e-m/fpv5/hard\libc.a(lib_a-localeconv.o)
 .ARM.attributes
                0x000012b7       0x1e c:/program files (x86)/microchip/xc32/v2.15/bin/bin/../../lib/gcc/pic32c/6.2.1/../../../../pic32c/lib/v7e-m/fpv5/hard\libc.a(lib_a-memchr.o)
 .ARM.attributes
                0x000012d5       0x32 c:/program files (x86)/microchip/xc32/v2.15/bin/bin/../../lib/gcc/pic32c/6.2.1/../../../../pic32c/lib/v7e-m/fpv5/hard\libc.a(lib_a-mprec.o)
 .ARM.attributes
                0x00001307       0x32 c:/program files (x86)/microchip/xc32/v2.15/bin/bin/../../lib/gcc/pic32c/6.2.1/../../../../pic32c/lib/v7e-m/fpv5/hard\libc.a(lib_a-reent.o)
 .ARM.attributes
                0x00001339       0x32 c:/program files (x86)/microchip/xc32/v2.15/bin/bin/../../lib/gcc/pic32c/6.2.1/../../../../pic32c/lib/v7e-m/fpv5/hard\libc.a(lib_a-s_frexp.o)
 .ARM.attributes
                0x0000136b       0x32 c:/program files (x86)/microchip/xc32/v2.15/bin/bin/../../lib/gcc/pic32c/6.2.1/../../../../pic32c/lib/v7e-m/fpv5/hard\libc.a(lib_a-strchr.o)
 .ARM.attributes
                0x0000139d       0x32 c:/program files (x86)/microchip/xc32/v2.15/bin/bin/../../lib/gcc/pic32c/6.2.1/../../../../pic32c/lib/v7e-m/fpv5/hard\libc.a(lib_a-svfiprintf.o)
 .ARM.attributes
                0x000013cf       0x32 c:/program files (x86)/microchip/xc32/v2.15/bin/bin/../../lib/gcc/pic32c/6.2.1/../../../../pic32c/lib/v7e-m/fpv5/hard\libc.a(lib_a-__atexit.o)
 .ARM.attributes
                0x00001401       0x32 c:/program files (x86)/microchip/xc32/v2.15/bin/bin/../../lib/gcc/pic32c/6.2.1/../../../../pic32c/lib/v7e-m/fpv5/hard\libc.a(lib_a-memmove.o)
 .ARM.attributes
                0x00001433       0x32 c:/program files (x86)/microchip/xc32/v2.15/bin/bin/../../lib/gcc/pic32c/6.2.1/../../../../pic32c/lib/v7e-m/fpv5/hard\libc.a(lib_a-reallocr.o)
 .ARM.attributes
                0x00001465       0x32 c:/program files (x86)/microchip/xc32/v2.15/bin/bin/../../lib/gcc/pic32c/6.2.1/../../../../pic32c/lib/v7e-m/fpv5/hard\libpic32c.a(sbrk.o)
 .ARM.attributes
                0x00001497       0x20 c:/program files (x86)/microchip/xc32/v2.15/bin/bin/../../lib/gcc/pic32c/6.2.1/v7e-m/fpv5/hard/crtn.o

.comment        0x00000000       0x3c
 .comment       0x00000000       0x3c c:/program files (x86)/microchip/xc32/v2.15/bin/bin/../../lib/gcc/pic32c/6.2.1/v7e-m/fpv5/hard/crtbegin.o
                                 0x3d (size before relaxing)
 .comment       0x0000003c       0x3d build/sam_e70_xult_freertos/production/_ext/683629640/bsp.o
 .comment       0x0000003c       0x3d build/sam_e70_xult_freertos/production/_ext/1607428259/drv_ethphy.o
 .comment       0x0000003c       0x3d build/sam_e70_xult_freertos/production/_ext/1607428259/drv_extphy_smsc8740.o
 .comment       0x0000003c       0x3d build/sam_e70_xult_freertos/production/_ext/1619526243/drv_gmac.o
 .comment       0x0000003c       0x3d build/sam_e70_xult_freertos/production/_ext/1619526243/drv_gmac_lib_samE7x_V7x.o
 .comment       0x0000003c       0x3d build/sam_e70_xult_freertos/production/_ext/511568427/drv_miim.o
 .comment       0x0000003c       0x3d build/sam_e70_xult_freertos/production/_ext/810785262/helpers.o
 .comment       0x0000003c       0x3d build/sam_e70_xult_freertos/production/_ext/810785262/dns.o
 .comment       0x0000003c       0x3d build/sam_e70_xult_freertos/production/_ext/810785262/icmp.o
 .comment       0x0000003c       0x3d build/sam_e70_xult_freertos/production/_ext/810785262/tcp.o
 .comment       0x0000003c       0x3d build/sam_e70_xult_freertos/production/_ext/810785262/dhcp.o
 .comment       0x0000003c       0x3d build/sam_e70_xult_freertos/production/_ext/810785262/arp.o
 .comment       0x0000003c       0x3d build/sam_e70_xult_freertos/production/_ext/810785262/tcpip_commands.o
 .comment       0x0000003c       0x3d build/sam_e70_xult_freertos/production/_ext/810785262/ipv4.o
 .comment       0x0000003c       0x3d build/sam_e70_xult_freertos/production/_ext/810785262/tcpip_heap_alloc.o
 .comment       0x0000003c       0x3d build/sam_e70_xult_freertos/production/_ext/810785262/tcpip_heap_internal.o
 .comment       0x0000003c       0x3d build/sam_e70_xult_freertos/production/_ext/810785262/hash_fnv.o
 .comment       0x0000003c       0x3d build/sam_e70_xult_freertos/production/_ext/810785262/oahash.o
 .comment       0x0000003c       0x3d build/sam_e70_xult_freertos/production/_ext/810785262/tcpip_helpers.o
 .comment       0x0000003c       0x3d build/sam_e70_xult_freertos/production/_ext/810785262/tcpip_manager.o
 .comment       0x0000003c       0x3d build/sam_e70_xult_freertos/production/_ext/810785262/tcpip_notify.o
 .comment       0x0000003c       0x3d build/sam_e70_xult_freertos/production/_ext/810785262/tcpip_packet.o
 .comment       0x0000003c       0x3d build/sam_e70_xult_freertos/production/_ext/810785262/udp.o
 .comment       0x0000003c       0x3d build/sam_e70_xult_freertos/production/_ext/45647770/plib_clk.o
 .comment       0x0000003c       0x3d build/sam_e70_xult_freertos/production/_ext/45638026/plib_mpu.o
 .comment       0x0000003c       0x3d build/sam_e70_xult_freertos/production/_ext/1414743522/plib_nvic.o
 .comment       0x0000003c       0x3d build/sam_e70_xult_freertos/production/_ext/45635366/plib_pio.o
 .comment       0x0000003c       0x3d build/sam_e70_xult_freertos/production/_ext/1245453995/plib_tc0.o
 .comment       0x0000003c       0x3d build/sam_e70_xult_freertos/production/_ext/901008055/plib_usart1.o
 .comment       0x0000003c       0x3d build/sam_e70_xult_freertos/production/_ext/762686499/sys_console.o
 .comment       0x0000003c       0x3d build/sam_e70_xult_freertos/production/_ext/762686499/sys_console_uart.o
 .comment       0x0000003c       0x3d build/sam_e70_xult_freertos/production/_ext/762686499/sys_debug.o
 .comment       0x0000003c       0x3d build/sam_e70_xult_freertos/production/_ext/762686499/sys_command.o
 .comment       0x0000003c       0x3d build/sam_e70_xult_freertos/production/_ext/1775855163/sys_int.o
 .comment       0x0000003c       0x3d build/sam_e70_xult_freertos/production/_ext/912870411/sys_time.o
 .comment       0x0000003c       0x3d build/sam_e70_xult_freertos/production/_ext/231871610/sys_time_h2_adapter.o
 .comment       0x0000003c       0x3d build/sam_e70_xult_freertos/production/_ext/1552905064/tasks.o
 .comment       0x0000003c       0x3d build/sam_e70_xult_freertos/production/_ext/1552905064/initialization.o
 .comment       0x0000003c       0x3d build/sam_e70_xult_freertos/production/_ext/1552905064/interrupts.o
 .comment       0x0000003c       0x3d build/sam_e70_xult_freertos/production/_ext/1552905064/exceptions.o
 .comment       0x0000003c       0x3d build/sam_e70_xult_freertos/production/_ext/1552905064/startup_xc32.o
 .comment       0x0000003c       0x3d build/sam_e70_xult_freertos/production/_ext/1552905064/freertos_hooks.o
 .comment       0x0000003c       0x3d build/sam_e70_xult_freertos/production/_ext/977623654/port.o
 .comment       0x0000003c       0x3d build/sam_e70_xult_freertos/production/_ext/1665200909/heap_3.o
 .comment       0x0000003c       0x3d build/sam_e70_xult_freertos/production/_ext/404212886/list.o
 .comment       0x0000003c       0x3d build/sam_e70_xult_freertos/production/_ext/404212886/queue.o
 .comment       0x0000003c       0x3d build/sam_e70_xult_freertos/production/_ext/404212886/FreeRTOS_tasks.o
 .comment       0x0000003c       0x3d build/sam_e70_xult_freertos/production/_ext/281930714/osal_freertos.o
 .comment       0x0000003c       0x3d build/sam_e70_xult_freertos/production/_ext/1360937237/app_commands.o
 .comment       0x0000003c       0x3d build/sam_e70_xult_freertos/production/_ext/1360937237/app.o
 .comment       0x0000003c       0x3d build/sam_e70_xult_freertos/production/_ext/1360937237/main.o
 .comment       0x0000003c       0x3d c:/program files (x86)/microchip/xc32/v2.15/bin/bin/../../lib/gcc/pic32c/6.2.1/../../../../pic32c/lib/v7e-m/fpv5/hard\libpic32c.a(data_init.o)
 .comment       0x0000003c       0x3d c:/program files (x86)/microchip/xc32/v2.15/bin/bin/../../lib/gcc/pic32c/6.2.1/v7e-m/fpv5/hard\libgcc.a(_udivmoddi4.o)
 .comment       0x0000003c       0x3d c:/program files (x86)/microchip/xc32/v2.15/bin/bin/../../lib/gcc/pic32c/6.2.1/../../../../pic32c/lib/v7e-m/fpv5/hard\libc.a(lib_a-atoi.o)
 .comment       0x0000003c       0x3d c:/program files (x86)/microchip/xc32/v2.15/bin/bin/../../lib/gcc/pic32c/6.2.1/../../../../pic32c/lib/v7e-m/fpv5/hard\libc.a(lib_a-calloc.o)
 .comment       0x0000003c       0x3d c:/program files (x86)/microchip/xc32/v2.15/bin/bin/../../lib/gcc/pic32c/6.2.1/../../../../pic32c/lib/v7e-m/fpv5/hard\libc.a(lib_a-callocr.o)
 .comment       0x0000003c       0x3d c:/program files (x86)/microchip/xc32/v2.15/bin/bin/../../lib/gcc/pic32c/6.2.1/../../../../pic32c/lib/v7e-m/fpv5/hard\libc.a(lib_a-impure.o)
 .comment       0x0000003c       0x3d c:/program files (x86)/microchip/xc32/v2.15/bin/bin/../../lib/gcc/pic32c/6.2.1/../../../../pic32c/lib/v7e-m/fpv5/hard\libc.a(lib_a-init.o)
 .comment       0x0000003c       0x3d c:/program files (x86)/microchip/xc32/v2.15/bin/bin/../../lib/gcc/pic32c/6.2.1/../../../../pic32c/lib/v7e-m/fpv5/hard\libc.a(lib_a-locale.o)
 .comment       0x0000003c       0x3d c:/program files (x86)/microchip/xc32/v2.15/bin/bin/../../lib/gcc/pic32c/6.2.1/../../../../pic32c/lib/v7e-m/fpv5/hard\libc.a(lib_a-malloc.o)
 .comment       0x0000003c       0x3d c:/program files (x86)/microchip/xc32/v2.15/bin/bin/../../lib/gcc/pic32c/6.2.1/../../../../pic32c/lib/v7e-m/fpv5/hard\libc.a(lib_a-mallocr.o)
 .comment       0x0000003c       0x3d c:/program files (x86)/microchip/xc32/v2.15/bin/bin/../../lib/gcc/pic32c/6.2.1/../../../../pic32c/lib/v7e-m/fpv5/hard\libc.a(lib_a-mbtowc_r.o)
 .comment       0x0000003c       0x3d c:/program files (x86)/microchip/xc32/v2.15/bin/bin/../../lib/gcc/pic32c/6.2.1/../../../../pic32c/lib/v7e-m/fpv5/hard\libc.a(lib_a-memcmp.o)
 .comment       0x0000003c       0x3d c:/program files (x86)/microchip/xc32/v2.15/bin/bin/../../lib/gcc/pic32c/6.2.1/../../../../pic32c/lib/v7e-m/fpv5/hard\libc.a(lib_a-memset.o)
 .comment       0x0000003c       0x3d c:/program files (x86)/microchip/xc32/v2.15/bin/bin/../../lib/gcc/pic32c/6.2.1/../../../../pic32c/lib/v7e-m/fpv5/hard\libc.a(lib_a-mlock.o)
 .comment       0x0000003c       0x3d c:/program files (x86)/microchip/xc32/v2.15/bin/bin/../../lib/gcc/pic32c/6.2.1/../../../../pic32c/lib/v7e-m/fpv5/hard\libc.a(lib_a-rand.o)
 .comment       0x0000003c       0x3d c:/program files (x86)/microchip/xc32/v2.15/bin/bin/../../lib/gcc/pic32c/6.2.1/../../../../pic32c/lib/v7e-m/fpv5/hard\libc.a(lib_a-sbrkr.o)
 .comment       0x0000003c       0x3d c:/program files (x86)/microchip/xc32/v2.15/bin/bin/../../lib/gcc/pic32c/6.2.1/../../../../pic32c/lib/v7e-m/fpv5/hard\libc.a(lib_a-snprintf.o)
 .comment       0x0000003c       0x3d c:/program files (x86)/microchip/xc32/v2.15/bin/bin/../../lib/gcc/pic32c/6.2.1/../../../../pic32c/lib/v7e-m/fpv5/hard\libc.a(lib_a-sprintf.o)
 .comment       0x0000003c       0x3d c:/program files (x86)/microchip/xc32/v2.15/bin/bin/../../lib/gcc/pic32c/6.2.1/../../../../pic32c/lib/v7e-m/fpv5/hard\libc.a(lib_a-strcpy.o)
 .comment       0x0000003c       0x3d c:/program files (x86)/microchip/xc32/v2.15/bin/bin/../../lib/gcc/pic32c/6.2.1/../../../../pic32c/lib/v7e-m/fpv5/hard\libc.a(lib_a-strncat.o)
 .comment       0x0000003c       0x3d c:/program files (x86)/microchip/xc32/v2.15/bin/bin/../../lib/gcc/pic32c/6.2.1/../../../../pic32c/lib/v7e-m/fpv5/hard\libc.a(lib_a-strncpy.o)
 .comment       0x0000003c       0x3d c:/program files (x86)/microchip/xc32/v2.15/bin/bin/../../lib/gcc/pic32c/6.2.1/../../../../pic32c/lib/v7e-m/fpv5/hard\libc.a(lib_a-strstr.o)
 .comment       0x0000003c       0x3d c:/program files (x86)/microchip/xc32/v2.15/bin/bin/../../lib/gcc/pic32c/6.2.1/../../../../pic32c/lib/v7e-m/fpv5/hard\libc.a(lib_a-strtok.o)
 .comment       0x0000003c       0x3d c:/program files (x86)/microchip/xc32/v2.15/bin/bin/../../lib/gcc/pic32c/6.2.1/../../../../pic32c/lib/v7e-m/fpv5/hard\libc.a(lib_a-strtok_r.o)
 .comment       0x0000003c       0x3d c:/program files (x86)/microchip/xc32/v2.15/bin/bin/../../lib/gcc/pic32c/6.2.1/../../../../pic32c/lib/v7e-m/fpv5/hard\libc.a(lib_a-strtol.o)
 .comment       0x0000003c       0x3d c:/program files (x86)/microchip/xc32/v2.15/bin/bin/../../lib/gcc/pic32c/6.2.1/../../../../pic32c/lib/v7e-m/fpv5/hard\libc.a(lib_a-svfprintf.o)
 .comment       0x0000003c       0x3d c:/program files (x86)/microchip/xc32/v2.15/bin/bin/../../lib/gcc/pic32c/6.2.1/../../../../pic32c/lib/v7e-m/fpv5/hard\libc.a(lib_a-vsnprintf.o)
 .comment       0x0000003c       0x3d c:/program files (x86)/microchip/xc32/v2.15/bin/bin/../../lib/gcc/pic32c/6.2.1/../../../../pic32c/lib/v7e-m/fpv5/hard\libc.a(lib_a-wctomb_r.o)
 .comment       0x0000003c       0x3d c:/program files (x86)/microchip/xc32/v2.15/bin/bin/../../lib/gcc/pic32c/6.2.1/../../../../pic32c/lib/v7e-m/fpv5/hard\libc.a(lib_a-__call_atexit.o)
 .comment       0x0000003c       0x3d c:/program files (x86)/microchip/xc32/v2.15/bin/bin/../../lib/gcc/pic32c/6.2.1/../../../../pic32c/lib/v7e-m/fpv5/hard\libc.a(lib_a-atexit.o)
 .comment       0x0000003c       0x3d c:/program files (x86)/microchip/xc32/v2.15/bin/bin/../../lib/gcc/pic32c/6.2.1/../../../../pic32c/lib/v7e-m/fpv5/hard\libc.a(lib_a-ctype_.o)
 .comment       0x0000003c       0x3d c:/program files (x86)/microchip/xc32/v2.15/bin/bin/../../lib/gcc/pic32c/6.2.1/../../../../pic32c/lib/v7e-m/fpv5/hard\libc.a(lib_a-dtoa.o)
 .comment       0x0000003c       0x3d c:/program files (x86)/microchip/xc32/v2.15/bin/bin/../../lib/gcc/pic32c/6.2.1/../../../../pic32c/lib/v7e-m/fpv5/hard\libc.a(lib_a-fini.o)
 .comment       0x0000003c       0x3d c:/program files (x86)/microchip/xc32/v2.15/bin/bin/../../lib/gcc/pic32c/6.2.1/../../../../pic32c/lib/v7e-m/fpv5/hard\libc.a(lib_a-freer.o)
 .comment       0x0000003c       0x3d c:/program files (x86)/microchip/xc32/v2.15/bin/bin/../../lib/gcc/pic32c/6.2.1/../../../../pic32c/lib/v7e-m/fpv5/hard\libc.a(lib_a-localeconv.o)
 .comment       0x0000003c       0x3d c:/program files (x86)/microchip/xc32/v2.15/bin/bin/../../lib/gcc/pic32c/6.2.1/../../../../pic32c/lib/v7e-m/fpv5/hard\libc.a(lib_a-mprec.o)
 .comment       0x0000003c       0x3d c:/program files (x86)/microchip/xc32/v2.15/bin/bin/../../lib/gcc/pic32c/6.2.1/../../../../pic32c/lib/v7e-m/fpv5/hard\libc.a(lib_a-reent.o)
 .comment       0x0000003c       0x3d c:/program files (x86)/microchip/xc32/v2.15/bin/bin/../../lib/gcc/pic32c/6.2.1/../../../../pic32c/lib/v7e-m/fpv5/hard\libc.a(lib_a-s_frexp.o)
 .comment       0x0000003c       0x3d c:/program files (x86)/microchip/xc32/v2.15/bin/bin/../../lib/gcc/pic32c/6.2.1/../../../../pic32c/lib/v7e-m/fpv5/hard\libc.a(lib_a-strchr.o)
 .comment       0x0000003c       0x3d c:/program files (x86)/microchip/xc32/v2.15/bin/bin/../../lib/gcc/pic32c/6.2.1/../../../../pic32c/lib/v7e-m/fpv5/hard\libc.a(lib_a-svfiprintf.o)
 .comment       0x0000003c       0x3d c:/program files (x86)/microchip/xc32/v2.15/bin/bin/../../lib/gcc/pic32c/6.2.1/../../../../pic32c/lib/v7e-m/fpv5/hard\libc.a(lib_a-__atexit.o)
 .comment       0x0000003c       0x3d c:/program files (x86)/microchip/xc32/v2.15/bin/bin/../../lib/gcc/pic32c/6.2.1/../../../../pic32c/lib/v7e-m/fpv5/hard\libc.a(lib_a-memmove.o)
 .comment       0x0000003c       0x3d c:/program files (x86)/microchip/xc32/v2.15/bin/bin/../../lib/gcc/pic32c/6.2.1/../../../../pic32c/lib/v7e-m/fpv5/hard\libc.a(lib_a-reallocr.o)
 .comment       0x0000003c       0x3d c:/program files (x86)/microchip/xc32/v2.15/bin/bin/../../lib/gcc/pic32c/6.2.1/../../../../pic32c/lib/v7e-m/fpv5/hard\libpic32c.a(sbrk.o)

.debug_info     0x00000000   0x112e15
 .debug_info    0x00000000     0x14e9 build/sam_e70_xult_freertos/production/_ext/683629640/bsp.o
 .debug_info    0x000014e9     0x85f7 build/sam_e70_xult_freertos/production/_ext/1607428259/drv_ethphy.o
 .debug_info    0x00009ae0     0x31dc build/sam_e70_xult_freertos/production/_ext/1607428259/drv_extphy_smsc8740.o
 .debug_info    0x0000ccbc     0xa74b build/sam_e70_xult_freertos/production/_ext/1619526243/drv_gmac.o
 .debug_info    0x00017407     0x8d2b build/sam_e70_xult_freertos/production/_ext/1619526243/drv_gmac_lib_samE7x_V7x.o
 .debug_info    0x00020132     0x5394 build/sam_e70_xult_freertos/production/_ext/511568427/drv_miim.o
 .debug_info    0x000254c6     0x11b8 build/sam_e70_xult_freertos/production/_ext/810785262/helpers.o
 .debug_info    0x0002667e     0x92cf build/sam_e70_xult_freertos/production/_ext/810785262/dns.o
 .debug_info    0x0002f94d     0x55c0 build/sam_e70_xult_freertos/production/_ext/810785262/icmp.o
 .debug_info    0x00034f0d     0xc941 build/sam_e70_xult_freertos/production/_ext/810785262/tcp.o
 .debug_info    0x0004184e     0xae9e build/sam_e70_xult_freertos/production/_ext/810785262/dhcp.o
 .debug_info    0x0004c6ec     0x8681 build/sam_e70_xult_freertos/production/_ext/810785262/arp.o
 .debug_info    0x00054d6d     0xa390 build/sam_e70_xult_freertos/production/_ext/810785262/tcpip_commands.o
 .debug_info    0x0005f0fd     0x7fde build/sam_e70_xult_freertos/production/_ext/810785262/ipv4.o
 .debug_info    0x000670db     0x4634 build/sam_e70_xult_freertos/production/_ext/810785262/tcpip_heap_alloc.o
 .debug_info    0x0006b70f     0x4f96 build/sam_e70_xult_freertos/production/_ext/810785262/tcpip_heap_internal.o
 .debug_info    0x000706a5      0xf1e build/sam_e70_xult_freertos/production/_ext/810785262/hash_fnv.o
 .debug_info    0x000715c3     0x1598 build/sam_e70_xult_freertos/production/_ext/810785262/oahash.o
 .debug_info    0x00072b5b     0x6e9d build/sam_e70_xult_freertos/production/_ext/810785262/tcpip_helpers.o
 .debug_info    0x000799f8     0xcaf3 build/sam_e70_xult_freertos/production/_ext/810785262/tcpip_manager.o
 .debug_info    0x000864eb     0x44b0 build/sam_e70_xult_freertos/production/_ext/810785262/tcpip_notify.o
 .debug_info    0x0008a99b     0x54c8 build/sam_e70_xult_freertos/production/_ext/810785262/tcpip_packet.o
 .debug_info    0x0008fe63     0xa47a build/sam_e70_xult_freertos/production/_ext/810785262/udp.o
 .debug_info    0x0009a2dd      0x8c3 build/sam_e70_xult_freertos/production/_ext/45647770/plib_clk.o
 .debug_info    0x0009aba0      0x8c1 build/sam_e70_xult_freertos/production/_ext/45638026/plib_mpu.o
 .debug_info    0x0009b461      0xf9b build/sam_e70_xult_freertos/production/_ext/1414743522/plib_nvic.o
 .debug_info    0x0009c3fc      0xea1 build/sam_e70_xult_freertos/production/_ext/45635366/plib_pio.o
 .debug_info    0x0009d29d      0x915 build/sam_e70_xult_freertos/production/_ext/1245453995/plib_tc0.o
 .debug_info    0x0009dbb2      0xee3 build/sam_e70_xult_freertos/production/_ext/901008055/plib_usart1.o
 .debug_info    0x0009ea95     0x1922 build/sam_e70_xult_freertos/production/_ext/762686499/sys_console.o
 .debug_info    0x000a03b7     0x5d9c build/sam_e70_xult_freertos/production/_ext/762686499/sys_console_uart.o
 .debug_info    0x000a6153     0x1477 build/sam_e70_xult_freertos/production/_ext/762686499/sys_debug.o
 .debug_info    0x000a75ca     0x2e44 build/sam_e70_xult_freertos/production/_ext/762686499/sys_command.o
 .debug_info    0x000aa40e      0xc9b build/sam_e70_xult_freertos/production/_ext/1775855163/sys_int.o
 .debug_info    0x000ab0a9     0x3483 build/sam_e70_xult_freertos/production/_ext/912870411/sys_time.o
 .debug_info    0x000ae52c      0x51a build/sam_e70_xult_freertos/production/_ext/231871610/sys_time_h2_adapter.o
 .debug_info    0x000aea46     0x480a build/sam_e70_xult_freertos/production/_ext/1552905064/tasks.o
 .debug_info    0x000b3250     0x70e2 build/sam_e70_xult_freertos/production/_ext/1552905064/initialization.o
 .debug_info    0x000ba332     0x4f5b build/sam_e70_xult_freertos/production/_ext/1552905064/interrupts.o
 .debug_info    0x000bf28d     0x4534 build/sam_e70_xult_freertos/production/_ext/1552905064/exceptions.o
 .debug_info    0x000c37c1     0x4e3d build/sam_e70_xult_freertos/production/_ext/1552905064/startup_xc32.o
 .debug_info    0x000c85fe      0x4b6 build/sam_e70_xult_freertos/production/_ext/1552905064/freertos_hooks.o
 .debug_info    0x000c8ab4      0x6f0 build/sam_e70_xult_freertos/production/_ext/977623654/port.o
 .debug_info    0x000c91a4      0xf24 build/sam_e70_xult_freertos/production/_ext/1665200909/heap_3.o
 .debug_info    0x000ca0c8     0x10e2 build/sam_e70_xult_freertos/production/_ext/404212886/list.o
 .debug_info    0x000cb1aa     0x2809 build/sam_e70_xult_freertos/production/_ext/404212886/queue.o
 .debug_info    0x000cd9b3     0x356d build/sam_e70_xult_freertos/production/_ext/404212886/FreeRTOS_tasks.o
 .debug_info    0x000d0f20      0xa4e build/sam_e70_xult_freertos/production/_ext/281930714/osal_freertos.o
 .debug_info    0x000d196e     0x4b68 build/sam_e70_xult_freertos/production/_ext/1360937237/app_commands.o
 .debug_info    0x000d64d6     0x537f build/sam_e70_xult_freertos/production/_ext/1360937237/app.o
 .debug_info    0x000db855     0x4486 build/sam_e70_xult_freertos/production/_ext/1360937237/main.o
 .debug_info    0x000dfcdb      0x2a5 c:/program files (x86)/microchip/xc32/v2.15/bin/bin/../../lib/gcc/pic32c/6.2.1/../../../../pic32c/lib/v7e-m/fpv5/hard\libpic32c.a(data_init.o)
 .debug_info    0x000dff80      0x11d c:/program files (x86)/microchip/xc32/v2.15/bin/bin/../../lib/gcc/pic32c/6.2.1/v7e-m/fpv5/hard\libgcc.a(_aeabi_uldivmod.o)
 .debug_info    0x000e009d     0x2296 c:/program files (x86)/microchip/xc32/v2.15/bin/bin/../../lib/gcc/pic32c/6.2.1/v7e-m/fpv5/hard\libgcc.a(_udivmoddi4.o)
 .debug_info    0x000e2333      0x121 c:/program files (x86)/microchip/xc32/v2.15/bin/bin/../../lib/gcc/pic32c/6.2.1/v7e-m/fpv5/hard\libgcc.a(_dvmd_tls.o)
 .debug_info    0x000e2454      0xe9d c:/program files (x86)/microchip/xc32/v2.15/bin/bin/../../lib/gcc/pic32c/6.2.1/../../../../pic32c/lib/v7e-m/fpv5/hard\libc.a(lib_a-atoi.o)
 .debug_info    0x000e32f1      0xe49 c:/program files (x86)/microchip/xc32/v2.15/bin/bin/../../lib/gcc/pic32c/6.2.1/../../../../pic32c/lib/v7e-m/fpv5/hard\libc.a(lib_a-calloc.o)
 .debug_info    0x000e413a     0x1256 c:/program files (x86)/microchip/xc32/v2.15/bin/bin/../../lib/gcc/pic32c/6.2.1/../../../../pic32c/lib/v7e-m/fpv5/hard\libc.a(lib_a-callocr.o)
 .debug_info    0x000e5390      0xde5 c:/program files (x86)/microchip/xc32/v2.15/bin/bin/../../lib/gcc/pic32c/6.2.1/../../../../pic32c/lib/v7e-m/fpv5/hard\libc.a(lib_a-impure.o)
 .debug_info    0x000e6175      0x418 c:/program files (x86)/microchip/xc32/v2.15/bin/bin/../../lib/gcc/pic32c/6.2.1/../../../../pic32c/lib/v7e-m/fpv5/hard\libc.a(lib_a-init.o)
 .debug_info    0x000e658d     0x1892 c:/program files (x86)/microchip/xc32/v2.15/bin/bin/../../lib/gcc/pic32c/6.2.1/../../../../pic32c/lib/v7e-m/fpv5/hard\libc.a(lib_a-locale.o)
 .debug_info    0x000e7e1f      0xe88 c:/program files (x86)/microchip/xc32/v2.15/bin/bin/../../lib/gcc/pic32c/6.2.1/../../../../pic32c/lib/v7e-m/fpv5/hard\libc.a(lib_a-malloc.o)
 .debug_info    0x000e8ca7     0x156b c:/program files (x86)/microchip/xc32/v2.15/bin/bin/../../lib/gcc/pic32c/6.2.1/../../../../pic32c/lib/v7e-m/fpv5/hard\libc.a(lib_a-mallocr.o)
 .debug_info    0x000ea212     0x177a c:/program files (x86)/microchip/xc32/v2.15/bin/bin/../../lib/gcc/pic32c/6.2.1/../../../../pic32c/lib/v7e-m/fpv5/hard\libc.a(lib_a-mbtowc_r.o)
 .debug_info    0x000eb98c      0xe61 c:/program files (x86)/microchip/xc32/v2.15/bin/bin/../../lib/gcc/pic32c/6.2.1/../../../../pic32c/lib/v7e-m/fpv5/hard\libc.a(lib_a-memcmp.o)
 .debug_info    0x000ec7ed      0x137 c:/program files (x86)/microchip/xc32/v2.15/bin/bin/../../lib/gcc/pic32c/6.2.1/../../../../pic32c/lib/v7e-m/fpv5/hard\libc.a(lib_a-memcpy.o)
 .debug_info    0x000ec924     0x15f7 c:/program files (x86)/microchip/xc32/v2.15/bin/bin/../../lib/gcc/pic32c/6.2.1/../../../../pic32c/lib/v7e-m/fpv5/hard\libc.a(lib_a-memset.o)
 .debug_info    0x000edf1b      0xe3f c:/program files (x86)/microchip/xc32/v2.15/bin/bin/../../lib/gcc/pic32c/6.2.1/../../../../pic32c/lib/v7e-m/fpv5/hard\libc.a(lib_a-mlock.o)
 .debug_info    0x000eed5a      0xe3a c:/program files (x86)/microchip/xc32/v2.15/bin/bin/../../lib/gcc/pic32c/6.2.1/../../../../pic32c/lib/v7e-m/fpv5/hard\libc.a(lib_a-rand.o)
 .debug_info    0x000efb94      0xed5 c:/program files (x86)/microchip/xc32/v2.15/bin/bin/../../lib/gcc/pic32c/6.2.1/../../../../pic32c/lib/v7e-m/fpv5/hard\libc.a(lib_a-sbrkr.o)
 .debug_info    0x000f0a69     0x131b c:/program files (x86)/microchip/xc32/v2.15/bin/bin/../../lib/gcc/pic32c/6.2.1/../../../../pic32c/lib/v7e-m/fpv5/hard\libc.a(lib_a-snprintf.o)
 .debug_info    0x000f1d84     0x1254 c:/program files (x86)/microchip/xc32/v2.15/bin/bin/../../lib/gcc/pic32c/6.2.1/../../../../pic32c/lib/v7e-m/fpv5/hard\libc.a(lib_a-sprintf.o)
 .debug_info    0x000f2fd8      0x136 c:/program files (x86)/microchip/xc32/v2.15/bin/bin/../../lib/gcc/pic32c/6.2.1/../../../../pic32c/lib/v7e-m/fpv5/hard\libc.a(lib_a-strcmp.o)
 .debug_info    0x000f310e      0xe01 c:/program files (x86)/microchip/xc32/v2.15/bin/bin/../../lib/gcc/pic32c/6.2.1/../../../../pic32c/lib/v7e-m/fpv5/hard\libc.a(lib_a-strcpy.o)
 .debug_info    0x000f3f0f      0x136 c:/program files (x86)/microchip/xc32/v2.15/bin/bin/../../lib/gcc/pic32c/6.2.1/../../../../pic32c/lib/v7e-m/fpv5/hard\libc.a(lib_a-strlen.o)
 .debug_info    0x000f4045      0xe4f c:/program files (x86)/microchip/xc32/v2.15/bin/bin/../../lib/gcc/pic32c/6.2.1/../../../../pic32c/lib/v7e-m/fpv5/hard\libc.a(lib_a-strncat.o)
 .debug_info    0x000f4e94      0xe81 c:/program files (x86)/microchip/xc32/v2.15/bin/bin/../../lib/gcc/pic32c/6.2.1/../../../../pic32c/lib/v7e-m/fpv5/hard\libc.a(lib_a-strncpy.o)
 .debug_info    0x000f5d15     0x127c c:/program files (x86)/microchip/xc32/v2.15/bin/bin/../../lib/gcc/pic32c/6.2.1/../../../../pic32c/lib/v7e-m/fpv5/hard\libc.a(lib_a-strstr.o)
 .debug_info    0x000f6f91      0xe3e c:/program files (x86)/microchip/xc32/v2.15/bin/bin/../../lib/gcc/pic32c/6.2.1/../../../../pic32c/lib/v7e-m/fpv5/hard\libc.a(lib_a-strtok.o)
 .debug_info    0x000f7dcf      0xee6 c:/program files (x86)/microchip/xc32/v2.15/bin/bin/../../lib/gcc/pic32c/6.2.1/../../../../pic32c/lib/v7e-m/fpv5/hard\libc.a(lib_a-strtok_r.o)
 .debug_info    0x000f8cb5     0x1942 c:/program files (x86)/microchip/xc32/v2.15/bin/bin/../../lib/gcc/pic32c/6.2.1/../../../../pic32c/lib/v7e-m/fpv5/hard\libc.a(lib_a-strtol.o)
 .debug_info    0x000fa5f7     0x28b3 c:/program files (x86)/microchip/xc32/v2.15/bin/bin/../../lib/gcc/pic32c/6.2.1/../../../../pic32c/lib/v7e-m/fpv5/hard\libc.a(lib_a-svfprintf.o)
 .debug_info    0x000fceaa     0x12c4 c:/program files (x86)/microchip/xc32/v2.15/bin/bin/../../lib/gcc/pic32c/6.2.1/../../../../pic32c/lib/v7e-m/fpv5/hard\libc.a(lib_a-vsnprintf.o)
 .debug_info    0x000fe16e     0x1745 c:/program files (x86)/microchip/xc32/v2.15/bin/bin/../../lib/gcc/pic32c/6.2.1/../../../../pic32c/lib/v7e-m/fpv5/hard\libc.a(lib_a-wctomb_r.o)
 .debug_info    0x000ff8b3      0xf61 c:/program files (x86)/microchip/xc32/v2.15/bin/bin/../../lib/gcc/pic32c/6.2.1/../../../../pic32c/lib/v7e-m/fpv5/hard\libc.a(lib_a-__call_atexit.o)
 .debug_info    0x00100814      0xe76 c:/program files (x86)/microchip/xc32/v2.15/bin/bin/../../lib/gcc/pic32c/6.2.1/../../../../pic32c/lib/v7e-m/fpv5/hard\libc.a(lib_a-atexit.o)
 .debug_info    0x0010168a     0x1577 c:/program files (x86)/microchip/xc32/v2.15/bin/bin/../../lib/gcc/pic32c/6.2.1/../../../../pic32c/lib/v7e-m/fpv5/hard\libc.a(lib_a-ctype_.o)
 .debug_info    0x00102c01     0x2148 c:/program files (x86)/microchip/xc32/v2.15/bin/bin/../../lib/gcc/pic32c/6.2.1/../../../../pic32c/lib/v7e-m/fpv5/hard\libc.a(lib_a-dtoa.o)
 .debug_info    0x00104d49      0x3dd c:/program files (x86)/microchip/xc32/v2.15/bin/bin/../../lib/gcc/pic32c/6.2.1/../../../../pic32c/lib/v7e-m/fpv5/hard\libc.a(lib_a-fini.o)
 .debug_info    0x00105126     0x13ca c:/program files (x86)/microchip/xc32/v2.15/bin/bin/../../lib/gcc/pic32c/6.2.1/../../../../pic32c/lib/v7e-m/fpv5/hard\libc.a(lib_a-freer.o)
 .debug_info    0x001064f0     0x16ab c:/program files (x86)/microchip/xc32/v2.15/bin/bin/../../lib/gcc/pic32c/6.2.1/../../../../pic32c/lib/v7e-m/fpv5/hard\libc.a(lib_a-localeconv.o)
 .debug_info    0x00107b9b      0x130 c:/program files (x86)/microchip/xc32/v2.15/bin/bin/../../lib/gcc/pic32c/6.2.1/../../../../pic32c/lib/v7e-m/fpv5/hard\libc.a(lib_a-memchr.o)
 .debug_info    0x00107ccb     0x2576 c:/program files (x86)/microchip/xc32/v2.15/bin/bin/../../lib/gcc/pic32c/6.2.1/../../../../pic32c/lib/v7e-m/fpv5/hard\libc.a(lib_a-mprec.o)
 .debug_info    0x0010a241      0xf91 c:/program files (x86)/microchip/xc32/v2.15/bin/bin/../../lib/gcc/pic32c/6.2.1/../../../../pic32c/lib/v7e-m/fpv5/hard\libc.a(lib_a-reent.o)
 .debug_info    0x0010b1d2      0xfad c:/program files (x86)/microchip/xc32/v2.15/bin/bin/../../lib/gcc/pic32c/6.2.1/../../../../pic32c/lib/v7e-m/fpv5/hard\libc.a(lib_a-s_frexp.o)
 .debug_info    0x0010c17f      0xe60 c:/program files (x86)/microchip/xc32/v2.15/bin/bin/../../lib/gcc/pic32c/6.2.1/../../../../pic32c/lib/v7e-m/fpv5/hard\libc.a(lib_a-strchr.o)
 .debug_info    0x0010cfdf     0x21c9 c:/program files (x86)/microchip/xc32/v2.15/bin/bin/../../lib/gcc/pic32c/6.2.1/../../../../pic32c/lib/v7e-m/fpv5/hard\libc.a(lib_a-svfiprintf.o)
 .debug_info    0x0010f1a8      0xee2 c:/program files (x86)/microchip/xc32/v2.15/bin/bin/../../lib/gcc/pic32c/6.2.1/../../../../pic32c/lib/v7e-m/fpv5/hard\libc.a(lib_a-__atexit.o)
 .debug_info    0x0011008a     0x1619 c:/program files (x86)/microchip/xc32/v2.15/bin/bin/../../lib/gcc/pic32c/6.2.1/../../../../pic32c/lib/v7e-m/fpv5/hard\libc.a(lib_a-memmove.o)
 .debug_info    0x001116a3     0x14e9 c:/program files (x86)/microchip/xc32/v2.15/bin/bin/../../lib/gcc/pic32c/6.2.1/../../../../pic32c/lib/v7e-m/fpv5/hard\libc.a(lib_a-reallocr.o)
 .debug_info    0x00112b8c      0x289 c:/program files (x86)/microchip/xc32/v2.15/bin/bin/../../lib/gcc/pic32c/6.2.1/../../../../pic32c/lib/v7e-m/fpv5/hard\libpic32c.a(sbrk.o)

.debug_abbrev   0x00000000    0x10610
 .debug_abbrev  0x00000000      0x1a3 build/sam_e70_xult_freertos/production/_ext/683629640/bsp.o
 .debug_abbrev  0x000001a3      0x582 build/sam_e70_xult_freertos/production/_ext/1607428259/drv_ethphy.o
 .debug_abbrev  0x00000725      0x2d0 build/sam_e70_xult_freertos/production/_ext/1607428259/drv_extphy_smsc8740.o
 .debug_abbrev  0x000009f5      0x618 build/sam_e70_xult_freertos/production/_ext/1619526243/drv_gmac.o
 .debug_abbrev  0x0000100d      0x540 build/sam_e70_xult_freertos/production/_ext/1619526243/drv_gmac_lib_samE7x_V7x.o
 .debug_abbrev  0x0000154d      0x683 build/sam_e70_xult_freertos/production/_ext/511568427/drv_miim.o
 .debug_abbrev  0x00001bd0      0x2ae build/sam_e70_xult_freertos/production/_ext/810785262/helpers.o
 .debug_abbrev  0x00001e7e      0x5e9 build/sam_e70_xult_freertos/production/_ext/810785262/dns.o
 .debug_abbrev  0x00002467      0x40a build/sam_e70_xult_freertos/production/_ext/810785262/icmp.o
 .debug_abbrev  0x00002871      0x5a6 build/sam_e70_xult_freertos/production/_ext/810785262/tcp.o
 .debug_abbrev  0x00002e17      0x592 build/sam_e70_xult_freertos/production/_ext/810785262/dhcp.o
 .debug_abbrev  0x000033a9      0x54c build/sam_e70_xult_freertos/production/_ext/810785262/arp.o
 .debug_abbrev  0x000038f5      0x4c3 build/sam_e70_xult_freertos/production/_ext/810785262/tcpip_commands.o
 .debug_abbrev  0x00003db8      0x50b build/sam_e70_xult_freertos/production/_ext/810785262/ipv4.o
 .debug_abbrev  0x000042c3      0x299 build/sam_e70_xult_freertos/production/_ext/810785262/tcpip_heap_alloc.o
 .debug_abbrev  0x0000455c      0x3f2 build/sam_e70_xult_freertos/production/_ext/810785262/tcpip_heap_internal.o
 .debug_abbrev  0x0000494e      0x1d0 build/sam_e70_xult_freertos/production/_ext/810785262/hash_fnv.o
 .debug_abbrev  0x00004b1e      0x34c build/sam_e70_xult_freertos/production/_ext/810785262/oahash.o
 .debug_abbrev  0x00004e6a      0x4fc build/sam_e70_xult_freertos/production/_ext/810785262/tcpip_helpers.o
 .debug_abbrev  0x00005366      0x621 build/sam_e70_xult_freertos/production/_ext/810785262/tcpip_manager.o
 .debug_abbrev  0x00005987      0x2eb build/sam_e70_xult_freertos/production/_ext/810785262/tcpip_notify.o
 .debug_abbrev  0x00005c72      0x48f build/sam_e70_xult_freertos/production/_ext/810785262/tcpip_packet.o
 .debug_abbrev  0x00006101      0x5bc build/sam_e70_xult_freertos/production/_ext/810785262/udp.o
 .debug_abbrev  0x000066bd       0xfa build/sam_e70_xult_freertos/production/_ext/45647770/plib_clk.o
 .debug_abbrev  0x000067b7       0xcd build/sam_e70_xult_freertos/production/_ext/45638026/plib_mpu.o
 .debug_abbrev  0x00006884      0x179 build/sam_e70_xult_freertos/production/_ext/1414743522/plib_nvic.o
 .debug_abbrev  0x000069fd      0x160 build/sam_e70_xult_freertos/production/_ext/45635366/plib_pio.o
 .debug_abbrev  0x00006b5d      0x182 build/sam_e70_xult_freertos/production/_ext/1245453995/plib_tc0.o
 .debug_abbrev  0x00006cdf      0x2c4 build/sam_e70_xult_freertos/production/_ext/901008055/plib_usart1.o
 .debug_abbrev  0x00006fa3      0x299 build/sam_e70_xult_freertos/production/_ext/762686499/sys_console.o
 .debug_abbrev  0x0000723c      0x51a build/sam_e70_xult_freertos/production/_ext/762686499/sys_console_uart.o
 .debug_abbrev  0x00007756      0x2cb build/sam_e70_xult_freertos/production/_ext/762686499/sys_debug.o
 .debug_abbrev  0x00007a21      0x4d4 build/sam_e70_xult_freertos/production/_ext/762686499/sys_command.o
 .debug_abbrev  0x00007ef5      0x200 build/sam_e70_xult_freertos/production/_ext/1775855163/sys_int.o
 .debug_abbrev  0x000080f5      0x572 build/sam_e70_xult_freertos/production/_ext/912870411/sys_time.o
 .debug_abbrev  0x00008667      0x128 build/sam_e70_xult_freertos/production/_ext/231871610/sys_time_h2_adapter.o
 .debug_abbrev  0x0000878f      0x2ba build/sam_e70_xult_freertos/production/_ext/1552905064/tasks.o
 .debug_abbrev  0x00008a49      0x32a build/sam_e70_xult_freertos/production/_ext/1552905064/initialization.o
 .debug_abbrev  0x00008d73      0x247 build/sam_e70_xult_freertos/production/_ext/1552905064/interrupts.o
 .debug_abbrev  0x00008fba      0x236 build/sam_e70_xult_freertos/production/_ext/1552905064/exceptions.o
 .debug_abbrev  0x000091f0      0x366 build/sam_e70_xult_freertos/production/_ext/1552905064/startup_xc32.o
 .debug_abbrev  0x00009556      0x11f build/sam_e70_xult_freertos/production/_ext/1552905064/freertos_hooks.o
 .debug_abbrev  0x00009675      0x1f2 build/sam_e70_xult_freertos/production/_ext/977623654/port.o
 .debug_abbrev  0x00009867      0x241 build/sam_e70_xult_freertos/production/_ext/1665200909/heap_3.o
 .debug_abbrev  0x00009aa8      0x231 build/sam_e70_xult_freertos/production/_ext/404212886/list.o
 .debug_abbrev  0x00009cd9      0x402 build/sam_e70_xult_freertos/production/_ext/404212886/queue.o
 .debug_abbrev  0x0000a0db      0x494 build/sam_e70_xult_freertos/production/_ext/404212886/FreeRTOS_tasks.o
 .debug_abbrev  0x0000a56f      0x19d build/sam_e70_xult_freertos/production/_ext/281930714/osal_freertos.o
 .debug_abbrev  0x0000a70c      0x30c build/sam_e70_xult_freertos/production/_ext/1360937237/app_commands.o
 .debug_abbrev  0x0000aa18      0x35b build/sam_e70_xult_freertos/production/_ext/1360937237/app.o
 .debug_abbrev  0x0000ad73      0x270 build/sam_e70_xult_freertos/production/_ext/1360937237/main.o
 .debug_abbrev  0x0000afe3       0x2a c:/program files (x86)/microchip/xc32/v2.15/bin/bin/../../lib/gcc/pic32c/6.2.1/../../../../pic32c/lib/v7e-m/fpv5/hard\libpic32c.a(data_init.o)
 .debug_abbrev  0x0000b00d       0x14 c:/program files (x86)/microchip/xc32/v2.15/bin/bin/../../lib/gcc/pic32c/6.2.1/v7e-m/fpv5/hard\libgcc.a(_aeabi_uldivmod.o)
 .debug_abbrev  0x0000b021      0x201 c:/program files (x86)/microchip/xc32/v2.15/bin/bin/../../lib/gcc/pic32c/6.2.1/v7e-m/fpv5/hard\libgcc.a(_udivmoddi4.o)
 .debug_abbrev  0x0000b222       0x14 c:/program files (x86)/microchip/xc32/v2.15/bin/bin/../../lib/gcc/pic32c/6.2.1/v7e-m/fpv5/hard\libgcc.a(_dvmd_tls.o)
 .debug_abbrev  0x0000b236      0x1de c:/program files (x86)/microchip/xc32/v2.15/bin/bin/../../lib/gcc/pic32c/6.2.1/../../../../pic32c/lib/v7e-m/fpv5/hard\libc.a(lib_a-atoi.o)
 .debug_abbrev  0x0000b414      0x1cc c:/program files (x86)/microchip/xc32/v2.15/bin/bin/../../lib/gcc/pic32c/6.2.1/../../../../pic32c/lib/v7e-m/fpv5/hard\libc.a(lib_a-calloc.o)
 .debug_abbrev  0x0000b5e0      0x203 c:/program files (x86)/microchip/xc32/v2.15/bin/bin/../../lib/gcc/pic32c/6.2.1/../../../../pic32c/lib/v7e-m/fpv5/hard\libc.a(lib_a-callocr.o)
 .debug_abbrev  0x0000b7e3      0x176 c:/program files (x86)/microchip/xc32/v2.15/bin/bin/../../lib/gcc/pic32c/6.2.1/../../../../pic32c/lib/v7e-m/fpv5/hard\libc.a(lib_a-impure.o)
 .debug_abbrev  0x0000b959       0xa3 c:/program files (x86)/microchip/xc32/v2.15/bin/bin/../../lib/gcc/pic32c/6.2.1/../../../../pic32c/lib/v7e-m/fpv5/hard\libc.a(lib_a-init.o)
 .debug_abbrev  0x0000b9fc      0x299 c:/program files (x86)/microchip/xc32/v2.15/bin/bin/../../lib/gcc/pic32c/6.2.1/../../../../pic32c/lib/v7e-m/fpv5/hard\libc.a(lib_a-locale.o)
 .debug_abbrev  0x0000bc95      0x1f8 c:/program files (x86)/microchip/xc32/v2.15/bin/bin/../../lib/gcc/pic32c/6.2.1/../../../../pic32c/lib/v7e-m/fpv5/hard\libc.a(lib_a-malloc.o)
 .debug_abbrev  0x0000be8d      0x2ad c:/program files (x86)/microchip/xc32/v2.15/bin/bin/../../lib/gcc/pic32c/6.2.1/../../../../pic32c/lib/v7e-m/fpv5/hard\libc.a(lib_a-mallocr.o)
 .debug_abbrev  0x0000c13a      0x203 c:/program files (x86)/microchip/xc32/v2.15/bin/bin/../../lib/gcc/pic32c/6.2.1/../../../../pic32c/lib/v7e-m/fpv5/hard\libc.a(lib_a-mbtowc_r.o)
 .debug_abbrev  0x0000c33d      0x1a3 c:/program files (x86)/microchip/xc32/v2.15/bin/bin/../../lib/gcc/pic32c/6.2.1/../../../../pic32c/lib/v7e-m/fpv5/hard\libc.a(lib_a-memcmp.o)
 .debug_abbrev  0x0000c4e0       0x14 c:/program files (x86)/microchip/xc32/v2.15/bin/bin/../../lib/gcc/pic32c/6.2.1/../../../../pic32c/lib/v7e-m/fpv5/hard\libc.a(lib_a-memcpy.o)
 .debug_abbrev  0x0000c4f4      0x1b7 c:/program files (x86)/microchip/xc32/v2.15/bin/bin/../../lib/gcc/pic32c/6.2.1/../../../../pic32c/lib/v7e-m/fpv5/hard\libc.a(lib_a-memset.o)
 .debug_abbrev  0x0000c6ab      0x1b9 c:/program files (x86)/microchip/xc32/v2.15/bin/bin/../../lib/gcc/pic32c/6.2.1/../../../../pic32c/lib/v7e-m/fpv5/hard\libc.a(lib_a-mlock.o)
 .debug_abbrev  0x0000c864      0x1d6 c:/program files (x86)/microchip/xc32/v2.15/bin/bin/../../lib/gcc/pic32c/6.2.1/../../../../pic32c/lib/v7e-m/fpv5/hard\libc.a(lib_a-rand.o)
 .debug_abbrev  0x0000ca3a      0x1ed c:/program files (x86)/microchip/xc32/v2.15/bin/bin/../../lib/gcc/pic32c/6.2.1/../../../../pic32c/lib/v7e-m/fpv5/hard\libc.a(lib_a-sbrkr.o)
 .debug_abbrev  0x0000cc27      0x234 c:/program files (x86)/microchip/xc32/v2.15/bin/bin/../../lib/gcc/pic32c/6.2.1/../../../../pic32c/lib/v7e-m/fpv5/hard\libc.a(lib_a-snprintf.o)
 .debug_abbrev  0x0000ce5b      0x22f c:/program files (x86)/microchip/xc32/v2.15/bin/bin/../../lib/gcc/pic32c/6.2.1/../../../../pic32c/lib/v7e-m/fpv5/hard\libc.a(lib_a-sprintf.o)
 .debug_abbrev  0x0000d08a       0x14 c:/program files (x86)/microchip/xc32/v2.15/bin/bin/../../lib/gcc/pic32c/6.2.1/../../../../pic32c/lib/v7e-m/fpv5/hard\libc.a(lib_a-strcmp.o)
 .debug_abbrev  0x0000d09e      0x19c c:/program files (x86)/microchip/xc32/v2.15/bin/bin/../../lib/gcc/pic32c/6.2.1/../../../../pic32c/lib/v7e-m/fpv5/hard\libc.a(lib_a-strcpy.o)
 .debug_abbrev  0x0000d23a       0x14 c:/program files (x86)/microchip/xc32/v2.15/bin/bin/../../lib/gcc/pic32c/6.2.1/../../../../pic32c/lib/v7e-m/fpv5/hard\libc.a(lib_a-strlen.o)
 .debug_abbrev  0x0000d24e      0x1b6 c:/program files (x86)/microchip/xc32/v2.15/bin/bin/../../lib/gcc/pic32c/6.2.1/../../../../pic32c/lib/v7e-m/fpv5/hard\libc.a(lib_a-strncat.o)
 .debug_abbrev  0x0000d404      0x1ad c:/program files (x86)/microchip/xc32/v2.15/bin/bin/../../lib/gcc/pic32c/6.2.1/../../../../pic32c/lib/v7e-m/fpv5/hard\libc.a(lib_a-strncpy.o)
 .debug_abbrev  0x0000d5b1      0x2ec c:/program files (x86)/microchip/xc32/v2.15/bin/bin/../../lib/gcc/pic32c/6.2.1/../../../../pic32c/lib/v7e-m/fpv5/hard\libc.a(lib_a-strstr.o)
 .debug_abbrev  0x0000d89d      0x1ca c:/program files (x86)/microchip/xc32/v2.15/bin/bin/../../lib/gcc/pic32c/6.2.1/../../../../pic32c/lib/v7e-m/fpv5/hard\libc.a(lib_a-strtok.o)
 .debug_abbrev  0x0000da67      0x1f9 c:/program files (x86)/microchip/xc32/v2.15/bin/bin/../../lib/gcc/pic32c/6.2.1/../../../../pic32c/lib/v7e-m/fpv5/hard\libc.a(lib_a-strtok_r.o)
 .debug_abbrev  0x0000dc60      0x25c c:/program files (x86)/microchip/xc32/v2.15/bin/bin/../../lib/gcc/pic32c/6.2.1/../../../../pic32c/lib/v7e-m/fpv5/hard\libc.a(lib_a-strtol.o)
 .debug_abbrev  0x0000debc      0x319 c:/program files (x86)/microchip/xc32/v2.15/bin/bin/../../lib/gcc/pic32c/6.2.1/../../../../pic32c/lib/v7e-m/fpv5/hard\libc.a(lib_a-svfprintf.o)
 .debug_abbrev  0x0000e1d5      0x22f c:/program files (x86)/microchip/xc32/v2.15/bin/bin/../../lib/gcc/pic32c/6.2.1/../../../../pic32c/lib/v7e-m/fpv5/hard\libc.a(lib_a-vsnprintf.o)
 .debug_abbrev  0x0000e404      0x21f c:/program files (x86)/microchip/xc32/v2.15/bin/bin/../../lib/gcc/pic32c/6.2.1/../../../../pic32c/lib/v7e-m/fpv5/hard\libc.a(lib_a-wctomb_r.o)
 .debug_abbrev  0x0000e623      0x242 c:/program files (x86)/microchip/xc32/v2.15/bin/bin/../../lib/gcc/pic32c/6.2.1/../../../../pic32c/lib/v7e-m/fpv5/hard\libc.a(lib_a-__call_atexit.o)
 .debug_abbrev  0x0000e865      0x1e6 c:/program files (x86)/microchip/xc32/v2.15/bin/bin/../../lib/gcc/pic32c/6.2.1/../../../../pic32c/lib/v7e-m/fpv5/hard\libc.a(lib_a-atexit.o)
 .debug_abbrev  0x0000ea4b      0x176 c:/program files (x86)/microchip/xc32/v2.15/bin/bin/../../lib/gcc/pic32c/6.2.1/../../../../pic32c/lib/v7e-m/fpv5/hard\libc.a(lib_a-ctype_.o)
 .debug_abbrev  0x0000ebc1      0x27a c:/program files (x86)/microchip/xc32/v2.15/bin/bin/../../lib/gcc/pic32c/6.2.1/../../../../pic32c/lib/v7e-m/fpv5/hard\libc.a(lib_a-dtoa.o)
 .debug_abbrev  0x0000ee3b       0xa6 c:/program files (x86)/microchip/xc32/v2.15/bin/bin/../../lib/gcc/pic32c/6.2.1/../../../../pic32c/lib/v7e-m/fpv5/hard\libc.a(lib_a-fini.o)
 .debug_abbrev  0x0000eee1      0x24f c:/program files (x86)/microchip/xc32/v2.15/bin/bin/../../lib/gcc/pic32c/6.2.1/../../../../pic32c/lib/v7e-m/fpv5/hard\libc.a(lib_a-freer.o)
 .debug_abbrev  0x0000f130      0x21b c:/program files (x86)/microchip/xc32/v2.15/bin/bin/../../lib/gcc/pic32c/6.2.1/../../../../pic32c/lib/v7e-m/fpv5/hard\libc.a(lib_a-localeconv.o)
 .debug_abbrev  0x0000f34b       0x14 c:/program files (x86)/microchip/xc32/v2.15/bin/bin/../../lib/gcc/pic32c/6.2.1/../../../../pic32c/lib/v7e-m/fpv5/hard\libc.a(lib_a-memchr.o)
 .debug_abbrev  0x0000f35f      0x3cc c:/program files (x86)/microchip/xc32/v2.15/bin/bin/../../lib/gcc/pic32c/6.2.1/../../../../pic32c/lib/v7e-m/fpv5/hard\libc.a(lib_a-mprec.o)
 .debug_abbrev  0x0000f72b      0x23f c:/program files (x86)/microchip/xc32/v2.15/bin/bin/../../lib/gcc/pic32c/6.2.1/../../../../pic32c/lib/v7e-m/fpv5/hard\libc.a(lib_a-reent.o)
 .debug_abbrev  0x0000f96a      0x207 c:/program files (x86)/microchip/xc32/v2.15/bin/bin/../../lib/gcc/pic32c/6.2.1/../../../../pic32c/lib/v7e-m/fpv5/hard\libc.a(lib_a-s_frexp.o)
 .debug_abbrev  0x0000fb71      0x19e c:/program files (x86)/microchip/xc32/v2.15/bin/bin/../../lib/gcc/pic32c/6.2.1/../../../../pic32c/lib/v7e-m/fpv5/hard\libc.a(lib_a-strchr.o)
 .debug_abbrev  0x0000fd0f      0x2c7 c:/program files (x86)/microchip/xc32/v2.15/bin/bin/../../lib/gcc/pic32c/6.2.1/../../../../pic32c/lib/v7e-m/fpv5/hard\libc.a(lib_a-svfiprintf.o)
 .debug_abbrev  0x0000ffd6      0x1f2 c:/program files (x86)/microchip/xc32/v2.15/bin/bin/../../lib/gcc/pic32c/6.2.1/../../../../pic32c/lib/v7e-m/fpv5/hard\libc.a(lib_a-__atexit.o)
 .debug_abbrev  0x000101c8      0x1bc c:/program files (x86)/microchip/xc32/v2.15/bin/bin/../../lib/gcc/pic32c/6.2.1/../../../../pic32c/lib/v7e-m/fpv5/hard\libc.a(lib_a-memmove.o)
 .debug_abbrev  0x00010384      0x262 c:/program files (x86)/microchip/xc32/v2.15/bin/bin/../../lib/gcc/pic32c/6.2.1/../../../../pic32c/lib/v7e-m/fpv5/hard\libc.a(lib_a-reallocr.o)
 .debug_abbrev  0x000105e6       0x2a c:/program files (x86)/microchip/xc32/v2.15/bin/bin/../../lib/gcc/pic32c/6.2.1/../../../../pic32c/lib/v7e-m/fpv5/hard\libpic32c.a(sbrk.o)

.debug_aranges  0x00000000     0x29f0
 .debug_aranges
                0x00000000       0x20 build/sam_e70_xult_freertos/production/_ext/683629640/bsp.o
 .debug_aranges
                0x00000020      0x278 build/sam_e70_xult_freertos/production/_ext/1607428259/drv_ethphy.o
 .debug_aranges
                0x00000298       0x30 build/sam_e70_xult_freertos/production/_ext/1607428259/drv_extphy_smsc8740.o
 .debug_aranges
                0x000002c8      0x280 build/sam_e70_xult_freertos/production/_ext/1619526243/drv_gmac.o
 .debug_aranges
                0x00000548       0xb0 build/sam_e70_xult_freertos/production/_ext/1619526243/drv_gmac_lib_samE7x_V7x.o
 .debug_aranges
                0x000005f8       0xe8 build/sam_e70_xult_freertos/production/_ext/511568427/drv_miim.o
 .debug_aranges
                0x000006e0       0x48 build/sam_e70_xult_freertos/production/_ext/810785262/helpers.o
 .debug_aranges
                0x00000728      0x140 build/sam_e70_xult_freertos/production/_ext/810785262/dns.o
 .debug_aranges
                0x00000868       0x38 build/sam_e70_xult_freertos/production/_ext/810785262/icmp.o
 .debug_aranges
                0x000008a0      0x220 build/sam_e70_xult_freertos/production/_ext/810785262/tcp.o
 .debug_aranges
                0x00000ac0      0x188 build/sam_e70_xult_freertos/production/_ext/810785262/dhcp.o
 .debug_aranges
                0x00000c48      0x110 build/sam_e70_xult_freertos/production/_ext/810785262/arp.o
 .debug_aranges
                0x00000d58       0xb8 build/sam_e70_xult_freertos/production/_ext/810785262/tcpip_commands.o
 .debug_aranges
                0x00000e10       0xc0 build/sam_e70_xult_freertos/production/_ext/810785262/ipv4.o
 .debug_aranges
                0x00000ed0       0x48 build/sam_e70_xult_freertos/production/_ext/810785262/tcpip_heap_alloc.o
 .debug_aranges
                0x00000f18       0x68 build/sam_e70_xult_freertos/production/_ext/810785262/tcpip_heap_internal.o
 .debug_aranges
                0x00000f80       0x28 build/sam_e70_xult_freertos/production/_ext/810785262/hash_fnv.o
 .debug_aranges
                0x00000fa8       0x50 build/sam_e70_xult_freertos/production/_ext/810785262/oahash.o
 .debug_aranges
                0x00000ff8      0x218 build/sam_e70_xult_freertos/production/_ext/810785262/tcpip_helpers.o
 .debug_aranges
                0x00001210      0x378 build/sam_e70_xult_freertos/production/_ext/810785262/tcpip_manager.o
 .debug_aranges
                0x00001588       0x40 build/sam_e70_xult_freertos/production/_ext/810785262/tcpip_notify.o
 .debug_aranges
                0x000015c8       0x78 build/sam_e70_xult_freertos/production/_ext/810785262/tcpip_packet.o
 .debug_aranges
                0x00001640      0x1c0 build/sam_e70_xult_freertos/production/_ext/810785262/udp.o
 .debug_aranges
                0x00001800       0x20 build/sam_e70_xult_freertos/production/_ext/45647770/plib_clk.o
 .debug_aranges
                0x00001820       0x20 build/sam_e70_xult_freertos/production/_ext/45638026/plib_mpu.o
 .debug_aranges
                0x00001840       0x20 build/sam_e70_xult_freertos/production/_ext/1414743522/plib_nvic.o
 .debug_aranges
                0x00001860       0x60 build/sam_e70_xult_freertos/production/_ext/45635366/plib_pio.o
 .debug_aranges
                0x000018c0       0x68 build/sam_e70_xult_freertos/production/_ext/1245453995/plib_tc0.o
 .debug_aranges
                0x00001928       0x78 build/sam_e70_xult_freertos/production/_ext/901008055/plib_usart1.o
 .debug_aranges
                0x000019a0       0x50 build/sam_e70_xult_freertos/production/_ext/762686499/sys_console.o
 .debug_aranges
                0x000019f0       0x78 build/sam_e70_xult_freertos/production/_ext/762686499/sys_console_uart.o
 .debug_aranges
                0x00001a68       0x50 build/sam_e70_xult_freertos/production/_ext/762686499/sys_debug.o
 .debug_aranges
                0x00001ab8       0xd0 build/sam_e70_xult_freertos/production/_ext/762686499/sys_command.o
 .debug_aranges
                0x00001b88       0x40 build/sam_e70_xult_freertos/production/_ext/1775855163/sys_int.o
 .debug_aranges
                0x00001bc8      0x130 build/sam_e70_xult_freertos/production/_ext/912870411/sys_time.o
 .debug_aranges
                0x00001cf8       0x28 build/sam_e70_xult_freertos/production/_ext/231871610/sys_time_h2_adapter.o
 .debug_aranges
                0x00001d20       0x40 build/sam_e70_xult_freertos/production/_ext/1552905064/tasks.o
 .debug_aranges
                0x00001d60       0x28 build/sam_e70_xult_freertos/production/_ext/1552905064/initialization.o
 .debug_aranges
                0x00001d88       0x20 build/sam_e70_xult_freertos/production/_ext/1552905064/interrupts.o
 .debug_aranges
                0x00001da8       0x48 build/sam_e70_xult_freertos/production/_ext/1552905064/exceptions.o
 .debug_aranges
                0x00001df0       0x20 build/sam_e70_xult_freertos/production/_ext/1552905064/startup_xc32.o
 .debug_aranges
                0x00001e10       0x40 build/sam_e70_xult_freertos/production/_ext/1552905064/freertos_hooks.o
 .debug_aranges
                0x00001e50       0x78 build/sam_e70_xult_freertos/production/_ext/977623654/port.o
 .debug_aranges
                0x00001ec8       0x28 build/sam_e70_xult_freertos/production/_ext/1665200909/heap_3.o
 .debug_aranges
                0x00001ef0       0x40 build/sam_e70_xult_freertos/production/_ext/404212886/list.o
 .debug_aranges
                0x00001f30       0xc8 build/sam_e70_xult_freertos/production/_ext/404212886/queue.o
 .debug_aranges
                0x00001ff8      0x178 build/sam_e70_xult_freertos/production/_ext/404212886/FreeRTOS_tasks.o
 .debug_aranges
                0x00002170       0x80 build/sam_e70_xult_freertos/production/_ext/281930714/osal_freertos.o
 .debug_aranges
                0x000021f0       0x28 build/sam_e70_xult_freertos/production/_ext/1360937237/app_commands.o
 .debug_aranges
                0x00002218       0x30 build/sam_e70_xult_freertos/production/_ext/1360937237/app.o
 .debug_aranges
                0x00002248       0x20 build/sam_e70_xult_freertos/production/_ext/1360937237/main.o
 .debug_aranges
                0x00002268       0x20 c:/program files (x86)/microchip/xc32/v2.15/bin/bin/../../lib/gcc/pic32c/6.2.1/../../../../pic32c/lib/v7e-m/fpv5/hard\libpic32c.a(data_init.o)
 .debug_aranges
                0x00002288       0x20 c:/program files (x86)/microchip/xc32/v2.15/bin/bin/../../lib/gcc/pic32c/6.2.1/v7e-m/fpv5/hard\libgcc.a(_aeabi_uldivmod.o)
 .debug_aranges
                0x000022a8       0x20 c:/program files (x86)/microchip/xc32/v2.15/bin/bin/../../lib/gcc/pic32c/6.2.1/v7e-m/fpv5/hard\libgcc.a(_udivmoddi4.o)
 .debug_aranges
                0x000022c8       0x20 c:/program files (x86)/microchip/xc32/v2.15/bin/bin/../../lib/gcc/pic32c/6.2.1/v7e-m/fpv5/hard\libgcc.a(_dvmd_tls.o)
 .debug_aranges
                0x000022e8       0x28 c:/program files (x86)/microchip/xc32/v2.15/bin/bin/../../lib/gcc/pic32c/6.2.1/../../../../pic32c/lib/v7e-m/fpv5/hard\libc.a(lib_a-atoi.o)
 .debug_aranges
                0x00002310       0x20 c:/program files (x86)/microchip/xc32/v2.15/bin/bin/../../lib/gcc/pic32c/6.2.1/../../../../pic32c/lib/v7e-m/fpv5/hard\libc.a(lib_a-calloc.o)
 .debug_aranges
                0x00002330       0x20 c:/program files (x86)/microchip/xc32/v2.15/bin/bin/../../lib/gcc/pic32c/6.2.1/../../../../pic32c/lib/v7e-m/fpv5/hard\libc.a(lib_a-callocr.o)
 .debug_aranges
                0x00002350       0x18 c:/program files (x86)/microchip/xc32/v2.15/bin/bin/../../lib/gcc/pic32c/6.2.1/../../../../pic32c/lib/v7e-m/fpv5/hard\libc.a(lib_a-impure.o)
 .debug_aranges
                0x00002368       0x20 c:/program files (x86)/microchip/xc32/v2.15/bin/bin/../../lib/gcc/pic32c/6.2.1/../../../../pic32c/lib/v7e-m/fpv5/hard\libc.a(lib_a-init.o)
 .debug_aranges
                0x00002388       0x40 c:/program files (x86)/microchip/xc32/v2.15/bin/bin/../../lib/gcc/pic32c/6.2.1/../../../../pic32c/lib/v7e-m/fpv5/hard\libc.a(lib_a-locale.o)
 .debug_aranges
                0x000023c8       0x28 c:/program files (x86)/microchip/xc32/v2.15/bin/bin/../../lib/gcc/pic32c/6.2.1/../../../../pic32c/lib/v7e-m/fpv5/hard\libc.a(lib_a-malloc.o)
 .debug_aranges
                0x000023f0       0x20 c:/program files (x86)/microchip/xc32/v2.15/bin/bin/../../lib/gcc/pic32c/6.2.1/../../../../pic32c/lib/v7e-m/fpv5/hard\libc.a(lib_a-mallocr.o)
 .debug_aranges
                0x00002410       0x28 c:/program files (x86)/microchip/xc32/v2.15/bin/bin/../../lib/gcc/pic32c/6.2.1/../../../../pic32c/lib/v7e-m/fpv5/hard\libc.a(lib_a-mbtowc_r.o)
 .debug_aranges
                0x00002438       0x20 c:/program files (x86)/microchip/xc32/v2.15/bin/bin/../../lib/gcc/pic32c/6.2.1/../../../../pic32c/lib/v7e-m/fpv5/hard\libc.a(lib_a-memcmp.o)
 .debug_aranges
                0x00002458       0x20 c:/program files (x86)/microchip/xc32/v2.15/bin/bin/../../lib/gcc/pic32c/6.2.1/../../../../pic32c/lib/v7e-m/fpv5/hard\libc.a(lib_a-memcpy.o)
 .debug_aranges
                0x00002478       0x20 c:/program files (x86)/microchip/xc32/v2.15/bin/bin/../../lib/gcc/pic32c/6.2.1/../../../../pic32c/lib/v7e-m/fpv5/hard\libc.a(lib_a-memset.o)
 .debug_aranges
                0x00002498       0x20 c:/program files (x86)/microchip/xc32/v2.15/bin/bin/../../lib/gcc/pic32c/6.2.1/../../../../pic32c/lib/v7e-m/fpv5/hard\libc.a(lib_a-mlock.o)
 .debug_aranges
                0x000024b8       0x28 c:/program files (x86)/microchip/xc32/v2.15/bin/bin/../../lib/gcc/pic32c/6.2.1/../../../../pic32c/lib/v7e-m/fpv5/hard\libc.a(lib_a-rand.o)
 .debug_aranges
                0x000024e0       0x20 c:/program files (x86)/microchip/xc32/v2.15/bin/bin/../../lib/gcc/pic32c/6.2.1/../../../../pic32c/lib/v7e-m/fpv5/hard\libc.a(lib_a-sbrkr.o)
 .debug_aranges
                0x00002500       0x28 c:/program files (x86)/microchip/xc32/v2.15/bin/bin/../../lib/gcc/pic32c/6.2.1/../../../../pic32c/lib/v7e-m/fpv5/hard\libc.a(lib_a-snprintf.o)
 .debug_aranges
                0x00002528       0x28 c:/program files (x86)/microchip/xc32/v2.15/bin/bin/../../lib/gcc/pic32c/6.2.1/../../../../pic32c/lib/v7e-m/fpv5/hard\libc.a(lib_a-sprintf.o)
 .debug_aranges
                0x00002550       0x20 c:/program files (x86)/microchip/xc32/v2.15/bin/bin/../../lib/gcc/pic32c/6.2.1/../../../../pic32c/lib/v7e-m/fpv5/hard\libc.a(lib_a-strcmp.o)
 .debug_aranges
                0x00002570       0x20 c:/program files (x86)/microchip/xc32/v2.15/bin/bin/../../lib/gcc/pic32c/6.2.1/../../../../pic32c/lib/v7e-m/fpv5/hard\libc.a(lib_a-strcpy.o)
 .debug_aranges
                0x00002590       0x20 c:/program files (x86)/microchip/xc32/v2.15/bin/bin/../../lib/gcc/pic32c/6.2.1/../../../../pic32c/lib/v7e-m/fpv5/hard\libc.a(lib_a-strlen.o)
 .debug_aranges
                0x000025b0       0x20 c:/program files (x86)/microchip/xc32/v2.15/bin/bin/../../lib/gcc/pic32c/6.2.1/../../../../pic32c/lib/v7e-m/fpv5/hard\libc.a(lib_a-strncat.o)
 .debug_aranges
                0x000025d0       0x20 c:/program files (x86)/microchip/xc32/v2.15/bin/bin/../../lib/gcc/pic32c/6.2.1/../../../../pic32c/lib/v7e-m/fpv5/hard\libc.a(lib_a-strncpy.o)
 .debug_aranges
                0x000025f0       0x30 c:/program files (x86)/microchip/xc32/v2.15/bin/bin/../../lib/gcc/pic32c/6.2.1/../../../../pic32c/lib/v7e-m/fpv5/hard\libc.a(lib_a-strstr.o)
 .debug_aranges
                0x00002620       0x20 c:/program files (x86)/microchip/xc32/v2.15/bin/bin/../../lib/gcc/pic32c/6.2.1/../../../../pic32c/lib/v7e-m/fpv5/hard\libc.a(lib_a-strtok.o)
 .debug_aranges
                0x00002640       0x28 c:/program files (x86)/microchip/xc32/v2.15/bin/bin/../../lib/gcc/pic32c/6.2.1/../../../../pic32c/lib/v7e-m/fpv5/hard\libc.a(lib_a-strtok_r.o)
 .debug_aranges
                0x00002668       0x38 c:/program files (x86)/microchip/xc32/v2.15/bin/bin/../../lib/gcc/pic32c/6.2.1/../../../../pic32c/lib/v7e-m/fpv5/hard\libc.a(lib_a-strtol.o)
 .debug_aranges
                0x000026a0       0x20 c:/program files (x86)/microchip/xc32/v2.15/bin/bin/../../lib/gcc/pic32c/6.2.1/../../../../pic32c/lib/v7e-m/fpv5/hard\libc.a(lib_a-svfprintf.o)
 .debug_aranges
                0x000026c0       0x28 c:/program files (x86)/microchip/xc32/v2.15/bin/bin/../../lib/gcc/pic32c/6.2.1/../../../../pic32c/lib/v7e-m/fpv5/hard\libc.a(lib_a-vsnprintf.o)
 .debug_aranges
                0x000026e8       0x28 c:/program files (x86)/microchip/xc32/v2.15/bin/bin/../../lib/gcc/pic32c/6.2.1/../../../../pic32c/lib/v7e-m/fpv5/hard\libc.a(lib_a-wctomb_r.o)
 .debug_aranges
                0x00002710       0x28 c:/program files (x86)/microchip/xc32/v2.15/bin/bin/../../lib/gcc/pic32c/6.2.1/../../../../pic32c/lib/v7e-m/fpv5/hard\libc.a(lib_a-__call_atexit.o)
 .debug_aranges
                0x00002738       0x20 c:/program files (x86)/microchip/xc32/v2.15/bin/bin/../../lib/gcc/pic32c/6.2.1/../../../../pic32c/lib/v7e-m/fpv5/hard\libc.a(lib_a-atexit.o)
 .debug_aranges
                0x00002758       0x18 c:/program files (x86)/microchip/xc32/v2.15/bin/bin/../../lib/gcc/pic32c/6.2.1/../../../../pic32c/lib/v7e-m/fpv5/hard\libc.a(lib_a-ctype_.o)
 .debug_aranges
                0x00002770       0x28 c:/program files (x86)/microchip/xc32/v2.15/bin/bin/../../lib/gcc/pic32c/6.2.1/../../../../pic32c/lib/v7e-m/fpv5/hard\libc.a(lib_a-dtoa.o)
 .debug_aranges
                0x00002798       0x20 c:/program files (x86)/microchip/xc32/v2.15/bin/bin/../../lib/gcc/pic32c/6.2.1/../../../../pic32c/lib/v7e-m/fpv5/hard\libc.a(lib_a-fini.o)
 .debug_aranges
                0x000027b8       0x28 c:/program files (x86)/microchip/xc32/v2.15/bin/bin/../../lib/gcc/pic32c/6.2.1/../../../../pic32c/lib/v7e-m/fpv5/hard\libc.a(lib_a-freer.o)
 .debug_aranges
                0x000027e0       0x30 c:/program files (x86)/microchip/xc32/v2.15/bin/bin/../../lib/gcc/pic32c/6.2.1/../../../../pic32c/lib/v7e-m/fpv5/hard\libc.a(lib_a-localeconv.o)
 .debug_aranges
                0x00002810       0x20 c:/program files (x86)/microchip/xc32/v2.15/bin/bin/../../lib/gcc/pic32c/6.2.1/../../../../pic32c/lib/v7e-m/fpv5/hard\libc.a(lib_a-memchr.o)
 .debug_aranges
                0x00002830       0xb0 c:/program files (x86)/microchip/xc32/v2.15/bin/bin/../../lib/gcc/pic32c/6.2.1/../../../../pic32c/lib/v7e-m/fpv5/hard\libc.a(lib_a-mprec.o)
 .debug_aranges
                0x000028e0       0x28 c:/program files (x86)/microchip/xc32/v2.15/bin/bin/../../lib/gcc/pic32c/6.2.1/../../../../pic32c/lib/v7e-m/fpv5/hard\libc.a(lib_a-reent.o)
 .debug_aranges
                0x00002908       0x20 c:/program files (x86)/microchip/xc32/v2.15/bin/bin/../../lib/gcc/pic32c/6.2.1/../../../../pic32c/lib/v7e-m/fpv5/hard\libc.a(lib_a-s_frexp.o)
 .debug_aranges
                0x00002928       0x20 c:/program files (x86)/microchip/xc32/v2.15/bin/bin/../../lib/gcc/pic32c/6.2.1/../../../../pic32c/lib/v7e-m/fpv5/hard\libc.a(lib_a-strchr.o)
 .debug_aranges
                0x00002948       0x28 c:/program files (x86)/microchip/xc32/v2.15/bin/bin/../../lib/gcc/pic32c/6.2.1/../../../../pic32c/lib/v7e-m/fpv5/hard\libc.a(lib_a-svfiprintf.o)
 .debug_aranges
                0x00002970       0x20 c:/program files (x86)/microchip/xc32/v2.15/bin/bin/../../lib/gcc/pic32c/6.2.1/../../../../pic32c/lib/v7e-m/fpv5/hard\libc.a(lib_a-__atexit.o)
 .debug_aranges
                0x00002990       0x20 c:/program files (x86)/microchip/xc32/v2.15/bin/bin/../../lib/gcc/pic32c/6.2.1/../../../../pic32c/lib/v7e-m/fpv5/hard\libc.a(lib_a-memmove.o)
 .debug_aranges
                0x000029b0       0x20 c:/program files (x86)/microchip/xc32/v2.15/bin/bin/../../lib/gcc/pic32c/6.2.1/../../../../pic32c/lib/v7e-m/fpv5/hard\libc.a(lib_a-reallocr.o)
 .debug_aranges
                0x000029d0       0x20 c:/program files (x86)/microchip/xc32/v2.15/bin/bin/../../lib/gcc/pic32c/6.2.1/../../../../pic32c/lib/v7e-m/fpv5/hard\libpic32c.a(sbrk.o)

.debug_ranges   0x00000000     0x4150
 .debug_ranges  0x00000000       0x10 build/sam_e70_xult_freertos/production/_ext/683629640/bsp.o
 .debug_ranges  0x00000010      0x2e0 build/sam_e70_xult_freertos/production/_ext/1607428259/drv_ethphy.o
 .debug_ranges  0x000002f0       0x20 build/sam_e70_xult_freertos/production/_ext/1607428259/drv_extphy_smsc8740.o
 .debug_ranges  0x00000310      0x320 build/sam_e70_xult_freertos/production/_ext/1619526243/drv_gmac.o
 .debug_ranges  0x00000630      0x118 build/sam_e70_xult_freertos/production/_ext/1619526243/drv_gmac_lib_samE7x_V7x.o
 .debug_ranges  0x00000748      0x348 build/sam_e70_xult_freertos/production/_ext/511568427/drv_miim.o
 .debug_ranges  0x00000a90       0x38 build/sam_e70_xult_freertos/production/_ext/810785262/helpers.o
 .debug_ranges  0x00000ac8      0x238 build/sam_e70_xult_freertos/production/_ext/810785262/dns.o
 .debug_ranges  0x00000d00       0x40 build/sam_e70_xult_freertos/production/_ext/810785262/icmp.o
 .debug_ranges  0x00000d40      0x700 build/sam_e70_xult_freertos/production/_ext/810785262/tcp.o
 .debug_ranges  0x00001440      0x2f0 build/sam_e70_xult_freertos/production/_ext/810785262/dhcp.o
 .debug_ranges  0x00001730      0x1c0 build/sam_e70_xult_freertos/production/_ext/810785262/arp.o
 .debug_ranges  0x000018f0      0x148 build/sam_e70_xult_freertos/production/_ext/810785262/tcpip_commands.o
 .debug_ranges  0x00001a38      0x230 build/sam_e70_xult_freertos/production/_ext/810785262/ipv4.o
 .debug_ranges  0x00001c68       0x38 build/sam_e70_xult_freertos/production/_ext/810785262/tcpip_heap_alloc.o
 .debug_ranges  0x00001ca0       0x58 build/sam_e70_xult_freertos/production/_ext/810785262/tcpip_heap_internal.o
 .debug_ranges  0x00001cf8       0x18 build/sam_e70_xult_freertos/production/_ext/810785262/hash_fnv.o
 .debug_ranges  0x00001d10       0x40 build/sam_e70_xult_freertos/production/_ext/810785262/oahash.o
 .debug_ranges  0x00001d50      0x258 build/sam_e70_xult_freertos/production/_ext/810785262/tcpip_helpers.o
 .debug_ranges  0x00001fa8      0x6b8 build/sam_e70_xult_freertos/production/_ext/810785262/tcpip_manager.o
 .debug_ranges  0x00002660       0x30 build/sam_e70_xult_freertos/production/_ext/810785262/tcpip_notify.o
 .debug_ranges  0x00002690       0x80 build/sam_e70_xult_freertos/production/_ext/810785262/tcpip_packet.o
 .debug_ranges  0x00002710      0x3f0 build/sam_e70_xult_freertos/production/_ext/810785262/udp.o
 .debug_ranges  0x00002b00       0x10 build/sam_e70_xult_freertos/production/_ext/45647770/plib_clk.o
 .debug_ranges  0x00002b10       0x10 build/sam_e70_xult_freertos/production/_ext/45638026/plib_mpu.o
 .debug_ranges  0x00002b20       0x10 build/sam_e70_xult_freertos/production/_ext/1414743522/plib_nvic.o
 .debug_ranges  0x00002b30       0x50 build/sam_e70_xult_freertos/production/_ext/45635366/plib_pio.o
 .debug_ranges  0x00002b80       0x58 build/sam_e70_xult_freertos/production/_ext/1245453995/plib_tc0.o
 .debug_ranges  0x00002bd8       0x80 build/sam_e70_xult_freertos/production/_ext/901008055/plib_usart1.o
 .debug_ranges  0x00002c58       0x40 build/sam_e70_xult_freertos/production/_ext/762686499/sys_console.o
 .debug_ranges  0x00002c98       0xc8 build/sam_e70_xult_freertos/production/_ext/762686499/sys_console_uart.o
 .debug_ranges  0x00002d60       0x40 build/sam_e70_xult_freertos/production/_ext/762686499/sys_debug.o
 .debug_ranges  0x00002da0      0x1a8 build/sam_e70_xult_freertos/production/_ext/762686499/sys_command.o
 .debug_ranges  0x00002f48       0x30 build/sam_e70_xult_freertos/production/_ext/1775855163/sys_int.o
 .debug_ranges  0x00002f78      0x168 build/sam_e70_xult_freertos/production/_ext/912870411/sys_time.o
 .debug_ranges  0x000030e0       0x18 build/sam_e70_xult_freertos/production/_ext/231871610/sys_time_h2_adapter.o
 .debug_ranges  0x000030f8       0x30 build/sam_e70_xult_freertos/production/_ext/1552905064/tasks.o
 .debug_ranges  0x00003128       0x18 build/sam_e70_xult_freertos/production/_ext/1552905064/initialization.o
 .debug_ranges  0x00003140       0x10 build/sam_e70_xult_freertos/production/_ext/1552905064/interrupts.o
 .debug_ranges  0x00003150       0x38 build/sam_e70_xult_freertos/production/_ext/1552905064/exceptions.o
 .debug_ranges  0x00003188       0x10 build/sam_e70_xult_freertos/production/_ext/1552905064/startup_xc32.o
 .debug_ranges  0x00003198       0x30 build/sam_e70_xult_freertos/production/_ext/1552905064/freertos_hooks.o
 .debug_ranges  0x000031c8       0x68 build/sam_e70_xult_freertos/production/_ext/977623654/port.o
 .debug_ranges  0x00003230       0x18 build/sam_e70_xult_freertos/production/_ext/1665200909/heap_3.o
 .debug_ranges  0x00003248       0x30 build/sam_e70_xult_freertos/production/_ext/404212886/list.o
 .debug_ranges  0x00003278      0x1b8 build/sam_e70_xult_freertos/production/_ext/404212886/queue.o
 .debug_ranges  0x00003430      0x250 build/sam_e70_xult_freertos/production/_ext/404212886/FreeRTOS_tasks.o
 .debug_ranges  0x00003680       0x70 build/sam_e70_xult_freertos/production/_ext/281930714/osal_freertos.o
 .debug_ranges  0x000036f0       0x18 build/sam_e70_xult_freertos/production/_ext/1360937237/app_commands.o
 .debug_ranges  0x00003708       0x68 build/sam_e70_xult_freertos/production/_ext/1360937237/app.o
 .debug_ranges  0x00003770       0x10 build/sam_e70_xult_freertos/production/_ext/1360937237/main.o
 .debug_ranges  0x00003780       0x10 c:/program files (x86)/microchip/xc32/v2.15/bin/bin/../../lib/gcc/pic32c/6.2.1/../../../../pic32c/lib/v7e-m/fpv5/hard\libpic32c.a(data_init.o)
 .debug_ranges  0x00003790       0xd0 c:/program files (x86)/microchip/xc32/v2.15/bin/bin/../../lib/gcc/pic32c/6.2.1/v7e-m/fpv5/hard\libgcc.a(_udivmoddi4.o)
 .debug_ranges  0x00003860       0x18 c:/program files (x86)/microchip/xc32/v2.15/bin/bin/../../lib/gcc/pic32c/6.2.1/../../../../pic32c/lib/v7e-m/fpv5/hard\libc.a(lib_a-atoi.o)
 .debug_ranges  0x00003878       0x10 c:/program files (x86)/microchip/xc32/v2.15/bin/bin/../../lib/gcc/pic32c/6.2.1/../../../../pic32c/lib/v7e-m/fpv5/hard\libc.a(lib_a-calloc.o)
 .debug_ranges  0x00003888       0x50 c:/program files (x86)/microchip/xc32/v2.15/bin/bin/../../lib/gcc/pic32c/6.2.1/../../../../pic32c/lib/v7e-m/fpv5/hard\libc.a(lib_a-callocr.o)
 .debug_ranges  0x000038d8       0x10 c:/program files (x86)/microchip/xc32/v2.15/bin/bin/../../lib/gcc/pic32c/6.2.1/../../../../pic32c/lib/v7e-m/fpv5/hard\libc.a(lib_a-init.o)
 .debug_ranges  0x000038e8       0x50 c:/program files (x86)/microchip/xc32/v2.15/bin/bin/../../lib/gcc/pic32c/6.2.1/../../../../pic32c/lib/v7e-m/fpv5/hard\libc.a(lib_a-locale.o)
 .debug_ranges  0x00003938       0x18 c:/program files (x86)/microchip/xc32/v2.15/bin/bin/../../lib/gcc/pic32c/6.2.1/../../../../pic32c/lib/v7e-m/fpv5/hard\libc.a(lib_a-malloc.o)
 .debug_ranges  0x00003950       0x40 c:/program files (x86)/microchip/xc32/v2.15/bin/bin/../../lib/gcc/pic32c/6.2.1/../../../../pic32c/lib/v7e-m/fpv5/hard\libc.a(lib_a-mallocr.o)
 .debug_ranges  0x00003990       0x18 c:/program files (x86)/microchip/xc32/v2.15/bin/bin/../../lib/gcc/pic32c/6.2.1/../../../../pic32c/lib/v7e-m/fpv5/hard\libc.a(lib_a-mbtowc_r.o)
 .debug_ranges  0x000039a8       0x10 c:/program files (x86)/microchip/xc32/v2.15/bin/bin/../../lib/gcc/pic32c/6.2.1/../../../../pic32c/lib/v7e-m/fpv5/hard\libc.a(lib_a-memcmp.o)
 .debug_ranges  0x000039b8       0x10 c:/program files (x86)/microchip/xc32/v2.15/bin/bin/../../lib/gcc/pic32c/6.2.1/../../../../pic32c/lib/v7e-m/fpv5/hard\libc.a(lib_a-memset.o)
 .debug_ranges  0x000039c8       0x10 c:/program files (x86)/microchip/xc32/v2.15/bin/bin/../../lib/gcc/pic32c/6.2.1/../../../../pic32c/lib/v7e-m/fpv5/hard\libc.a(lib_a-mlock.o)
 .debug_ranges  0x000039d8       0x18 c:/program files (x86)/microchip/xc32/v2.15/bin/bin/../../lib/gcc/pic32c/6.2.1/../../../../pic32c/lib/v7e-m/fpv5/hard\libc.a(lib_a-rand.o)
 .debug_ranges  0x000039f0       0x10 c:/program files (x86)/microchip/xc32/v2.15/bin/bin/../../lib/gcc/pic32c/6.2.1/../../../../pic32c/lib/v7e-m/fpv5/hard\libc.a(lib_a-sbrkr.o)
 .debug_ranges  0x00003a00       0x18 c:/program files (x86)/microchip/xc32/v2.15/bin/bin/../../lib/gcc/pic32c/6.2.1/../../../../pic32c/lib/v7e-m/fpv5/hard\libc.a(lib_a-snprintf.o)
 .debug_ranges  0x00003a18       0x18 c:/program files (x86)/microchip/xc32/v2.15/bin/bin/../../lib/gcc/pic32c/6.2.1/../../../../pic32c/lib/v7e-m/fpv5/hard\libc.a(lib_a-sprintf.o)
 .debug_ranges  0x00003a30       0x10 c:/program files (x86)/microchip/xc32/v2.15/bin/bin/../../lib/gcc/pic32c/6.2.1/../../../../pic32c/lib/v7e-m/fpv5/hard\libc.a(lib_a-strcpy.o)
 .debug_ranges  0x00003a40       0x10 c:/program files (x86)/microchip/xc32/v2.15/bin/bin/../../lib/gcc/pic32c/6.2.1/../../../../pic32c/lib/v7e-m/fpv5/hard\libc.a(lib_a-strncat.o)
 .debug_ranges  0x00003a50       0x10 c:/program files (x86)/microchip/xc32/v2.15/bin/bin/../../lib/gcc/pic32c/6.2.1/../../../../pic32c/lib/v7e-m/fpv5/hard\libc.a(lib_a-strncpy.o)
 .debug_ranges  0x00003a60       0xa8 c:/program files (x86)/microchip/xc32/v2.15/bin/bin/../../lib/gcc/pic32c/6.2.1/../../../../pic32c/lib/v7e-m/fpv5/hard\libc.a(lib_a-strstr.o)
 .debug_ranges  0x00003b08       0x10 c:/program files (x86)/microchip/xc32/v2.15/bin/bin/../../lib/gcc/pic32c/6.2.1/../../../../pic32c/lib/v7e-m/fpv5/hard\libc.a(lib_a-strtok.o)
 .debug_ranges  0x00003b18       0x18 c:/program files (x86)/microchip/xc32/v2.15/bin/bin/../../lib/gcc/pic32c/6.2.1/../../../../pic32c/lib/v7e-m/fpv5/hard\libc.a(lib_a-strtok_r.o)
 .debug_ranges  0x00003b30       0x60 c:/program files (x86)/microchip/xc32/v2.15/bin/bin/../../lib/gcc/pic32c/6.2.1/../../../../pic32c/lib/v7e-m/fpv5/hard\libc.a(lib_a-strtol.o)
 .debug_ranges  0x00003b90      0x1b0 c:/program files (x86)/microchip/xc32/v2.15/bin/bin/../../lib/gcc/pic32c/6.2.1/../../../../pic32c/lib/v7e-m/fpv5/hard\libc.a(lib_a-svfprintf.o)
 .debug_ranges  0x00003d40       0x18 c:/program files (x86)/microchip/xc32/v2.15/bin/bin/../../lib/gcc/pic32c/6.2.1/../../../../pic32c/lib/v7e-m/fpv5/hard\libc.a(lib_a-vsnprintf.o)
 .debug_ranges  0x00003d58       0x18 c:/program files (x86)/microchip/xc32/v2.15/bin/bin/../../lib/gcc/pic32c/6.2.1/../../../../pic32c/lib/v7e-m/fpv5/hard\libc.a(lib_a-wctomb_r.o)
 .debug_ranges  0x00003d70       0x38 c:/program files (x86)/microchip/xc32/v2.15/bin/bin/../../lib/gcc/pic32c/6.2.1/../../../../pic32c/lib/v7e-m/fpv5/hard\libc.a(lib_a-__call_atexit.o)
 .debug_ranges  0x00003da8       0x10 c:/program files (x86)/microchip/xc32/v2.15/bin/bin/../../lib/gcc/pic32c/6.2.1/../../../../pic32c/lib/v7e-m/fpv5/hard\libc.a(lib_a-atexit.o)
 .debug_ranges  0x00003db8       0x18 c:/program files (x86)/microchip/xc32/v2.15/bin/bin/../../lib/gcc/pic32c/6.2.1/../../../../pic32c/lib/v7e-m/fpv5/hard\libc.a(lib_a-dtoa.o)
 .debug_ranges  0x00003dd0       0x10 c:/program files (x86)/microchip/xc32/v2.15/bin/bin/../../lib/gcc/pic32c/6.2.1/../../../../pic32c/lib/v7e-m/fpv5/hard\libc.a(lib_a-fini.o)
 .debug_ranges  0x00003de0       0x18 c:/program files (x86)/microchip/xc32/v2.15/bin/bin/../../lib/gcc/pic32c/6.2.1/../../../../pic32c/lib/v7e-m/fpv5/hard\libc.a(lib_a-freer.o)
 .debug_ranges  0x00003df8       0x20 c:/program files (x86)/microchip/xc32/v2.15/bin/bin/../../lib/gcc/pic32c/6.2.1/../../../../pic32c/lib/v7e-m/fpv5/hard\libc.a(lib_a-localeconv.o)
 .debug_ranges  0x00003e18      0x130 c:/program files (x86)/microchip/xc32/v2.15/bin/bin/../../lib/gcc/pic32c/6.2.1/../../../../pic32c/lib/v7e-m/fpv5/hard\libc.a(lib_a-mprec.o)
 .debug_ranges  0x00003f48       0x18 c:/program files (x86)/microchip/xc32/v2.15/bin/bin/../../lib/gcc/pic32c/6.2.1/../../../../pic32c/lib/v7e-m/fpv5/hard\libc.a(lib_a-reent.o)
 .debug_ranges  0x00003f60       0x48 c:/program files (x86)/microchip/xc32/v2.15/bin/bin/../../lib/gcc/pic32c/6.2.1/../../../../pic32c/lib/v7e-m/fpv5/hard\libc.a(lib_a-s_frexp.o)
 .debug_ranges  0x00003fa8       0x10 c:/program files (x86)/microchip/xc32/v2.15/bin/bin/../../lib/gcc/pic32c/6.2.1/../../../../pic32c/lib/v7e-m/fpv5/hard\libc.a(lib_a-strchr.o)
 .debug_ranges  0x00003fb8       0x50 c:/program files (x86)/microchip/xc32/v2.15/bin/bin/../../lib/gcc/pic32c/6.2.1/../../../../pic32c/lib/v7e-m/fpv5/hard\libc.a(lib_a-svfiprintf.o)
 .debug_ranges  0x00004008       0x10 c:/program files (x86)/microchip/xc32/v2.15/bin/bin/../../lib/gcc/pic32c/6.2.1/../../../../pic32c/lib/v7e-m/fpv5/hard\libc.a(lib_a-__atexit.o)
 .debug_ranges  0x00004018       0x10 c:/program files (x86)/microchip/xc32/v2.15/bin/bin/../../lib/gcc/pic32c/6.2.1/../../../../pic32c/lib/v7e-m/fpv5/hard\libc.a(lib_a-memmove.o)
 .debug_ranges  0x00004028      0x118 c:/program files (x86)/microchip/xc32/v2.15/bin/bin/../../lib/gcc/pic32c/6.2.1/../../../../pic32c/lib/v7e-m/fpv5/hard\libc.a(lib_a-reallocr.o)
 .debug_ranges  0x00004140       0x10 c:/program files (x86)/microchip/xc32/v2.15/bin/bin/../../lib/gcc/pic32c/6.2.1/../../../../pic32c/lib/v7e-m/fpv5/hard\libpic32c.a(sbrk.o)

.debug_line     0x00000000    0x1d274
 .debug_line    0x00000000      0x225 build/sam_e70_xult_freertos/production/_ext/683629640/bsp.o
 .debug_line    0x00000225      0xefb build/sam_e70_xult_freertos/production/_ext/1607428259/drv_ethphy.o
 .debug_line    0x00001120      0x373 build/sam_e70_xult_freertos/production/_ext/1607428259/drv_extphy_smsc8740.o
 .debug_line    0x00001493      0xe4e build/sam_e70_xult_freertos/production/_ext/1619526243/drv_gmac.o
 .debug_line    0x000022e1      0x99a build/sam_e70_xult_freertos/production/_ext/1619526243/drv_gmac_lib_samE7x_V7x.o
 .debug_line    0x00002c7b      0x913 build/sam_e70_xult_freertos/production/_ext/511568427/drv_miim.o
 .debug_line    0x0000358e      0x299 build/sam_e70_xult_freertos/production/_ext/810785262/helpers.o
 .debug_line    0x00003827      0xbb3 build/sam_e70_xult_freertos/production/_ext/810785262/dns.o
 .debug_line    0x000043da      0x4b5 build/sam_e70_xult_freertos/production/_ext/810785262/icmp.o
 .debug_line    0x0000488f     0x1815 build/sam_e70_xult_freertos/production/_ext/810785262/tcp.o
 .debug_line    0x000060a4      0xe53 build/sam_e70_xult_freertos/production/_ext/810785262/dhcp.o
 .debug_line    0x00006ef7      0xb09 build/sam_e70_xult_freertos/production/_ext/810785262/arp.o
 .debug_line    0x00007a00      0xa35 build/sam_e70_xult_freertos/production/_ext/810785262/tcpip_commands.o
 .debug_line    0x00008435      0xa44 build/sam_e70_xult_freertos/production/_ext/810785262/ipv4.o
 .debug_line    0x00008e79      0x413 build/sam_e70_xult_freertos/production/_ext/810785262/tcpip_heap_alloc.o
 .debug_line    0x0000928c      0x5e3 build/sam_e70_xult_freertos/production/_ext/810785262/tcpip_heap_internal.o
 .debug_line    0x0000986f      0x1f5 build/sam_e70_xult_freertos/production/_ext/810785262/hash_fnv.o
 .debug_line    0x00009a64      0x2c0 build/sam_e70_xult_freertos/production/_ext/810785262/oahash.o
 .debug_line    0x00009d24      0xc80 build/sam_e70_xult_freertos/production/_ext/810785262/tcpip_helpers.o
 .debug_line    0x0000a9a4     0x1540 build/sam_e70_xult_freertos/production/_ext/810785262/tcpip_manager.o
 .debug_line    0x0000bee4      0x4ae build/sam_e70_xult_freertos/production/_ext/810785262/tcpip_notify.o
 .debug_line    0x0000c392      0x563 build/sam_e70_xult_freertos/production/_ext/810785262/tcpip_packet.o
 .debug_line    0x0000c8f5      0xfbc build/sam_e70_xult_freertos/production/_ext/810785262/udp.o
 .debug_line    0x0000d8b1      0x190 build/sam_e70_xult_freertos/production/_ext/45647770/plib_clk.o
 .debug_line    0x0000da41      0x16f build/sam_e70_xult_freertos/production/_ext/45638026/plib_mpu.o
 .debug_line    0x0000dbb0      0x1b3 build/sam_e70_xult_freertos/production/_ext/1414743522/plib_nvic.o
 .debug_line    0x0000dd63      0x233 build/sam_e70_xult_freertos/production/_ext/45635366/plib_pio.o
 .debug_line    0x0000df96      0x22e build/sam_e70_xult_freertos/production/_ext/1245453995/plib_tc0.o
 .debug_line    0x0000e1c4      0x32a build/sam_e70_xult_freertos/production/_ext/901008055/plib_usart1.o
 .debug_line    0x0000e4ee      0x357 build/sam_e70_xult_freertos/production/_ext/762686499/sys_console.o
 .debug_line    0x0000e845      0x6a3 build/sam_e70_xult_freertos/production/_ext/762686499/sys_console_uart.o
 .debug_line    0x0000eee8      0x320 build/sam_e70_xult_freertos/production/_ext/762686499/sys_debug.o
 .debug_line    0x0000f208      0x641 build/sam_e70_xult_freertos/production/_ext/762686499/sys_command.o
 .debug_line    0x0000f849      0x258 build/sam_e70_xult_freertos/production/_ext/1775855163/sys_int.o
 .debug_line    0x0000faa1      0x7ec build/sam_e70_xult_freertos/production/_ext/912870411/sys_time.o
 .debug_line    0x0001028d      0x1af build/sam_e70_xult_freertos/production/_ext/231871610/sys_time_h2_adapter.o
 .debug_line    0x0001043c      0x4e2 build/sam_e70_xult_freertos/production/_ext/1552905064/tasks.o
 .debug_line    0x0001091e      0x75a build/sam_e70_xult_freertos/production/_ext/1552905064/initialization.o
 .debug_line    0x00011078      0x3f4 build/sam_e70_xult_freertos/production/_ext/1552905064/interrupts.o
 .debug_line    0x0001146c      0x413 build/sam_e70_xult_freertos/production/_ext/1552905064/exceptions.o
 .debug_line    0x0001187f      0x518 build/sam_e70_xult_freertos/production/_ext/1552905064/startup_xc32.o
 .debug_line    0x00011d97      0x1df build/sam_e70_xult_freertos/production/_ext/1552905064/freertos_hooks.o
 .debug_line    0x00011f76      0x27d build/sam_e70_xult_freertos/production/_ext/977623654/port.o
 .debug_line    0x000121f3      0x1c7 build/sam_e70_xult_freertos/production/_ext/1665200909/heap_3.o
 .debug_line    0x000123ba      0x2b6 build/sam_e70_xult_freertos/production/_ext/404212886/list.o
 .debug_line    0x00012670      0x671 build/sam_e70_xult_freertos/production/_ext/404212886/queue.o
 .debug_line    0x00012ce1      0x91e build/sam_e70_xult_freertos/production/_ext/404212886/FreeRTOS_tasks.o
 .debug_line    0x000135ff      0x305 build/sam_e70_xult_freertos/production/_ext/281930714/osal_freertos.o
 .debug_line    0x00013904      0x419 build/sam_e70_xult_freertos/production/_ext/1360937237/app_commands.o
 .debug_line    0x00013d1d      0x4fb build/sam_e70_xult_freertos/production/_ext/1360937237/app.o
 .debug_line    0x00014218      0x3c6 build/sam_e70_xult_freertos/production/_ext/1360937237/main.o
 .debug_line    0x000145de       0xe7 c:/program files (x86)/microchip/xc32/v2.15/bin/bin/../../lib/gcc/pic32c/6.2.1/../../../../pic32c/lib/v7e-m/fpv5/hard\libpic32c.a(data_init.o)
 .debug_line    0x000146c5       0xaa c:/program files (x86)/microchip/xc32/v2.15/bin/bin/../../lib/gcc/pic32c/6.2.1/v7e-m/fpv5/hard\libgcc.a(_aeabi_uldivmod.o)
 .debug_line    0x0001476f      0x505 c:/program files (x86)/microchip/xc32/v2.15/bin/bin/../../lib/gcc/pic32c/6.2.1/v7e-m/fpv5/hard\libgcc.a(_udivmoddi4.o)
 .debug_line    0x00014c74       0xaa c:/program files (x86)/microchip/xc32/v2.15/bin/bin/../../lib/gcc/pic32c/6.2.1/v7e-m/fpv5/hard\libgcc.a(_dvmd_tls.o)
 .debug_line    0x00014d1e      0x24b c:/program files (x86)/microchip/xc32/v2.15/bin/bin/../../lib/gcc/pic32c/6.2.1/../../../../pic32c/lib/v7e-m/fpv5/hard\libc.a(lib_a-atoi.o)
 .debug_line    0x00014f69      0x23b c:/program files (x86)/microchip/xc32/v2.15/bin/bin/../../lib/gcc/pic32c/6.2.1/../../../../pic32c/lib/v7e-m/fpv5/hard\libc.a(lib_a-calloc.o)
 .debug_line    0x000151a4      0x1e8 c:/program files (x86)/microchip/xc32/v2.15/bin/bin/../../lib/gcc/pic32c/6.2.1/../../../../pic32c/lib/v7e-m/fpv5/hard\libc.a(lib_a-callocr.o)
 .debug_line    0x0001538c      0x1ab c:/program files (x86)/microchip/xc32/v2.15/bin/bin/../../lib/gcc/pic32c/6.2.1/../../../../pic32c/lib/v7e-m/fpv5/hard\libc.a(lib_a-impure.o)
 .debug_line    0x00015537      0x12e c:/program files (x86)/microchip/xc32/v2.15/bin/bin/../../lib/gcc/pic32c/6.2.1/../../../../pic32c/lib/v7e-m/fpv5/hard\libc.a(lib_a-init.o)
 .debug_line    0x00015665      0x377 c:/program files (x86)/microchip/xc32/v2.15/bin/bin/../../lib/gcc/pic32c/6.2.1/../../../../pic32c/lib/v7e-m/fpv5/hard\libc.a(lib_a-locale.o)
 .debug_line    0x000159dc      0x259 c:/program files (x86)/microchip/xc32/v2.15/bin/bin/../../lib/gcc/pic32c/6.2.1/../../../../pic32c/lib/v7e-m/fpv5/hard\libc.a(lib_a-malloc.o)
 .debug_line    0x00015c35      0x3fa c:/program files (x86)/microchip/xc32/v2.15/bin/bin/../../lib/gcc/pic32c/6.2.1/../../../../pic32c/lib/v7e-m/fpv5/hard\libc.a(lib_a-mallocr.o)
 .debug_line    0x0001602f      0x324 c:/program files (x86)/microchip/xc32/v2.15/bin/bin/../../lib/gcc/pic32c/6.2.1/../../../../pic32c/lib/v7e-m/fpv5/hard\libc.a(lib_a-mbtowc_r.o)
 .debug_line    0x00016353      0x258 c:/program files (x86)/microchip/xc32/v2.15/bin/bin/../../lib/gcc/pic32c/6.2.1/../../../../pic32c/lib/v7e-m/fpv5/hard\libc.a(lib_a-memcmp.o)
 .debug_line    0x000165ab      0x102 c:/program files (x86)/microchip/xc32/v2.15/bin/bin/../../lib/gcc/pic32c/6.2.1/../../../../pic32c/lib/v7e-m/fpv5/hard\libc.a(lib_a-memcpy.o)
 .debug_line    0x000166ad      0x323 c:/program files (x86)/microchip/xc32/v2.15/bin/bin/../../lib/gcc/pic32c/6.2.1/../../../../pic32c/lib/v7e-m/fpv5/hard\libc.a(lib_a-memset.o)
 .debug_line    0x000169d0      0x1ba c:/program files (x86)/microchip/xc32/v2.15/bin/bin/../../lib/gcc/pic32c/6.2.1/../../../../pic32c/lib/v7e-m/fpv5/hard\libc.a(lib_a-mlock.o)
 .debug_line    0x00016b8a      0x252 c:/program files (x86)/microchip/xc32/v2.15/bin/bin/../../lib/gcc/pic32c/6.2.1/../../../../pic32c/lib/v7e-m/fpv5/hard\libc.a(lib_a-rand.o)
 .debug_line    0x00016ddc      0x24c c:/program files (x86)/microchip/xc32/v2.15/bin/bin/../../lib/gcc/pic32c/6.2.1/../../../../pic32c/lib/v7e-m/fpv5/hard\libc.a(lib_a-sbrkr.o)
 .debug_line    0x00017028      0x303 c:/program files (x86)/microchip/xc32/v2.15/bin/bin/../../lib/gcc/pic32c/6.2.1/../../../../pic32c/lib/v7e-m/fpv5/hard\libc.a(lib_a-snprintf.o)
 .debug_line    0x0001732b      0x2b9 c:/program files (x86)/microchip/xc32/v2.15/bin/bin/../../lib/gcc/pic32c/6.2.1/../../../../pic32c/lib/v7e-m/fpv5/hard\libc.a(lib_a-sprintf.o)
 .debug_line    0x000175e4      0x17b c:/program files (x86)/microchip/xc32/v2.15/bin/bin/../../lib/gcc/pic32c/6.2.1/../../../../pic32c/lib/v7e-m/fpv5/hard\libc.a(lib_a-strcmp.o)
 .debug_line    0x0001775f      0x240 c:/program files (x86)/microchip/xc32/v2.15/bin/bin/../../lib/gcc/pic32c/6.2.1/../../../../pic32c/lib/v7e-m/fpv5/hard\libc.a(lib_a-strcpy.o)
 .debug_line    0x0001799f       0xf3 c:/program files (x86)/microchip/xc32/v2.15/bin/bin/../../lib/gcc/pic32c/6.2.1/../../../../pic32c/lib/v7e-m/fpv5/hard\libc.a(lib_a-strlen.o)
 .debug_line    0x00017a92      0x24f c:/program files (x86)/microchip/xc32/v2.15/bin/bin/../../lib/gcc/pic32c/6.2.1/../../../../pic32c/lib/v7e-m/fpv5/hard\libc.a(lib_a-strncat.o)
 .debug_line    0x00017ce1      0x259 c:/program files (x86)/microchip/xc32/v2.15/bin/bin/../../lib/gcc/pic32c/6.2.1/../../../../pic32c/lib/v7e-m/fpv5/hard\libc.a(lib_a-strncpy.o)
 .debug_line    0x00017f3a      0x3ea c:/program files (x86)/microchip/xc32/v2.15/bin/bin/../../lib/gcc/pic32c/6.2.1/../../../../pic32c/lib/v7e-m/fpv5/hard\libc.a(lib_a-strstr.o)
 .debug_line    0x00018324      0x23d c:/program files (x86)/microchip/xc32/v2.15/bin/bin/../../lib/gcc/pic32c/6.2.1/../../../../pic32c/lib/v7e-m/fpv5/hard\libc.a(lib_a-strtok.o)
 .debug_line    0x00018561      0x27a c:/program files (x86)/microchip/xc32/v2.15/bin/bin/../../lib/gcc/pic32c/6.2.1/../../../../pic32c/lib/v7e-m/fpv5/hard\libc.a(lib_a-strtok_r.o)
 .debug_line    0x000187db      0x3ac c:/program files (x86)/microchip/xc32/v2.15/bin/bin/../../lib/gcc/pic32c/6.2.1/../../../../pic32c/lib/v7e-m/fpv5/hard\libc.a(lib_a-strtol.o)
 .debug_line    0x00018b87      0xa3f c:/program files (x86)/microchip/xc32/v2.15/bin/bin/../../lib/gcc/pic32c/6.2.1/../../../../pic32c/lib/v7e-m/fpv5/hard\libc.a(lib_a-svfprintf.o)
 .debug_line    0x000195c6      0x2ba c:/program files (x86)/microchip/xc32/v2.15/bin/bin/../../lib/gcc/pic32c/6.2.1/../../../../pic32c/lib/v7e-m/fpv5/hard\libc.a(lib_a-vsnprintf.o)
 .debug_line    0x00019880      0x31f c:/program files (x86)/microchip/xc32/v2.15/bin/bin/../../lib/gcc/pic32c/6.2.1/../../../../pic32c/lib/v7e-m/fpv5/hard\libc.a(lib_a-wctomb_r.o)
 .debug_line    0x00019b9f      0x29c c:/program files (x86)/microchip/xc32/v2.15/bin/bin/../../lib/gcc/pic32c/6.2.1/../../../../pic32c/lib/v7e-m/fpv5/hard\libc.a(lib_a-__call_atexit.o)
 .debug_line    0x00019e3b      0x247 c:/program files (x86)/microchip/xc32/v2.15/bin/bin/../../lib/gcc/pic32c/6.2.1/../../../../pic32c/lib/v7e-m/fpv5/hard\libc.a(lib_a-atexit.o)
 .debug_line    0x0001a082      0x259 c:/program files (x86)/microchip/xc32/v2.15/bin/bin/../../lib/gcc/pic32c/6.2.1/../../../../pic32c/lib/v7e-m/fpv5/hard\libc.a(lib_a-ctype_.o)
 .debug_line    0x0001a2db      0x755 c:/program files (x86)/microchip/xc32/v2.15/bin/bin/../../lib/gcc/pic32c/6.2.1/../../../../pic32c/lib/v7e-m/fpv5/hard\libc.a(lib_a-dtoa.o)
 .debug_line    0x0001aa30      0x125 c:/program files (x86)/microchip/xc32/v2.15/bin/bin/../../lib/gcc/pic32c/6.2.1/../../../../pic32c/lib/v7e-m/fpv5/hard\libc.a(lib_a-fini.o)
 .debug_line    0x0001ab55      0x31b c:/program files (x86)/microchip/xc32/v2.15/bin/bin/../../lib/gcc/pic32c/6.2.1/../../../../pic32c/lib/v7e-m/fpv5/hard\libc.a(lib_a-freer.o)
 .debug_line    0x0001ae70      0x29c c:/program files (x86)/microchip/xc32/v2.15/bin/bin/../../lib/gcc/pic32c/6.2.1/../../../../pic32c/lib/v7e-m/fpv5/hard\libc.a(lib_a-localeconv.o)
 .debug_line    0x0001b10c       0xe8 c:/program files (x86)/microchip/xc32/v2.15/bin/bin/../../lib/gcc/pic32c/6.2.1/../../../../pic32c/lib/v7e-m/fpv5/hard\libc.a(lib_a-memchr.o)
 .debug_line    0x0001b1f4      0x784 c:/program files (x86)/microchip/xc32/v2.15/bin/bin/../../lib/gcc/pic32c/6.2.1/../../../../pic32c/lib/v7e-m/fpv5/hard\libc.a(lib_a-mprec.o)
 .debug_line    0x0001b978      0x275 c:/program files (x86)/microchip/xc32/v2.15/bin/bin/../../lib/gcc/pic32c/6.2.1/../../../../pic32c/lib/v7e-m/fpv5/hard\libc.a(lib_a-reent.o)
 .debug_line    0x0001bbed      0x367 c:/program files (x86)/microchip/xc32/v2.15/bin/bin/../../lib/gcc/pic32c/6.2.1/../../../../pic32c/lib/v7e-m/fpv5/hard\libc.a(lib_a-s_frexp.o)
 .debug_line    0x0001bf54      0x271 c:/program files (x86)/microchip/xc32/v2.15/bin/bin/../../lib/gcc/pic32c/6.2.1/../../../../pic32c/lib/v7e-m/fpv5/hard\libc.a(lib_a-strchr.o)
 .debug_line    0x0001c1c5      0x7a3 c:/program files (x86)/microchip/xc32/v2.15/bin/bin/../../lib/gcc/pic32c/6.2.1/../../../../pic32c/lib/v7e-m/fpv5/hard\libc.a(lib_a-svfiprintf.o)
 .debug_line    0x0001c968      0x27a c:/program files (x86)/microchip/xc32/v2.15/bin/bin/../../lib/gcc/pic32c/6.2.1/../../../../pic32c/lib/v7e-m/fpv5/hard\libc.a(lib_a-__atexit.o)
 .debug_line    0x0001cbe2      0x321 c:/program files (x86)/microchip/xc32/v2.15/bin/bin/../../lib/gcc/pic32c/6.2.1/../../../../pic32c/lib/v7e-m/fpv5/hard\libc.a(lib_a-memmove.o)
 .debug_line    0x0001cf03      0x2c0 c:/program files (x86)/microchip/xc32/v2.15/bin/bin/../../lib/gcc/pic32c/6.2.1/../../../../pic32c/lib/v7e-m/fpv5/hard\libc.a(lib_a-reallocr.o)
 .debug_line    0x0001d1c3       0xb1 c:/program files (x86)/microchip/xc32/v2.15/bin/bin/../../lib/gcc/pic32c/6.2.1/../../../../pic32c/lib/v7e-m/fpv5/hard\libpic32c.a(sbrk.o)

.debug_str      0x00000000     0x5d79
 .debug_str     0x00000000        0xe build/sam_e70_xult_freertos/production/_ext/683629640/bsp.o
 .debug_str     0x0000000e      0x52c build/sam_e70_xult_freertos/production/_ext/1607428259/drv_ethphy.o
 .debug_str     0x0000053a       0x4d build/sam_e70_xult_freertos/production/_ext/1607428259/drv_extphy_smsc8740.o
 .debug_str     0x00000587      0x3af build/sam_e70_xult_freertos/production/_ext/1619526243/drv_gmac.o
 .debug_str     0x00000936      0x13c build/sam_e70_xult_freertos/production/_ext/1619526243/drv_gmac_lib_samE7x_V7x.o
 .debug_str     0x00000a72      0x2a8 build/sam_e70_xult_freertos/production/_ext/511568427/drv_miim.o
 .debug_str     0x00000d1a       0x21 build/sam_e70_xult_freertos/production/_ext/810785262/helpers.o
 .debug_str     0x00000d3b      0x4d1 build/sam_e70_xult_freertos/production/_ext/810785262/dns.o
 .debug_str     0x0000120c      0x14e build/sam_e70_xult_freertos/production/_ext/810785262/icmp.o
 .debug_str     0x0000135a      0x40b build/sam_e70_xult_freertos/production/_ext/810785262/tcp.o
 .debug_str     0x00001765      0x632 build/sam_e70_xult_freertos/production/_ext/810785262/dhcp.o
 .debug_str     0x00001d97      0x4bc build/sam_e70_xult_freertos/production/_ext/810785262/arp.o
 .debug_str     0x00002253      0x771 build/sam_e70_xult_freertos/production/_ext/810785262/tcpip_commands.o
 .debug_str     0x000029c4      0x568 build/sam_e70_xult_freertos/production/_ext/810785262/ipv4.o
 .debug_str     0x00002f2c       0x6d build/sam_e70_xult_freertos/production/_ext/810785262/tcpip_heap_alloc.o
 .debug_str     0x00002f99       0x90 build/sam_e70_xult_freertos/production/_ext/810785262/tcpip_heap_internal.o
 .debug_str     0x00003029        0xe build/sam_e70_xult_freertos/production/_ext/810785262/hash_fnv.o
 .debug_str     0x00003037       0x18 build/sam_e70_xult_freertos/production/_ext/810785262/oahash.o
 .debug_str     0x0000304f      0x11e build/sam_e70_xult_freertos/production/_ext/810785262/tcpip_helpers.o
 .debug_str     0x0000316d      0x51a build/sam_e70_xult_freertos/production/_ext/810785262/tcpip_manager.o
 .debug_str     0x00003687       0xfe build/sam_e70_xult_freertos/production/_ext/810785262/tcpip_notify.o
 .debug_str     0x00003785       0x49 build/sam_e70_xult_freertos/production/_ext/810785262/tcpip_packet.o
 .debug_str     0x000037ce      0x3c9 build/sam_e70_xult_freertos/production/_ext/810785262/udp.o
 .debug_str     0x00003b97        0xa build/sam_e70_xult_freertos/production/_ext/45647770/plib_clk.o
 .debug_str     0x00003ba1        0x0 build/sam_e70_xult_freertos/production/_ext/45638026/plib_mpu.o
 .debug_str     0x00003ba1       0x28 build/sam_e70_xult_freertos/production/_ext/1414743522/plib_nvic.o
 .debug_str     0x00003bc9       0x46 build/sam_e70_xult_freertos/production/_ext/45635366/plib_pio.o
 .debug_str     0x00003c0f        0xa build/sam_e70_xult_freertos/production/_ext/1245453995/plib_tc0.o
 .debug_str     0x00003c19       0x10 build/sam_e70_xult_freertos/production/_ext/901008055/plib_usart1.o
 .debug_str     0x00003c29       0x27 build/sam_e70_xult_freertos/production/_ext/762686499/sys_console.o
 .debug_str     0x00003c50      0x113 build/sam_e70_xult_freertos/production/_ext/762686499/sys_console_uart.o
 .debug_str     0x00003d63       0x2a build/sam_e70_xult_freertos/production/_ext/762686499/sys_debug.o
 .debug_str     0x00003d8d       0xc3 build/sam_e70_xult_freertos/production/_ext/762686499/sys_command.o
 .debug_str     0x00003e50       0x10 build/sam_e70_xult_freertos/production/_ext/1775855163/sys_int.o
 .debug_str     0x00003e60      0x16e build/sam_e70_xult_freertos/production/_ext/912870411/sys_time.o
 .debug_str     0x00003fce       0x25 build/sam_e70_xult_freertos/production/_ext/231871610/sys_time_h2_adapter.o
 .debug_str     0x00003ff3       0x9c build/sam_e70_xult_freertos/production/_ext/1552905064/tasks.o
 .debug_str     0x0000408f      0x19e build/sam_e70_xult_freertos/production/_ext/1552905064/initialization.o
 .debug_str     0x0000422d       0x2c build/sam_e70_xult_freertos/production/_ext/1552905064/interrupts.o
 .debug_str     0x00004259       0x2c build/sam_e70_xult_freertos/production/_ext/1552905064/exceptions.o
 .debug_str     0x00004285       0xa6 build/sam_e70_xult_freertos/production/_ext/1552905064/startup_xc32.o
 .debug_str     0x0000432b       0x25 build/sam_e70_xult_freertos/production/_ext/1552905064/freertos_hooks.o
 .debug_str     0x00004350       0x26 build/sam_e70_xult_freertos/production/_ext/977623654/port.o
 .debug_str     0x00004376       0x4a build/sam_e70_xult_freertos/production/_ext/1665200909/heap_3.o
 .debug_str     0x000043c0       0x39 build/sam_e70_xult_freertos/production/_ext/404212886/list.o
 .debug_str     0x000043f9      0x283 build/sam_e70_xult_freertos/production/_ext/404212886/queue.o
 .debug_str     0x0000467c      0x288 build/sam_e70_xult_freertos/production/_ext/404212886/FreeRTOS_tasks.o
 .debug_str     0x00004904      0x124 build/sam_e70_xult_freertos/production/_ext/281930714/osal_freertos.o
 .debug_str     0x00004a28       0x82 build/sam_e70_xult_freertos/production/_ext/1360937237/app_commands.o
 .debug_str     0x00004aaa      0x1fc build/sam_e70_xult_freertos/production/_ext/1360937237/app.o
 .debug_str     0x00004ca6       0x45 build/sam_e70_xult_freertos/production/_ext/1360937237/main.o
 .debug_str     0x00004ceb        0x0 c:/program files (x86)/microchip/xc32/v2.15/bin/bin/../../lib/gcc/pic32c/6.2.1/../../../../pic32c/lib/v7e-m/fpv5/hard\libpic32c.a(data_init.o)
 .debug_str     0x00004ceb        0xe c:/program files (x86)/microchip/xc32/v2.15/bin/bin/../../lib/gcc/pic32c/6.2.1/v7e-m/fpv5/hard\libgcc.a(_udivmoddi4.o)
 .debug_str     0x00004cf9       0x18 c:/program files (x86)/microchip/xc32/v2.15/bin/bin/../../lib/gcc/pic32c/6.2.1/../../../../pic32c/lib/v7e-m/fpv5/hard\libc.a(lib_a-atoi.o)
 .debug_str     0x00004d11       0x18 c:/program files (x86)/microchip/xc32/v2.15/bin/bin/../../lib/gcc/pic32c/6.2.1/../../../../pic32c/lib/v7e-m/fpv5/hard\libc.a(lib_a-calloc.o)
 .debug_str     0x00004d29       0x18 c:/program files (x86)/microchip/xc32/v2.15/bin/bin/../../lib/gcc/pic32c/6.2.1/../../../../pic32c/lib/v7e-m/fpv5/hard\libc.a(lib_a-callocr.o)
 .debug_str     0x00004d41        0xe c:/program files (x86)/microchip/xc32/v2.15/bin/bin/../../lib/gcc/pic32c/6.2.1/../../../../pic32c/lib/v7e-m/fpv5/hard\libc.a(lib_a-impure.o)
 .debug_str     0x00004d4f        0x0 c:/program files (x86)/microchip/xc32/v2.15/bin/bin/../../lib/gcc/pic32c/6.2.1/../../../../pic32c/lib/v7e-m/fpv5/hard\libc.a(lib_a-init.o)
 .debug_str     0x00004d4f      0x139 c:/program files (x86)/microchip/xc32/v2.15/bin/bin/../../lib/gcc/pic32c/6.2.1/../../../../pic32c/lib/v7e-m/fpv5/hard\libc.a(lib_a-locale.o)
 .debug_str     0x00004e88       0x18 c:/program files (x86)/microchip/xc32/v2.15/bin/bin/../../lib/gcc/pic32c/6.2.1/../../../../pic32c/lib/v7e-m/fpv5/hard\libc.a(lib_a-malloc.o)
 .debug_str     0x00004ea0       0x36 c:/program files (x86)/microchip/xc32/v2.15/bin/bin/../../lib/gcc/pic32c/6.2.1/../../../../pic32c/lib/v7e-m/fpv5/hard\libc.a(lib_a-mallocr.o)
 .debug_str     0x00004ed6      0x119 c:/program files (x86)/microchip/xc32/v2.15/bin/bin/../../lib/gcc/pic32c/6.2.1/../../../../pic32c/lib/v7e-m/fpv5/hard\libc.a(lib_a-mbtowc_r.o)
 .debug_str     0x00004fef        0xe c:/program files (x86)/microchip/xc32/v2.15/bin/bin/../../lib/gcc/pic32c/6.2.1/../../../../pic32c/lib/v7e-m/fpv5/hard\libc.a(lib_a-memcmp.o)
 .debug_str     0x00004ffd      0x119 c:/program files (x86)/microchip/xc32/v2.15/bin/bin/../../lib/gcc/pic32c/6.2.1/../../../../pic32c/lib/v7e-m/fpv5/hard\libc.a(lib_a-memset.o)
 .debug_str     0x00005116        0xe c:/program files (x86)/microchip/xc32/v2.15/bin/bin/../../lib/gcc/pic32c/6.2.1/../../../../pic32c/lib/v7e-m/fpv5/hard\libc.a(lib_a-mlock.o)
 .debug_str     0x00005124        0xe c:/program files (x86)/microchip/xc32/v2.15/bin/bin/../../lib/gcc/pic32c/6.2.1/../../../../pic32c/lib/v7e-m/fpv5/hard\libc.a(lib_a-rand.o)
 .debug_str     0x00005132        0xe c:/program files (x86)/microchip/xc32/v2.15/bin/bin/../../lib/gcc/pic32c/6.2.1/../../../../pic32c/lib/v7e-m/fpv5/hard\libc.a(lib_a-sbrkr.o)
 .debug_str     0x00005140       0x1b c:/program files (x86)/microchip/xc32/v2.15/bin/bin/../../lib/gcc/pic32c/6.2.1/../../../../pic32c/lib/v7e-m/fpv5/hard\libc.a(lib_a-snprintf.o)
 .debug_str     0x0000515b       0x1b c:/program files (x86)/microchip/xc32/v2.15/bin/bin/../../lib/gcc/pic32c/6.2.1/../../../../pic32c/lib/v7e-m/fpv5/hard\libc.a(lib_a-sprintf.o)
 .debug_str     0x00005176        0xe c:/program files (x86)/microchip/xc32/v2.15/bin/bin/../../lib/gcc/pic32c/6.2.1/../../../../pic32c/lib/v7e-m/fpv5/hard\libc.a(lib_a-strcpy.o)
 .debug_str     0x00005184        0xe c:/program files (x86)/microchip/xc32/v2.15/bin/bin/../../lib/gcc/pic32c/6.2.1/../../../../pic32c/lib/v7e-m/fpv5/hard\libc.a(lib_a-strncat.o)
 .debug_str     0x00005192        0xe c:/program files (x86)/microchip/xc32/v2.15/bin/bin/../../lib/gcc/pic32c/6.2.1/../../../../pic32c/lib/v7e-m/fpv5/hard\libc.a(lib_a-strncpy.o)
 .debug_str     0x000051a0       0x3d c:/program files (x86)/microchip/xc32/v2.15/bin/bin/../../lib/gcc/pic32c/6.2.1/../../../../pic32c/lib/v7e-m/fpv5/hard\libc.a(lib_a-strstr.o)
 .debug_str     0x000051dd       0x19 c:/program files (x86)/microchip/xc32/v2.15/bin/bin/../../lib/gcc/pic32c/6.2.1/../../../../pic32c/lib/v7e-m/fpv5/hard\libc.a(lib_a-strtok.o)
 .debug_str     0x000051f6        0xe c:/program files (x86)/microchip/xc32/v2.15/bin/bin/../../lib/gcc/pic32c/6.2.1/../../../../pic32c/lib/v7e-m/fpv5/hard\libc.a(lib_a-strtok_r.o)
 .debug_str     0x00005204      0x12e c:/program files (x86)/microchip/xc32/v2.15/bin/bin/../../lib/gcc/pic32c/6.2.1/../../../../pic32c/lib/v7e-m/fpv5/hard\libc.a(lib_a-strtol.o)
 .debug_str     0x00005332      0x13d c:/program files (x86)/microchip/xc32/v2.15/bin/bin/../../lib/gcc/pic32c/6.2.1/../../../../pic32c/lib/v7e-m/fpv5/hard\libc.a(lib_a-svfprintf.o)
 .debug_str     0x0000546f       0x1b c:/program files (x86)/microchip/xc32/v2.15/bin/bin/../../lib/gcc/pic32c/6.2.1/../../../../pic32c/lib/v7e-m/fpv5/hard\libc.a(lib_a-vsnprintf.o)
 .debug_str     0x0000548a      0x119 c:/program files (x86)/microchip/xc32/v2.15/bin/bin/../../lib/gcc/pic32c/6.2.1/../../../../pic32c/lib/v7e-m/fpv5/hard\libc.a(lib_a-wctomb_r.o)
 .debug_str     0x000055a3        0xe c:/program files (x86)/microchip/xc32/v2.15/bin/bin/../../lib/gcc/pic32c/6.2.1/../../../../pic32c/lib/v7e-m/fpv5/hard\libc.a(lib_a-__call_atexit.o)
 .debug_str     0x000055b1       0x22 c:/program files (x86)/microchip/xc32/v2.15/bin/bin/../../lib/gcc/pic32c/6.2.1/../../../../pic32c/lib/v7e-m/fpv5/hard\libc.a(lib_a-atexit.o)
 .debug_str     0x000055d3      0x119 c:/program files (x86)/microchip/xc32/v2.15/bin/bin/../../lib/gcc/pic32c/6.2.1/../../../../pic32c/lib/v7e-m/fpv5/hard\libc.a(lib_a-ctype_.o)
 .debug_str     0x000056ec      0x14c c:/program files (x86)/microchip/xc32/v2.15/bin/bin/../../lib/gcc/pic32c/6.2.1/../../../../pic32c/lib/v7e-m/fpv5/hard\libc.a(lib_a-dtoa.o)
 .debug_str     0x00005838        0x0 c:/program files (x86)/microchip/xc32/v2.15/bin/bin/../../lib/gcc/pic32c/6.2.1/../../../../pic32c/lib/v7e-m/fpv5/hard\libc.a(lib_a-fini.o)
 .debug_str     0x00005838       0x36 c:/program files (x86)/microchip/xc32/v2.15/bin/bin/../../lib/gcc/pic32c/6.2.1/../../../../pic32c/lib/v7e-m/fpv5/hard\libc.a(lib_a-freer.o)
 .debug_str     0x0000586e      0x119 c:/program files (x86)/microchip/xc32/v2.15/bin/bin/../../lib/gcc/pic32c/6.2.1/../../../../pic32c/lib/v7e-m/fpv5/hard\libc.a(lib_a-localeconv.o)
 .debug_str     0x00005987      0x123 c:/program files (x86)/microchip/xc32/v2.15/bin/bin/../../lib/gcc/pic32c/6.2.1/../../../../pic32c/lib/v7e-m/fpv5/hard\libc.a(lib_a-mprec.o)
 .debug_str     0x00005aaa        0xe c:/program files (x86)/microchip/xc32/v2.15/bin/bin/../../lib/gcc/pic32c/6.2.1/../../../../pic32c/lib/v7e-m/fpv5/hard\libc.a(lib_a-reent.o)
 .debug_str     0x00005ab8        0xe c:/program files (x86)/microchip/xc32/v2.15/bin/bin/../../lib/gcc/pic32c/6.2.1/../../../../pic32c/lib/v7e-m/fpv5/hard\libc.a(lib_a-s_frexp.o)
 .debug_str     0x00005ac6        0xe c:/program files (x86)/microchip/xc32/v2.15/bin/bin/../../lib/gcc/pic32c/6.2.1/../../../../pic32c/lib/v7e-m/fpv5/hard\libc.a(lib_a-strchr.o)
 .debug_str     0x00005ad4      0x13c c:/program files (x86)/microchip/xc32/v2.15/bin/bin/../../lib/gcc/pic32c/6.2.1/../../../../pic32c/lib/v7e-m/fpv5/hard\libc.a(lib_a-svfiprintf.o)
 .debug_str     0x00005c10        0xe c:/program files (x86)/microchip/xc32/v2.15/bin/bin/../../lib/gcc/pic32c/6.2.1/../../../../pic32c/lib/v7e-m/fpv5/hard\libc.a(lib_a-__atexit.o)
 .debug_str     0x00005c1e      0x119 c:/program files (x86)/microchip/xc32/v2.15/bin/bin/../../lib/gcc/pic32c/6.2.1/../../../../pic32c/lib/v7e-m/fpv5/hard\libc.a(lib_a-memmove.o)
 .debug_str     0x00005d37       0x42 c:/program files (x86)/microchip/xc32/v2.15/bin/bin/../../lib/gcc/pic32c/6.2.1/../../../../pic32c/lib/v7e-m/fpv5/hard\libc.a(lib_a-reallocr.o)
 .debug_str     0x00005d79        0x0 c:/program files (x86)/microchip/xc32/v2.15/bin/bin/../../lib/gcc/pic32c/6.2.1/../../../../pic32c/lib/v7e-m/fpv5/hard\libpic32c.a(sbrk.o)

.debug_frame    0x00000000     0x75b4
 .debug_frame   0x00000000       0x20 build/sam_e70_xult_freertos/production/_ext/683629640/bsp.o
 .debug_frame   0x00000020      0x728 build/sam_e70_xult_freertos/production/_ext/1607428259/drv_ethphy.o
 .debug_frame   0x00000748       0x70 build/sam_e70_xult_freertos/production/_ext/1607428259/drv_extphy_smsc8740.o
 .debug_frame   0x000007b8      0x670 build/sam_e70_xult_freertos/production/_ext/1619526243/drv_gmac.o
 .debug_frame   0x00000e28      0x230 build/sam_e70_xult_freertos/production/_ext/1619526243/drv_gmac_lib_samE7x_V7x.o
 .debug_frame   0x00001058      0x2c8 build/sam_e70_xult_freertos/production/_ext/511568427/drv_miim.o
 .debug_frame   0x00001320       0xd8 build/sam_e70_xult_freertos/production/_ext/810785262/helpers.o
 .debug_frame   0x000013f8      0x490 build/sam_e70_xult_freertos/production/_ext/810785262/dns.o
 .debug_frame   0x00001888       0x84 build/sam_e70_xult_freertos/production/_ext/810785262/icmp.o
 .debug_frame   0x0000190c      0x76c build/sam_e70_xult_freertos/production/_ext/810785262/tcp.o
 .debug_frame   0x00002078      0x52c build/sam_e70_xult_freertos/production/_ext/810785262/dhcp.o
 .debug_frame   0x000025a4      0x4dc build/sam_e70_xult_freertos/production/_ext/810785262/arp.o
 .debug_frame   0x00002a80      0x304 build/sam_e70_xult_freertos/production/_ext/810785262/tcpip_commands.o
 .debug_frame   0x00002d84      0x2ac build/sam_e70_xult_freertos/production/_ext/810785262/ipv4.o
 .debug_frame   0x00003030       0x9c build/sam_e70_xult_freertos/production/_ext/810785262/tcpip_heap_alloc.o
 .debug_frame   0x000030cc      0x138 build/sam_e70_xult_freertos/production/_ext/810785262/tcpip_heap_internal.o
 .debug_frame   0x00003204       0x30 build/sam_e70_xult_freertos/production/_ext/810785262/hash_fnv.o
 .debug_frame   0x00003234       0xc0 build/sam_e70_xult_freertos/production/_ext/810785262/oahash.o
 .debug_frame   0x000032f4      0x6dc build/sam_e70_xult_freertos/production/_ext/810785262/tcpip_helpers.o
 .debug_frame   0x000039d0      0xaa8 build/sam_e70_xult_freertos/production/_ext/810785262/tcpip_manager.o
 .debug_frame   0x00004478       0x94 build/sam_e70_xult_freertos/production/_ext/810785262/tcpip_notify.o
 .debug_frame   0x0000450c      0x150 build/sam_e70_xult_freertos/production/_ext/810785262/tcpip_packet.o
 .debug_frame   0x0000465c      0x678 build/sam_e70_xult_freertos/production/_ext/810785262/udp.o
 .debug_frame   0x00004cd4       0x20 build/sam_e70_xult_freertos/production/_ext/45647770/plib_clk.o
 .debug_frame   0x00004cf4       0x20 build/sam_e70_xult_freertos/production/_ext/45638026/plib_mpu.o
 .debug_frame   0x00004d14       0x20 build/sam_e70_xult_freertos/production/_ext/1414743522/plib_nvic.o
 .debug_frame   0x00004d34       0xa0 build/sam_e70_xult_freertos/production/_ext/45635366/plib_pio.o
 .debug_frame   0x00004dd4       0xb8 build/sam_e70_xult_freertos/production/_ext/1245453995/plib_tc0.o
 .debug_frame   0x00004e8c      0x114 build/sam_e70_xult_freertos/production/_ext/901008055/plib_usart1.o
 .debug_frame   0x00004fa0       0xcc build/sam_e70_xult_freertos/production/_ext/762686499/sys_console.o
 .debug_frame   0x0000506c      0x174 build/sam_e70_xult_freertos/production/_ext/762686499/sys_console_uart.o
 .debug_frame   0x000051e0       0xb4 build/sam_e70_xult_freertos/production/_ext/762686499/sys_debug.o
 .debug_frame   0x00005294      0x2e0 build/sam_e70_xult_freertos/production/_ext/762686499/sys_command.o
 .debug_frame   0x00005574       0x6c build/sam_e70_xult_freertos/production/_ext/1775855163/sys_int.o
 .debug_frame   0x000055e0      0x3bc build/sam_e70_xult_freertos/production/_ext/912870411/sys_time.o
 .debug_frame   0x0000599c       0x40 build/sam_e70_xult_freertos/production/_ext/231871610/sys_time_h2_adapter.o
 .debug_frame   0x000059dc       0x94 build/sam_e70_xult_freertos/production/_ext/1552905064/tasks.o
 .debug_frame   0x00005a70       0x44 build/sam_e70_xult_freertos/production/_ext/1552905064/initialization.o
 .debug_frame   0x00005ab4       0x20 build/sam_e70_xult_freertos/production/_ext/1552905064/interrupts.o
 .debug_frame   0x00005ad4       0x70 build/sam_e70_xult_freertos/production/_ext/1552905064/exceptions.o
 .debug_frame   0x00005b44       0x30 build/sam_e70_xult_freertos/production/_ext/1552905064/startup_xc32.o
 .debug_frame   0x00005b74       0x6c build/sam_e70_xult_freertos/production/_ext/1552905064/freertos_hooks.o
 .debug_frame   0x00005be0       0xe8 build/sam_e70_xult_freertos/production/_ext/977623654/port.o
 .debug_frame   0x00005cc8       0x44 build/sam_e70_xult_freertos/production/_ext/1665200909/heap_3.o
 .debug_frame   0x00005d0c       0x6c build/sam_e70_xult_freertos/production/_ext/404212886/list.o
 .debug_frame   0x00005d78      0x280 build/sam_e70_xult_freertos/production/_ext/404212886/queue.o
 .debug_frame   0x00005ff8      0x488 build/sam_e70_xult_freertos/production/_ext/404212886/FreeRTOS_tasks.o
 .debug_frame   0x00006480      0x150 build/sam_e70_xult_freertos/production/_ext/281930714/osal_freertos.o
 .debug_frame   0x000065d0       0x44 build/sam_e70_xult_freertos/production/_ext/1360937237/app_commands.o
 .debug_frame   0x00006614       0x7c build/sam_e70_xult_freertos/production/_ext/1360937237/app.o
 .debug_frame   0x00006690       0x28 build/sam_e70_xult_freertos/production/_ext/1360937237/main.o
 .debug_frame   0x000066b8       0x2c c:/program files (x86)/microchip/xc32/v2.15/bin/bin/../../lib/gcc/pic32c/6.2.1/../../../../pic32c/lib/v7e-m/fpv5/hard\libpic32c.a(data_init.o)
 .debug_frame   0x000066e4       0x2c c:/program files (x86)/microchip/xc32/v2.15/bin/bin/../../lib/gcc/pic32c/6.2.1/v7e-m/fpv5/hard\libgcc.a(_aeabi_uldivmod.o)
 .debug_frame   0x00006710       0x34 c:/program files (x86)/microchip/xc32/v2.15/bin/bin/../../lib/gcc/pic32c/6.2.1/v7e-m/fpv5/hard\libgcc.a(_udivmoddi4.o)
 .debug_frame   0x00006744       0x30 c:/program files (x86)/microchip/xc32/v2.15/bin/bin/../../lib/gcc/pic32c/6.2.1/../../../../pic32c/lib/v7e-m/fpv5/hard\libc.a(lib_a-atoi.o)
 .debug_frame   0x00006774       0x20 c:/program files (x86)/microchip/xc32/v2.15/bin/bin/../../lib/gcc/pic32c/6.2.1/../../../../pic32c/lib/v7e-m/fpv5/hard\libc.a(lib_a-calloc.o)
 .debug_frame   0x00006794       0x28 c:/program files (x86)/microchip/xc32/v2.15/bin/bin/../../lib/gcc/pic32c/6.2.1/../../../../pic32c/lib/v7e-m/fpv5/hard\libc.a(lib_a-callocr.o)
 .debug_frame   0x000067bc       0x2c c:/program files (x86)/microchip/xc32/v2.15/bin/bin/../../lib/gcc/pic32c/6.2.1/../../../../pic32c/lib/v7e-m/fpv5/hard\libc.a(lib_a-init.o)
 .debug_frame   0x000067e8       0x6c c:/program files (x86)/microchip/xc32/v2.15/bin/bin/../../lib/gcc/pic32c/6.2.1/../../../../pic32c/lib/v7e-m/fpv5/hard\libc.a(lib_a-locale.o)
 .debug_frame   0x00006854       0x30 c:/program files (x86)/microchip/xc32/v2.15/bin/bin/../../lib/gcc/pic32c/6.2.1/../../../../pic32c/lib/v7e-m/fpv5/hard\libc.a(lib_a-malloc.o)
 .debug_frame   0x00006884       0x58 c:/program files (x86)/microchip/xc32/v2.15/bin/bin/../../lib/gcc/pic32c/6.2.1/../../../../pic32c/lib/v7e-m/fpv5/hard\libc.a(lib_a-mallocr.o)
 .debug_frame   0x000068dc       0x4c c:/program files (x86)/microchip/xc32/v2.15/bin/bin/../../lib/gcc/pic32c/6.2.1/../../../../pic32c/lib/v7e-m/fpv5/hard\libc.a(lib_a-mbtowc_r.o)
 .debug_frame   0x00006928       0x3c c:/program files (x86)/microchip/xc32/v2.15/bin/bin/../../lib/gcc/pic32c/6.2.1/../../../../pic32c/lib/v7e-m/fpv5/hard\libc.a(lib_a-memcmp.o)
 .debug_frame   0x00006964       0x34 c:/program files (x86)/microchip/xc32/v2.15/bin/bin/../../lib/gcc/pic32c/6.2.1/../../../../pic32c/lib/v7e-m/fpv5/hard\libc.a(lib_a-memset.o)
 .debug_frame   0x00006998       0x30 c:/program files (x86)/microchip/xc32/v2.15/bin/bin/../../lib/gcc/pic32c/6.2.1/../../../../pic32c/lib/v7e-m/fpv5/hard\libc.a(lib_a-mlock.o)
 .debug_frame   0x000069c8       0x3c c:/program files (x86)/microchip/xc32/v2.15/bin/bin/../../lib/gcc/pic32c/6.2.1/../../../../pic32c/lib/v7e-m/fpv5/hard\libc.a(lib_a-rand.o)
 .debug_frame   0x00006a04       0x2c c:/program files (x86)/microchip/xc32/v2.15/bin/bin/../../lib/gcc/pic32c/6.2.1/../../../../pic32c/lib/v7e-m/fpv5/hard\libc.a(lib_a-sbrkr.o)
 .debug_frame   0x00006a30       0xd0 c:/program files (x86)/microchip/xc32/v2.15/bin/bin/../../lib/gcc/pic32c/6.2.1/../../../../pic32c/lib/v7e-m/fpv5/hard\libc.a(lib_a-snprintf.o)
 .debug_frame   0x00006b00       0x84 c:/program files (x86)/microchip/xc32/v2.15/bin/bin/../../lib/gcc/pic32c/6.2.1/../../../../pic32c/lib/v7e-m/fpv5/hard\libc.a(lib_a-sprintf.o)
 .debug_frame   0x00006b84       0x68 c:/program files (x86)/microchip/xc32/v2.15/bin/bin/../../lib/gcc/pic32c/6.2.1/../../../../pic32c/lib/v7e-m/fpv5/hard\libc.a(lib_a-strcmp.o)
 .debug_frame   0x00006bec       0x20 c:/program files (x86)/microchip/xc32/v2.15/bin/bin/../../lib/gcc/pic32c/6.2.1/../../../../pic32c/lib/v7e-m/fpv5/hard\libc.a(lib_a-strcpy.o)
 .debug_frame   0x00006c0c       0x30 c:/program files (x86)/microchip/xc32/v2.15/bin/bin/../../lib/gcc/pic32c/6.2.1/../../../../pic32c/lib/v7e-m/fpv5/hard\libc.a(lib_a-strncat.o)
 .debug_frame   0x00006c3c       0x34 c:/program files (x86)/microchip/xc32/v2.15/bin/bin/../../lib/gcc/pic32c/6.2.1/../../../../pic32c/lib/v7e-m/fpv5/hard\libc.a(lib_a-strncpy.o)
 .debug_frame   0x00006c70       0xd8 c:/program files (x86)/microchip/xc32/v2.15/bin/bin/../../lib/gcc/pic32c/6.2.1/../../../../pic32c/lib/v7e-m/fpv5/hard\libc.a(lib_a-strstr.o)
 .debug_frame   0x00006d48       0x20 c:/program files (x86)/microchip/xc32/v2.15/bin/bin/../../lib/gcc/pic32c/6.2.1/../../../../pic32c/lib/v7e-m/fpv5/hard\libc.a(lib_a-strtok.o)
 .debug_frame   0x00006d68       0x48 c:/program files (x86)/microchip/xc32/v2.15/bin/bin/../../lib/gcc/pic32c/6.2.1/../../../../pic32c/lib/v7e-m/fpv5/hard\libc.a(lib_a-strtok_r.o)
 .debug_frame   0x00006db0       0x98 c:/program files (x86)/microchip/xc32/v2.15/bin/bin/../../lib/gcc/pic32c/6.2.1/../../../../pic32c/lib/v7e-m/fpv5/hard\libc.a(lib_a-strtol.o)
 .debug_frame   0x00006e48       0x68 c:/program files (x86)/microchip/xc32/v2.15/bin/bin/../../lib/gcc/pic32c/6.2.1/../../../../pic32c/lib/v7e-m/fpv5/hard\libc.a(lib_a-svfprintf.o)
 .debug_frame   0x00006eb0       0x60 c:/program files (x86)/microchip/xc32/v2.15/bin/bin/../../lib/gcc/pic32c/6.2.1/../../../../pic32c/lib/v7e-m/fpv5/hard\libc.a(lib_a-vsnprintf.o)
 .debug_frame   0x00006f10       0x3c c:/program files (x86)/microchip/xc32/v2.15/bin/bin/../../lib/gcc/pic32c/6.2.1/../../../../pic32c/lib/v7e-m/fpv5/hard\libc.a(lib_a-wctomb_r.o)
 .debug_frame   0x00006f4c       0x50 c:/program files (x86)/microchip/xc32/v2.15/bin/bin/../../lib/gcc/pic32c/6.2.1/../../../../pic32c/lib/v7e-m/fpv5/hard\libc.a(lib_a-__call_atexit.o)
 .debug_frame   0x00006f9c       0x20 c:/program files (x86)/microchip/xc32/v2.15/bin/bin/../../lib/gcc/pic32c/6.2.1/../../../../pic32c/lib/v7e-m/fpv5/hard\libc.a(lib_a-atexit.o)
 .debug_frame   0x00006fbc       0x84 c:/program files (x86)/microchip/xc32/v2.15/bin/bin/../../lib/gcc/pic32c/6.2.1/../../../../pic32c/lib/v7e-m/fpv5/hard\libc.a(lib_a-dtoa.o)
 .debug_frame   0x00007040       0x34 c:/program files (x86)/microchip/xc32/v2.15/bin/bin/../../lib/gcc/pic32c/6.2.1/../../../../pic32c/lib/v7e-m/fpv5/hard\libc.a(lib_a-fini.o)
 .debug_frame   0x00007074       0x74 c:/program files (x86)/microchip/xc32/v2.15/bin/bin/../../lib/gcc/pic32c/6.2.1/../../../../pic32c/lib/v7e-m/fpv5/hard\libc.a(lib_a-freer.o)
 .debug_frame   0x000070e8       0x40 c:/program files (x86)/microchip/xc32/v2.15/bin/bin/../../lib/gcc/pic32c/6.2.1/../../../../pic32c/lib/v7e-m/fpv5/hard\libc.a(lib_a-localeconv.o)
 .debug_frame   0x00007128      0x248 c:/program files (x86)/microchip/xc32/v2.15/bin/bin/../../lib/gcc/pic32c/6.2.1/../../../../pic32c/lib/v7e-m/fpv5/hard\libc.a(lib_a-mprec.o)
 .debug_frame   0x00007370       0x58 c:/program files (x86)/microchip/xc32/v2.15/bin/bin/../../lib/gcc/pic32c/6.2.1/../../../../pic32c/lib/v7e-m/fpv5/hard\libc.a(lib_a-reent.o)
 .debug_frame   0x000073c8       0x38 c:/program files (x86)/microchip/xc32/v2.15/bin/bin/../../lib/gcc/pic32c/6.2.1/../../../../pic32c/lib/v7e-m/fpv5/hard\libc.a(lib_a-s_frexp.o)
 .debug_frame   0x00007400       0x50 c:/program files (x86)/microchip/xc32/v2.15/bin/bin/../../lib/gcc/pic32c/6.2.1/../../../../pic32c/lib/v7e-m/fpv5/hard\libc.a(lib_a-strchr.o)
 .debug_frame   0x00007450       0x78 c:/program files (x86)/microchip/xc32/v2.15/bin/bin/../../lib/gcc/pic32c/6.2.1/../../../../pic32c/lib/v7e-m/fpv5/hard\libc.a(lib_a-svfiprintf.o)
 .debug_frame   0x000074c8       0x34 c:/program files (x86)/microchip/xc32/v2.15/bin/bin/../../lib/gcc/pic32c/6.2.1/../../../../pic32c/lib/v7e-m/fpv5/hard\libc.a(lib_a-__atexit.o)
 .debug_frame   0x000074fc       0x30 c:/program files (x86)/microchip/xc32/v2.15/bin/bin/../../lib/gcc/pic32c/6.2.1/../../../../pic32c/lib/v7e-m/fpv5/hard\libc.a(lib_a-memmove.o)
 .debug_frame   0x0000752c       0x68 c:/program files (x86)/microchip/xc32/v2.15/bin/bin/../../lib/gcc/pic32c/6.2.1/../../../../pic32c/lib/v7e-m/fpv5/hard\libc.a(lib_a-reallocr.o)
 .debug_frame   0x00007594       0x20 c:/program files (x86)/microchip/xc32/v2.15/bin/bin/../../lib/gcc/pic32c/6.2.1/../../../../pic32c/lib/v7e-m/fpv5/hard\libpic32c.a(sbrk.o)

.debug_loc      0x00000000    0x43bd0
 .debug_loc     0x00000000     0x38cb build/sam_e70_xult_freertos/production/_ext/1607428259/drv_ethphy.o
 .debug_loc     0x000038cb      0x29b build/sam_e70_xult_freertos/production/_ext/1607428259/drv_extphy_smsc8740.o
 .debug_loc     0x00003b66     0x1e66 build/sam_e70_xult_freertos/production/_ext/1619526243/drv_gmac.o
 .debug_loc     0x000059cc     0x1a8f build/sam_e70_xult_freertos/production/_ext/1619526243/drv_gmac_lib_samE7x_V7x.o
 .debug_loc     0x0000745b     0x2421 build/sam_e70_xult_freertos/production/_ext/511568427/drv_miim.o
 .debug_loc     0x0000987c      0x4be build/sam_e70_xult_freertos/production/_ext/810785262/helpers.o
 .debug_loc     0x00009d3a     0x2cf8 build/sam_e70_xult_freertos/production/_ext/810785262/dns.o
 .debug_loc     0x0000ca32      0x37c build/sam_e70_xult_freertos/production/_ext/810785262/icmp.o
 .debug_loc     0x0000cdae     0x65a2 build/sam_e70_xult_freertos/production/_ext/810785262/tcp.o
 .debug_loc     0x00013350     0x2d25 build/sam_e70_xult_freertos/production/_ext/810785262/dhcp.o
 .debug_loc     0x00016075     0x2a93 build/sam_e70_xult_freertos/production/_ext/810785262/arp.o
 .debug_loc     0x00018b08     0x217c build/sam_e70_xult_freertos/production/_ext/810785262/tcpip_commands.o
 .debug_loc     0x0001ac84     0x209e build/sam_e70_xult_freertos/production/_ext/810785262/ipv4.o
 .debug_loc     0x0001cd22      0x1fe build/sam_e70_xult_freertos/production/_ext/810785262/tcpip_heap_alloc.o
 .debug_loc     0x0001cf20      0xad5 build/sam_e70_xult_freertos/production/_ext/810785262/tcpip_heap_internal.o
 .debug_loc     0x0001d9f5      0x278 build/sam_e70_xult_freertos/production/_ext/810785262/hash_fnv.o
 .debug_loc     0x0001dc6d      0x3ce build/sam_e70_xult_freertos/production/_ext/810785262/oahash.o
 .debug_loc     0x0001e03b     0x2c37 build/sam_e70_xult_freertos/production/_ext/810785262/tcpip_helpers.o
 .debug_loc     0x00020c72     0x5513 build/sam_e70_xult_freertos/production/_ext/810785262/tcpip_manager.o
 .debug_loc     0x00026185      0x2dc build/sam_e70_xult_freertos/production/_ext/810785262/tcpip_notify.o
 .debug_loc     0x00026461      0xa29 build/sam_e70_xult_freertos/production/_ext/810785262/tcpip_packet.o
 .debug_loc     0x00026e8a     0x3eb3 build/sam_e70_xult_freertos/production/_ext/810785262/udp.o
 .debug_loc     0x0002ad3d      0x11c build/sam_e70_xult_freertos/production/_ext/1414743522/plib_nvic.o
 .debug_loc     0x0002ae59       0x84 build/sam_e70_xult_freertos/production/_ext/45635366/plib_pio.o
 .debug_loc     0x0002aedd       0x42 build/sam_e70_xult_freertos/production/_ext/1245453995/plib_tc0.o
 .debug_loc     0x0002af1f      0x4ea build/sam_e70_xult_freertos/production/_ext/901008055/plib_usart1.o
 .debug_loc     0x0002b409      0x676 build/sam_e70_xult_freertos/production/_ext/762686499/sys_console.o
 .debug_loc     0x0002ba7f      0xb14 build/sam_e70_xult_freertos/production/_ext/762686499/sys_console_uart.o
 .debug_loc     0x0002c593      0x142 build/sam_e70_xult_freertos/production/_ext/762686499/sys_debug.o
 .debug_loc     0x0002c6d5     0x1257 build/sam_e70_xult_freertos/production/_ext/762686499/sys_command.o
 .debug_loc     0x0002d92c       0xe9 build/sam_e70_xult_freertos/production/_ext/1775855163/sys_int.o
 .debug_loc     0x0002da15     0x1e63 build/sam_e70_xult_freertos/production/_ext/912870411/sys_time.o
 .debug_loc     0x0002f878       0xde build/sam_e70_xult_freertos/production/_ext/231871610/sys_time_h2_adapter.o
 .debug_loc     0x0002f956      0x13c build/sam_e70_xult_freertos/production/_ext/1552905064/tasks.o
 .debug_loc     0x0002fa92       0x79 build/sam_e70_xult_freertos/production/_ext/1552905064/initialization.o
 .debug_loc     0x0002fb0b       0x6d build/sam_e70_xult_freertos/production/_ext/1552905064/startup_xc32.o
 .debug_loc     0x0002fb78       0x7a build/sam_e70_xult_freertos/production/_ext/1552905064/freertos_hooks.o
 .debug_loc     0x0002fbf2      0x122 build/sam_e70_xult_freertos/production/_ext/977623654/port.o
 .debug_loc     0x0002fd14       0xbf build/sam_e70_xult_freertos/production/_ext/1665200909/heap_3.o
 .debug_loc     0x0002fdd3       0x9c build/sam_e70_xult_freertos/production/_ext/404212886/list.o
 .debug_loc     0x0002fe6f     0x12d2 build/sam_e70_xult_freertos/production/_ext/404212886/queue.o
 .debug_loc     0x00031141     0x1c07 build/sam_e70_xult_freertos/production/_ext/404212886/FreeRTOS_tasks.o
 .debug_loc     0x00032d48      0x5b4 build/sam_e70_xult_freertos/production/_ext/281930714/osal_freertos.o
 .debug_loc     0x000332fc      0x143 build/sam_e70_xult_freertos/production/_ext/1360937237/app_commands.o
 .debug_loc     0x0003343f      0x400 build/sam_e70_xult_freertos/production/_ext/1360937237/app.o
 .debug_loc     0x0003383f       0x20 build/sam_e70_xult_freertos/production/_ext/1360937237/main.o
 .debug_loc     0x0003385f      0xda6 c:/program files (x86)/microchip/xc32/v2.15/bin/bin/../../lib/gcc/pic32c/6.2.1/v7e-m/fpv5/hard\libgcc.a(_udivmoddi4.o)
 .debug_loc     0x00034605       0x63 c:/program files (x86)/microchip/xc32/v2.15/bin/bin/../../lib/gcc/pic32c/6.2.1/../../../../pic32c/lib/v7e-m/fpv5/hard\libc.a(lib_a-atoi.o)
 .debug_loc     0x00034668       0x58 c:/program files (x86)/microchip/xc32/v2.15/bin/bin/../../lib/gcc/pic32c/6.2.1/../../../../pic32c/lib/v7e-m/fpv5/hard\libc.a(lib_a-calloc.o)
 .debug_loc     0x000346c0      0x2b1 c:/program files (x86)/microchip/xc32/v2.15/bin/bin/../../lib/gcc/pic32c/6.2.1/../../../../pic32c/lib/v7e-m/fpv5/hard\libc.a(lib_a-callocr.o)
 .debug_loc     0x00034971       0xce c:/program files (x86)/microchip/xc32/v2.15/bin/bin/../../lib/gcc/pic32c/6.2.1/../../../../pic32c/lib/v7e-m/fpv5/hard\libc.a(lib_a-init.o)
 .debug_loc     0x00034a3f      0x173 c:/program files (x86)/microchip/xc32/v2.15/bin/bin/../../lib/gcc/pic32c/6.2.1/../../../../pic32c/lib/v7e-m/fpv5/hard\libc.a(lib_a-locale.o)
 .debug_loc     0x00034bb2       0x58 c:/program files (x86)/microchip/xc32/v2.15/bin/bin/../../lib/gcc/pic32c/6.2.1/../../../../pic32c/lib/v7e-m/fpv5/hard\libc.a(lib_a-malloc.o)
 .debug_loc     0x00034c0a      0xc66 c:/program files (x86)/microchip/xc32/v2.15/bin/bin/../../lib/gcc/pic32c/6.2.1/../../../../pic32c/lib/v7e-m/fpv5/hard\libc.a(lib_a-mallocr.o)
 .debug_loc     0x00035870      0x259 c:/program files (x86)/microchip/xc32/v2.15/bin/bin/../../lib/gcc/pic32c/6.2.1/../../../../pic32c/lib/v7e-m/fpv5/hard\libc.a(lib_a-mbtowc_r.o)
 .debug_loc     0x00035ac9      0x1da c:/program files (x86)/microchip/xc32/v2.15/bin/bin/../../lib/gcc/pic32c/6.2.1/../../../../pic32c/lib/v7e-m/fpv5/hard\libc.a(lib_a-memcmp.o)
 .debug_loc     0x00035ca3      0x1f5 c:/program files (x86)/microchip/xc32/v2.15/bin/bin/../../lib/gcc/pic32c/6.2.1/../../../../pic32c/lib/v7e-m/fpv5/hard\libc.a(lib_a-memset.o)
 .debug_loc     0x00035e98       0x4b c:/program files (x86)/microchip/xc32/v2.15/bin/bin/../../lib/gcc/pic32c/6.2.1/../../../../pic32c/lib/v7e-m/fpv5/hard\libc.a(lib_a-rand.o)
 .debug_loc     0x00035ee3       0x6d c:/program files (x86)/microchip/xc32/v2.15/bin/bin/../../lib/gcc/pic32c/6.2.1/../../../../pic32c/lib/v7e-m/fpv5/hard\libc.a(lib_a-sbrkr.o)
 .debug_loc     0x00035f50      0x45c c:/program files (x86)/microchip/xc32/v2.15/bin/bin/../../lib/gcc/pic32c/6.2.1/../../../../pic32c/lib/v7e-m/fpv5/hard\libc.a(lib_a-snprintf.o)
 .debug_loc     0x000363ac      0x134 c:/program files (x86)/microchip/xc32/v2.15/bin/bin/../../lib/gcc/pic32c/6.2.1/../../../../pic32c/lib/v7e-m/fpv5/hard\libc.a(lib_a-sprintf.o)
 .debug_loc     0x000364e0       0x21 c:/program files (x86)/microchip/xc32/v2.15/bin/bin/../../lib/gcc/pic32c/6.2.1/../../../../pic32c/lib/v7e-m/fpv5/hard\libc.a(lib_a-strcpy.o)
 .debug_loc     0x00036501      0x12a c:/program files (x86)/microchip/xc32/v2.15/bin/bin/../../lib/gcc/pic32c/6.2.1/../../../../pic32c/lib/v7e-m/fpv5/hard\libc.a(lib_a-strncat.o)
 .debug_loc     0x0003662b      0x175 c:/program files (x86)/microchip/xc32/v2.15/bin/bin/../../lib/gcc/pic32c/6.2.1/../../../../pic32c/lib/v7e-m/fpv5/hard\libc.a(lib_a-strncpy.o)
 .debug_loc     0x000367a0      0xc77 c:/program files (x86)/microchip/xc32/v2.15/bin/bin/../../lib/gcc/pic32c/6.2.1/../../../../pic32c/lib/v7e-m/fpv5/hard\libc.a(lib_a-strstr.o)
 .debug_loc     0x00037417       0x61 c:/program files (x86)/microchip/xc32/v2.15/bin/bin/../../lib/gcc/pic32c/6.2.1/../../../../pic32c/lib/v7e-m/fpv5/hard\libc.a(lib_a-strtok.o)
 .debug_loc     0x00037478      0x241 c:/program files (x86)/microchip/xc32/v2.15/bin/bin/../../lib/gcc/pic32c/6.2.1/../../../../pic32c/lib/v7e-m/fpv5/hard\libc.a(lib_a-strtok_r.o)
 .debug_loc     0x000376b9      0x58d c:/program files (x86)/microchip/xc32/v2.15/bin/bin/../../lib/gcc/pic32c/6.2.1/../../../../pic32c/lib/v7e-m/fpv5/hard\libc.a(lib_a-strtol.o)
 .debug_loc     0x00037c46     0x36ff c:/program files (x86)/microchip/xc32/v2.15/bin/bin/../../lib/gcc/pic32c/6.2.1/../../../../pic32c/lib/v7e-m/fpv5/hard\libc.a(lib_a-svfprintf.o)
 .debug_loc     0x0003b345      0x2cf c:/program files (x86)/microchip/xc32/v2.15/bin/bin/../../lib/gcc/pic32c/6.2.1/../../../../pic32c/lib/v7e-m/fpv5/hard\libc.a(lib_a-vsnprintf.o)
 .debug_loc     0x0003b614      0x124 c:/program files (x86)/microchip/xc32/v2.15/bin/bin/../../lib/gcc/pic32c/6.2.1/../../../../pic32c/lib/v7e-m/fpv5/hard\libc.a(lib_a-wctomb_r.o)
 .debug_loc     0x0003b738      0x1dd c:/program files (x86)/microchip/xc32/v2.15/bin/bin/../../lib/gcc/pic32c/6.2.1/../../../../pic32c/lib/v7e-m/fpv5/hard\libc.a(lib_a-__call_atexit.o)
 .debug_loc     0x0003b915       0x2c c:/program files (x86)/microchip/xc32/v2.15/bin/bin/../../lib/gcc/pic32c/6.2.1/../../../../pic32c/lib/v7e-m/fpv5/hard\libc.a(lib_a-atexit.o)
 .debug_loc     0x0003b941     0x2aab c:/program files (x86)/microchip/xc32/v2.15/bin/bin/../../lib/gcc/pic32c/6.2.1/../../../../pic32c/lib/v7e-m/fpv5/hard\libc.a(lib_a-dtoa.o)
 .debug_loc     0x0003e3ec       0x88 c:/program files (x86)/microchip/xc32/v2.15/bin/bin/../../lib/gcc/pic32c/6.2.1/../../../../pic32c/lib/v7e-m/fpv5/hard\libc.a(lib_a-fini.o)
 .debug_loc     0x0003e474      0x5dd c:/program files (x86)/microchip/xc32/v2.15/bin/bin/../../lib/gcc/pic32c/6.2.1/../../../../pic32c/lib/v7e-m/fpv5/hard\libc.a(lib_a-freer.o)
 .debug_loc     0x0003ea51       0x63 c:/program files (x86)/microchip/xc32/v2.15/bin/bin/../../lib/gcc/pic32c/6.2.1/../../../../pic32c/lib/v7e-m/fpv5/hard\libc.a(lib_a-localeconv.o)
 .debug_loc     0x0003eab4     0x2030 c:/program files (x86)/microchip/xc32/v2.15/bin/bin/../../lib/gcc/pic32c/6.2.1/../../../../pic32c/lib/v7e-m/fpv5/hard\libc.a(lib_a-mprec.o)
 .debug_loc     0x00040ae4      0x175 c:/program files (x86)/microchip/xc32/v2.15/bin/bin/../../lib/gcc/pic32c/6.2.1/../../../../pic32c/lib/v7e-m/fpv5/hard\libc.a(lib_a-reent.o)
 .debug_loc     0x00040c59      0x119 c:/program files (x86)/microchip/xc32/v2.15/bin/bin/../../lib/gcc/pic32c/6.2.1/../../../../pic32c/lib/v7e-m/fpv5/hard\libc.a(lib_a-s_frexp.o)
 .debug_loc     0x00040d72      0x2ad c:/program files (x86)/microchip/xc32/v2.15/bin/bin/../../lib/gcc/pic32c/6.2.1/../../../../pic32c/lib/v7e-m/fpv5/hard\libc.a(lib_a-strchr.o)
 .debug_loc     0x0004101f     0x184d c:/program files (x86)/microchip/xc32/v2.15/bin/bin/../../lib/gcc/pic32c/6.2.1/../../../../pic32c/lib/v7e-m/fpv5/hard\libc.a(lib_a-svfiprintf.o)
 .debug_loc     0x0004286c      0x1b7 c:/program files (x86)/microchip/xc32/v2.15/bin/bin/../../lib/gcc/pic32c/6.2.1/../../../../pic32c/lib/v7e-m/fpv5/hard\libc.a(lib_a-__atexit.o)
 .debug_loc     0x00042a23      0x289 c:/program files (x86)/microchip/xc32/v2.15/bin/bin/../../lib/gcc/pic32c/6.2.1/../../../../pic32c/lib/v7e-m/fpv5/hard\libc.a(lib_a-memmove.o)
 .debug_loc     0x00042cac      0xf24 c:/program files (x86)/microchip/xc32/v2.15/bin/bin/../../lib/gcc/pic32c/6.2.1/../../../../pic32c/lib/v7e-m/fpv5/hard\libc.a(lib_a-reallocr.o)

.stack          0x204196b0      0x100
 .stack         0x204196b0      0x100 stack

.bss.gmac_dcpt_array%1
                0x2045f000       0xf0
 .bss.gmac_dcpt_array
                0x2045f000       0xf0 build/sam_e70_xult_freertos/production/_ext/1619526243/drv_gmac_lib_samE7x_V7x.o
                0x2045f000                gmac_dcpt_array

.bss.printBuff%2
                0x2045f0f0      0xa00
 .bss.printBuff
                0x2045f0f0      0xa00 build/sam_e70_xult_freertos/production/_ext/762686499/sys_command.o

.data.impure_data%3
                0x2045faf0      0x428
 .data.impure_data
                0x2045faf0      0x428 c:/program files (x86)/microchip/xc32/v2.15/bin/bin/../../lib/gcc/pic32c/6.2.1/../../../../pic32c/lib/v7e-m/fpv5/hard\libc.a(lib_a-impure.o)

.data.__malloc_av_%4
                0x204005f0      0x408
 .data.__malloc_av_
                0x204005f0      0x408 c:/program files (x86)/microchip/xc32/v2.15/bin/bin/../../lib/gcc/pic32c/6.2.1/../../../../pic32c/lib/v7e-m/fpv5/hard\libc.a(lib_a-mallocr.o)
                0x204005f0                __malloc_av_

.data._gmac_drv_dcpt%5
                0x204009f8      0x304
 .data._gmac_drv_dcpt
                0x204009f8      0x304 build/sam_e70_xult_freertos/production/_ext/1619526243/drv_gmac.o

.bss.TCPIP_STACK_MODULE_SIGNAL_TBL%6
                0x20400cfc      0x250
 .bss.TCPIP_STACK_MODULE_SIGNAL_TBL
                0x20400cfc      0x250 build/sam_e70_xult_freertos/production/_ext/810785262/tcpip_manager.o

.bss.sysConsole0UARTWrQueueElements%7
                0x20400f4c      0x208
 .bss.sysConsole0UARTWrQueueElements
                0x20400f4c      0x208 build/sam_e70_xult_freertos/production/_ext/1552905064/initialization.o

.data.__global_locale%8
                0x20401154      0x16c
 .data.__global_locale
                0x20401154      0x16c c:/program files (x86)/microchip/xc32/v2.15/bin/bin/../../lib/gcc/pic32c/6.2.1/../../../../pic32c/lib/v7e-m/fpv5/hard\libc.a(lib_a-locale.o)
                0x20401154                __global_locale

.bss.printBuffer%9
                0x2045ff18       0xc8
 .bss.printBuffer
                0x2045ff18       0xc8 build/sam_e70_xult_freertos/production/_ext/762686499/sys_debug.o

.bss.tmpBuf%10  0x204012c0       0xc8
 .bss.tmpBuf    0x204012c0       0xc8 build/sam_e70_xult_freertos/production/_ext/762686499/sys_debug.o

.bss.timers%11  0x20401388       0xa0
 .bss.timers    0x20401388       0xa0 build/sam_e70_xult_freertos/production/_ext/912870411/sys_time.o

.bss.gDrvMIIMObj%12
                0x20401428       0x94
 .bss.gDrvMIIMObj
                0x20401428       0x94 build/sam_e70_xult_freertos/production/_ext/511568427/drv_miim.o

.bss.TCPIP_MODULES_QUEUE_TBL%13
                0x204014bc       0x90
 .bss.TCPIP_MODULES_QUEUE_TBL
                0x204014bc       0x90 build/sam_e70_xult_freertos/production/_ext/810785262/tcpip_manager.o

.bss.saveCmd.7379%14
                0x2040154c       0x81
 .bss.saveCmd.7379
                0x2040154c       0x81 build/sam_e70_xult_freertos/production/_ext/762686499/sys_command.o

.bss._usrCmdTbl%15
                0x204015d0       0x80
 .bss._usrCmdTbl
                0x204015d0       0x80 build/sam_e70_xult_freertos/production/_ext/762686499/sys_command.o

.bss.readBuff%16
                0x20401650       0x80
 .bss.readBuff  0x20401650       0x80 build/sam_e70_xult_freertos/production/_ext/762686499/sys_command.o

.bss.gDrvETHPHYObj%17
                0x204016d0       0x64
 .bss.gDrvETHPHYObj
                0x204016d0       0x64 build/sam_e70_xult_freertos/production/_ext/1607428259/drv_ethphy.o

.bss.gConsoleUartData%18
                0x20401734       0x64
 .bss.gConsoleUartData
                0x20401734       0x64 build/sam_e70_xult_freertos/production/_ext/762686499/sys_console_uart.o

.bss.pxReadyTasksLists%19
                0x20401798       0x64
 .bss.pxReadyTasksLists
                0x20401798       0x64 build/sam_e70_xult_freertos/production/_ext/404212886/FreeRTOS_tasks.o

.bss.sysConsole0UARTRdQueueElements%20
                0x204017fc       0x58
 .bss.sysConsole0UARTRdQueueElements
                0x204017fc       0x58 build/sam_e70_xult_freertos/production/_ext/1552905064/initialization.o

.bss.arpMod%21  0x20401854       0x48
 .bss.arpMod    0x20401854       0x48 build/sam_e70_xult_freertos/production/_ext/810785262/arp.o

.bss.gSystemCounterObj%22
                0x2040189c       0x38
 .bss.gSystemCounterObj
                0x2040189c       0x38 build/sam_e70_xult_freertos/production/_ext/912870411/sys_time.o

.bss.gDnsDcpt%23
                0x204018d4       0x28
 .bss.gDnsDcpt  0x204018d4       0x28 build/sam_e70_xult_freertos/production/_ext/810785262/dns.o

.bss.__malloc_current_mallinfo%24
                0x204018fc       0x28
 .bss.__malloc_current_mallinfo
                0x204018fc       0x28 c:/program files (x86)/microchip/xc32/v2.15/bin/bin/../../lib/gcc/pic32c/6.2.1/../../../../pic32c/lib/v7e-m/fpv5/hard\libc.a(lib_a-mallocr.o)
                0x204018fc                __malloc_current_mallinfo

.bss.tcpip_stack_ctrl_data%25
                0x2045ffe0       0x20
 .bss.tcpip_stack_ctrl_data
                0x2045ffe0       0x20 build/sam_e70_xult_freertos/production/_ext/810785262/tcpip_manager.o

.bss.dnslookupTargetHost%26
                0x20401924       0x1f
 .bss.dnslookupTargetHost
                0x20401924       0x1f build/sam_e70_xult_freertos/production/_ext/810785262/tcpip_commands.o

.bss%27         0x20401944       0x1c
 .bss           0x20401944       0x1c c:/program files (x86)/microchip/xc32/v2.15/bin/bin/../../lib/gcc/pic32c/6.2.1/v7e-m/fpv5/hard/crtbegin.o

.bss._cmdAppData%28
                0x20401960       0x18
 .bss._cmdAppData
                0x20401960       0x18 build/sam_e70_xult_freertos/production/_ext/762686499/sys_command.o

.bss.dhcpRegisteredUsers%29
                0x20401978       0x14
 .bss.dhcpRegisteredUsers
                0x20401978       0x14 build/sam_e70_xult_freertos/production/_ext/810785262/dhcp.o

.bss.cmdTcpipInitData%30
                0x2040198c       0x14
 .bss.cmdTcpipInitData
                0x2040198c       0x14 build/sam_e70_xult_freertos/production/_ext/810785262/tcpip_commands.o

.bss.ipv4ArpQueue%31
                0x204019a0       0x14
 .bss.ipv4ArpQueue
                0x204019a0       0x14 build/sam_e70_xult_freertos/production/_ext/810785262/ipv4.o

.bss.ipv4PacketFilters%32
                0x204019b4       0x14
 .bss.ipv4PacketFilters
                0x204019b4       0x14 build/sam_e70_xult_freertos/production/_ext/810785262/ipv4.o

.bss.tcpip_init_data%33
                0x204019c8       0x14
 .bss.tcpip_init_data
                0x204019c8       0x14 build/sam_e70_xult_freertos/production/_ext/810785262/tcpip_manager.o

.data.tcpipHeapConfig%34
                0x204019dc       0x14
 .data.tcpipHeapConfig
                0x204019dc       0x14 build/sam_e70_xult_freertos/production/_ext/1552905064/initialization.o
                0x204019dc                tcpipHeapConfig

.bss.xDelayedTaskList1%35
                0x204019f0       0x14
 .bss.xDelayedTaskList1
                0x204019f0       0x14 build/sam_e70_xult_freertos/production/_ext/404212886/FreeRTOS_tasks.o

.bss.xDelayedTaskList2%36
                0x20401a04       0x14
 .bss.xDelayedTaskList2
                0x20401a04       0x14 build/sam_e70_xult_freertos/production/_ext/404212886/FreeRTOS_tasks.o

.bss.xPendingReadyList%37
                0x20401a18       0x14
 .bss.xPendingReadyList
                0x20401a18       0x14 build/sam_e70_xult_freertos/production/_ext/404212886/FreeRTOS_tasks.o

.bss.xSuspendedTaskList%38
                0x20401a2c       0x14
 .bss.xSuspendedTaskList
                0x20401a2c       0x14 build/sam_e70_xult_freertos/production/_ext/404212886/FreeRTOS_tasks.o

.bss.xTasksWaitingTermination%39
                0x20401a40       0x14
 .bss.xTasksWaitingTermination
                0x20401a40       0x14 build/sam_e70_xult_freertos/production/_ext/404212886/FreeRTOS_tasks.o

.bss.tcpip_heap_config%40
                0x20401a54       0x10
 .bss.tcpip_heap_config
                0x20401a54       0x10 build/sam_e70_xult_freertos/production/_ext/810785262/tcpip_manager.o

.bss.consoleDeviceInstance%41
                0x20401a64        0xc
 .bss.consoleDeviceInstance
                0x20401a64        0xc build/sam_e70_xult_freertos/production/_ext/762686499/sys_console.o

.bss.cmdIODevList%42
                0x20401a70        0xc
 .bss.cmdIODevList
                0x20401a70        0xc build/sam_e70_xult_freertos/production/_ext/762686499/sys_command.o

.bss._cmdList%43
                0x20401a7c        0x8
 .bss._cmdList  0x20401a7c        0x8 build/sam_e70_xult_freertos/production/_ext/762686499/sys_command.o

.data.dwLastIP.13363%44
                0x20401a84        0x8
 .data.dwLastIP.13363
                0x20401a84        0x8 build/sam_e70_xult_freertos/production/_ext/1360937237/app.o

.data.arpBcastAdd%45
                0x20401a8c        0x6
 .data.arpBcastAdd
                0x20401a8c        0x6 build/sam_e70_xult_freertos/production/_ext/810785262/arp.o

.bss._hEventMac%46
                0x20401a94        0x4
 .bss._hEventMac
                0x20401a94        0x4 build/sam_e70_xult_freertos/production/_ext/1619526243/drv_gmac.o

.bss._MIIMStayAssertLoop%47
                0x20401a98        0x4
 .bss._MIIMStayAssertLoop
                0x20401a98        0x4 build/sam_e70_xult_freertos/production/_ext/511568427/drv_miim.o
                0x20401a98                _MIIMStayAssertLoop

.bss._DNSStayAssertLoop%48
                0x20401a9c        0x4
 .bss._DNSStayAssertLoop
                0x20401a9c        0x4 build/sam_e70_xult_freertos/production/_ext/810785262/dns.o
                0x20401a9c                _DNSStayAssertLoop

.bss._DNSStayCondLoop%49
                0x20401aa0        0x4
 .bss._DNSStayCondLoop
                0x20401aa0        0x4 build/sam_e70_xult_freertos/production/_ext/810785262/dns.o
                0x20401aa0                _DNSStayCondLoop

.bss.dnsInitCount%50
                0x20401aa4        0x4
 .bss.dnsInitCount
                0x20401aa4        0x4 build/sam_e70_xult_freertos/production/_ext/810785262/dns.o

.bss.pgDnsDcpt%51
                0x20401aa8        0x4
 .bss.pgDnsDcpt
                0x20401aa8        0x4 build/sam_e70_xult_freertos/production/_ext/810785262/dns.o

.bss.icmpInitCount%52
                0x20401aac        0x4
 .bss.icmpInitCount
                0x20401aac        0x4 build/sam_e70_xult_freertos/production/_ext/810785262/icmp.o

.bss.signalHandle%53
                0x20401ab0        0x4
 .bss.signalHandle
                0x20401ab0        0x4 build/sam_e70_xult_freertos/production/_ext/810785262/icmp.o

.bss.TCBStubs%54
                0x20401ab4        0x4
 .bss.TCBStubs  0x20401ab4        0x4 build/sam_e70_xult_freertos/production/_ext/810785262/tcp.o

.bss.TcpSockets%55
                0x20401ab8        0x4
 .bss.TcpSockets
                0x20401ab8        0x4 build/sam_e70_xult_freertos/production/_ext/810785262/tcp.o

.bss.tcpHeapH%56
                0x20401abc        0x4
 .bss.tcpHeapH  0x20401abc        0x4 build/sam_e70_xult_freertos/production/_ext/810785262/tcp.o

.bss.tcpInitCount%57
                0x20401ac0        0x4
 .bss.tcpInitCount
                0x20401ac0        0x4 build/sam_e70_xult_freertos/production/_ext/810785262/tcp.o

.bss.tcpLockCount%58
                0x20401ac4        0x4
 .bss.tcpLockCount
                0x20401ac4        0x4 build/sam_e70_xult_freertos/production/_ext/810785262/tcp.o

.bss.tcpSemaphore%59
                0x20401ac8        0x4
 .bss.tcpSemaphore
                0x20401ac8        0x4 build/sam_e70_xult_freertos/production/_ext/810785262/tcp.o

.bss.tcpSignalHandle%60
                0x20401acc        0x4
 .bss.tcpSignalHandle
                0x20401acc        0x4 build/sam_e70_xult_freertos/production/_ext/810785262/tcp.o

.bss.DHCPClients%61
                0x20401ad0        0x4
 .bss.DHCPClients
                0x20401ad0        0x4 build/sam_e70_xult_freertos/production/_ext/810785262/dhcp.o

.bss.dhcpFilterHandle%62
                0x20401ad4        0x4
 .bss.dhcpFilterHandle
                0x20401ad4        0x4 build/sam_e70_xult_freertos/production/_ext/810785262/dhcp.o

.bss.dhcpInitCount%63
                0x20401ad8        0x4
 .bss.dhcpInitCount
                0x20401ad8        0x4 build/sam_e70_xult_freertos/production/_ext/810785262/dhcp.o

.bss.dhcpInterfaces%64
                0x20401adc        0x4
 .bss.dhcpInterfaces
                0x20401adc        0x4 build/sam_e70_xult_freertos/production/_ext/810785262/dhcp.o

.bss.dhcpMemH%65
                0x20401ae0        0x4
 .bss.dhcpMemH  0x20401ae0        0x4 build/sam_e70_xult_freertos/production/_ext/810785262/dhcp.o

.bss.dhcpSecondCount%66
                0x20401ae4        0x4
 .bss.dhcpSecondCount
                0x20401ae4        0x4 build/sam_e70_xult_freertos/production/_ext/810785262/dhcp.o

.bss.dhcpSignalHandle%67
                0x20401ae8        0x4
 .bss.dhcpSignalHandle
                0x20401ae8        0x4 build/sam_e70_xult_freertos/production/_ext/810785262/dhcp.o

.bss.dnsLookUpStartTick%68
                0x20401aec        0x4
 .bss.dnsLookUpStartTick
                0x20401aec        0x4 build/sam_e70_xult_freertos/production/_ext/810785262/tcpip_commands.o

.bss.dnsLookupCmdIoParam%69
                0x20401af0        0x4
 .bss.dnsLookupCmdIoParam
                0x20401af0        0x4 build/sam_e70_xult_freertos/production/_ext/810785262/tcpip_commands.o

.bss.initialNetIfs%70
                0x20401af4        0x4
 .bss.initialNetIfs
                0x20401af4        0x4 build/sam_e70_xult_freertos/production/_ext/810785262/tcpip_commands.o

.bss.pCmdTcpipInitData%71
                0x20401af8        0x4
 .bss.pCmdTcpipInitData
                0x20401af8        0x4 build/sam_e70_xult_freertos/production/_ext/810785262/tcpip_commands.o

.bss.pTcpipCmdDevice%72
                0x20401afc        0x4
 .bss.pTcpipCmdDevice
                0x20401afc        0x4 build/sam_e70_xult_freertos/production/_ext/810785262/tcpip_commands.o

.bss.tcpipCmdSignalHandle%73
                0x20401b00        0x4
 .bss.tcpipCmdSignalHandle
                0x20401b00        0x4 build/sam_e70_xult_freertos/production/_ext/810785262/tcpip_commands.o

.bss._IPv4StayAssertLoop%74
                0x20401b04        0x4
 .bss._IPv4StayAssertLoop
                0x20401b04        0x4 build/sam_e70_xult_freertos/production/_ext/810785262/ipv4.o
                0x20401b04                _IPv4StayAssertLoop

.bss.ipv4ArpHandle%75
                0x20401b08        0x4
 .bss.ipv4ArpHandle
                0x20401b08        0x4 build/sam_e70_xult_freertos/production/_ext/810785262/ipv4.o

.bss.ipv4MemH%76
                0x20401b0c        0x4
 .bss.ipv4MemH  0x20401b0c        0x4 build/sam_e70_xult_freertos/production/_ext/810785262/ipv4.o

.bss.signalHandle%77
                0x20401b10        0x4
 .bss.signalHandle
                0x20401b10        0x4 build/sam_e70_xult_freertos/production/_ext/810785262/ipv4.o

.bss.newTcpipErrorEventCnt%78
                0x20401b14        0x4
 .bss.newTcpipErrorEventCnt
                0x20401b14        0x4 build/sam_e70_xult_freertos/production/_ext/810785262/tcpip_manager.o

.bss.newTcpipStackEventCnt%79
                0x20401b18        0x4
 .bss.newTcpipStackEventCnt
                0x20401b18        0x4 build/sam_e70_xult_freertos/production/_ext/810785262/tcpip_manager.o

.bss.newTcpipTickAvlbl%80
                0x20401b1c        0x4
 .bss.newTcpipTickAvlbl
                0x20401b1c        0x4 build/sam_e70_xult_freertos/production/_ext/810785262/tcpip_manager.o

.bss.stackAsyncSignalCount%81
                0x20401b20        0x4
 .bss.stackAsyncSignalCount
                0x20401b20        0x4 build/sam_e70_xult_freertos/production/_ext/810785262/tcpip_manager.o

.bss.stackTaskRate%82
                0x20401b24        0x4
 .bss.stackTaskRate
                0x20401b24        0x4 build/sam_e70_xult_freertos/production/_ext/810785262/tcpip_manager.o

.bss.tcpipDefIf%83
                0x20401b28        0x4
 .bss.tcpipDefIf
                0x20401b28        0x4 build/sam_e70_xult_freertos/production/_ext/810785262/tcpip_manager.o

.bss.tcpipNetIf%84
                0x20401b2c        0x4
 .bss.tcpipNetIf
                0x20401b2c        0x4 build/sam_e70_xult_freertos/production/_ext/810785262/tcpip_manager.o

.bss.totTcpipEventsCnt%85
                0x20401b30        0x4
 .bss.totTcpipEventsCnt
                0x20401b30        0x4 build/sam_e70_xult_freertos/production/_ext/810785262/tcpip_manager.o

.data.tcpip_stack_tickH%86
                0x20401b34        0x4
 .data.tcpip_stack_tickH
                0x20401b34        0x4 build/sam_e70_xult_freertos/production/_ext/810785262/tcpip_manager.o

.bss.pktMemH%87
                0x20401b38        0x4
 .bss.pktMemH   0x20401b38        0x4 build/sam_e70_xult_freertos/production/_ext/810785262/tcpip_packet.o

.bss.UDPSocketDcpt%88
                0x20401b3c        0x4
 .bss.UDPSocketDcpt
                0x20401b3c        0x4 build/sam_e70_xult_freertos/production/_ext/810785262/udp.o

.bss.nUdpSockets%89
                0x20401b40        0x4
 .bss.nUdpSockets
                0x20401b40        0x4 build/sam_e70_xult_freertos/production/_ext/810785262/udp.o

.bss.signalHandle%90
                0x20401b44        0x4
 .bss.signalHandle
                0x20401b44        0x4 build/sam_e70_xult_freertos/production/_ext/810785262/udp.o

.bss.udpInitCount%91
                0x20401b48        0x4
 .bss.udpInitCount
                0x20401b48        0x4 build/sam_e70_xult_freertos/production/_ext/810785262/udp.o

.bss.udpMemH%92
                0x20401b4c        0x4
 .bss.udpMemH   0x20401b4c        0x4 build/sam_e70_xult_freertos/production/_ext/810785262/udp.o

.bss.userSem%93
                0x20401b50        0x4
 .bss.userSem   0x20401b50        0x4 build/sam_e70_xult_freertos/production/_ext/810785262/udp.o

.bss._pCurrCmdN%94
                0x20401b54        0x4
 .bss._pCurrCmdN
                0x20401b54        0x4 build/sam_e70_xult_freertos/production/_ext/762686499/sys_command.o

.bss.printBuffPtr%95
                0x20401b58        0x4
 .bss.printBuffPtr
                0x20401b58        0x4 build/sam_e70_xult_freertos/production/_ext/762686499/sys_command.o

.bss.systemAdaptObj%96
                0x20401b5c        0x4
 .bss.systemAdaptObj
                0x20401b5c        0x4 build/sam_e70_xult_freertos/production/_ext/231871610/sys_time_h2_adapter.o

.bss.cmd.13380%97
                0x20401b60        0x4
 .bss.cmd.13380
                0x20401b60        0x4 build/sam_e70_xult_freertos/production/_ext/1552905064/startup_xc32.o

.data.uxCriticalNesting%98
                0x20401b64        0x4
 .data.uxCriticalNesting
                0x20401b64        0x4 build/sam_e70_xult_freertos/production/_ext/977623654/port.o

.bss.pxCurrentTCB%99
                0x20401b68        0x4
 .bss.pxCurrentTCB
                0x20401b68        0x4 build/sam_e70_xult_freertos/production/_ext/404212886/FreeRTOS_tasks.o
                0x20401b68                pxCurrentTCB

.bss.pxDelayedTaskList%100
                0x20401b6c        0x4
 .bss.pxDelayedTaskList
                0x20401b6c        0x4 build/sam_e70_xult_freertos/production/_ext/404212886/FreeRTOS_tasks.o

.bss.pxOverflowDelayedTaskList%101
                0x20401b70        0x4
 .bss.pxOverflowDelayedTaskList
                0x20401b70        0x4 build/sam_e70_xult_freertos/production/_ext/404212886/FreeRTOS_tasks.o

.bss.uxCurrentNumberOfTasks%102
                0x20401b74        0x4
 .bss.uxCurrentNumberOfTasks
                0x20401b74        0x4 build/sam_e70_xult_freertos/production/_ext/404212886/FreeRTOS_tasks.o

.bss.uxDeletedTasksWaitingCleanUp%103
                0x20401b78        0x4
 .bss.uxDeletedTasksWaitingCleanUp
                0x20401b78        0x4 build/sam_e70_xult_freertos/production/_ext/404212886/FreeRTOS_tasks.o

.bss.uxPendedTicks%104
                0x20401b7c        0x4
 .bss.uxPendedTicks
                0x20401b7c        0x4 build/sam_e70_xult_freertos/production/_ext/404212886/FreeRTOS_tasks.o

.bss.uxSchedulerSuspended%105
                0x20401b80        0x4
 .bss.uxSchedulerSuspended
                0x20401b80        0x4 build/sam_e70_xult_freertos/production/_ext/404212886/FreeRTOS_tasks.o

.bss.uxTaskNumber%106
                0x20401b84        0x4
 .bss.uxTaskNumber
                0x20401b84        0x4 build/sam_e70_xult_freertos/production/_ext/404212886/FreeRTOS_tasks.o

.bss.uxTopReadyPriority%107
                0x20401b88        0x4
 .bss.uxTopReadyPriority
                0x20401b88        0x4 build/sam_e70_xult_freertos/production/_ext/404212886/FreeRTOS_tasks.o

.bss.xIdleTaskHandle%108
                0x20401b8c        0x4
 .bss.xIdleTaskHandle
                0x20401b8c        0x4 build/sam_e70_xult_freertos/production/_ext/404212886/FreeRTOS_tasks.o

.bss.xNextTaskUnblockTime%109
                0x20401b90        0x4
 .bss.xNextTaskUnblockTime
                0x20401b90        0x4 build/sam_e70_xult_freertos/production/_ext/404212886/FreeRTOS_tasks.o

.bss.xNumOfOverflows%110
                0x20401b94        0x4
 .bss.xNumOfOverflows
                0x20401b94        0x4 build/sam_e70_xult_freertos/production/_ext/404212886/FreeRTOS_tasks.o

.bss.xSchedulerRunning%111
                0x20401b98        0x4
 .bss.xSchedulerRunning
                0x20401b98        0x4 build/sam_e70_xult_freertos/production/_ext/404212886/FreeRTOS_tasks.o

.bss.xTickCount%112
                0x20401b9c        0x4
 .bss.xTickCount
                0x20401b9c        0x4 build/sam_e70_xult_freertos/production/_ext/404212886/FreeRTOS_tasks.o

.bss.xYieldPending%113
                0x20401ba0        0x4
 .bss.xYieldPending
                0x20401ba0        0x4 build/sam_e70_xult_freertos/production/_ext/404212886/FreeRTOS_tasks.o

.data._impure_ptr%114
                0x20401ba4        0x4
 .data._impure_ptr
                0x20401ba4        0x4 c:/program files (x86)/microchip/xc32/v2.15/bin/bin/../../lib/gcc/pic32c/6.2.1/../../../../pic32c/lib/v7e-m/fpv5/hard\libc.a(lib_a-impure.o)
                0x20401ba4                _impure_ptr

.bss.__malloc_max_sbrked_mem%115
                0x20401ba8        0x4
 .bss.__malloc_max_sbrked_mem
                0x20401ba8        0x4 c:/program files (x86)/microchip/xc32/v2.15/bin/bin/../../lib/gcc/pic32c/6.2.1/../../../../pic32c/lib/v7e-m/fpv5/hard\libc.a(lib_a-mallocr.o)
                0x20401ba8                __malloc_max_sbrked_mem

.bss.__malloc_max_total_mem%116
                0x20401bac        0x4
 .bss.__malloc_max_total_mem
                0x20401bac        0x4 c:/program files (x86)/microchip/xc32/v2.15/bin/bin/../../lib/gcc/pic32c/6.2.1/../../../../pic32c/lib/v7e-m/fpv5/hard\libc.a(lib_a-mallocr.o)
                0x20401bac                __malloc_max_total_mem

.bss.__malloc_top_pad%117
                0x20401bb0        0x4
 .bss.__malloc_top_pad
                0x20401bb0        0x4 c:/program files (x86)/microchip/xc32/v2.15/bin/bin/../../lib/gcc/pic32c/6.2.1/../../../../pic32c/lib/v7e-m/fpv5/hard\libc.a(lib_a-mallocr.o)
                0x20401bb0                __malloc_top_pad

.data.__malloc_sbrk_base%118
                0x20401bb4        0x4
 .data.__malloc_sbrk_base
                0x20401bb4        0x4 c:/program files (x86)/microchip/xc32/v2.15/bin/bin/../../lib/gcc/pic32c/6.2.1/../../../../pic32c/lib/v7e-m/fpv5/hard\libc.a(lib_a-mallocr.o)
                0x20401bb4                __malloc_sbrk_base

.data.__malloc_trim_threshold%119
                0x20401bb8        0x4
 .data.__malloc_trim_threshold
                0x20401bb8        0x4 c:/program files (x86)/microchip/xc32/v2.15/bin/bin/../../lib/gcc/pic32c/6.2.1/../../../../pic32c/lib/v7e-m/fpv5/hard\libc.a(lib_a-mallocr.o)
                0x20401bb8                __malloc_trim_threshold

.bss%120        0x20401bbc        0x4
 .bss           0x20401bbc        0x4 c:/program files (x86)/microchip/xc32/v2.15/bin/bin/../../lib/gcc/pic32c/6.2.1/../../../../pic32c/lib/v7e-m/fpv5/hard\libpic32c.a(sbrk.o)

.bss.tcpDefRxSize%121
                0x20401a92        0x2
 .bss.tcpDefRxSize
                0x20401a92        0x2 build/sam_e70_xult_freertos/production/_ext/810785262/tcp.o

.bss.tcpDefTxSize%122
                0x204015ce        0x2
 .bss.tcpDefTxSize
                0x204015ce        0x2 build/sam_e70_xult_freertos/production/_ext/810785262/tcp.o

.bss.dhcpClientPort%123
                0x20401bc0        0x2
 .bss.dhcpClientPort
                0x20401bc0        0x2 build/sam_e70_xult_freertos/production/_ext/810785262/dhcp.o

.bss.dhcpClientSocket%124
                0x20401bc2        0x2
 .bss.dhcpClientSocket
                0x20401bc2        0x2 build/sam_e70_xult_freertos/production/_ext/810785262/dhcp.o

.bss.dhcpServerPort%125
                0x20401bc4        0x2
 .bss.dhcpServerPort
                0x20401bc4        0x2 build/sam_e70_xult_freertos/production/_ext/810785262/dhcp.o

.bss.ipv4Identifier%126
                0x20401bc6        0x2
 .bss.ipv4Identifier
                0x20401bc6        0x2 build/sam_e70_xult_freertos/production/_ext/810785262/ipv4.o

.bss.ipv4InitCount%127
                0x20401bc8        0x2
 .bss.ipv4InitCount
                0x20401bc8        0x2 build/sam_e70_xult_freertos/production/_ext/810785262/ipv4.o

.bss.udpDefTxSize%128
                0x20401bca        0x2
 .bss.udpDefTxSize
                0x20401bca        0x2 build/sam_e70_xult_freertos/production/_ext/810785262/udp.o

.data.gSysTimeTokenCount%129
                0x20401bcc        0x2
 .data.gSysTimeTokenCount
                0x20401bcc        0x2 build/sam_e70_xult_freertos/production/_ext/912870411/sys_time.o

.bss.discard_flag.13927%130
                0x20401943        0x1
 .bss.discard_flag.13927
                0x20401943        0x1 build/sam_e70_xult_freertos/production/_ext/1619526243/drv_gmac.o

.bss.tcpipCmdStat%131
                0x204015cd        0x1
 .bss.tcpipCmdStat
                0x204015cd        0x1 build/sam_e70_xult_freertos/production/_ext/810785262/tcpip_commands.o

.data.dnsType%132
                0x20401bce        0x1
 .data.dnsType  0x20401bce        0x1 build/sam_e70_xult_freertos/production/_ext/810785262/tcpip_commands.o

.bss.ipv4FilterType%133
                0x20401bcf        0x1
 .bss.ipv4FilterType
                0x20401bcf        0x1 build/sam_e70_xult_freertos/production/_ext/810785262/ipv4.o

.bss.tcpip_stack_status%134
                0x20401bd0        0x1
 .bss.tcpip_stack_status
                0x20401bd0        0x1 build/sam_e70_xult_freertos/production/_ext/810785262/tcpip_manager.o

.jcr%z1         0x00000000        0x0
 .jcr           0x00000000        0x0 c:/program files (x86)/microchip/xc32/v2.15/bin/bin/../../lib/gcc/pic32c/6.2.1/v7e-m/fpv5/hard/crtbegin.o

.eh_frame%z2    0x00000000        0x0
 .eh_frame      0x00000000        0x0 c:/program files (x86)/microchip/xc32/v2.15/bin/bin/../../lib/gcc/pic32c/6.2.1/v7e-m/fpv5/hard/crtbegin.o

.config_D0000000%135
                0xd0000000        0x4
 .config_D0000000
                0xd0000000        0x4 build/sam_e70_xult_freertos/production/_ext/1552905064/initialization.o

.text._svfprintf_r%136
                0x00400198     0x18f0
 .text._svfprintf_r
                0x00400198     0x18f0 c:/program files (x86)/microchip/xc32/v2.15/bin/bin/../../lib/gcc/pic32c/6.2.1/../../../../pic32c/lib/v7e-m/fpv5/hard\libc.a(lib_a-svfprintf.o)
                0x00400198                _svfprintf_r

.rodata%137     0x00401a88     0x1640
 .rodata        0x00401a88     0x1640 build/sam_e70_xult_freertos/production/_ext/810785262/tcpip_commands.o

.dinit%138      0x004030c8     0x1390
 .dinit         0x004030c8     0x1390 data_init

.text.TCPIP_TCP_Task%139
                0x00404458      0xf24
 .text.TCPIP_TCP_Task
                0x00404458      0xf24 build/sam_e70_xult_freertos/production/_ext/810785262/tcp.o
                0x00404458                TCPIP_TCP_Task

.text._dtoa_r%140
                0x00405380      0xc4c
 .text._dtoa_r  0x00405380      0xc4c c:/program files (x86)/microchip/xc32/v2.15/bin/bin/../../lib/gcc/pic32c/6.2.1/../../../../pic32c/lib/v7e-m/fpv5/hard\libc.a(lib_a-dtoa.o)
                0x00405380                _dtoa_r

.rodata.macPIC32CHwRegDcpt%141
                0x00405fcc      0x708
 .rodata.macPIC32CHwRegDcpt
                0x00405fcc      0x708 build/sam_e70_xult_freertos/production/_ext/1619526243/drv_gmac.o

.text.TCPIP_STACK_Task%142
                0x004066d4      0x630
 .text.TCPIP_STACK_Task
                0x004066d4      0x630 build/sam_e70_xult_freertos/production/_ext/810785262/tcpip_manager.o
                0x004066d4                TCPIP_STACK_Task

.text._TcpSend%143
                0x00406d04      0x5cc
 .text._TcpSend
                0x00406d04      0x5cc build/sam_e70_xult_freertos/production/_ext/810785262/tcp.o

.text._Command_DNS_Service%144
                0x004072d0      0x56c
 .text._Command_DNS_Service
                0x004072d0      0x56c build/sam_e70_xult_freertos/production/_ext/810785262/tcpip_commands.o

.text._malloc_r%145
                0x0040783c      0x550
 .text._malloc_r
                0x0040783c      0x550 c:/program files (x86)/microchip/xc32/v2.15/bin/bin/../../lib/gcc/pic32c/6.2.1/../../../../pic32c/lib/v7e-m/fpv5/hard\libc.a(lib_a-mallocr.o)
                0x0040783c                _malloc_r

.text.TCPIP_DHCP_Task%146
                0x00407d8c      0x4e4
 .text.TCPIP_DHCP_Task
                0x00407d8c      0x4e4 build/sam_e70_xult_freertos/production/_ext/810785262/dhcp.o
                0x00407d8c                TCPIP_DHCP_Task

.rodata%147     0x00408270      0x48c
 .rodata        0x00408270      0x48c build/sam_e70_xult_freertos/production/_ext/810785262/tcpip_manager.o

.text.TCPIP_STACK_Initialize%148
                0x004086fc      0x410
 .text.TCPIP_STACK_Initialize
                0x004086fc      0x410 build/sam_e70_xult_freertos/production/_ext/810785262/tcpip_manager.o
                0x004086fc                TCPIP_STACK_Initialize

.text.DRV_PIC32CGMAC_LibRxGetPacket%149
                0x00408b0c      0x3c0
 .text.DRV_PIC32CGMAC_LibRxGetPacket
                0x00408b0c      0x3c0 build/sam_e70_xult_freertos/production/_ext/1619526243/drv_gmac_lib_samE7x_V7x.o
                0x00408b0c                DRV_PIC32CGMAC_LibRxGetPacket

.text.APP_Tasks%150
                0x00408ecc      0x358
 .text.APP_Tasks
                0x00408ecc      0x358 build/sam_e70_xult_freertos/production/_ext/1360937237/app.o
                0x00408ecc                APP_Tasks

.text._realloc_r%151
                0x00409224      0x34c
 .text._realloc_r
                0x00409224      0x34c c:/program files (x86)/microchip/xc32/v2.15/bin/bin/../../lib/gcc/pic32c/6.2.1/../../../../pic32c/lib/v7e-m/fpv5/hard\libc.a(lib_a-reallocr.o)
                0x00409224                _realloc_r

.text.SYS_CMD_Tasks%152
                0x00409570      0x314
 .text.SYS_CMD_Tasks
                0x00409570      0x314 build/sam_e70_xult_freertos/production/_ext/762686499/sys_command.o
                0x00409570                SYS_CMD_Tasks

.text.TCPIP_Helper_StringToIPv6Address%153
                0x00409884      0x2e8
 .text.TCPIP_Helper_StringToIPv6Address
                0x00409884      0x2e8 build/sam_e70_xult_freertos/production/_ext/810785262/tcpip_helpers.o
                0x00409884                TCPIP_Helper_StringToIPv6Address

.text%154       0x00409b6c      0x2dc
 .text          0x00409b6c      0x2dc c:/program files (x86)/microchip/xc32/v2.15/bin/bin/../../lib/gcc/pic32c/6.2.1/v7e-m/fpv5/hard\libgcc.a(_udivmoddi4.o)
                0x00409b6c                __udivmoddi4

.text%155       0x00409e60      0x2dc
 .text          0x00409e60      0x2dc c:/program files (x86)/microchip/xc32/v2.15/bin/bin/../../lib/gcc/pic32c/6.2.1/../../../../pic32c/lib/v7e-m/fpv5/hard\libc.a(lib_a-strcmp.o)
                0x00409e68                strcmp

.text.DRV_GMAC_Initialize%156
                0x0040a13c      0x2d4
 .text.DRV_GMAC_Initialize
                0x0040a13c      0x2d4 build/sam_e70_xult_freertos/production/_ext/1619526243/drv_gmac.o
                0x0040a13c                DRV_GMAC_Initialize

.text.TCPIP_ARP_Task%157
                0x0040a410      0x2b8
 .text.TCPIP_ARP_Task
                0x0040a410      0x2b8 build/sam_e70_xult_freertos/production/_ext/810785262/arp.o
                0x0040a410                TCPIP_ARP_Task

.text.DRV_PIC32CGMAC_LibTxSendPacket%158
                0x0040a6c8      0x294
 .text.DRV_PIC32CGMAC_LibTxSendPacket
                0x0040a6c8      0x294 build/sam_e70_xult_freertos/production/_ext/1619526243/drv_gmac_lib_samE7x_V7x.o
                0x0040a6c8                DRV_PIC32CGMAC_LibTxSendPacket

.rodata%159     0x0040a95c      0x28c
 .rodata        0x0040a95c      0x28c build/sam_e70_xult_freertos/production/_ext/1360937237/app.o

.text._CommandArp%160
                0x0040abe8      0x260
 .text._CommandArp
                0x0040abe8      0x260 build/sam_e70_xult_freertos/production/_ext/810785262/tcpip_commands.o

.text.TCPIP_UDP_Task%161
                0x0040ae48      0x24c
 .text.TCPIP_UDP_Task
                0x0040ae48      0x24c build/sam_e70_xult_freertos/production/_ext/810785262/udp.o
                0x0040ae48                TCPIP_UDP_Task

.text._TCP_Open%162
                0x0040b094      0x238
 .text._TCP_Open
                0x0040b094      0x238 build/sam_e70_xult_freertos/production/_ext/810785262/tcp.o

.text.TCPIP_UDP_Flush%163
                0x0040b2cc      0x22c
 .text.TCPIP_UDP_Flush
                0x0040b2cc      0x22c build/sam_e70_xult_freertos/production/_ext/810785262/udp.o
                0x0040b2cc                TCPIP_UDP_Flush

.text._CommandDhcpOptions%164
                0x0040b4f8      0x220
 .text._CommandDhcpOptions
                0x0040b4f8      0x220 build/sam_e70_xult_freertos/production/_ext/810785262/tcpip_commands.o

.text._DNS_Send_Query%165
                0x0040b718      0x218
 .text._DNS_Send_Query
                0x0040b718      0x218 build/sam_e70_xult_freertos/production/_ext/810785262/dns.o

.text.TCPIP_DNS_ClientInitialize%166
                0x0040b930      0x218
 .text.TCPIP_DNS_ClientInitialize
                0x0040b930      0x218 build/sam_e70_xult_freertos/production/_ext/810785262/dns.o
                0x0040b930                TCPIP_DNS_ClientInitialize

.rodata%167     0x0040bb48      0x218
 .rodata        0x0040bb48      0x218 build/sam_e70_xult_freertos/production/_ext/762686499/sys_command.o

.text.strstr%168
                0x0040bd60      0x218
 .text.strstr   0x0040bd60      0x218 c:/program files (x86)/microchip/xc32/v2.15/bin/bin/../../lib/gcc/pic32c/6.2.1/../../../../pic32c/lib/v7e-m/fpv5/hard\libc.a(lib_a-strstr.o)
                0x0040bd60                strstr

.text.TCPIP_UDP_OptionsSet%169
                0x0040bf78      0x212
 .text.TCPIP_UDP_OptionsSet
                0x0040bf78      0x212 build/sam_e70_xult_freertos/production/_ext/810785262/udp.o
                0x0040bf78                TCPIP_UDP_OptionsSet

.text.TCPIP_COMMAND_Task%170
                0x0040c18c      0x20c
 .text.TCPIP_COMMAND_Task
                0x0040c18c      0x20c build/sam_e70_xult_freertos/production/_ext/810785262/tcpip_commands.o
                0x0040c18c                TCPIP_COMMAND_Task

.text.two_way_long_needle%171
                0x0040c398      0x1fc
 .text.two_way_long_needle
                0x0040c398      0x1fc c:/program files (x86)/microchip/xc32/v2.15/bin/bin/../../lib/gcc/pic32c/6.2.1/../../../../pic32c/lib/v7e-m/fpv5/hard\libc.a(lib_a-strstr.o)

.text._DNS_ProcessPacket%172
                0x0040c594      0x1ec
 .text._DNS_ProcessPacket
                0x0040c594      0x1ec build/sam_e70_xult_freertos/production/_ext/810785262/dns.o

.text._Command_NetInfo%173
                0x0040c780      0x1e8
 .text._Command_NetInfo
                0x0040c780      0x1e8 build/sam_e70_xult_freertos/production/_ext/810785262/tcpip_commands.o

.text.TCPIP_STACK_BringNetUp%174
                0x0040c968      0x1e8
 .text.TCPIP_STACK_BringNetUp
                0x0040c968      0x1e8 build/sam_e70_xult_freertos/production/_ext/810785262/tcpip_manager.o

.text._DHCPReceive%175
                0x0040cb50      0x1e0
 .text._DHCPReceive
                0x0040cb50      0x1e0 build/sam_e70_xult_freertos/production/_ext/810785262/dhcp.o

.text.TCPIP_ARP_Initialize%176
                0x0040cd30      0x1e0
 .text.TCPIP_ARP_Initialize
                0x0040cd30      0x1e0 build/sam_e70_xult_freertos/production/_ext/810785262/arp.o
                0x0040cd30                TCPIP_ARP_Initialize

.text.xTaskCreate%177
                0x0040cf10      0x1e0
 .text.xTaskCreate
                0x0040cf10      0x1e0 build/sam_e70_xult_freertos/production/_ext/404212886/FreeRTOS_tasks.o
                0x0040cf10                xTaskCreate

.text.TCPIP_IPV4_PacketTransmit%178
                0x0040d0f0      0x1d8
 .text.TCPIP_IPV4_PacketTransmit
                0x0040d0f0      0x1d8 build/sam_e70_xult_freertos/production/_ext/810785262/ipv4.o
                0x0040d0f0                TCPIP_IPV4_PacketTransmit

.text.DRV_MIIM_Tasks%179
                0x0040d2c8      0x1cc
 .text.DRV_MIIM_Tasks
                0x0040d2c8      0x1cc build/sam_e70_xult_freertos/production/_ext/511568427/drv_miim.o
                0x0040d2c8                DRV_MIIM_Tasks

.text._free_r%180
                0x0040d494      0x1cc
 .text._free_r  0x0040d494      0x1cc c:/program files (x86)/microchip/xc32/v2.15/bin/bin/../../lib/gcc/pic32c/6.2.1/../../../../pic32c/lib/v7e-m/fpv5/hard\libc.a(lib_a-freer.o)
                0x0040d494                _free_r

.text._DHCPSend%181
                0x0040d660      0x1b8
 .text._DHCPSend
                0x0040d660      0x1b8 build/sam_e70_xult_freertos/production/_ext/810785262/dhcp.o

.text.ParseCmdBuffer%182
                0x0040d818      0x1b8
 .text.ParseCmdBuffer
                0x0040d818      0x1b8 build/sam_e70_xult_freertos/production/_ext/762686499/sys_command.o

.text.TCPIP_IPV4_Task%183
                0x0040d9d0      0x1b4
 .text.TCPIP_IPV4_Task
                0x0040d9d0      0x1b4 build/sam_e70_xult_freertos/production/_ext/810785262/ipv4.o
                0x0040d9d0                TCPIP_IPV4_Task

.text.TCPIP_DHCP_Initialize%184
                0x0040db84      0x1ac
 .text.TCPIP_DHCP_Initialize
                0x0040db84      0x1ac build/sam_e70_xult_freertos/production/_ext/810785262/dhcp.o
                0x0040db84                TCPIP_DHCP_Initialize

.text._Command_MacInfo%185
                0x0040dd30      0x198
 .text._Command_MacInfo
                0x0040dd30      0x198 build/sam_e70_xult_freertos/production/_ext/810785262/tcpip_commands.o

.text.TCPIP_TCP_ArrayPut%186
                0x0040dec8      0x194
 .text.TCPIP_TCP_ArrayPut
                0x0040dec8      0x194 build/sam_e70_xult_freertos/production/_ext/810785262/tcp.o
                0x0040dec8                TCPIP_TCP_ArrayPut

.text.CommandHelp%187
                0x0040e05c      0x190
 .text.CommandHelp
                0x0040e05c      0x190 build/sam_e70_xult_freertos/production/_ext/762686499/sys_command.o

.text._DHCPOptionHostName%188
                0x0040e1ec      0x18c
 .text._DHCPOptionHostName
                0x0040e1ec      0x18c build/sam_e70_xult_freertos/production/_ext/810785262/dhcp.o

.text.DRV_PIC32CGMAC_LibRxFilterHash_Calculate%189
                0x0040e378      0x178
 .text.DRV_PIC32CGMAC_LibRxFilterHash_Calculate
                0x0040e378      0x178 build/sam_e70_xult_freertos/production/_ext/1619526243/drv_gmac_lib_samE7x_V7x.o
                0x0040e378                DRV_PIC32CGMAC_LibRxFilterHash_Calculate

.text.TCPIP_IPV4_PacketFormatTx%190
                0x0040e4f0      0x178
 .text.TCPIP_IPV4_PacketFormatTx
                0x0040e4f0      0x178 build/sam_e70_xult_freertos/production/_ext/810785262/ipv4.o
                0x0040e4f0                TCPIP_IPV4_PacketFormatTx

.text.Reset_Handler%191
                0x0040e668      0x178
 .text.Reset_Handler
                0x0040e668      0x178 build/sam_e70_xult_freertos/production/_ext/1552905064/startup_xc32.o
                0x0040e668                Reset_Handler

.text._UDPOpen%192
                0x0040e7e0      0x16c
 .text._UDPOpen
                0x0040e7e0      0x16c build/sam_e70_xult_freertos/production/_ext/810785262/udp.o

.text.xQueueSemaphoreTake%193
                0x0040e94c      0x15c
 .text.xQueueSemaphoreTake
                0x0040e94c      0x15c build/sam_e70_xult_freertos/production/_ext/404212886/queue.o
                0x0040e94c                xQueueSemaphoreTake

.text.TCPIP_DNS_EntryQuery%194
                0x0040eaa8      0x158
 .text.TCPIP_DNS_EntryQuery
                0x0040eaa8      0x158 build/sam_e70_xult_freertos/production/_ext/810785262/dns.o
                0x0040eaa8                TCPIP_DNS_EntryQuery

.text._MACDeinit%195
                0x0040ec00      0x14c
 .text._MACDeinit
                0x0040ec00      0x14c build/sam_e70_xult_freertos/production/_ext/1619526243/drv_gmac.o

.text._MacTxDiscardQueues%196
                0x0040ed4c      0x144
 .text._MacTxDiscardQueues
                0x0040ed4c      0x144 build/sam_e70_xult_freertos/production/_ext/1619526243/drv_gmac.o

.text.TCPIP_TCP_Initialize%197
                0x0040ee90      0x144
 .text.TCPIP_TCP_Initialize
                0x0040ee90      0x144 build/sam_e70_xult_freertos/production/_ext/810785262/tcp.o
                0x0040ee90                TCPIP_TCP_Initialize

.text.TCPIP_UDP_Bind%198
                0x0040efd4      0x13c
 .text.TCPIP_UDP_Bind
                0x0040efd4      0x13c build/sam_e70_xult_freertos/production/_ext/810785262/udp.o
                0x0040efd4                TCPIP_UDP_Bind

.text%199       0x0040f110      0x134
 .text          0x0040f110      0x134 c:/program files (x86)/microchip/xc32/v2.15/bin/bin/../../lib/gcc/pic32c/6.2.1/../../../../pic32c/lib/v7e-m/fpv5/hard\libc.a(lib_a-memcpy.o)
                0x0040f110                memcpy

.text._Command_StackOnOff%200
                0x0040f244      0x130
 .text._Command_StackOnOff
                0x0040f244      0x130 build/sam_e70_xult_freertos/production/_ext/810785262/tcpip_commands.o

.text._DNS_RESPONSE_HashEntryUpdate%201
                0x0040f374      0x12e
 .text._DNS_RESPONSE_HashEntryUpdate
                0x0040f374      0x12e build/sam_e70_xult_freertos/production/_ext/810785262/dns.o

.text._Command_NetworkOnOff%202
                0x0040f4a4      0x128
 .text._Command_NetworkOnOff
                0x0040f4a4      0x128 build/sam_e70_xult_freertos/production/_ext/810785262/tcpip_commands.o

.text.xQueueGenericSend%203
                0x0040f5cc      0x128
 .text.xQueueGenericSend
                0x0040f5cc      0x128 build/sam_e70_xult_freertos/production/_ext/404212886/queue.o
                0x0040f5cc                xQueueGenericSend

.text._strtol_l.isra.0%204
                0x0040f6f4      0x128
 .text._strtol_l.isra.0
                0x0040f6f4      0x128 c:/program files (x86)/microchip/xc32/v2.15/bin/bin/../../lib/gcc/pic32c/6.2.1/../../../../pic32c/lib/v7e-m/fpv5/hard\libc.a(lib_a-strtol.o)

.text.quorem%205
                0x0040f81c      0x128
 .text.quorem   0x0040f81c      0x128 c:/program files (x86)/microchip/xc32/v2.15/bin/bin/../../lib/gcc/pic32c/6.2.1/../../../../pic32c/lib/v7e-m/fpv5/hard\libc.a(lib_a-dtoa.o)

.text._Command_AddressService%206
                0x0040f944      0x124
 .text._Command_AddressService
                0x0040f944      0x124 build/sam_e70_xult_freertos/production/_ext/810785262/tcpip_commands.o

.text.__multiply%207
                0x0040fa68      0x124
 .text.__multiply
                0x0040fa68      0x124 c:/program files (x86)/microchip/xc32/v2.15/bin/bin/../../lib/gcc/pic32c/6.2.1/../../../../pic32c/lib/v7e-m/fpv5/hard\libc.a(lib_a-mprec.o)
                0x0040fa68                __multiply

.text.TCPIP_DNS_ClientTask%208
                0x0040fb8c      0x120
 .text.TCPIP_DNS_ClientTask
                0x0040fb8c      0x120 build/sam_e70_xult_freertos/production/_ext/810785262/dns.o
                0x0040fb8c                TCPIP_DNS_ClientTask

.text.TCPIP_UDP_Deinitialize%209
                0x0040fcac      0x120
 .text.TCPIP_UDP_Deinitialize
                0x0040fcac      0x120 build/sam_e70_xult_freertos/production/_ext/810785262/udp.o
                0x0040fcac                TCPIP_UDP_Deinitialize

.text._DRV_ETHPHY_SetupPhaseDetect%210
                0x0040fdcc      0x11c
 .text._DRV_ETHPHY_SetupPhaseDetect
                0x0040fdcc      0x11c build/sam_e70_xult_freertos/production/_ext/1607428259/drv_ethphy.o

.text._DNS_Resolve%211
                0x0040fee8      0x11c
 .text._DNS_Resolve
                0x0040fee8      0x11c build/sam_e70_xult_freertos/production/_ext/810785262/dns.o

.text.USART1_InterruptHandler%212
                0x00410004      0x11c
 .text.USART1_InterruptHandler
                0x00410004      0x11c build/sam_e70_xult_freertos/production/_ext/901008055/plib_usart1.o
                0x00410004                USART1_InterruptHandler

.text._LoadNetworkConfig%213
                0x00410120      0x11a
 .text._LoadNetworkConfig
                0x00410120      0x11a build/sam_e70_xult_freertos/production/_ext/810785262/tcpip_manager.o

.text._TCPIP_HEAP_Free%214
                0x0041023a      0x114
 .text._TCPIP_HEAP_Free
                0x0041023a      0x114 build/sam_e70_xult_freertos/production/_ext/810785262/tcpip_heap_internal.o

.text._Command_HeapInfo%215
                0x00410350      0x110
 .text._Command_HeapInfo
                0x00410350      0x110 build/sam_e70_xult_freertos/production/_ext/810785262/tcpip_commands.o

.text._UDPv4TxAckFnc%216
                0x00410460      0x110
 .text._UDPv4TxAckFnc
                0x00410460      0x110 build/sam_e70_xult_freertos/production/_ext/810785262/udp.o

.text.TCPIP_UDP_OptionsGet%217
                0x00410570      0x10e
 .text.TCPIP_UDP_OptionsGet
                0x00410570      0x10e build/sam_e70_xult_freertos/production/_ext/810785262/udp.o
                0x00410570                TCPIP_UDP_OptionsGet

.text.__mdiff%218
                0x00410680      0x108
 .text.__mdiff  0x00410680      0x108 c:/program files (x86)/microchip/xc32/v2.15/bin/bin/../../lib/gcc/pic32c/6.2.1/../../../../pic32c/lib/v7e-m/fpv5/hard\libc.a(lib_a-mprec.o)
                0x00410680                __mdiff

.text.DRV_GMAC_Tasks%219
                0x00410788      0x104
 .text.DRV_GMAC_Tasks
                0x00410788      0x104 build/sam_e70_xult_freertos/production/_ext/1619526243/drv_gmac.o
                0x00410788                DRV_GMAC_Tasks

.rodata._ctype_%220
                0x0041088c      0x104
 .rodata._ctype_
                0x0041088c      0x104 c:/program files (x86)/microchip/xc32/v2.15/bin/bin/../../lib/gcc/pic32c/6.2.1/../../../../pic32c/lib/v7e-m/fpv5/hard\libc.a(lib_a-ctype_.o)
                0x0041088c                _ctype_

.text._Command_IPAddressSet%221
                0x00410990      0x100
 .text._Command_IPAddressSet
                0x00410990      0x100 build/sam_e70_xult_freertos/production/_ext/810785262/tcpip_commands.o

.text.xTaskIncrementTick%222
                0x00410a90      0x100
 .text.xTaskIncrementTick
                0x00410a90      0x100 build/sam_e70_xult_freertos/production/_ext/404212886/FreeRTOS_tasks.o
                0x00410a90                xTaskIncrementTick

.text._Tcpv4TxAckFnc%223
                0x00410b90       0xfc
 .text._Tcpv4TxAckFnc
                0x00410b90       0xfc build/sam_e70_xult_freertos/production/_ext/810785262/tcp.o

.text.TCPIP_ARP_EntryRemoveNet%224
                0x00410c8c       0xfc
 .text.TCPIP_ARP_EntryRemoveNet
                0x00410c8c       0xfc build/sam_e70_xult_freertos/production/_ext/810785262/arp.o
                0x00410c8c                TCPIP_ARP_EntryRemoveNet

.text.TCPIP_Helper_StringToIPAddress%225
                0x00410d88       0xfc
 .text.TCPIP_Helper_StringToIPAddress
                0x00410d88       0xfc build/sam_e70_xult_freertos/production/_ext/810785262/tcpip_helpers.o
                0x00410d88                TCPIP_Helper_StringToIPAddress

.text.TCPIP_UDP_Initialize%226
                0x00410e84       0xfc
 .text.TCPIP_UDP_Initialize
                0x00410e84       0xfc build/sam_e70_xult_freertos/production/_ext/810785262/udp.o
                0x00410e84                TCPIP_UDP_Initialize

.text.__ssprint_r%227
                0x00410f80       0xfc
 .text.__ssprint_r
                0x00410f80       0xfc c:/program files (x86)/microchip/xc32/v2.15/bin/bin/../../lib/gcc/pic32c/6.2.1/../../../../pic32c/lib/v7e-m/fpv5/hard\libc.a(lib_a-svfiprintf.o)
                0x00410f80                __ssprint_r

.text.DRV_PIC32CGMAC_LibTxAckPacket%228
                0x0041107c       0xfa
 .text.DRV_PIC32CGMAC_LibTxAckPacket
                0x0041107c       0xfa build/sam_e70_xult_freertos/production/_ext/1619526243/drv_gmac_lib_samE7x_V7x.o
                0x0041107c                DRV_PIC32CGMAC_LibTxAckPacket

.text.DRV_PIC32CGMAC_LibTxInit%229
                0x00411178       0xf8
 .text.DRV_PIC32CGMAC_LibTxInit
                0x00411178       0xf8 build/sam_e70_xult_freertos/production/_ext/1619526243/drv_gmac_lib_samE7x_V7x.o
                0x00411178                DRV_PIC32CGMAC_LibTxInit

.text._DNS_IsNameResolved%230
                0x00411270       0xf8
 .text._DNS_IsNameResolved
                0x00411270       0xf8 build/sam_e70_xult_freertos/production/_ext/810785262/dns.o

.text._ARPProbeAddress%231
                0x00411368       0xec
 .text._ARPProbeAddress
                0x00411368       0xec build/sam_e70_xult_freertos/production/_ext/810785262/arp.o

.text.TCPIP_UDP_ArrayGet%232
                0x00411454       0xec
 .text.TCPIP_UDP_ArrayGet
                0x00411454       0xec build/sam_e70_xult_freertos/production/_ext/810785262/udp.o
                0x00411454                TCPIP_UDP_ArrayGet

.text.DRV_GMAC_PacketRx%233
                0x00411540       0xe8
 .text.DRV_GMAC_PacketRx
                0x00411540       0xe8 build/sam_e70_xult_freertos/production/_ext/1619526243/drv_gmac.o
                0x00411540                DRV_GMAC_PacketRx

.text.DRV_PIC32CGMAC_LibRxBuffersAppend%234
                0x00411628       0xe8
 .text.DRV_PIC32CGMAC_LibRxBuffersAppend
                0x00411628       0xe8 build/sam_e70_xult_freertos/production/_ext/1619526243/drv_gmac_lib_samE7x_V7x.o
                0x00411628                DRV_PIC32CGMAC_LibRxBuffersAppend

.text.TCPIP_TCP_Deinitialize%235
                0x00411710       0xe8
 .text.TCPIP_TCP_Deinitialize
                0x00411710       0xe8 build/sam_e70_xult_freertos/production/_ext/810785262/tcp.o
                0x00411710                TCPIP_TCP_Deinitialize

.text.TCPIP_TCP_ArrayGet%236
                0x004117f8       0xe8
 .text.TCPIP_TCP_ArrayGet
                0x004117f8       0xe8 build/sam_e70_xult_freertos/production/_ext/810785262/tcp.o
                0x004117f8                TCPIP_TCP_ArrayGet

.text.xTaskResumeAll%237
                0x004118e0       0xe8
 .text.xTaskResumeAll
                0x004118e0       0xe8 build/sam_e70_xult_freertos/production/_ext/404212886/FreeRTOS_tasks.o
                0x004118e0                xTaskResumeAll

.text.strchr%238
                0x004119c8       0xe8
 .text.strchr   0x004119c8       0xe8 c:/program files (x86)/microchip/xc32/v2.15/bin/bin/../../lib/gcc/pic32c/6.2.1/../../../../pic32c/lib/v7e-m/fpv5/hard\libc.a(lib_a-strchr.o)
                0x004119c8                strchr

.text.DRV_GMAC_EventMaskSet%239
                0x00411ab0       0xe4
 .text.DRV_GMAC_EventMaskSet
                0x00411ab0       0xe4 build/sam_e70_xult_freertos/production/_ext/1619526243/drv_gmac.o
                0x00411ab0                DRV_GMAC_EventMaskSet

.text._DRV_MIIM_StartOp%240
                0x00411b94       0xe4
 .text._DRV_MIIM_StartOp
                0x00411b94       0xe4 build/sam_e70_xult_freertos/production/_ext/511568427/drv_miim.o

.text._DRV_MIIM_ClientDeallocate%241
                0x00411c78       0xe0
 .text._DRV_MIIM_ClientDeallocate
                0x00411c78       0xe0 build/sam_e70_xult_freertos/production/_ext/511568427/drv_miim.o

.text.SYS_TIME_PLIBCallback%242
                0x00411d58       0xe0
 .text.SYS_TIME_PLIBCallback
                0x00411d58       0xe0 build/sam_e70_xult_freertos/production/_ext/912870411/sys_time.o

.text._DRV_ETHPHY_SetupPhaseReset%243
                0x00411e38       0xdc
 .text._DRV_ETHPHY_SetupPhaseReset
                0x00411e38       0xdc build/sam_e70_xult_freertos/production/_ext/1607428259/drv_ethphy.o

.text.DRV_EXTPHY_MDIXConfigure%244
                0x00411f14       0xdc
 .text.DRV_EXTPHY_MDIXConfigure
                0x00411f14       0xdc build/sam_e70_xult_freertos/production/_ext/1607428259/drv_extphy_smsc8740.o

.text.TCPIP_ICMP_Task%245
                0x00411ff0       0xdc
 .text.TCPIP_ICMP_Task
                0x00411ff0       0xdc build/sam_e70_xult_freertos/production/_ext/810785262/icmp.o
                0x00411ff0                TCPIP_ICMP_Task

.text%246       0x00412100       0xdc
 .text          0x00412100       0xdc c:/program files (x86)/microchip/xc32/v2.15/bin/bin/../../lib/gcc/pic32c/6.2.1/../../../../pic32c/lib/v7e-m/fpv5/hard\libc.a(lib_a-strlen.o)
                0x00412100                strlen

.text.DRV_PIC32CGMAC_LibRxInit%247
                0x004121dc       0xd8
 .text.DRV_PIC32CGMAC_LibRxInit
                0x004121dc       0xd8 build/sam_e70_xult_freertos/production/_ext/1619526243/drv_gmac_lib_samE7x_V7x.o
                0x004121dc                DRV_PIC32CGMAC_LibRxInit

.text._DNS_GetAddresses%248
                0x004122b4       0xd8
 .text._DNS_GetAddresses
                0x004122b4       0xd8 build/sam_e70_xult_freertos/production/_ext/810785262/dns.o

.text._TcpCloseSocket%249
                0x0041238c       0xd6
 .text._TcpCloseSocket
                0x0041238c       0xd6 build/sam_e70_xult_freertos/production/_ext/810785262/tcp.o

.text._DRV_ETHPHY_NegResultPhase_ANAD%250
                0x00412462       0xd2
 .text._DRV_ETHPHY_NegResultPhase_ANAD
                0x00412462       0xd2 build/sam_e70_xult_freertos/production/_ext/1607428259/drv_ethphy.o

.text._GetMaxSegSizeOption%251
                0x00412534       0xcc
 .text._GetMaxSegSizeOption
                0x00412534       0xcc build/sam_e70_xult_freertos/production/_ext/810785262/tcp.o

.text.DRV_ETHPHY_Setup%252
                0x00412600       0xc8
 .text.DRV_ETHPHY_Setup
                0x00412600       0xc8 build/sam_e70_xult_freertos/production/_ext/1607428259/drv_ethphy.o
                0x00412600                DRV_ETHPHY_Setup

.text._DHCPStartOperation%253
                0x004126c8       0xc8
 .text._DHCPStartOperation
                0x004126c8       0xc8 build/sam_e70_xult_freertos/production/_ext/810785262/dhcp.o

.text.TCPIP_IPV4_SelectSourceInterface%254
                0x00412790       0xc8
 .text.TCPIP_IPV4_SelectSourceInterface
                0x00412790       0xc8 build/sam_e70_xult_freertos/production/_ext/810785262/ipv4.o
                0x00412790                TCPIP_IPV4_SelectSourceInterface

.text.TCPIP_HEAP_CreateInternal%255
                0x00412858       0xc8
 .text.TCPIP_HEAP_CreateInternal
                0x00412858       0xc8 build/sam_e70_xult_freertos/production/_ext/810785262/tcpip_heap_internal.o
                0x00412858                TCPIP_HEAP_CreateInternal

.rodata.__mprec_tens%256
                0x00412920       0xc8
 .rodata.__mprec_tens
                0x00412920       0xc8 c:/program files (x86)/microchip/xc32/v2.15/bin/bin/../../lib/gcc/pic32c/6.2.1/../../../../pic32c/lib/v7e-m/fpv5/hard\libc.a(lib_a-mprec.o)
                0x00412920                __mprec_tens

.text.memmove%257
                0x004129e8       0xc8
 .text.memmove  0x004129e8       0xc8 c:/program files (x86)/microchip/xc32/v2.15/bin/bin/../../lib/gcc/pic32c/6.2.1/../../../../pic32c/lib/v7e-m/fpv5/hard\libc.a(lib_a-memmove.o)
                0x004129e8                memmove

.text._DHCPProcessReceiveData%258
                0x00412ab0       0xc4
 .text._DHCPProcessReceiveData
                0x00412ab0       0xc4 build/sam_e70_xult_freertos/production/_ext/810785262/dhcp.o

.rodata%259     0x00412b74       0xc4
 .rodata        0x00412b74       0xc4 build/sam_e70_xult_freertos/production/_ext/1360937237/app_commands.o

.text._DRV_PHY_SMITransferDo%260
                0x00412c38       0xc2
 .text._DRV_PHY_SMITransferDo
                0x00412c38       0xc2 build/sam_e70_xult_freertos/production/_ext/1607428259/drv_ethphy.o

.rodata.tcpipCmdTbl%261
                0x00412cfc       0xc0
 .rodata.tcpipCmdTbl
                0x00412cfc       0xc0 build/sam_e70_xult_freertos/production/_ext/810785262/tcpip_commands.o

.text.DRV_EXTPHY_MIIConfigure%262
                0x00412dbc       0xbc
 .text.DRV_EXTPHY_MIIConfigure
                0x00412dbc       0xbc build/sam_e70_xult_freertos/production/_ext/1607428259/drv_extphy_smsc8740.o

.text.strcpy%263
                0x00412e78       0xbc
 .text.strcpy   0x00412e78       0xbc c:/program files (x86)/microchip/xc32/v2.15/bin/bin/../../lib/gcc/pic32c/6.2.1/../../../../pic32c/lib/v7e-m/fpv5/hard\libc.a(lib_a-strcpy.o)
                0x00412e78                strcpy

.text.__d2b%264
                0x00412f34       0xbc
 .text.__d2b    0x00412f34       0xbc c:/program files (x86)/microchip/xc32/v2.15/bin/bin/../../lib/gcc/pic32c/6.2.1/../../../../pic32c/lib/v7e-m/fpv5/hard\libc.a(lib_a-mprec.o)
                0x00412f34                __d2b

.text.TCPIP_STACK_KillStack%265
                0x00412ff0       0xb8
 .text.TCPIP_STACK_KillStack
                0x00412ff0       0xb8 build/sam_e70_xult_freertos/production/_ext/810785262/tcpip_manager.o

.text.xTaskPriorityInherit%266
                0x004130a8       0xb8
 .text.xTaskPriorityInherit
                0x004130a8       0xb8 build/sam_e70_xult_freertos/production/_ext/404212886/FreeRTOS_tasks.o
                0x004130a8                xTaskPriorityInherit

.text.critical_factorization%267
                0x00413160       0xb4
 .text.critical_factorization
                0x00413160       0xb4 c:/program files (x86)/microchip/xc32/v2.15/bin/bin/../../lib/gcc/pic32c/6.2.1/../../../../pic32c/lib/v7e-m/fpv5/hard\libc.a(lib_a-strstr.o)

.text.TCPIP_Helper_IPv6AddressToString%268
                0x00413214       0xb2
 .text.TCPIP_Helper_IPv6AddressToString
                0x00413214       0xb2 build/sam_e70_xult_freertos/production/_ext/810785262/tcpip_helpers.o
                0x00413214                TCPIP_Helper_IPv6AddressToString

.text.DRV_GMAC_Tasks_ISR%269
                0x004132c8       0xb0
 .text.DRV_GMAC_Tasks_ISR
                0x004132c8       0xb0 build/sam_e70_xult_freertos/production/_ext/1619526243/drv_gmac.o
                0x004132c8                DRV_GMAC_Tasks_ISR

.text._TcpSocketSetIdleState%270
                0x00413378       0xb0
 .text._TcpSocketSetIdleState
                0x00413378       0xb0 build/sam_e70_xult_freertos/production/_ext/810785262/tcp.o

.text.SYS_TIME_Initialize%271
                0x00413428       0xb0
 .text.SYS_TIME_Initialize
                0x00413428       0xb0 build/sam_e70_xult_freertos/production/_ext/912870411/sys_time.o
                0x00413428                SYS_TIME_Initialize

.text._TCPIP_HEAP_Malloc%272
                0x004134d8       0xac
 .text._TCPIP_HEAP_Malloc
                0x004134d8       0xac build/sam_e70_xult_freertos/production/_ext/810785262/tcpip_heap_internal.o

.text.SYS_TIME_TimerObjectCreate%273
                0x00413584       0xac
 .text.SYS_TIME_TimerObjectCreate
                0x00413584       0xac build/sam_e70_xult_freertos/production/_ext/912870411/sys_time.o

.text.vTaskSwitchContext%274
                0x00413630       0xac
 .text.vTaskSwitchContext
                0x00413630       0xac build/sam_e70_xult_freertos/production/_ext/404212886/FreeRTOS_tasks.o
                0x00413630                vTaskSwitchContext

.text._TcpDisconnect%275
                0x004136dc       0xaa
 .text._TcpDisconnect
                0x004136dc       0xaa build/sam_e70_xult_freertos/production/_ext/810785262/tcp.o

.text._DHCPEnable%276
                0x00413788       0xa8
 .text._DHCPEnable
                0x00413788       0xa8 build/sam_e70_xult_freertos/production/_ext/810785262/dhcp.o

.text._Command_MACAddressSet%277
                0x00413830       0xa8
 .text._Command_MACAddressSet
                0x00413830       0xa8 build/sam_e70_xult_freertos/production/_ext/810785262/tcpip_commands.o

.text.TCPIP_STACK_NetUp%278
                0x004138d8       0xa8
 .text.TCPIP_STACK_NetUp
                0x004138d8       0xa8 build/sam_e70_xult_freertos/production/_ext/810785262/tcpip_manager.o
                0x004138d8                TCPIP_STACK_NetUp

.text._ARPSendIfPkt%279
                0x00413980       0xa4
 .text._ARPSendIfPkt
                0x00413980       0xa4 build/sam_e70_xult_freertos/production/_ext/810785262/arp.o

.text.TCPIP_ARP_EntryQuery%280
                0x00413a24       0xa4
 .text.TCPIP_ARP_EntryQuery
                0x00413a24       0xa4 build/sam_e70_xult_freertos/production/_ext/810785262/arp.o
                0x00413a24                TCPIP_ARP_EntryQuery

.text.__lshift%281
                0x00413ac8       0xa4
 .text.__lshift
                0x00413ac8       0xa4 c:/program files (x86)/microchip/xc32/v2.15/bin/bin/../../lib/gcc/pic32c/6.2.1/../../../../pic32c/lib/v7e-m/fpv5/hard\libc.a(lib_a-mprec.o)
                0x00413ac8                __lshift

.text.__register_exitproc%282
                0x00413b6c       0xa4
 .text.__register_exitproc
                0x00413b6c       0xa4 c:/program files (x86)/microchip/xc32/v2.15/bin/bin/../../lib/gcc/pic32c/6.2.1/../../../../pic32c/lib/v7e-m/fpv5/hard\libc.a(lib_a-__atexit.o)
                0x00413b6c                __register_exitproc

.text._DRV_ETHPHY_SetupPhaseNegotiate_SubPhase3%283
                0x00413c10       0xa0
 .text._DRV_ETHPHY_SetupPhaseNegotiate_SubPhase3
                0x00413c10       0xa0 build/sam_e70_xult_freertos/production/_ext/1607428259/drv_ethphy.o

.text._DRV_ETHPHY_NegCompletePhaseAN_Restart%284
                0x00413cb0       0xa0
 .text._DRV_ETHPHY_NegCompletePhaseAN_Restart
                0x00413cb0       0xa0 build/sam_e70_xult_freertos/production/_ext/1607428259/drv_ethphy.o

.text.DRV_GMAC_PacketTx%285
                0x00413d50       0xa0
 .text.DRV_GMAC_PacketTx
                0x00413d50       0xa0 build/sam_e70_xult_freertos/production/_ext/1619526243/drv_gmac.o
                0x00413d50                DRV_GMAC_PacketTx

.text._ARPDeleteResources%286
                0x00413df0       0xa0
 .text._ARPDeleteResources
                0x00413df0       0xa0 build/sam_e70_xult_freertos/production/_ext/810785262/arp.o

.text._UDPv4AllocateSktTxBuffer%287
                0x00413e90       0xa0
 .text._UDPv4AllocateSktTxBuffer
                0x00413e90       0xa0 build/sam_e70_xult_freertos/production/_ext/810785262/udp.o

.text.TCPIP_UDP_Disconnect%288
                0x00413f30       0xa0
 .text.TCPIP_UDP_Disconnect
                0x00413f30       0xa0 build/sam_e70_xult_freertos/production/_ext/810785262/udp.o
                0x00413f30                TCPIP_UDP_Disconnect

.text.DisplayNodeMsg%289
                0x00413fd0       0xa0
 .text.DisplayNodeMsg
                0x00413fd0       0xa0 build/sam_e70_xult_freertos/production/_ext/762686499/sys_command.o

.text.SYS_TIME_AddToList%290
                0x00414070       0xa0
 .text.SYS_TIME_AddToList
                0x00414070       0xa0 build/sam_e70_xult_freertos/production/_ext/912870411/sys_time.o

.text%291       0x00414110       0xa0
 .text          0x00414110       0xa0 c:/program files (x86)/microchip/xc32/v2.15/bin/bin/../../lib/gcc/pic32c/6.2.1/../../../../pic32c/lib/v7e-m/fpv5/hard\libc.a(lib_a-memchr.o)
                0x00414110                memchr

.text.__pow5mult%292
                0x004141b0       0xa0
 .text.__pow5mult
                0x004141b0       0xa0 c:/program files (x86)/microchip/xc32/v2.15/bin/bin/../../lib/gcc/pic32c/6.2.1/../../../../pic32c/lib/v7e-m/fpv5/hard\libc.a(lib_a-mprec.o)
                0x004141b0                __pow5mult

.text._DRV_ETHPHY_SetupPhaseNegotiate_SubPhase0%293
                0x00414250       0x9e
 .text._DRV_ETHPHY_SetupPhaseNegotiate_SubPhase0
                0x00414250       0x9e build/sam_e70_xult_freertos/production/_ext/1607428259/drv_ethphy.o

.text.DRV_MIIM_Setup%294
                0x004142f0       0x9c
 .text.DRV_MIIM_Setup
                0x004142f0       0x9c build/sam_e70_xult_freertos/production/_ext/511568427/drv_miim.o
                0x004142f0                DRV_MIIM_Setup

.text.DRV_MIIM_OperationResult%295
                0x0041438c       0x9c
 .text.DRV_MIIM_OperationResult
                0x0041438c       0x9c build/sam_e70_xult_freertos/production/_ext/511568427/drv_miim.o
                0x0041438c                DRV_MIIM_OperationResult

.text.SYS_TIME_HwTimerCompareUpdate%296
                0x00414428       0x9c
 .text.SYS_TIME_HwTimerCompareUpdate
                0x00414428       0x9c build/sam_e70_xult_freertos/production/_ext/912870411/sys_time.o

.text.memset%297
                0x004144c4       0x9c
 .text.memset   0x004144c4       0x9c c:/program files (x86)/microchip/xc32/v2.15/bin/bin/../../lib/gcc/pic32c/6.2.1/../../../../pic32c/lib/v7e-m/fpv5/hard\libc.a(lib_a-memset.o)
                0x004144c4                memset

.text._Command_PrimaryDNSAddressSet%298
                0x00414560       0x98
 .text._Command_PrimaryDNSAddressSet
                0x00414560       0x98 build/sam_e70_xult_freertos/production/_ext/810785262/tcpip_commands.o

.text.TCPIP_IPV4_ArpHandler%299
                0x004145f8       0x98
 .text.TCPIP_IPV4_ArpHandler
                0x004145f8       0x98 build/sam_e70_xult_freertos/production/_ext/810785262/ipv4.o

.text._TCPIPStackModuleRxPurge%300
                0x00414690       0x98
 .text._TCPIPStackModuleRxPurge
                0x00414690       0x98 build/sam_e70_xult_freertos/production/_ext/810785262/tcpip_manager.o
                0x00414690                _TCPIPStackModuleRxPurge

.text.snprintf%301
                0x00414728       0x98
 .text.snprintf
                0x00414728       0x98 c:/program files (x86)/microchip/xc32/v2.15/bin/bin/../../lib/gcc/pic32c/6.2.1/../../../../pic32c/lib/v7e-m/fpv5/hard\libc.a(lib_a-snprintf.o)
                0x00414728                __snprintf_s
                0x00414728                __snprintf_dis
                0x00414728                snprintf

.text.TCPIP_DHCP_InfoGet%302
                0x004147c0       0x94
 .text.TCPIP_DHCP_InfoGet
                0x004147c0       0x94 build/sam_e70_xult_freertos/production/_ext/810785262/dhcp.o
                0x004147c0                TCPIP_DHCP_InfoGet

.text._Command_GatewayAddressSet%303
                0x00414854       0x94
 .text._Command_GatewayAddressSet
                0x00414854       0x94 build/sam_e70_xult_freertos/production/_ext/810785262/tcpip_commands.o

.text._UDPsetPacketInfo%304
                0x004148e8       0x94
 .text._UDPsetPacketInfo
                0x004148e8       0x94 build/sam_e70_xult_freertos/production/_ext/810785262/udp.o

.text.prvAddCurrentTaskToDelayedList%305
                0x0041497c       0x94
 .text.prvAddCurrentTaskToDelayedList
                0x0041497c       0x94 build/sam_e70_xult_freertos/production/_ext/404212886/FreeRTOS_tasks.o

.text._malloc_trim_r%306
                0x00414a10       0x94
 .text._malloc_trim_r
                0x00414a10       0x94 c:/program files (x86)/microchip/xc32/v2.15/bin/bin/../../lib/gcc/pic32c/6.2.1/../../../../pic32c/lib/v7e-m/fpv5/hard\libc.a(lib_a-freer.o)
                0x00414a10                _malloc_trim_r

.text.TCPIP_STACK_NetAddressSet%307
                0x00414aa4       0x92
 .text.TCPIP_STACK_NetAddressSet
                0x00414aa4       0x92 build/sam_e70_xult_freertos/production/_ext/810785262/tcpip_manager.o
                0x00414aa4                TCPIP_STACK_NetAddressSet

.text.Console_UART_ResourceUnlock%308
                0x00414b36       0x92
 .text.Console_UART_ResourceUnlock
                0x00414b36       0x92 build/sam_e70_xult_freertos/production/_ext/762686499/sys_console_uart.o

.text.PIO_Initialize%309
                0x00414bc8       0x90
 .text.PIO_Initialize
                0x00414bc8       0x90 build/sam_e70_xult_freertos/production/_ext/45635366/plib_pio.o
                0x00414bc8                PIO_Initialize

.text.vTaskPriorityDisinheritAfterTimeout%310
                0x00414c58       0x90
 .text.vTaskPriorityDisinheritAfterTimeout
                0x00414c58       0x90 build/sam_e70_xult_freertos/production/_ext/404212886/FreeRTOS_tasks.o
                0x00414c58                vTaskPriorityDisinheritAfterTimeout

.text._DHCPSetLeaseTimeParams%311
                0x00414ce8       0x8c
 .text._DHCPSetLeaseTimeParams
                0x00414ce8       0x8c build/sam_e70_xult_freertos/production/_ext/810785262/dhcp.o

.text.TCPIP_ARP_IsResolved%312
                0x00414d74       0x8c
 .text.TCPIP_ARP_IsResolved
                0x00414d74       0x8c build/sam_e70_xult_freertos/production/_ext/810785262/arp.o
                0x00414d74                TCPIP_ARP_IsResolved

.text.TCPIP_STACK_NetDown%313
                0x00414e00       0x8c
 .text.TCPIP_STACK_NetDown
                0x00414e00       0x8c build/sam_e70_xult_freertos/production/_ext/810785262/tcpip_manager.o
                0x00414e00                TCPIP_STACK_NetDown

.text.SYS_CMD_DELETE%314
                0x00414e8c       0x8c
 .text.SYS_CMD_DELETE
                0x00414e8c       0x8c build/sam_e70_xult_freertos/production/_ext/762686499/sys_command.o
                0x00414e8c                SYS_CMD_DELETE

.text._DRV_ETHPHY_ResetPhaseRead%315
                0x00414f18       0x88
 .text._DRV_ETHPHY_ResetPhaseRead
                0x00414f18       0x88 build/sam_e70_xult_freertos/production/_ext/1607428259/drv_ethphy.o

.text._DHCPPacketFilter%316
                0x00414fa0       0x88
 .text._DHCPPacketFilter
                0x00414fa0       0x88 build/sam_e70_xult_freertos/production/_ext/810785262/dhcp.o

.text.TCPIP_IPV4_DeInitialize%317
                0x00415028       0x88
 .text.TCPIP_IPV4_DeInitialize
                0x00415028       0x88 build/sam_e70_xult_freertos/production/_ext/810785262/ipv4.o
                0x00415028                TCPIP_IPV4_DeInitialize

.text._OAHashFindBkt%318
                0x004150b0       0x88
 .text._OAHashFindBkt
                0x004150b0       0x88 build/sam_e70_xult_freertos/production/_ext/810785262/oahash.o

.text.MPU_Initialize%319
                0x00415138       0x88
 .text.MPU_Initialize
                0x00415138       0x88 build/sam_e70_xult_freertos/production/_ext/45638026/plib_mpu.o
                0x00415138                MPU_Initialize

.text.SYS_CMD_Initialize%320
                0x004151c0       0x88
 .text.SYS_CMD_Initialize
                0x004151c0       0x88 build/sam_e70_xult_freertos/production/_ext/762686499/sys_command.o
                0x004151c0                SYS_CMD_Initialize

.text.TCPIP_Commands_Initialize%321
                0x00415248       0x84
 .text.TCPIP_Commands_Initialize
                0x00415248       0x84 build/sam_e70_xult_freertos/production/_ext/810785262/tcpip_commands.o
                0x00415248                TCPIP_Commands_Initialize

.text.TCPIP_IPV4_MacPacketSwitchTxToRx%322
                0x004152cc       0x82
 .text.TCPIP_IPV4_MacPacketSwitchTxToRx
                0x004152cc       0x82 build/sam_e70_xult_freertos/production/_ext/810785262/ipv4.o
                0x004152cc                TCPIP_IPV4_MacPacketSwitchTxToRx

.text.DRV_PIC32CGMAC_LibInitTransfer%323
                0x00415350       0x80
 .text.DRV_PIC32CGMAC_LibInitTransfer
                0x00415350       0x80 build/sam_e70_xult_freertos/production/_ext/1619526243/drv_gmac_lib_samE7x_V7x.o
                0x00415350                DRV_PIC32CGMAC_LibInitTransfer

.text.DRV_MIIM_Initialize%324
                0x004153d0       0x80
 .text.DRV_MIIM_Initialize
                0x004153d0       0x80 build/sam_e70_xult_freertos/production/_ext/511568427/drv_miim.o
                0x004153d0                DRV_MIIM_Initialize

.text._DHCPClientClose%325
                0x00415450       0x80
 .text._DHCPClientClose
                0x00415450       0x80 build/sam_e70_xult_freertos/production/_ext/810785262/dhcp.o

.text.TCPIP_Helper_PacketChecksum%326
                0x004154d0       0x80
 .text.TCPIP_Helper_PacketChecksum
                0x004154d0       0x80 build/sam_e70_xult_freertos/production/_ext/810785262/tcpip_helpers.o
                0x004154d0                TCPIP_Helper_PacketChecksum

.text.SendCommandPrint%327
                0x00415550       0x80
 .text.SendCommandPrint
                0x00415550       0x80 build/sam_e70_xult_freertos/production/_ext/762686499/sys_command.o

.text.SYS_CMD_PRINT%328
                0x004155d0       0x80
 .text.SYS_CMD_PRINT
                0x004155d0       0x80 build/sam_e70_xult_freertos/production/_ext/762686499/sys_command.o
                0x004155d0                SYS_CMD_PRINT

.text.SYS_CMD_READY_TO_READ%329
                0x00415650       0x80
 .text.SYS_CMD_READY_TO_READ
                0x00415650       0x80 build/sam_e70_xult_freertos/production/_ext/762686499/sys_command.o
                0x00415650                SYS_CMD_READY_TO_READ

.text.SYS_Initialize%330
                0x004156d0       0x80
 .text.SYS_Initialize
                0x004156d0       0x80 build/sam_e70_xult_freertos/production/_ext/1552905064/initialization.o
                0x004156d0                SYS_Initialize

.text.__pic32c_data_initialization%331
                0x00415750       0x80
 .text.__pic32c_data_initialization
                0x00415750       0x80 c:/program files (x86)/microchip/xc32/v2.15/bin/bin/../../lib/gcc/pic32c/6.2.1/../../../../pic32c/lib/v7e-m/fpv5/hard\libpic32c.a(data_init.o)
                0x00415750                __pic32c_data_initialization

.text.__multadd%332
                0x004157d0       0x80
 .text.__multadd
                0x004157d0       0x80 c:/program files (x86)/microchip/xc32/v2.15/bin/bin/../../lib/gcc/pic32c/6.2.1/../../../../pic32c/lib/v7e-m/fpv5/hard\libc.a(lib_a-mprec.o)
                0x004157d0                __multadd

.text.prvUnlockQueue%333
                0x00415850       0x7e
 .text.prvUnlockQueue
                0x00415850       0x7e build/sam_e70_xult_freertos/production/_ext/404212886/queue.o

.text._DRV_ETHPHY_SetupPhaseIdle%334
                0x004158d0       0x7c
 .text._DRV_ETHPHY_SetupPhaseIdle
                0x004158d0       0x7c build/sam_e70_xult_freertos/production/_ext/1607428259/drv_ethphy.o

.rodata.DRV_ETHPHY_OBJECT_BASE_Default%335
                0x0041594c       0x7c
 .rodata.DRV_ETHPHY_OBJECT_BASE_Default
                0x0041594c       0x7c build/sam_e70_xult_freertos/production/_ext/1607428259/drv_ethphy.o
                0x0041594c                DRV_ETHPHY_OBJECT_BASE_Default

.text.DRV_MIIM_Open%336
                0x004159c8       0x7c
 .text.DRV_MIIM_Open
                0x004159c8       0x7c build/sam_e70_xult_freertos/production/_ext/511568427/drv_miim.o
                0x004159c8                DRV_MIIM_Open

.text._Command_DefaultInterfaceSet%337
                0x00415a44       0x7c
 .text._Command_DefaultInterfaceSet
                0x00415a44       0x7c build/sam_e70_xult_freertos/production/_ext/810785262/tcpip_commands.o

.text.SYS_Tasks%338
                0x00415ac0       0x7c
 .text.SYS_Tasks
                0x00415ac0       0x7c build/sam_e70_xult_freertos/production/_ext/1552905064/tasks.o
                0x00415ac0                SYS_Tasks

.text.xTaskPriorityDisinherit%339
                0x00415b3c       0x7c
 .text.xTaskPriorityDisinherit
                0x00415b3c       0x7c build/sam_e70_xult_freertos/production/_ext/404212886/FreeRTOS_tasks.o
                0x00415b3c                xTaskPriorityDisinherit

.text.frexp%340
                0x00415bb8       0x7c
 .text.frexp    0x00415bb8       0x7c c:/program files (x86)/microchip/xc32/v2.15/bin/bin/../../lib/gcc/pic32c/6.2.1/../../../../pic32c/lib/v7e-m/fpv5/hard\libc.a(lib_a-s_frexp.o)
                0x00415bb8                frexp

.text.TCPIP_Helper_StringToMACAddress%341
                0x00415c34       0x7a
 .text.TCPIP_Helper_StringToMACAddress
                0x00415c34       0x7a build/sam_e70_xult_freertos/production/_ext/810785262/tcpip_helpers.o
                0x00415c34                TCPIP_Helper_StringToMACAddress

.text._DRV_ETHPHY_NegCompletePhaseRead2%342
                0x00415cb0       0x78
 .text._DRV_ETHPHY_NegCompletePhaseRead2
                0x00415cb0       0x78 build/sam_e70_xult_freertos/production/_ext/1607428259/drv_ethphy.o

.text._DNS_ValidateIf%343
                0x00415d28       0x78
 .text._DNS_ValidateIf
                0x00415d28       0x78 build/sam_e70_xult_freertos/production/_ext/810785262/dns.o

.text._DHCPCleanup%344
                0x00415da0       0x78
 .text._DHCPCleanup
                0x00415da0       0x78 build/sam_e70_xult_freertos/production/_ext/810785262/dhcp.o

.text.CLK_Initialize%345
                0x00415e18       0x78
 .text.CLK_Initialize
                0x00415e18       0x78 build/sam_e70_xult_freertos/production/_ext/45647770/plib_clk.o
                0x00415e18                CLK_Initialize

.text.Console_UART_ResourceLock%346
                0x00415e90       0x78
 .text.Console_UART_ResourceLock
                0x00415e90       0x78 build/sam_e70_xult_freertos/production/_ext/762686499/sys_console_uart.o

.text.SYS_DEBUG_Print%347
                0x00415f08       0x78
 .text.SYS_DEBUG_Print
                0x00415f08       0x78 build/sam_e70_xult_freertos/production/_ext/762686499/sys_debug.o
                0x00415f08                SYS_DEBUG_Print

.text.xTaskRemoveFromEventList%348
                0x00415f80       0x78
 .text.xTaskRemoveFromEventList
                0x00415f80       0x78 build/sam_e70_xult_freertos/production/_ext/404212886/FreeRTOS_tasks.o
                0x00415f80                xTaskRemoveFromEventList

.text._DRV_GMAC_LinkStateNegResult%349
                0x00415ff8       0x76
 .text._DRV_GMAC_LinkStateNegResult
                0x00415ff8       0x76 build/sam_e70_xult_freertos/production/_ext/1619526243/drv_gmac.o

.text._DRV_ETHPHY_NegResultPhase_BMSTAT%350
                0x0041606e       0x74
 .text._DRV_ETHPHY_NegResultPhase_BMSTAT
                0x0041606e       0x74 build/sam_e70_xult_freertos/production/_ext/1607428259/drv_ethphy.o

.text.TCPIP_DHCP_ConnectionHandler%351
                0x004160e4       0x74
 .text.TCPIP_DHCP_ConnectionHandler
                0x004160e4       0x74 build/sam_e70_xult_freertos/production/_ext/810785262/dhcp.o
                0x004160e4                TCPIP_DHCP_ConnectionHandler

.text._ARPUpdateEntry%352
                0x00416158       0x74
 .text._ARPUpdateEntry
                0x00416158       0x74 build/sam_e70_xult_freertos/production/_ext/810785262/arp.o

.text.TCPIP_ARP_EntryRemove%353
                0x004161cc       0x74
 .text.TCPIP_ARP_EntryRemove
                0x004161cc       0x74 build/sam_e70_xult_freertos/production/_ext/810785262/arp.o
                0x004161cc                TCPIP_ARP_EntryRemove

.text._Command_BIOSNameSet%354
                0x00416240       0x74
 .text._Command_BIOSNameSet
                0x00416240       0x74 build/sam_e70_xult_freertos/production/_ext/810785262/tcpip_commands.o

.text.TCPIP_STACK_BringNetDown%355
                0x004162b4       0x74
 .text.TCPIP_STACK_BringNetDown
                0x004162b4       0x74 build/sam_e70_xult_freertos/production/_ext/810785262/tcpip_manager.o

.text._TCPIP_PKT_PacketAlloc%356
                0x00416328       0x74
 .text._TCPIP_PKT_PacketAlloc
                0x00416328       0x74 build/sam_e70_xult_freertos/production/_ext/810785262/tcpip_packet.o
                0x00416328                _TCPIP_PKT_PacketAlloc

.text.Console_UART_Read%357
                0x0041639c       0x74
 .text.Console_UART_Read
                0x0041639c       0x74 build/sam_e70_xult_freertos/production/_ext/762686499/sys_console_uart.o
                0x0041639c                Console_UART_Read

.text.Console_UART_Write%358
                0x00416410       0x74
 .text.Console_UART_Write
                0x00416410       0x74 build/sam_e70_xult_freertos/production/_ext/762686499/sys_console_uart.o
                0x00416410                Console_UART_Write

.text._vsnprintf_r%359
                0x00416484       0x74
 .text._vsnprintf_r
                0x00416484       0x74 c:/program files (x86)/microchip/xc32/v2.15/bin/bin/../../lib/gcc/pic32c/6.2.1/../../../../pic32c/lib/v7e-m/fpv5/hard\libc.a(lib_a-vsnprintf.o)
                0x00416484                _vsnprintf_r

.text._TCPIP_StackSyncFunction%360
                0x004164f8       0x72
 .text._TCPIP_StackSyncFunction
                0x004164f8       0x72 build/sam_e70_xult_freertos/production/_ext/810785262/tcpip_manager.o

.text.TCPIP_PKT_DataSegmentGet%361
                0x0041656a       0x72
 .text.TCPIP_PKT_DataSegmentGet
                0x0041656a       0x72 build/sam_e70_xult_freertos/production/_ext/810785262/tcpip_packet.o
                0x0041656a                TCPIP_PKT_DataSegmentGet

.text.prvCopyDataToQueue%362
                0x004165dc       0x72
 .text.prvCopyDataToQueue
                0x004165dc       0x72 build/sam_e70_xult_freertos/production/_ext/404212886/queue.o

.text.DRV_ETHPHY_Open%363
                0x00416650       0x70
 .text.DRV_ETHPHY_Open
                0x00416650       0x70 build/sam_e70_xult_freertos/production/_ext/1607428259/drv_ethphy.o
                0x00416650                DRV_ETHPHY_Open

.text._DRV_ETHPHY_ResetPhaseWrite%364
                0x004166c0       0x70
 .text._DRV_ETHPHY_ResetPhaseWrite
                0x004166c0       0x70 build/sam_e70_xult_freertos/production/_ext/1607428259/drv_ethphy.o

.text.DRV_GMAC_LibDescriptorsPoolAdd%365
                0x00416730       0x70
 .text.DRV_GMAC_LibDescriptorsPoolAdd
                0x00416730       0x70 build/sam_e70_xult_freertos/production/_ext/1619526243/drv_gmac_lib_samE7x_V7x.o
                0x00416730                DRV_GMAC_LibDescriptorsPoolAdd

.text.TCPIP_IPV4_Initialize%366
                0x004167a0       0x70
 .text.TCPIP_IPV4_Initialize
                0x004167a0       0x70 build/sam_e70_xult_freertos/production/_ext/810785262/ipv4.o
                0x004167a0                TCPIP_IPV4_Initialize

.text.Console_UART_Initialize%367
                0x00416810       0x70
 .text.Console_UART_Initialize
                0x00416810       0x70 build/sam_e70_xult_freertos/production/_ext/762686499/sys_console_uart.o
                0x00416810                Console_UART_Initialize

.text.SYS_CMD_ADDGRP%368
                0x00416880       0x70
 .text.SYS_CMD_ADDGRP
                0x00416880       0x70 build/sam_e70_xult_freertos/production/_ext/762686499/sys_command.o
                0x00416880                SYS_CMD_ADDGRP

.text.xQueueGenericReset%369
                0x004168f0       0x70
 .text.xQueueGenericReset
                0x004168f0       0x70 build/sam_e70_xult_freertos/production/_ext/404212886/queue.o
                0x004168f0                xQueueGenericReset

.text.prvIdleTask%370
                0x00416960       0x70
 .text.prvIdleTask
                0x00416960       0x70 build/sam_e70_xult_freertos/production/_ext/404212886/FreeRTOS_tasks.o

.text%371       0x004169d0       0x6c
 .text          0x004169d0       0x6c c:/program files (x86)/microchip/xc32/v2.15/bin/bin/../../lib/gcc/pic32c/6.2.1/v7e-m/fpv5/hard/crtbegin.o

.text.TCPIP_DNS_Disable%372
                0x00416a3c       0x6c
 .text.TCPIP_DNS_Disable
                0x00416a3c       0x6c build/sam_e70_xult_freertos/production/_ext/810785262/dns.o
                0x00416a3c                TCPIP_DNS_Disable

.text._TcpCleanup%373
                0x00416aa8       0x6c
 .text._TcpCleanup
                0x00416aa8       0x6c build/sam_e70_xult_freertos/production/_ext/810785262/tcp.o

.text._MacTxPendingPackets%374
                0x00416b14       0x6a
 .text._MacTxPendingPackets
                0x00416b14       0x6a build/sam_e70_xult_freertos/production/_ext/1619526243/drv_gmac.o

.text._DNS_AddSelectionIf%375
                0x00416b7e       0x6a
 .text._DNS_AddSelectionIf
                0x00416b7e       0x6a build/sam_e70_xult_freertos/production/_ext/810785262/dns.o

.text.TCPIP_Helper_PacketCopy%376
                0x00416be8       0x6a
 .text.TCPIP_Helper_PacketCopy
                0x00416be8       0x6a build/sam_e70_xult_freertos/production/_ext/810785262/tcpip_helpers.o
                0x00416be8                TCPIP_Helper_PacketCopy

.text._DRV_GMAC_LinkStateWaitLinkUp%377
                0x00416c54       0x68
 .text._DRV_GMAC_LinkStateWaitLinkUp
                0x00416c54       0x68 build/sam_e70_xult_freertos/production/_ext/1619526243/drv_gmac.o

.text.DRV_PIC32CGMAC_LibMACOpen%378
                0x00416cbc       0x68
 .text.DRV_PIC32CGMAC_LibMACOpen
                0x00416cbc       0x68 build/sam_e70_xult_freertos/production/_ext/1619526243/drv_gmac_lib_samE7x_V7x.o
                0x00416cbc                DRV_PIC32CGMAC_LibMACOpen

.text._TcpSwapHeader%379
                0x00416d24       0x68
 .text._TcpSwapHeader
                0x00416d24       0x68 build/sam_e70_xult_freertos/production/_ext/810785262/tcp.o

.text._TcpClientSocketConnect%380
                0x00416d8c       0x68
 .text._TcpClientSocketConnect
                0x00416d8c       0x68 build/sam_e70_xult_freertos/production/_ext/810785262/tcp.o

.text.TCPIP_ARP_CacheEntriesNoGet%381
                0x00416df4       0x68
 .text.TCPIP_ARP_CacheEntriesNoGet
                0x00416df4       0x68 build/sam_e70_xult_freertos/production/_ext/810785262/arp.o
                0x00416df4                TCPIP_ARP_CacheEntriesNoGet

.text.TCPIP_OAHASH_EntryLookup%382
                0x00416e5c       0x68
 .text.TCPIP_OAHASH_EntryLookup
                0x00416e5c       0x68 build/sam_e70_xult_freertos/production/_ext/810785262/oahash.o
                0x00416e5c                TCPIP_OAHASH_EntryLookup

.text.TCPIP_OAHASH_EntryLookupOrInsert%383
                0x00416ec4       0x68
 .text.TCPIP_OAHASH_EntryLookupOrInsert
                0x00416ec4       0x68 build/sam_e70_xult_freertos/production/_ext/810785262/oahash.o
                0x00416ec4                TCPIP_OAHASH_EntryLookupOrInsert

.text._TCPIPStackInsertRxPacket%384
                0x00416f2c       0x68
 .text._TCPIPStackInsertRxPacket
                0x00416f2c       0x68 build/sam_e70_xult_freertos/production/_ext/810785262/tcpip_manager.o
                0x00416f2c                _TCPIPStackInsertRxPacket

.rodata%385     0x00416f94       0x68
 .rodata        0x00416f94       0x68 build/sam_e70_xult_freertos/production/_ext/1552905064/initialization.o

.text.vTaskStartScheduler%386
                0x00416ffc       0x68
 .text.vTaskStartScheduler
                0x00416ffc       0x68 build/sam_e70_xult_freertos/production/_ext/404212886/FreeRTOS_tasks.o
                0x00416ffc                vTaskStartScheduler

.text.TCPIP_Helper_CalcIPChecksum%387
                0x00417064       0x66
 .text.TCPIP_Helper_CalcIPChecksum
                0x00417064       0x66 build/sam_e70_xult_freertos/production/_ext/810785262/tcpip_helpers.o
                0x00417064                TCPIP_Helper_CalcIPChecksum

.text._DRV_ETHPHY_SetupPhaseNegotiate_SubPhase6%388
                0x004170ca       0x64
 .text._DRV_ETHPHY_SetupPhaseNegotiate_SubPhase6
                0x004170ca       0x64 build/sam_e70_xult_freertos/production/_ext/1607428259/drv_ethphy.o

.text.TCPIP_DHCP_Disable%389
                0x00417130       0x64
 .text.TCPIP_DHCP_Disable
                0x00417130       0x64 build/sam_e70_xult_freertos/production/_ext/810785262/dhcp.o
                0x00417130                TCPIP_DHCP_Disable

.text.TCPIP_IPV4_MacPacketTransmit%390
                0x00417194       0x64
 .text.TCPIP_IPV4_MacPacketTransmit
                0x00417194       0x64 build/sam_e70_xult_freertos/production/_ext/810785262/ipv4.o
                0x00417194                TCPIP_IPV4_MacPacketTransmit

.text.SYS_CMDIO_ADD%391
                0x004171f8       0x64
 .text.SYS_CMDIO_ADD
                0x004171f8       0x64 build/sam_e70_xult_freertos/production/_ext/762686499/sys_command.o
                0x004171f8                SYS_CMDIO_ADD

.text.xPortPendSVHandler%392
                0x00417260       0x64
 .text.xPortPendSVHandler
                0x00417260       0x64 build/sam_e70_xult_freertos/production/_ext/977623654/port.o
                0x00417260                xPortPendSVHandler

.text.strncpy%393
                0x004172c4       0x64
 .text.strncpy  0x004172c4       0x64 c:/program files (x86)/microchip/xc32/v2.15/bin/bin/../../lib/gcc/pic32c/6.2.1/../../../../pic32c/lib/v7e-m/fpv5/hard\libc.a(lib_a-strncpy.o)
                0x004172c4                strncpy

.text.__strtok_r%394
                0x00417328       0x64
 .text.__strtok_r
                0x00417328       0x64 c:/program files (x86)/microchip/xc32/v2.15/bin/bin/../../lib/gcc/pic32c/6.2.1/../../../../pic32c/lib/v7e-m/fpv5/hard\libc.a(lib_a-strtok_r.o)
                0x00417328                __strtok_r

.text.TCPIP_ARP_EntryGet%395
                0x0041738c       0x62
 .text.TCPIP_ARP_EntryGet
                0x0041738c       0x62 build/sam_e70_xult_freertos/production/_ext/810785262/arp.o
                0x0041738c                TCPIP_ARP_EntryGet

.text.Console_UART_PLIBReadHandler%396
                0x004173ee       0x62
 .text.Console_UART_PLIBReadHandler
                0x004173ee       0x62 build/sam_e70_xult_freertos/production/_ext/762686499/sys_console_uart.o

.text.TCPIP_DNS_ClientDeinitialize%397
                0x00417450       0x60
 .text.TCPIP_DNS_ClientDeinitialize
                0x00417450       0x60 build/sam_e70_xult_freertos/production/_ext/810785262/dns.o
                0x00417450                TCPIP_DNS_ClientDeinitialize

.text.TCPIP_DNS_GetIPAddressesNumber%398
                0x004174b0       0x60
 .text.TCPIP_DNS_GetIPAddressesNumber
                0x004174b0       0x60 build/sam_e70_xult_freertos/production/_ext/810785262/dns.o
                0x004174b0                TCPIP_DNS_GetIPAddressesNumber

.rodata.TCPIP_STACK_MODULE_ENTRY_TBL%399
                0x00417510       0x60
 .rodata.TCPIP_STACK_MODULE_ENTRY_TBL
                0x00417510       0x60 build/sam_e70_xult_freertos/production/_ext/810785262/tcpip_manager.o

.text.TCPIP_UDP_SocketInfoGet%400
                0x00417570       0x60
 .text.TCPIP_UDP_SocketInfoGet
                0x00417570       0x60 build/sam_e70_xult_freertos/production/_ext/810785262/udp.o
                0x00417570                TCPIP_UDP_SocketInfoGet

.text._calloc_r%401
                0x004175d0       0x60
 .text._calloc_r
                0x004175d0       0x60 c:/program files (x86)/microchip/xc32/v2.15/bin/bin/../../lib/gcc/pic32c/6.2.1/../../../../pic32c/lib/v7e-m/fpv5/hard\libc.a(lib_a-callocr.o)
                0x004175d0                _calloc_r

.text.memcmp%402
                0x00417630       0x60
 .text.memcmp   0x00417630       0x60 c:/program files (x86)/microchip/xc32/v2.15/bin/bin/../../lib/gcc/pic32c/6.2.1/../../../../pic32c/lib/v7e-m/fpv5/hard\libc.a(lib_a-memcmp.o)
                0x00417630                memcmp

.text.__lo0bits%403
                0x00417690       0x60
 .text.__lo0bits
                0x00417690       0x60 c:/program files (x86)/microchip/xc32/v2.15/bin/bin/../../lib/gcc/pic32c/6.2.1/../../../../pic32c/lib/v7e-m/fpv5/hard\libc.a(lib_a-mprec.o)
                0x00417690                __lo0bits

.text.DRV_ETHPHY_Initialize%404
                0x004176f0       0x5c
 .text.DRV_ETHPHY_Initialize
                0x004176f0       0x5c build/sam_e70_xult_freertos/production/_ext/1607428259/drv_ethphy.o
                0x004176f0                DRV_ETHPHY_Initialize

.text._TCPIPStackIpAddFromAnyNet%405
                0x0041774c       0x5c
 .text._TCPIPStackIpAddFromAnyNet
                0x0041774c       0x5c build/sam_e70_xult_freertos/production/_ext/810785262/tcpip_manager.o
                0x0041774c                _TCPIPStackIpAddFromAnyNet

.text.strncat%406
                0x004177a8       0x5c
 .text.strncat  0x004177a8       0x5c c:/program files (x86)/microchip/xc32/v2.15/bin/bin/../../lib/gcc/pic32c/6.2.1/../../../../pic32c/lib/v7e-m/fpv5/hard\libc.a(lib_a-strncat.o)
                0x004177a8                strncat

.text.DRV_GMAC_StatisticsGet%407
                0x00417804       0x5a
 .text.DRV_GMAC_StatisticsGet
                0x00417804       0x5a build/sam_e70_xult_freertos/production/_ext/1619526243/drv_gmac.o
                0x00417804                DRV_GMAC_StatisticsGet

.text._DHCPOptionProcessDns%408
                0x0041785e       0x5a
 .text._DHCPOptionProcessDns
                0x0041785e       0x5a build/sam_e70_xult_freertos/production/_ext/810785262/dhcp.o

.text.TCPIP_UDP_BcastIPV4AddressSet%409
                0x004178b8       0x5a
 .text.TCPIP_UDP_BcastIPV4AddressSet
                0x004178b8       0x5a build/sam_e70_xult_freertos/production/_ext/810785262/udp.o
                0x004178b8                TCPIP_UDP_BcastIPV4AddressSet

.text.DRV_ETHPHY_VendorSMIReadStart%410
                0x00417912       0x58
 .text.DRV_ETHPHY_VendorSMIReadStart
                0x00417912       0x58 build/sam_e70_xult_freertos/production/_ext/1607428259/drv_ethphy.o
                0x00417912                DRV_ETHPHY_VendorSMIReadStart

.text.DRV_ETHPHY_VendorSMIWriteStart%411
                0x0041796a       0x58
 .text.DRV_ETHPHY_VendorSMIWriteStart
                0x0041796a       0x58 build/sam_e70_xult_freertos/production/_ext/1607428259/drv_ethphy.o
                0x0041796a                DRV_ETHPHY_VendorSMIWriteStart

.rodata.DRV_GMAC_Object%412
                0x004179c4       0x58
 .rodata.DRV_GMAC_Object
                0x004179c4       0x58 build/sam_e70_xult_freertos/production/_ext/1619526243/drv_gmac.o
                0x004179c4                DRV_GMAC_Object

.text.DRV_PIC32CGMAC_LibInit%413
                0x00417a1c       0x58
 .text.DRV_PIC32CGMAC_LibInit
                0x00417a1c       0x58 build/sam_e70_xult_freertos/production/_ext/1619526243/drv_gmac_lib_samE7x_V7x.o
                0x00417a1c                DRV_PIC32CGMAC_LibInit

.text._DRV_MIIM_ReleaseOpDcpt%414
                0x00417a74       0x58
 .text._DRV_MIIM_ReleaseOpDcpt
                0x00417a74       0x58 build/sam_e70_xult_freertos/production/_ext/511568427/drv_miim.o

.text._DNS_Enable%415
                0x00417acc       0x58
 .text._DNS_Enable
                0x00417acc       0x58 build/sam_e70_xult_freertos/production/_ext/810785262/dns.o

.text._DNS_CleanCacheEntry%416
                0x00417b24       0x58
 .text._DNS_CleanCacheEntry
                0x00417b24       0x58 build/sam_e70_xult_freertos/production/_ext/810785262/dns.o

.text.TCPIP_STACK_StringToMACId%417
                0x00417b7c       0x58
 .text.TCPIP_STACK_StringToMACId
                0x00417b7c       0x58 build/sam_e70_xult_freertos/production/_ext/810785262/tcpip_manager.o
                0x00417b7c                TCPIP_STACK_StringToMACId

.text._TCPIPStackAnyNetLinked%418
                0x00417bd4       0x58
 .text._TCPIPStackAnyNetLinked
                0x00417bd4       0x58 build/sam_e70_xult_freertos/production/_ext/810785262/tcpip_manager.o
                0x00417bd4                _TCPIPStackAnyNetLinked

.text._TCPIPStackModuleSignalRequest%419
                0x00417c2c       0x58
 .text._TCPIPStackModuleSignalRequest
                0x00417c2c       0x58 build/sam_e70_xult_freertos/production/_ext/810785262/tcpip_manager.o
                0x00417c2c                _TCPIPStackModuleSignalRequest

.text.SYS_TIME_TimerStart%420
                0x00417c84       0x58
 .text.SYS_TIME_TimerStart
                0x00417c84       0x58 build/sam_e70_xult_freertos/production/_ext/912870411/sys_time.o
                0x00417c84                SYS_TIME_TimerStart

.text.xTaskCheckForTimeOut%421
                0x00417cdc       0x58
 .text.xTaskCheckForTimeOut
                0x00417cdc       0x58 build/sam_e70_xult_freertos/production/_ext/404212886/FreeRTOS_tasks.o
                0x00417cdc                xTaskCheckForTimeOut

.text.OSAL_SEM_Create%422
                0x00417d34       0x58
 .text.OSAL_SEM_Create
                0x00417d34       0x58 build/sam_e70_xult_freertos/production/_ext/281930714/osal_freertos.o
                0x00417d34                OSAL_SEM_Create

.text._DRV_ETHPHY_LinkStatPhaseRead%423
                0x00417d8c       0x56
 .text._DRV_ETHPHY_LinkStatPhaseRead
                0x00417d8c       0x56 build/sam_e70_xult_freertos/production/_ext/1607428259/drv_ethphy.o

.text.TCPIP_ARP_Probe%424
                0x00417de2       0x56
 .text.TCPIP_ARP_Probe
                0x00417de2       0x56 build/sam_e70_xult_freertos/production/_ext/810785262/arp.o
                0x00417de2                TCPIP_ARP_Probe

.text._DRV_ETHPHY_NegCompletePhaseAN_Complete%425
                0x00417e38       0x54
 .text._DRV_ETHPHY_NegCompletePhaseAN_Complete
                0x00417e38       0x54 build/sam_e70_xult_freertos/production/_ext/1607428259/drv_ethphy.o

.text.DRV_GMAC_EventAcknowledge%426
                0x00417e8c       0x54
 .text.DRV_GMAC_EventAcknowledge
                0x00417e8c       0x54 build/sam_e70_xult_freertos/production/_ext/1619526243/drv_gmac.o
                0x00417e8c                DRV_GMAC_EventAcknowledge

.text._DNS_DeleteHash%427
                0x00417ee0       0x54
 .text._DNS_DeleteHash
                0x00417ee0       0x54 build/sam_e70_xult_freertos/production/_ext/810785262/dns.o

.text.TCPIP_DNS_RemoveAll%428
                0x00417f34       0x54
 .text.TCPIP_DNS_RemoveAll
                0x00417f34       0x54 build/sam_e70_xult_freertos/production/_ext/810785262/dns.o
                0x00417f34                TCPIP_DNS_RemoveAll

.text._DHCPOptionWriteSrvIdent%429
                0x00417f88       0x54
 .text._DHCPOptionWriteSrvIdent
                0x00417f88       0x54 build/sam_e70_xult_freertos/production/_ext/810785262/dhcp.o

.text._ARPNotifyClients%430
                0x00417fdc       0x54
 .text._ARPNotifyClients
                0x00417fdc       0x54 build/sam_e70_xult_freertos/production/_ext/810785262/arp.o

.rodata%431     0x00418030       0x54
 .rodata        0x00418030       0x54 build/sam_e70_xult_freertos/production/_ext/810785262/ipv4.o

.text.SYS_TIME_RemoveFromList%432
                0x00418084       0x54
 .text.SYS_TIME_RemoveFromList
                0x00418084       0x54 build/sam_e70_xult_freertos/production/_ext/912870411/sys_time.o

.rodata.tcpipMACPIC32CINTInitData%433
                0x004180d8       0x54
 .rodata.tcpipMACPIC32CINTInitData
                0x004180d8       0x54 build/sam_e70_xult_freertos/production/_ext/1552905064/initialization.o
                0x004180d8                tcpipMACPIC32CINTInitData

.text._XtlEventsTcp2Eth%434
                0x0041812c       0x52
 .text._XtlEventsTcp2Eth
                0x0041812c       0x52 build/sam_e70_xult_freertos/production/_ext/1619526243/drv_gmac.o

.text._TcpAbort%435
                0x0041817e       0x52
 .text._TcpAbort
                0x0041817e       0x52 build/sam_e70_xult_freertos/production/_ext/810785262/tcp.o

.text._DRV_MIIM_GetClientAndLock%436
                0x004181d0       0x50
 .text._DRV_MIIM_GetClientAndLock
                0x004181d0       0x50 build/sam_e70_xult_freertos/production/_ext/511568427/drv_miim.o

.text.TCPIP_DNS_OAHASH_DeleteEntry%437
                0x00418220       0x50
 .text.TCPIP_DNS_OAHASH_DeleteEntry
                0x00418220       0x50 build/sam_e70_xult_freertos/production/_ext/810785262/dns.o

.rodata%438     0x00418270       0x50
 .rodata        0x00418270       0x50 build/sam_e70_xult_freertos/production/_ext/810785262/tcp.o

.text._DHCPOptionWriteIPRequest%439
                0x004182c0       0x50
 .text._DHCPOptionWriteIPRequest
                0x004182c0       0x50 build/sam_e70_xult_freertos/production/_ext/810785262/dhcp.o

.text.TCPIP_Helper_IPAddressToString%440
                0x00418310       0x50
 .text.TCPIP_Helper_IPAddressToString
                0x00418310       0x50 build/sam_e70_xult_freertos/production/_ext/810785262/tcpip_helpers.o
                0x00418310                TCPIP_Helper_IPAddressToString

.text.SYS_CONSOLE_Initialize%441
                0x00418360       0x50
 .text.SYS_CONSOLE_Initialize
                0x00418360       0x50 build/sam_e70_xult_freertos/production/_ext/762686499/sys_console.o
                0x00418360                SYS_CONSOLE_Initialize

.text.SYS_CONSOLE_Status%442
                0x004183b0       0x50
 .text.SYS_CONSOLE_Status
                0x004183b0       0x50 build/sam_e70_xult_freertos/production/_ext/762686499/sys_console.o
                0x004183b0                SYS_CONSOLE_Status

.text.SYS_TIME_CallbackRegisterMS%443
                0x00418400       0x50
 .text.SYS_TIME_CallbackRegisterMS
                0x00418400       0x50 build/sam_e70_xult_freertos/production/_ext/912870411/sys_time.o
                0x00418400                SYS_TIME_CallbackRegisterMS

.text.__libc_init_array%444
                0x00418450       0x50
 .text.__libc_init_array
                0x00418450       0x50 c:/program files (x86)/microchip/xc32/v2.15/bin/bin/../../lib/gcc/pic32c/6.2.1/../../../../pic32c/lib/v7e-m/fpv5/hard\libc.a(lib_a-init.o)
                0x00418450                __libc_init_array

.text.TCPIP_Helper_FormatNetBIOSName%445
                0x004184a0       0x4e
 .text.TCPIP_Helper_FormatNetBIOSName
                0x004184a0       0x4e build/sam_e70_xult_freertos/production/_ext/810785262/tcpip_helpers.o
                0x004184a0                TCPIP_Helper_FormatNetBIOSName

.text._DRV_GMAC_LinkStateGetLink%446
                0x004184ee       0x4c
 .text._DRV_GMAC_LinkStateGetLink
                0x004184ee       0x4c build/sam_e70_xult_freertos/production/_ext/1619526243/drv_gmac.o

.text.DRV_MIIM_OperationAbort%447
                0x0041853a       0x4c
 .text.DRV_MIIM_OperationAbort
                0x0041853a       0x4c build/sam_e70_xult_freertos/production/_ext/511568427/drv_miim.o
                0x0041853a                DRV_MIIM_OperationAbort

.text.TCPIP_IPV4_Cleanup%448
                0x00418588       0x4c
 .text.TCPIP_IPV4_Cleanup
                0x00418588       0x4c build/sam_e70_xult_freertos/production/_ext/810785262/ipv4.o

.text._TCPIP_MacEventCB%449
                0x004185d4       0x4c
 .text._TCPIP_MacEventCB
                0x004185d4       0x4c build/sam_e70_xult_freertos/production/_ext/810785262/tcpip_manager.o

.text._UDPClose%450
                0x00418620       0x4c
 .text._UDPClose
                0x00418620       0x4c build/sam_e70_xult_freertos/production/_ext/810785262/udp.o

.text.TCPIP_UDP_PutIsReady%451
                0x0041866c       0x4c
 .text.TCPIP_UDP_PutIsReady
                0x0041866c       0x4c build/sam_e70_xult_freertos/production/_ext/810785262/udp.o
                0x0041866c                TCPIP_UDP_PutIsReady

.text.Console_UART_PLIBWriteHandler%452
                0x004186b8       0x4c
 .text.Console_UART_PLIBWriteHandler
                0x004186b8       0x4c build/sam_e70_xult_freertos/production/_ext/762686499/sys_console_uart.o

.text.sprintf%453
                0x00418704       0x4c
 .text.sprintf  0x00418704       0x4c c:/program files (x86)/microchip/xc32/v2.15/bin/bin/../../lib/gcc/pic32c/6.2.1/../../../../pic32c/lib/v7e-m/fpv5/hard\libc.a(lib_a-sprintf.o)
                0x00418704                __sprintf_s
                0x00418704                sprintf
                0x00418704                __sprintf_oxX
                0x00418704                __sprintf_di

.text._Balloc%454
                0x00418750       0x4c
 .text._Balloc  0x00418750       0x4c c:/program files (x86)/microchip/xc32/v2.15/bin/bin/../../lib/gcc/pic32c/6.2.1/../../../../pic32c/lib/v7e-m/fpv5/hard\libc.a(lib_a-mprec.o)
                0x00418750                _Balloc

.text.TCPIP_UDP_DestinationIPAddressSet%455
                0x0041879c       0x4a
 .text.TCPIP_UDP_DestinationIPAddressSet
                0x0041879c       0x4a build/sam_e70_xult_freertos/production/_ext/810785262/udp.o
                0x0041879c                TCPIP_UDP_DestinationIPAddressSet

.text._DRV_ETHPHY_SetupPhaseNegotiate_SubPhase1%456
                0x004187e8       0x48
 .text._DRV_ETHPHY_SetupPhaseNegotiate_SubPhase1
                0x004187e8       0x48 build/sam_e70_xult_freertos/production/_ext/1607428259/drv_ethphy.o

.text.DRV_ETHPHY_VendorSMIReadResultGet%457
                0x00418830       0x48
 .text.DRV_ETHPHY_VendorSMIReadResultGet
                0x00418830       0x48 build/sam_e70_xult_freertos/production/_ext/1607428259/drv_ethphy.o
                0x00418830                DRV_ETHPHY_VendorSMIReadResultGet

.text.DRV_GMAC_RegisterStatisticsGet%458
                0x00418878       0x48
 .text.DRV_GMAC_RegisterStatisticsGet
                0x00418878       0x48 build/sam_e70_xult_freertos/production/_ext/1619526243/drv_gmac.o
                0x00418878                DRV_GMAC_RegisterStatisticsGet

.text._TCPSendWinIncUpdate%459
                0x004188c0       0x48
 .text._TCPSendWinIncUpdate
                0x004188c0       0x48 build/sam_e70_xult_freertos/production/_ext/810785262/tcp.o

.text.TCPIP_DHCP_IsEnabled%460
                0x00418908       0x48
 .text.TCPIP_DHCP_IsEnabled
                0x00418908       0x48 build/sam_e70_xult_freertos/production/_ext/810785262/dhcp.o
                0x00418908                TCPIP_DHCP_IsEnabled

.rodata._DHCPOptProcTbl%461
                0x00418950       0x48
 .rodata._DHCPOptProcTbl
                0x00418950       0x48 build/sam_e70_xult_freertos/production/_ext/810785262/dhcp.o

.text.TCPIP_ARP_Deinitialize%462
                0x00418998       0x48
 .text.TCPIP_ARP_Deinitialize
                0x00418998       0x48 build/sam_e70_xult_freertos/production/_ext/810785262/arp.o
                0x00418998                TCPIP_ARP_Deinitialize

.text.TCPIP_Helper_MACAddressToString%463
                0x004189e0       0x48
 .text.TCPIP_Helper_MACAddressToString
                0x004189e0       0x48 build/sam_e70_xult_freertos/production/_ext/810785262/tcpip_helpers.o
                0x004189e0                TCPIP_Helper_MACAddressToString

.text.TCPIP_STACK_MACIdToNet%464
                0x00418a28       0x48
 .text.TCPIP_STACK_MACIdToNet
                0x00418a28       0x48 build/sam_e70_xult_freertos/production/_ext/810785262/tcpip_manager.o
                0x00418a28                TCPIP_STACK_MACIdToNet

.text._TCPIPStackSignalHandlerRegister%465
                0x00418a70       0x48
 .text._TCPIPStackSignalHandlerRegister
                0x00418a70       0x48 build/sam_e70_xult_freertos/production/_ext/810785262/tcpip_manager.o
                0x00418a70                _TCPIPStackSignalHandlerRegister

.text.NVIC_Initialize%466
                0x00418ab8       0x48
 .text.NVIC_Initialize
                0x00418ab8       0x48 build/sam_e70_xult_freertos/production/_ext/1414743522/plib_nvic.o
                0x00418ab8                NVIC_Initialize

.text.USART1_Write%467
                0x00418b00       0x48
 .text.USART1_Write
                0x00418b00       0x48 build/sam_e70_xult_freertos/production/_ext/901008055/plib_usart1.o
                0x00418b00                USART1_Write

.text.CommandCleanup%468
                0x00418b48       0x48
 .text.CommandCleanup
                0x00418b48       0x48 build/sam_e70_xult_freertos/production/_ext/762686499/sys_command.o

.rodata.TCPIP_STACK_MODULE_CONFIG_TBL%469
                0x00418b90       0x48
 .rodata.TCPIP_STACK_MODULE_CONFIG_TBL
                0x00418b90       0x48 build/sam_e70_xult_freertos/production/_ext/1552905064/initialization.o
                0x00418b90                TCPIP_STACK_MODULE_CONFIG_TBL

.text.xPortStartScheduler%470
                0x00418bd8       0x48
 .text.xPortStartScheduler
                0x00418bd8       0x48 build/sam_e70_xult_freertos/production/_ext/977623654/port.o
                0x00418bd8                xPortStartScheduler

.text._TCPIP_HEAP_Delete%471
                0x00418c20       0x46
 .text._TCPIP_HEAP_Delete
                0x00418c20       0x46 build/sam_e70_xult_freertos/production/_ext/810785262/tcpip_heap_internal.o

.text.TCPIP_STACK_AddressServiceEvent%472
                0x00418c66       0x46
 .text.TCPIP_STACK_AddressServiceEvent
                0x00418c66       0x46 build/sam_e70_xult_freertos/production/_ext/810785262/tcpip_manager.o
                0x00418c66                TCPIP_STACK_AddressServiceEvent

.text.TCPIP_UDP_ArrayPut%473
                0x00418cac       0x46
 .text.TCPIP_UDP_ArrayPut
                0x00418cac       0x46 build/sam_e70_xult_freertos/production/_ext/810785262/udp.o
                0x00418cac                TCPIP_UDP_ArrayPut

.text.DRV_GMAC_RxFilterHashTableEntrySet%474
                0x00418cf2       0x44
 .text.DRV_GMAC_RxFilterHashTableEntrySet
                0x00418cf2       0x44 build/sam_e70_xult_freertos/production/_ext/1619526243/drv_gmac.o
                0x00418cf2                DRV_GMAC_RxFilterHashTableEntrySet

.text.Helper_SingleListNodeRemove%475
                0x00418d36       0x44
 .text.Helper_SingleListNodeRemove
                0x00418d36       0x44 build/sam_e70_xult_freertos/production/_ext/511568427/drv_miim.o
                0x00418d36                Helper_SingleListNodeRemove

.text.hexatob%476
                0x00418d7a       0x44
 .text.hexatob  0x00418d7a       0x44 build/sam_e70_xult_freertos/production/_ext/810785262/helpers.o
                0x00418d7a                hexatob

.text.TCPIP_ICMP_Initialize%477
                0x00418dc0       0x44
 .text.TCPIP_ICMP_Initialize
                0x00418dc0       0x44 build/sam_e70_xult_freertos/production/_ext/810785262/icmp.o
                0x00418dc0                TCPIP_ICMP_Initialize

.text._DHCPSetTimeout%478
                0x00418e04       0x44
 .text._DHCPSetTimeout
                0x00418e04       0x44 build/sam_e70_xult_freertos/production/_ext/810785262/dhcp.o

.text._TCPIP_HEAP_MaxSize%479
                0x00418e48       0x44
 .text._TCPIP_HEAP_MaxSize
                0x00418e48       0x44 build/sam_e70_xult_freertos/production/_ext/810785262/tcpip_heap_internal.o

.text.TCPIP_Helper_SingleListNodeRemove%480
                0x00418e8c       0x44
 .text.TCPIP_Helper_SingleListNodeRemove
                0x00418e8c       0x44 build/sam_e70_xult_freertos/production/_ext/810785262/tcpip_helpers.o
                0x00418e8c                TCPIP_Helper_SingleListNodeRemove

.text.TCPIP_STACK_NetByAddress%481
                0x00418ed0       0x44
 .text.TCPIP_STACK_NetByAddress
                0x00418ed0       0x44 build/sam_e70_xult_freertos/production/_ext/810785262/tcpip_manager.o
                0x00418ed0                TCPIP_STACK_NetByAddress

.text._TCPIPStackModuleRxInsert%482
                0x00418f14       0x44
 .text._TCPIPStackModuleRxInsert
                0x00418f14       0x44 build/sam_e70_xult_freertos/production/_ext/810785262/tcpip_manager.o
                0x00418f14                _TCPIPStackModuleRxInsert

.text._UDPSetNewRxPacket%483
                0x00418f58       0x44
 .text._UDPSetNewRxPacket
                0x00418f58       0x44 build/sam_e70_xult_freertos/production/_ext/810785262/udp.o

.rodata%484     0x00418f9c       0x44
 .rodata        0x00418f9c       0x44 build/sam_e70_xult_freertos/production/_ext/810785262/udp.o

.text.SYS_INT_SourceDisable%485
                0x00418fe0       0x44
 .text.SYS_INT_SourceDisable
                0x00418fe0       0x44 build/sam_e70_xult_freertos/production/_ext/1775855163/sys_int.o
                0x00418fe0                SYS_INT_SourceDisable

.text._APP_Commands_requestWeather%486
                0x00419024       0x44
 .text._APP_Commands_requestWeather
                0x00419024       0x44 build/sam_e70_xult_freertos/production/_ext/1360937237/app_commands.o

.text.APP_Commands_Init%487
                0x00419068       0x44
 .text.APP_Commands_Init
                0x00419068       0x44 build/sam_e70_xult_freertos/production/_ext/1360937237/app_commands.o
                0x00419068                APP_Commands_Init

.rodata%488     0x004190ac       0x44
 .rodata        0x004190ac       0x44 c:/program files (x86)/microchip/xc32/v2.15/bin/bin/../../lib/gcc/pic32c/6.2.1/../../../../pic32c/lib/v7e-m/fpv5/hard\libc.a(lib_a-svfprintf.o)

.text._DRV_GMAC_LinkStateNegComplete%489
                0x004190f0       0x42
 .text._DRV_GMAC_LinkStateNegComplete
                0x004190f0       0x42 build/sam_e70_xult_freertos/production/_ext/1619526243/drv_gmac.o

.text._TcpSocketSetSourceInterface%490
                0x00419132       0x42
 .text._TcpSocketSetSourceInterface
                0x00419132       0x42 build/sam_e70_xult_freertos/production/_ext/810785262/tcp.o

.text._DHCPOptionClientId%491
                0x00419174       0x42
 .text._DHCPOptionClientId
                0x00419174       0x42 build/sam_e70_xult_freertos/production/_ext/810785262/dhcp.o

.text._DRV_ETHPHY_NegRestartPhaseRead%492
                0x004191b6       0x40
 .text._DRV_ETHPHY_NegRestartPhaseRead
                0x004191b6       0x40 build/sam_e70_xult_freertos/production/_ext/1607428259/drv_ethphy.o

.text._DRV_ETHPHY_SetupPhaseNegotiate_SubPhase5%493
                0x004191f6       0x40
 .text._DRV_ETHPHY_SetupPhaseNegotiate_SubPhase5
                0x004191f6       0x40 build/sam_e70_xult_freertos/production/_ext/1607428259/drv_ethphy.o

.rodata.DRV_MIIM_OBJECT_BASE_Default%494
                0x00419238       0x40
 .rodata.DRV_MIIM_OBJECT_BASE_Default
                0x00419238       0x40 build/sam_e70_xult_freertos/production/_ext/511568427/drv_miim.o
                0x00419238                DRV_MIIM_OBJECT_BASE_Default

.text.TCPIP_DNS_RemoveEntry%495
                0x00419278       0x40
 .text.TCPIP_DNS_RemoveEntry
                0x00419278       0x40 build/sam_e70_xult_freertos/production/_ext/810785262/dns.o
                0x00419278                TCPIP_DNS_RemoveEntry

.rodata%496     0x004192b8       0x40
 .rodata        0x004192b8       0x40 build/sam_e70_xult_freertos/production/_ext/810785262/dns.o

.text._TCP_PortIsAvailable%497
                0x004192f8       0x40
 .text._TCP_PortIsAvailable
                0x004192f8       0x40 build/sam_e70_xult_freertos/production/_ext/810785262/tcp.o

.text._DHCPSetRunFail%498
                0x00419338       0x40
 .text._DHCPSetRunFail
                0x00419338       0x40 build/sam_e70_xult_freertos/production/_ext/810785262/dhcp.o

.text.TCPIP_DHCP_Deinitialize%499
                0x00419378       0x40
 .text.TCPIP_DHCP_Deinitialize
                0x00419378       0x40 build/sam_e70_xult_freertos/production/_ext/810785262/dhcp.o
                0x00419378                TCPIP_DHCP_Deinitialize

.rodata%500     0x004193b8       0x40
 .rodata        0x004193b8       0x40 build/sam_e70_xult_freertos/production/_ext/810785262/tcpip_helpers.o

.text.TCPIP_STACK_NetAliasNameGet%501
                0x004193f8       0x40
 .text.TCPIP_STACK_NetAliasNameGet
                0x004193f8       0x40 build/sam_e70_xult_freertos/production/_ext/810785262/tcpip_manager.o
                0x004193f8                TCPIP_STACK_NetAliasNameGet

.text.TCPIP_STACK_NetHandleGet%502
                0x00419438       0x40
 .text.TCPIP_STACK_NetHandleGet
                0x00419438       0x40 build/sam_e70_xult_freertos/production/_ext/810785262/tcpip_manager.o
                0x00419438                TCPIP_STACK_NetHandleGet

.text._UDPIsAvailablePort%503
                0x00419478       0x40
 .text._UDPIsAvailablePort
                0x00419478       0x40 build/sam_e70_xult_freertos/production/_ext/810785262/udp.o

.text.TCPIP_UDP_SocketNetSet%504
                0x004194b8       0x40
 .text.TCPIP_UDP_SocketNetSet
                0x004194b8       0x40 build/sam_e70_xult_freertos/production/_ext/810785262/udp.o
                0x004194b8                TCPIP_UDP_SocketNetSet

.text.TCPIP_UDP_SourceIPAddressSet%505
                0x004194f8       0x40
 .text.TCPIP_UDP_SourceIPAddressSet
                0x004194f8       0x40 build/sam_e70_xult_freertos/production/_ext/810785262/udp.o
                0x004194f8                TCPIP_UDP_SourceIPAddressSet

.text.SYS_TIME_TimerAdd%506
                0x00419538       0x40
 .text.SYS_TIME_TimerAdd
                0x00419538       0x40 build/sam_e70_xult_freertos/production/_ext/912870411/sys_time.o

.rodata%507     0x00419578       0x40
 .rodata        0x00419578       0x40 build/sam_e70_xult_freertos/production/_ext/1552905064/tasks.o

.text.rand%508  0x004195b8       0x40
 .text.rand     0x004195b8       0x40 c:/program files (x86)/microchip/xc32/v2.15/bin/bin/../../lib/gcc/pic32c/6.2.1/../../../../pic32c/lib/v7e-m/fpv5/hard\libc.a(lib_a-rand.o)
                0x004195b8                rand

.text.__hi0bits%509
                0x004195f8       0x40
 .text.__hi0bits
                0x004195f8       0x40 c:/program files (x86)/microchip/xc32/v2.15/bin/bin/../../lib/gcc/pic32c/6.2.1/../../../../pic32c/lib/v7e-m/fpv5/hard\libc.a(lib_a-mprec.o)
                0x004195f8                __hi0bits

.text._DNSDiscardName%510
                0x00419638       0x3e
 .text._DNSDiscardName
                0x00419638       0x3e build/sam_e70_xult_freertos/production/_ext/810785262/dns.o

.text._TCPSetHalfFlushFlag%511
                0x00419676       0x3e
 .text._TCPSetHalfFlushFlag
                0x00419676       0x3e build/sam_e70_xult_freertos/production/_ext/810785262/tcp.o

.text._DHCPOptionProcessSubNet%512
                0x004196b4       0x3e
 .text._DHCPOptionProcessSubNet
                0x004196b4       0x3e build/sam_e70_xult_freertos/production/_ext/810785262/dhcp.o

.text.TCPIP_UDP_TxOffsetSet%513
                0x004196f2       0x3e
 .text.TCPIP_UDP_TxOffsetSet
                0x004196f2       0x3e build/sam_e70_xult_freertos/production/_ext/810785262/udp.o
                0x004196f2                TCPIP_UDP_TxOffsetSet

.text._DRV_ETHPHY_SetupPhaseNegotiate_SubPhase2%514
                0x00419730       0x3c
 .text._DRV_ETHPHY_SetupPhaseNegotiate_SubPhase2
                0x00419730       0x3c build/sam_e70_xult_freertos/production/_ext/1607428259/drv_ethphy.o

.text._DRV_ETHPHY_NegCompletePhaseRead1%515
                0x0041976c       0x3c
 .text._DRV_ETHPHY_NegCompletePhaseRead1
                0x0041976c       0x3c build/sam_e70_xult_freertos/production/_ext/1607428259/drv_ethphy.o

.text.DRV_GMAC_Open%516
                0x004197a8       0x3c
 .text.DRV_GMAC_Open
                0x004197a8       0x3c build/sam_e70_xult_freertos/production/_ext/1619526243/drv_gmac.o
                0x004197a8                DRV_GMAC_Open

.text.DRV_GMAC_Process%517
                0x004197e4       0x3c
 .text.DRV_GMAC_Process
                0x004197e4       0x3c build/sam_e70_xult_freertos/production/_ext/1619526243/drv_gmac.o
                0x004197e4                DRV_GMAC_Process

.text._DRV_MIIM_GetOpDcpt%518
                0x00419820       0x3c
 .text._DRV_MIIM_GetOpDcpt
                0x00419820       0x3c build/sam_e70_xult_freertos/production/_ext/511568427/drv_miim.o

.text._TcpSocketKill%519
                0x0041985c       0x3c
 .text._TcpSocketKill
                0x0041985c       0x3c build/sam_e70_xult_freertos/production/_ext/810785262/tcp.o

.text._TCP_EphemeralPortAllocate%520
                0x00419898       0x3c
 .text._TCP_EphemeralPortAllocate
                0x00419898       0x3c build/sam_e70_xult_freertos/production/_ext/810785262/tcp.o

.text._DHCPOptionProcessRouter%521
                0x004198d4       0x3c
 .text._DHCPOptionProcessRouter
                0x004198d4       0x3c build/sam_e70_xult_freertos/production/_ext/810785262/dhcp.o

.text._DHCPNotifyClients%522
                0x00419910       0x3c
 .text._DHCPNotifyClients
                0x00419910       0x3c build/sam_e70_xult_freertos/production/_ext/810785262/dhcp.o

.text._TCPIPStackModuleSignalGet%523
                0x0041994c       0x3c
 .text._TCPIPStackModuleSignalGet
                0x0041994c       0x3c build/sam_e70_xult_freertos/production/_ext/810785262/tcpip_manager.o
                0x0041994c                _TCPIPStackModuleSignalGet

.text._TCPIP_PKT_PacketFree%524
                0x00419988       0x3c
 .text._TCPIP_PKT_PacketFree
                0x00419988       0x3c build/sam_e70_xult_freertos/production/_ext/810785262/tcpip_packet.o
                0x00419988                _TCPIP_PKT_PacketFree

.text._UDPAllocateEphemeralPort%525
                0x004199c4       0x3c
 .text._UDPAllocateEphemeralPort
                0x004199c4       0x3c build/sam_e70_xult_freertos/production/_ext/810785262/udp.o

.text.TCPIP_UDP_OpenClientSkt%526
                0x00419a00       0x3c
 .text.TCPIP_UDP_OpenClientSkt
                0x00419a00       0x3c build/sam_e70_xult_freertos/production/_ext/810785262/udp.o
                0x00419a00                TCPIP_UDP_OpenClientSkt

.text.USART1_Initialize%527
                0x00419a3c       0x3c
 .text.USART1_Initialize
                0x00419a3c       0x3c build/sam_e70_xult_freertos/production/_ext/901008055/plib_usart1.o
                0x00419a3c                USART1_Initialize

.text.USART1_Read%528
                0x00419a78       0x3c
 .text.USART1_Read
                0x00419a78       0x3c build/sam_e70_xult_freertos/production/_ext/901008055/plib_usart1.o
                0x00419a78                USART1_Read

.text.CommandQuit%529
                0x00419ab4       0x3c
 .text.CommandQuit
                0x00419ab4       0x3c build/sam_e70_xult_freertos/production/_ext/762686499/sys_command.o

.text.SYS_TIME_GetTimerObject%530
                0x00419af0       0x3c
 .text.SYS_TIME_GetTimerObject
                0x00419af0       0x3c build/sam_e70_xult_freertos/production/_ext/912870411/sys_time.o

.text.SYS_TIME_ResourceUnlock%531
                0x00419b2c       0x3c
 .text.SYS_TIME_ResourceUnlock
                0x00419b2c       0x3c build/sam_e70_xult_freertos/production/_ext/912870411/sys_time.o

.text.SYS_TIME_Counter64Get%532
                0x00419b68       0x3c
 .text.SYS_TIME_Counter64Get
                0x00419b68       0x3c build/sam_e70_xult_freertos/production/_ext/912870411/sys_time.o
                0x00419b68                SYS_TIME_Counter64Get

.text.SYS_TIME_MSToCount%533
                0x00419ba8       0x3c
 .text.SYS_TIME_MSToCount
                0x00419ba8       0x3c build/sam_e70_xult_freertos/production/_ext/912870411/sys_time.o
                0x00419ba8                SYS_TIME_MSToCount

.text.SYS_TIME_TimerDestroy%534
                0x00419be4       0x3c
 .text.SYS_TIME_TimerDestroy
                0x00419be4       0x3c build/sam_e70_xult_freertos/production/_ext/912870411/sys_time.o
                0x00419be4                SYS_TIME_TimerDestroy

.text.APP_Initialize%535
                0x00419c20       0x3c
 .text.APP_Initialize
                0x00419c20       0x3c build/sam_e70_xult_freertos/production/_ext/1360937237/app.o
                0x00419c20                APP_Initialize

.text.DRV_MIIM_RegisterCallback%536
                0x00419c5c       0x3a
 .text.DRV_MIIM_RegisterCallback
                0x00419c5c       0x3a build/sam_e70_xult_freertos/production/_ext/511568427/drv_miim.o
                0x00419c5c                DRV_MIIM_RegisterCallback

.text.DRV_MIIM_Deinitialize%537
                0x00419c96       0x3a
 .text.DRV_MIIM_Deinitialize
                0x00419c96       0x3a build/sam_e70_xult_freertos/production/_ext/511568427/drv_miim.o
                0x00419c96                DRV_MIIM_Deinitialize

.text._DHCPOptionProcessMsgType%538
                0x00419cd0       0x3a
 .text._DHCPOptionProcessMsgType
                0x00419cd0       0x3a build/sam_e70_xult_freertos/production/_ext/810785262/dhcp.o

.text.DRV_ETHPHY_LinkStatusGet%539
                0x00419d0a       0x38
 .text.DRV_ETHPHY_LinkStatusGet
                0x00419d0a       0x38 build/sam_e70_xult_freertos/production/_ext/1607428259/drv_ethphy.o
                0x00419d0a                DRV_ETHPHY_LinkStatusGet

.text._DRV_PHY_NegCompleteSetOperResult%540
                0x00419d42       0x38
 .text._DRV_PHY_NegCompleteSetOperResult
                0x00419d42       0x38 build/sam_e70_xult_freertos/production/_ext/1607428259/drv_ethphy.o

.text._DRV_ETHPHY_LinkStatPhaseRefresh%541
                0x00419d7a       0x38
 .text._DRV_ETHPHY_LinkStatPhaseRefresh
                0x00419d7a       0x38 build/sam_e70_xult_freertos/production/_ext/1607428259/drv_ethphy.o

.text.DRV_PIC32CGMAC_LibGetMacAddr%542
                0x00419db4       0x38
 .text.DRV_PIC32CGMAC_LibGetMacAddr
                0x00419db4       0x38 build/sam_e70_xult_freertos/production/_ext/1619526243/drv_gmac_lib_samE7x_V7x.o
                0x00419db4                DRV_PIC32CGMAC_LibGetMacAddr

.text.TCPIP_DNS_ClientInfoGet%543
                0x00419dec       0x38
 .text.TCPIP_DNS_ClientInfoGet
                0x00419dec       0x38 build/sam_e70_xult_freertos/production/_ext/810785262/dns.o
                0x00419dec                TCPIP_DNS_ClientInfoGet

.text._TCPSetSourceAddress%544
                0x00419e24       0x38
 .text._TCPSetSourceAddress
                0x00419e24       0x38 build/sam_e70_xult_freertos/production/_ext/810785262/tcp.o

.text.TCPIP_DHCP_IsActive%545
                0x00419e5c       0x38
 .text.TCPIP_DHCP_IsActive
                0x00419e5c       0x38 build/sam_e70_xult_freertos/production/_ext/810785262/dhcp.o
                0x00419e5c                TCPIP_DHCP_IsActive

.text.TCPIP_PKT_PacketMACFormat%546
                0x00419e94       0x38
 .text.TCPIP_PKT_PacketMACFormat
                0x00419e94       0x38 build/sam_e70_xult_freertos/production/_ext/810785262/tcpip_packet.o
                0x00419e94                TCPIP_PKT_PacketMACFormat

.text.SYS_CONSOLE_Read%547
                0x00419ecc       0x38
 .text.SYS_CONSOLE_Read
                0x00419ecc       0x38 build/sam_e70_xult_freertos/production/_ext/762686499/sys_console.o
                0x00419ecc                SYS_CONSOLE_Read

.text.SYS_TIME_ResourceLock%548
                0x00419f04       0x38
 .text.SYS_TIME_ResourceLock
                0x00419f04       0x38 build/sam_e70_xult_freertos/production/_ext/912870411/sys_time.o

.rodata.TCPIP_HOSTS_CONFIGURATION%549
                0x00419f3c       0x38
 .rodata.TCPIP_HOSTS_CONFIGURATION
                0x00419f3c       0x38 build/sam_e70_xult_freertos/production/_ext/1552905064/initialization.o
                0x00419f3c                TCPIP_HOSTS_CONFIGURATION

.text.__mcmp%550
                0x00419f74       0x38
 .text.__mcmp   0x00419f74       0x38 c:/program files (x86)/microchip/xc32/v2.15/bin/bin/../../lib/gcc/pic32c/6.2.1/../../../../pic32c/lib/v7e-m/fpv5/hard\libc.a(lib_a-mprec.o)
                0x00419f74                __mcmp

.text.DRV_ETHPHY_NegotiationResultGet%551
                0x00419fac       0x36
 .text.DRV_ETHPHY_NegotiationResultGet
                0x00419fac       0x36 build/sam_e70_xult_freertos/production/_ext/1607428259/drv_ethphy.o
                0x00419fac                DRV_ETHPHY_NegotiationResultGet

.text._TCPIPStackSetConfigAddress%552
                0x00419fe2       0x36
 .text._TCPIPStackSetConfigAddress
                0x00419fe2       0x36 build/sam_e70_xult_freertos/production/_ext/810785262/tcpip_manager.o
                0x00419fe2                _TCPIPStackSetConfigAddress

.text.TCPIP_UDP_RxOffsetSet%553
                0x0041a018       0x36
 .text.TCPIP_UDP_RxOffsetSet
                0x0041a018       0x36 build/sam_e70_xult_freertos/production/_ext/810785262/udp.o
                0x0041a018                TCPIP_UDP_RxOffsetSet

.text.Console_UART_PopQueue%554
                0x0041a04e       0x36
 .text.Console_UART_PopQueue
                0x0041a04e       0x36 build/sam_e70_xult_freertos/production/_ext/762686499/sys_console_uart.o

.text.TCPIP_DNS_OAHASH_KeyCopy%555
                0x004120cc       0x34
 .text.TCPIP_DNS_OAHASH_KeyCopy
                0x004120cc       0x34 build/sam_e70_xult_freertos/production/_ext/810785262/dns.o

.rodata%556     0x0041a084       0x34
 .rodata        0x0041a084       0x34 build/sam_e70_xult_freertos/production/_ext/810785262/dhcp.o

.text._ARPSetEntry%557
                0x0041a0b8       0x34
 .text._ARPSetEntry
                0x0041a0b8       0x34 build/sam_e70_xult_freertos/production/_ext/810785262/arp.o

.text.TCPIP_ARP_HashEntryDelete%558
                0x0041a0ec       0x34
 .text.TCPIP_ARP_HashEntryDelete
                0x0041a0ec       0x34 build/sam_e70_xult_freertos/production/_ext/810785262/arp.o
                0x0041a0ec                TCPIP_ARP_HashEntryDelete

.text.TCPIP_ARP_HandlerRegister%559
                0x0041a120       0x34
 .text.TCPIP_ARP_HandlerRegister
                0x0041a120       0x34 build/sam_e70_xult_freertos/production/_ext/810785262/arp.o
                0x0041a120                TCPIP_ARP_HandlerRegister

.text.TCPIP_Helper_StringToPowerMode%560
                0x0041a154       0x34
 .text.TCPIP_Helper_StringToPowerMode
                0x0041a154       0x34 build/sam_e70_xult_freertos/production/_ext/810785262/tcpip_helpers.o
                0x0041a154                TCPIP_Helper_StringToPowerMode

.text._TCPIP_PKT_PacketAcknowledge%561
                0x0041a188       0x34
 .text._TCPIP_PKT_PacketAcknowledge
                0x0041a188       0x34 build/sam_e70_xult_freertos/production/_ext/810785262/tcpip_packet.o
                0x0041a188                _TCPIP_PKT_PacketAcknowledge

.text.vListInsert%562
                0x0041a1bc       0x34
 .text.vListInsert
                0x0041a1bc       0x34 build/sam_e70_xult_freertos/production/_ext/404212886/list.o
                0x0041a1bc                vListInsert

.text.vTaskDelay%563
                0x0041a1f0       0x34
 .text.vTaskDelay
                0x0041a1f0       0x34 build/sam_e70_xult_freertos/production/_ext/404212886/FreeRTOS_tasks.o
                0x0041a1f0                vTaskDelay

.text._APP_PumpDNS%564
                0x0041a224       0x34
 .text._APP_PumpDNS
                0x0041a224       0x34 build/sam_e70_xult_freertos/production/_ext/1360937237/app.o
                0x0041a224                _APP_PumpDNS

.text.__libc_fini_array%565
                0x0041a258       0x34
 .text.__libc_fini_array
                0x0041a258       0x34 c:/program files (x86)/microchip/xc32/v2.15/bin/bin/../../lib/gcc/pic32c/6.2.1/../../../../pic32c/lib/v7e-m/fpv5/hard\libc.a(lib_a-fini.o)
                0x0041a258                __libc_fini_array

.text._MacPacketAck%566
                0x0041a28c       0x32
 .text._MacPacketAck
                0x0041a28c       0x32 build/sam_e70_xult_freertos/production/_ext/1619526243/drv_gmac_lib_samE7x_V7x.o

.text._DNS_NetIsValid%567
                0x0041a2be       0x32
 .text._DNS_NetIsValid
                0x0041a2be       0x32 build/sam_e70_xult_freertos/production/_ext/810785262/dns.o

.text.TCPIP_STACK_NetBiosNameSet%568
                0x0041a2f0       0x32
 .text.TCPIP_STACK_NetBiosNameSet
                0x0041a2f0       0x32 build/sam_e70_xult_freertos/production/_ext/810785262/tcpip_manager.o
                0x0041a2f0                TCPIP_STACK_NetBiosNameSet

.text.DRV_GMAC_ParametersGet%569
                0x0041a322       0x30
 .text.DRV_GMAC_ParametersGet
                0x0041a322       0x30 build/sam_e70_xult_freertos/production/_ext/1619526243/drv_gmac.o
                0x0041a322                DRV_GMAC_ParametersGet

.text.DRV_PIC32CGMAC_LibSetMacAddr%570
                0x0041a354       0x30
 .text.DRV_PIC32CGMAC_LibSetMacAddr
                0x0041a354       0x30 build/sam_e70_xult_freertos/production/_ext/1619526243/drv_gmac_lib_samE7x_V7x.o
                0x0041a354                DRV_PIC32CGMAC_LibSetMacAddr

.text._TCPSocketTxFreeSize%571
                0x0041a384       0x30
 .text._TCPSocketTxFreeSize
                0x0041a384       0x30 build/sam_e70_xult_freertos/production/_ext/810785262/tcp.o

.text.TCPIP_IPV4_CheckPktTx%572
                0x0041a3b4       0x30
 .text.TCPIP_IPV4_CheckPktTx
                0x0041a3b4       0x30 build/sam_e70_xult_freertos/production/_ext/810785262/ipv4.o

.text.IPv4RegisterFilter%573
                0x0041a3e4       0x30
 .text.IPv4RegisterFilter
                0x0041a3e4       0x30 build/sam_e70_xult_freertos/production/_ext/810785262/ipv4.o
                0x0041a3e4                IPv4RegisterFilter

.text.fnv_32_hash%574
                0x0041a414       0x30
 .text.fnv_32_hash
                0x0041a414       0x30 build/sam_e70_xult_freertos/production/_ext/810785262/hash_fnv.o
                0x0041a414                fnv_32_hash

.text.TCPIP_OAHASH_EntriesRemoveAll%575
                0x0041a444       0x30
 .text.TCPIP_OAHASH_EntriesRemoveAll
                0x0041a444       0x30 build/sam_e70_xult_freertos/production/_ext/810785262/oahash.o
                0x0041a444                TCPIP_OAHASH_EntriesRemoveAll

.text.TCPIP_Helper_ProtectedSingleListDeinitialize%576
                0x0041a474       0x30
 .text.TCPIP_Helper_ProtectedSingleListDeinitialize
                0x0041a474       0x30 build/sam_e70_xult_freertos/production/_ext/810785262/tcpip_helpers.o
                0x0041a474                TCPIP_Helper_ProtectedSingleListDeinitialize

.text.TCPIP_Helper_ProtectedSingleListNodeRemove%577
                0x0041a4a4       0x30
 .text.TCPIP_Helper_ProtectedSingleListNodeRemove
                0x0041a4a4       0x30 build/sam_e70_xult_freertos/production/_ext/810785262/tcpip_helpers.o
                0x0041a4a4                TCPIP_Helper_ProtectedSingleListNodeRemove

.text.TCPIP_PKT_Initialize%578
                0x0041a4d4       0x30
 .text.TCPIP_PKT_Initialize
                0x0041a4d4       0x30 build/sam_e70_xult_freertos/production/_ext/810785262/tcpip_packet.o
                0x0041a4d4                TCPIP_PKT_Initialize

.text.TCPIP_UDP_Close%579
                0x0041a504       0x30
 .text.TCPIP_UDP_Close
                0x0041a504       0x30 build/sam_e70_xult_freertos/production/_ext/810785262/udp.o
                0x0041a504                TCPIP_UDP_Close

.text.USART1_ErrorGet%580
                0x0041a534       0x30
 .text.USART1_ErrorGet
                0x0041a534       0x30 build/sam_e70_xult_freertos/production/_ext/901008055/plib_usart1.o
                0x0041a534                USART1_ErrorGet

.text.SYS_TIME_UpdateTimerList%581
                0x0041a564       0x30
 .text.SYS_TIME_UpdateTimerList
                0x0041a564       0x30 build/sam_e70_xult_freertos/production/_ext/912870411/sys_time.o

.text.xPortSysTickHandler%582
                0x0041a594       0x30
 .text.xPortSysTickHandler
                0x0041a594       0x30 build/sam_e70_xult_freertos/production/_ext/977623654/port.o
                0x0041a594                xPortSysTickHandler

.text.xQueueGenericCreate%583
                0x0041a5c4       0x30
 .text.xQueueGenericCreate
                0x0041a5c4       0x30 build/sam_e70_xult_freertos/production/_ext/404212886/queue.o
                0x0041a5c4                xQueueGenericCreate

.text%584       0x0041a5f4       0x30
 .text          0x0041a5f4       0x30 c:/program files (x86)/microchip/xc32/v2.15/bin/bin/../../lib/gcc/pic32c/6.2.1/v7e-m/fpv5/hard\libgcc.a(_aeabi_uldivmod.o)
                0x0041a5f4                __aeabi_uldivmod

.text.DRV_ETHPHY_Reset%585
                0x0041a624       0x2e
 .text.DRV_ETHPHY_Reset
                0x0041a624       0x2e build/sam_e70_xult_freertos/production/_ext/1607428259/drv_ethphy.o
                0x0041a624                DRV_ETHPHY_Reset

.text.DRV_ETHPHY_NegotiationIsComplete%586
                0x0041a652       0x2e
 .text.DRV_ETHPHY_NegotiationIsComplete
                0x0041a652       0x2e build/sam_e70_xult_freertos/production/_ext/1607428259/drv_ethphy.o
                0x0041a652                DRV_ETHPHY_NegotiationIsComplete

.text.DRV_MIIM_DeregisterCallback%587
                0x0041a680       0x2e
 .text.DRV_MIIM_DeregisterCallback
                0x0041a680       0x2e build/sam_e70_xult_freertos/production/_ext/511568427/drv_miim.o
                0x0041a680                DRV_MIIM_DeregisterCallback

.text._DHCPOptionProcessLease%588
                0x0041a6ae       0x2e
 .text._DHCPOptionProcessLease
                0x0041a6ae       0x2e build/sam_e70_xult_freertos/production/_ext/810785262/dhcp.o

.text._DHCPOptionProcessRenewT%589
                0x0041a6dc       0x2e
 .text._DHCPOptionProcessRenewT
                0x0041a6dc       0x2e build/sam_e70_xult_freertos/production/_ext/810785262/dhcp.o

.text._DHCPOptionProcessRebindT%590
                0x0041a70a       0x2e
 .text._DHCPOptionProcessRebindT
                0x0041a70a       0x2e build/sam_e70_xult_freertos/production/_ext/810785262/dhcp.o

.text._ARPRemoveEntry%591
                0x0041a738       0x2e
 .text._ARPRemoveEntry
                0x0041a738       0x2e build/sam_e70_xult_freertos/production/_ext/810785262/arp.o

.text.TCPIP_STACK_DNSServiceCanStart%592
                0x0041a766       0x2e
 .text.TCPIP_STACK_DNSServiceCanStart
                0x0041a766       0x2e build/sam_e70_xult_freertos/production/_ext/810785262/tcpip_manager.o
                0x0041a766                TCPIP_STACK_DNSServiceCanStart

.text._TxSktGetLockedV4Pkt%593
                0x0041a794       0x2e
 .text._TxSktGetLockedV4Pkt
                0x0041a794       0x2e build/sam_e70_xult_freertos/production/_ext/810785262/udp.o

.text._DRV_ETHPHY_ClientOpSetup%594
                0x0041a7c4       0x2c
 .text._DRV_ETHPHY_ClientOpSetup
                0x0041a7c4       0x2c build/sam_e70_xult_freertos/production/_ext/1607428259/drv_ethphy.o

.text.DRV_ETHPHY_RestartNegotiation%595
                0x0041a7f0       0x2c
 .text.DRV_ETHPHY_RestartNegotiation
                0x0041a7f0       0x2c build/sam_e70_xult_freertos/production/_ext/1607428259/drv_ethphy.o
                0x0041a7f0                DRV_ETHPHY_RestartNegotiation

.text._DRV_ETHPHY_ClientOpReset%596
                0x0041a81c       0x2c
 .text._DRV_ETHPHY_ClientOpReset
                0x0041a81c       0x2c build/sam_e70_xult_freertos/production/_ext/1607428259/drv_ethphy.o

.text._DRV_ETHPHY_ClientOpLinkStat%597
                0x0041a848       0x2c
 .text._DRV_ETHPHY_ClientOpLinkStat
                0x0041a848       0x2c build/sam_e70_xult_freertos/production/_ext/1607428259/drv_ethphy.o

.text._DRV_ETHPHY_ClientOpNegResult%598
                0x0041a874       0x2c
 .text._DRV_ETHPHY_ClientOpNegResult
                0x0041a874       0x2c build/sam_e70_xult_freertos/production/_ext/1607428259/drv_ethphy.o

.text._DRV_ETHPHY_ClientOpNegComplete%599
                0x0041a8a0       0x2c
 .text._DRV_ETHPHY_ClientOpNegComplete
                0x0041a8a0       0x2c build/sam_e70_xult_freertos/production/_ext/1607428259/drv_ethphy.o

.text._DRV_ETHPHY_ClientOpNegRestart%600
                0x0041a8cc       0x2c
 .text._DRV_ETHPHY_ClientOpNegRestart
                0x0041a8cc       0x2c build/sam_e70_xult_freertos/production/_ext/1607428259/drv_ethphy.o

.text._DRV_ETHPHY_SetupPhaseNegotiate%601
                0x0041a8f8       0x2c
 .text._DRV_ETHPHY_SetupPhaseNegotiate
                0x0041a8f8       0x2c build/sam_e70_xult_freertos/production/_ext/1607428259/drv_ethphy.o

.text._DRV_GMAC_LinkStateDown%602
                0x0041a924       0x2c
 .text._DRV_GMAC_LinkStateDown
                0x0041a924       0x2c build/sam_e70_xult_freertos/production/_ext/1619526243/drv_gmac.o

.text._DNSClientCleanup%603
                0x0041a950       0x2c
 .text._DNSClientCleanup
                0x0041a950       0x2c build/sam_e70_xult_freertos/production/_ext/810785262/dns.o

.text.TCPIP_Helper_ProtectedSingleListHeadRemove%604
                0x0041a97c       0x2c
 .text.TCPIP_Helper_ProtectedSingleListHeadRemove
                0x0041a97c       0x2c build/sam_e70_xult_freertos/production/_ext/810785262/tcpip_helpers.o
                0x0041a97c                TCPIP_Helper_ProtectedSingleListHeadRemove

.text.TCPIP_STACK_InitializeDataGet%605
                0x0041a9a8       0x2c
 .text.TCPIP_STACK_InitializeDataGet
                0x0041a9a8       0x2c build/sam_e70_xult_freertos/production/_ext/810785262/tcpip_manager.o
                0x0041a9a8                TCPIP_STACK_InitializeDataGet

.text.TCPIP_STACK_AddressServiceDefaultSet%606
                0x0041a9d4       0x2c
 .text.TCPIP_STACK_AddressServiceDefaultSet
                0x0041a9d4       0x2c build/sam_e70_xult_freertos/production/_ext/810785262/tcpip_manager.o
                0x0041a9d4                TCPIP_STACK_AddressServiceDefaultSet

.text.TCPIP_STACK_IsBcastAddress%607
                0x0041aa00       0x2c
 .text.TCPIP_STACK_IsBcastAddress
                0x0041aa00       0x2c build/sam_e70_xult_freertos/production/_ext/810785262/tcpip_manager.o
                0x0041aa00                TCPIP_STACK_IsBcastAddress

.text._TCPIPStackModuleRxExtract%608
                0x0041aa2c       0x2c
 .text._TCPIPStackModuleRxExtract
                0x0041aa2c       0x2c build/sam_e70_xult_freertos/production/_ext/810785262/tcpip_manager.o
                0x0041aa2c                _TCPIPStackModuleRxExtract

.text.SYS_CONSOLE_Write%609
                0x0041aa58       0x2c
 .text.SYS_CONSOLE_Write
                0x0041aa58       0x2c build/sam_e70_xult_freertos/production/_ext/762686499/sys_console.o
                0x0041aa58                SYS_CONSOLE_Write

.text.TCPIP_STACK_Init%610
                0x0041aa84       0x2c
 .text.TCPIP_STACK_Init
                0x0041aa84       0x2c build/sam_e70_xult_freertos/production/_ext/1552905064/initialization.o
                0x0041aa84                TCPIP_STACK_Init

.text.pxPortInitialiseStack%611
                0x0041aab0       0x2c
 .text.pxPortInitialiseStack
                0x0041aab0       0x2c build/sam_e70_xult_freertos/production/_ext/977623654/port.o
                0x0041aab0                pxPortInitialiseStack

.text.prvResetNextTaskUnblockTime%612
                0x0041aadc       0x2c
 .text.prvResetNextTaskUnblockTime
                0x0041aadc       0x2c build/sam_e70_xult_freertos/production/_ext/404212886/FreeRTOS_tasks.o

.text.__ascii_mbtowc%613
                0x0041ab08       0x2c
 .text.__ascii_mbtowc
                0x0041ab08       0x2c c:/program files (x86)/microchip/xc32/v2.15/bin/bin/../../lib/gcc/pic32c/6.2.1/../../../../pic32c/lib/v7e-m/fpv5/hard\libc.a(lib_a-mbtowc_r.o)
                0x0041ab08                __ascii_mbtowc

.text.strtol%614
                0x0041ab34       0x2c
 .text.strtol   0x0041ab34       0x2c c:/program files (x86)/microchip/xc32/v2.15/bin/bin/../../lib/gcc/pic32c/6.2.1/../../../../pic32c/lib/v7e-m/fpv5/hard\libc.a(lib_a-strtol.o)
                0x0041ab34                strtol

.text._sbrk%615
                0x0041ab60       0x2c
 .text._sbrk    0x0041ab60       0x2c c:/program files (x86)/microchip/xc32/v2.15/bin/bin/../../lib/gcc/pic32c/6.2.1/../../../../pic32c/lib/v7e-m/fpv5/hard\libpic32c.a(sbrk.o)
                0x0041ab60                _sbrk

.text._DRV_GMAC_LinkStateStartLink%616
                0x0041ab8c       0x2a
 .text._DRV_GMAC_LinkStateStartLink
                0x0041ab8c       0x2a build/sam_e70_xult_freertos/production/_ext/1619526243/drv_gmac.o

.text._DRV_MIIM_GetObjectAndLock%617
                0x0041abb6       0x2a
 .text._DRV_MIIM_GetObjectAndLock
                0x0041abb6       0x2a build/sam_e70_xult_freertos/production/_ext/511568427/drv_miim.o

.text.TCPIP_Helper_ProtectedSingleListTailAdd%618
                0x0041abe0       0x2a
 .text.TCPIP_Helper_ProtectedSingleListTailAdd
                0x0041abe0       0x2a build/sam_e70_xult_freertos/production/_ext/810785262/tcpip_helpers.o
                0x0041abe0                TCPIP_Helper_ProtectedSingleListTailAdd

.text.TCPIP_Helper_ProtectedSingleListRemoveAll%619
                0x0041ac0a       0x2a
 .text.TCPIP_Helper_ProtectedSingleListRemoveAll
                0x0041ac0a       0x2a build/sam_e70_xult_freertos/production/_ext/810785262/tcpip_helpers.o
                0x0041ac0a                TCPIP_Helper_ProtectedSingleListRemoveAll

.text._DRV_ETHPHY_ClientOpSmiRead%620
                0x0041ac34       0x28
 .text._DRV_ETHPHY_ClientOpSmiRead
                0x0041ac34       0x28 build/sam_e70_xult_freertos/production/_ext/1607428259/drv_ethphy.o

.rodata._DRV_PHY_ClientOpTbl%621
                0x0041ac5c       0x28
 .rodata._DRV_PHY_ClientOpTbl
                0x0041ac5c       0x28 build/sam_e70_xult_freertos/production/_ext/1607428259/drv_ethphy.o

.text.DRV_GMAC_ConfigGet%622
                0x0041ac84       0x28
 .text.DRV_GMAC_ConfigGet
                0x0041ac84       0x28 build/sam_e70_xult_freertos/production/_ext/1619526243/drv_gmac.o
                0x0041ac84                DRV_GMAC_ConfigGet

.text.DRV_GMAC_LinkCheck%623
                0x0041acac       0x28
 .text.DRV_GMAC_LinkCheck
                0x0041acac       0x28 build/sam_e70_xult_freertos/production/_ext/1619526243/drv_gmac.o
                0x0041acac                DRV_GMAC_LinkCheck

.text.DRV_MIIM_Status%624
                0x0041acd4       0x28
 .text.DRV_MIIM_Status
                0x0041acd4       0x28 build/sam_e70_xult_freertos/production/_ext/511568427/drv_miim.o
                0x0041acd4                DRV_MIIM_Status

.text._DNSGetData%625
                0x0041acfc       0x28
 .text._DNSGetData
                0x0041acfc       0x28 build/sam_e70_xult_freertos/production/_ext/810785262/dns.o

.text.TCPIP_ICMP_Deinitialize%626
                0x0041ad24       0x28
 .text.TCPIP_ICMP_Deinitialize
                0x0041ad24       0x28 build/sam_e70_xult_freertos/production/_ext/810785262/icmp.o
                0x0041ad24                TCPIP_ICMP_Deinitialize

.text._TcpSocketChk%627
                0x0041ad4c       0x28
 .text._TcpSocketChk
                0x0041ad4c       0x28 build/sam_e70_xult_freertos/production/_ext/810785262/tcp.o

.text._TcpFlush%628
                0x0041ad74       0x28
 .text._TcpFlush
                0x0041ad74       0x28 build/sam_e70_xult_freertos/production/_ext/810785262/tcp.o

.text._DHCPOptionWriteParamRequest%629
                0x0041ad9c       0x28
 .text._DHCPOptionWriteParamRequest
                0x0041ad9c       0x28 build/sam_e70_xult_freertos/production/_ext/810785262/dhcp.o

.text._TCPIP_STACK_TickHandler%630
                0x0041adc4       0x28
 .text._TCPIP_STACK_TickHandler
                0x0041adc4       0x28 build/sam_e70_xult_freertos/production/_ext/810785262/tcpip_manager.o

.text._TCPIPSignalEntrySetNotify%631
                0x0041adec       0x28
 .text._TCPIPSignalEntrySetNotify
                0x0041adec       0x28 build/sam_e70_xult_freertos/production/_ext/810785262/tcpip_manager.o

.text.TCPIP_STACK_NetMACStatisticsGet%632
                0x0041ae14       0x28
 .text.TCPIP_STACK_NetMACStatisticsGet
                0x0041ae14       0x28 build/sam_e70_xult_freertos/production/_ext/810785262/tcpip_manager.o
                0x0041ae14                TCPIP_STACK_NetMACStatisticsGet

.text.TCPIP_STACK_NetMACRegisterStatisticsGet%633
                0x0041ae3c       0x28
 .text.TCPIP_STACK_NetMACRegisterStatisticsGet
                0x0041ae3c       0x28 build/sam_e70_xult_freertos/production/_ext/810785262/tcpip_manager.o
                0x0041ae3c                TCPIP_STACK_NetMACRegisterStatisticsGet

.text.TCPIP_STACK_NetIsBcastAddress%634
                0x0041ae64       0x28
 .text.TCPIP_STACK_NetIsBcastAddress
                0x0041ae64       0x28 build/sam_e70_xult_freertos/production/_ext/810785262/tcpip_manager.o
                0x0041ae64                TCPIP_STACK_NetIsBcastAddress

.text._TCPIPStackSignalHandlerSetParams%635
                0x0041ae8c       0x28
 .text._TCPIPStackSignalHandlerSetParams
                0x0041ae8c       0x28 build/sam_e70_xult_freertos/production/_ext/810785262/tcpip_manager.o
                0x0041ae8c                _TCPIPStackSignalHandlerSetParams

.text._TCPIP_PKT_SocketAlloc%636
                0x0041aeb4       0x28
 .text._TCPIP_PKT_SocketAlloc
                0x0041aeb4       0x28 build/sam_e70_xult_freertos/production/_ext/810785262/tcpip_packet.o
                0x0041aeb4                _TCPIP_PKT_SocketAlloc

.text._UDPSocketDcpt%637
                0x0041aedc       0x28
 .text._UDPSocketDcpt
                0x0041aedc       0x28 build/sam_e70_xult_freertos/production/_ext/810785262/udp.o

.text._UDPFreeTxResources%638
                0x0041af04       0x28
 .text._UDPFreeTxResources
                0x0041af04       0x28 build/sam_e70_xult_freertos/production/_ext/810785262/udp.o

.text._UDPUpdatePacketLock%639
                0x0041af2c       0x28
 .text._UDPUpdatePacketLock
                0x0041af2c       0x28 build/sam_e70_xult_freertos/production/_ext/810785262/udp.o

.text.TCPIP_UDP_GetIsReady%640
                0x0041af54       0x28
 .text.TCPIP_UDP_GetIsReady
                0x0041af54       0x28 build/sam_e70_xult_freertos/production/_ext/810785262/udp.o
                0x0041af54                TCPIP_UDP_GetIsReady

.text.TCPIP_UDP_SignalHandlerRegister%641
                0x0041af7c       0x28
 .text.TCPIP_UDP_SignalHandlerRegister
                0x0041af7c       0x28 build/sam_e70_xult_freertos/production/_ext/810785262/udp.o
                0x0041af7c                TCPIP_UDP_SignalHandlerRegister

.text.TC0_CH0_TimerInitialize%642
                0x0041afa4       0x28
 .text.TC0_CH0_TimerInitialize
                0x0041afa4       0x28 build/sam_e70_xult_freertos/production/_ext/1245453995/plib_tc0.o
                0x0041afa4                TC0_CH0_TimerInitialize

.text.SYS_CONSOLE_Flush%643
                0x0041afcc       0x28
 .text.SYS_CONSOLE_Flush
                0x0041afcc       0x28 build/sam_e70_xult_freertos/production/_ext/762686499/sys_console.o
                0x0041afcc                SYS_CONSOLE_Flush

.text.Console_UART_Status%644
                0x0041aff4       0x28
 .text.Console_UART_Status
                0x0041aff4       0x28 build/sam_e70_xult_freertos/production/_ext/762686499/sys_console_uart.o
                0x0041aff4                Console_UART_Status

.text.ReadCommandCharacter%645
                0x0041b01c       0x28
 .text.ReadCommandCharacter
                0x0041b01c       0x28 build/sam_e70_xult_freertos/production/_ext/762686499/sys_command.o

.text.SendCommandCharacter%646
                0x0041b044       0x28
 .text.SendCommandCharacter
                0x0041b044       0x28 build/sam_e70_xult_freertos/production/_ext/762686499/sys_command.o

.rodata.tcpipARPInitData%647
                0x0041b06c       0x28
 .rodata.tcpipARPInitData
                0x0041b06c       0x28 build/sam_e70_xult_freertos/production/_ext/1552905064/initialization.o
                0x0041b06c                tcpipARPInitData

.text.prvPortStartFirstTask%648
                0x0041b094       0x28
 .text.prvPortStartFirstTask
                0x0041b094       0x28 build/sam_e70_xult_freertos/production/_ext/977623654/port.o

.text.vPortSetupTimerInterrupt%649
                0x0041b0bc       0x28
 .text.vPortSetupTimerInterrupt
                0x0041b0bc       0x28 build/sam_e70_xult_freertos/production/_ext/977623654/port.o
                0x0041b0bc                vPortSetupTimerInterrupt

.text.uxListRemove%650
                0x0041b0e4       0x28
 .text.uxListRemove
                0x0041b0e4       0x28 build/sam_e70_xult_freertos/production/_ext/404212886/list.o
                0x0041b0e4                uxListRemove

.rodata.__mprec_bigtens%651
                0x0041b110       0x28
 .rodata.__mprec_bigtens
                0x0041b110       0x28 c:/program files (x86)/microchip/xc32/v2.15/bin/bin/../../lib/gcc/pic32c/6.2.1/../../../../pic32c/lib/v7e-m/fpv5/hard\libc.a(lib_a-mprec.o)
                0x0041b110                __mprec_bigtens

.text.TCPIP_STACK_DNSServiceSelect%652
                0x0041b138       0x26
 .text.TCPIP_STACK_DNSServiceSelect
                0x0041b138       0x26 build/sam_e70_xult_freertos/production/_ext/810785262/tcpip_manager.o
                0x0041b138                TCPIP_STACK_DNSServiceSelect

.text.TCPIP_STACK_AddressServiceSelect%653
                0x0041b15e       0x26
 .text.TCPIP_STACK_AddressServiceSelect
                0x0041b15e       0x26 build/sam_e70_xult_freertos/production/_ext/810785262/tcpip_manager.o
                0x0041b15e                TCPIP_STACK_AddressServiceSelect

.text._UDPFreeRxQueue%654
                0x0041b184       0x26
 .text._UDPFreeRxQueue
                0x0041b184       0x26 build/sam_e70_xult_freertos/production/_ext/810785262/udp.o

.text.DRV_ETHPHY_HWConfigFlagsGet%655
                0x0041b1ac       0x24
 .text.DRV_ETHPHY_HWConfigFlagsGet
                0x0041b1ac       0x24 build/sam_e70_xult_freertos/production/_ext/1607428259/drv_ethphy.o
                0x0041b1ac                DRV_ETHPHY_HWConfigFlagsGet

.text._DRV_ETHPHY_NegResultPhase_ANLPAD%656
                0x0041b1d0       0x24
 .text._DRV_ETHPHY_NegResultPhase_ANLPAD
                0x0041b1d0       0x24 build/sam_e70_xult_freertos/production/_ext/1607428259/drv_ethphy.o

.text._DRV_ETHPHY_NegResultPhase_ANEXP%657
                0x0041b1f4       0x24
 .text._DRV_ETHPHY_NegResultPhase_ANEXP
                0x0041b1f4       0x24 build/sam_e70_xult_freertos/production/_ext/1607428259/drv_ethphy.o

.rodata%658     0x0041b218       0x24
 .rodata        0x0041b218       0x24 build/sam_e70_xult_freertos/production/_ext/1619526243/drv_gmac.o

.text.DRV_PIC32CGMAC_LibClose%659
                0x0041b23c       0x24
 .text.DRV_PIC32CGMAC_LibClose
                0x0041b23c       0x24 build/sam_e70_xult_freertos/production/_ext/1619526243/drv_gmac_lib_samE7x_V7x.o
                0x0041b23c                DRV_PIC32CGMAC_LibClose

.text._DHCPOptionProcessSrvIdent%660
                0x0041b260       0x24
 .text._DHCPOptionProcessSrvIdent
                0x0041b260       0x24 build/sam_e70_xult_freertos/production/_ext/810785262/dhcp.o

.text._DHCPOptionWriteMsgType%661
                0x0041b284       0x24
 .text._DHCPOptionWriteMsgType
                0x0041b284       0x24 build/sam_e70_xult_freertos/production/_ext/810785262/dhcp.o

.text.TCPIP_DHCP_Request%662
                0x0041b2a8       0x24
 .text.TCPIP_DHCP_Request
                0x0041b2a8       0x24 build/sam_e70_xult_freertos/production/_ext/810785262/dhcp.o
                0x0041b2a8                TCPIP_DHCP_Request

.text._ARPAllocateTxPacket%663
                0x0041b2cc       0x24
 .text._ARPAllocateTxPacket
                0x0041b2cc       0x24 build/sam_e70_xult_freertos/production/_ext/810785262/arp.o

.text._ARPRemoveCacheEntries%664
                0x0041b2f0       0x24
 .text._ARPRemoveCacheEntries
                0x0041b2f0       0x24 build/sam_e70_xult_freertos/production/_ext/810785262/arp.o

.text.TCPIP_ARP_HandlerDeRegister%665
                0x0041b314       0x24
 .text.TCPIP_ARP_HandlerDeRegister
                0x0041b314       0x24 build/sam_e70_xult_freertos/production/_ext/810785262/arp.o
                0x0041b314                TCPIP_ARP_HandlerDeRegister

.text.TCPIP_Commands_Deinitialize%666
                0x0041b338       0x24
 .text.TCPIP_Commands_Deinitialize
                0x0041b338       0x24 build/sam_e70_xult_freertos/production/_ext/810785262/tcpip_commands.o
                0x0041b338                TCPIP_Commands_Deinitialize

.text.Ipv4DeRegisterFilter%667
                0x0041b35c       0x24
 .text.Ipv4DeRegisterFilter
                0x0041b35c       0x24 build/sam_e70_xult_freertos/production/_ext/810785262/ipv4.o
                0x0041b35c                Ipv4DeRegisterFilter

.rodata._tcpip_heap_object%668
                0x0041b380       0x24
 .rodata._tcpip_heap_object
                0x0041b380       0x24 build/sam_e70_xult_freertos/production/_ext/810785262/tcpip_heap_internal.o

.text.TCPIP_OAHASH_Initialize%669
                0x0041b3a4       0x24
 .text.TCPIP_OAHASH_Initialize
                0x0041b3a4       0x24 build/sam_e70_xult_freertos/production/_ext/810785262/oahash.o
                0x0041b3a4                TCPIP_OAHASH_Initialize

.text.TCPIP_STACK_IPAddToNet%670
                0x0041b3c8       0x24
 .text.TCPIP_STACK_IPAddToNet
                0x0041b3c8       0x24 build/sam_e70_xult_freertos/production/_ext/810785262/tcpip_manager.o
                0x0041b3c8                TCPIP_STACK_IPAddToNet

.text._TCPIPStackHandleToNetLinked%671
                0x0041b3ec       0x24
 .text._TCPIPStackHandleToNetLinked
                0x0041b3ec       0x24 build/sam_e70_xult_freertos/production/_ext/810785262/tcpip_manager.o
                0x0041b3ec                _TCPIPStackHandleToNetLinked

.text.TC0_CH0_InterruptHandler%672
                0x0041b410       0x24
 .text.TC0_CH0_InterruptHandler
                0x0041b410       0x24 build/sam_e70_xult_freertos/production/_ext/1245453995/plib_tc0.o
                0x0041b410                TC0_CH0_InterruptHandler

.text.Console_UART_Flush%673
                0x0041b434       0x24
 .text.Console_UART_Flush
                0x0041b434       0x24 build/sam_e70_xult_freertos/production/_ext/762686499/sys_console_uart.o
                0x0041b434                Console_UART_Flush

.text.SYS_CMDIO_GET_HANDLE%674
                0x0041b458       0x24
 .text.SYS_CMDIO_GET_HANDLE
                0x0041b458       0x24 build/sam_e70_xult_freertos/production/_ext/762686499/sys_command.o
                0x0041b458                SYS_CMDIO_GET_HANDLE

.rodata._builtinCmdTbl%675
                0x0041b47c       0x24
 .rodata._builtinCmdTbl
                0x0041b47c       0x24 build/sam_e70_xult_freertos/production/_ext/762686499/sys_command.o

.text.prvTaskExitError%676
                0x0041b4a0       0x24
 .text.prvTaskExitError
                0x0041b4a0       0x24 build/sam_e70_xult_freertos/production/_ext/977623654/port.o

.text.vPortSVCHandler%677
                0x0041b4d0       0x24
 .text.vPortSVCHandler
                0x0041b4d0       0x24 build/sam_e70_xult_freertos/production/_ext/977623654/port.o
                0x0041b4d0                vPortSVCHandler

.text.vPortEnterCritical%678
                0x0041b4f4       0x24
 .text.vPortEnterCritical
                0x0041b4f4       0x24 build/sam_e70_xult_freertos/production/_ext/977623654/port.o
                0x0041b4f4                vPortEnterCritical

.text.xQueueCreateMutex%679
                0x0041b518       0x24
 .text.xQueueCreateMutex
                0x0041b518       0x24 build/sam_e70_xult_freertos/production/_ext/404212886/queue.o
                0x0041b518                xQueueCreateMutex

.text._sbrk_r%680
                0x0041b53c       0x24
 .text._sbrk_r  0x0041b53c       0x24 c:/program files (x86)/microchip/xc32/v2.15/bin/bin/../../lib/gcc/pic32c/6.2.1/../../../../pic32c/lib/v7e-m/fpv5/hard\libc.a(lib_a-sbrkr.o)
                0x0041b53c                _sbrk_r

.text.DRV_ETHPHY_Reinitialize%681
                0x0041b560       0x22
 .text.DRV_ETHPHY_Reinitialize
                0x0041b560       0x22 build/sam_e70_xult_freertos/production/_ext/1607428259/drv_ethphy.o
                0x0041b560                DRV_ETHPHY_Reinitialize

.text.TCPIP_TCP_IsConnected%682
                0x0041b582       0x22
 .text.TCPIP_TCP_IsConnected
                0x0041b582       0x22 build/sam_e70_xult_freertos/production/_ext/810785262/tcp.o
                0x0041b582                TCPIP_TCP_IsConnected

.text._TCPIP_HEAP_LastError%683
                0x0041b5a4       0x22
 .text._TCPIP_HEAP_LastError
                0x0041b5a4       0x22 build/sam_e70_xult_freertos/production/_ext/810785262/tcpip_heap_internal.o

.text.TCPIP_Helper_ProtectedSingleListInitialize%684
                0x0041b5c6       0x22
 .text.TCPIP_Helper_ProtectedSingleListInitialize
                0x0041b5c6       0x22 build/sam_e70_xult_freertos/production/_ext/810785262/tcpip_helpers.o
                0x0041b5c6                TCPIP_Helper_ProtectedSingleListInitialize

.text.TCPIP_STACK_NetAddressDnsPrimarySet%685
                0x0041b5e8       0x22
 .text.TCPIP_STACK_NetAddressDnsPrimarySet
                0x0041b5e8       0x22 build/sam_e70_xult_freertos/production/_ext/810785262/tcpip_manager.o
                0x0041b5e8                TCPIP_STACK_NetAddressDnsPrimarySet

.text.TCPIP_STACK_NetAddressMacSet%686
                0x0041b60a       0x22
 .text.TCPIP_STACK_NetAddressMacSet
                0x0041b60a       0x22 build/sam_e70_xult_freertos/production/_ext/810785262/tcpip_manager.o
                0x0041b60a                TCPIP_STACK_NetAddressMacSet

.text.TCPIP_UDP_Discard%687
                0x0041b62c       0x22
 .text.TCPIP_UDP_Discard
                0x0041b62c       0x22 build/sam_e70_xult_freertos/production/_ext/810785262/udp.o
                0x0041b62c                TCPIP_UDP_Discard

.text.DRV_ETHPHY_Tasks%688
                0x0041b650       0x20
 .text.DRV_ETHPHY_Tasks
                0x0041b650       0x20 build/sam_e70_xult_freertos/production/_ext/1607428259/drv_ethphy.o
                0x0041b650                DRV_ETHPHY_Tasks

.text.DRV_ETHPHY_Close%689
                0x0041b670       0x20
 .text.DRV_ETHPHY_Close
                0x0041b670       0x20 build/sam_e70_xult_freertos/production/_ext/1607428259/drv_ethphy.o
                0x0041b670                DRV_ETHPHY_Close

.text._DRV_ETHPHY_ClientOpSmiWrite%690
                0x0041b690       0x20
 .text._DRV_ETHPHY_ClientOpSmiWrite
                0x0041b690       0x20 build/sam_e70_xult_freertos/production/_ext/1607428259/drv_ethphy.o

.text._DRV_ETHPHY_NegRestartPhaseWrite%691
                0x0041b6b0       0x20
 .text._DRV_ETHPHY_NegRestartPhaseWrite
                0x0041b6b0       0x20 build/sam_e70_xult_freertos/production/_ext/1607428259/drv_ethphy.o

.text._DRV_ETHPHY_SetupPhaseNegotiate_SubPhase4%692
                0x0041b6d0       0x20
 .text._DRV_ETHPHY_SetupPhaseNegotiate_SubPhase4
                0x0041b6d0       0x20 build/sam_e70_xult_freertos/production/_ext/1607428259/drv_ethphy.o

.text.DRV_PIC32CGMAC_LibTransferEnable%693
                0x0041b6f0       0x20
 .text.DRV_PIC32CGMAC_LibTransferEnable
                0x0041b6f0       0x20 build/sam_e70_xult_freertos/production/_ext/1619526243/drv_gmac_lib_samE7x_V7x.o
                0x0041b6f0                DRV_PIC32CGMAC_LibTransferEnable

.text.DRV_PIC32CGMAC_SingleListHeadRemove%694
                0x0041b710       0x20
 .text.DRV_PIC32CGMAC_SingleListHeadRemove
                0x0041b710       0x20 build/sam_e70_xult_freertos/production/_ext/1619526243/drv_gmac_lib_samE7x_V7x.o
                0x0041b710                DRV_PIC32CGMAC_SingleListHeadRemove

.text.Helper_SingleListHeadRemove%695
                0x0041b730       0x20
 .text.Helper_SingleListHeadRemove
                0x0041b730       0x20 build/sam_e70_xult_freertos/production/_ext/511568427/drv_miim.o
                0x0041b730                Helper_SingleListHeadRemove

.text.TCPIP_DNS_OAHASH_KeyHash%696
                0x0041b750       0x20
 .text.TCPIP_DNS_OAHASH_KeyHash
                0x0041b750       0x20 build/sam_e70_xult_freertos/production/_ext/810785262/dns.o

.text.TCPIP_DHCP_Enable%697
                0x0041b770       0x20
 .text.TCPIP_DHCP_Enable
                0x0041b770       0x20 build/sam_e70_xult_freertos/production/_ext/810785262/dhcp.o
                0x0041b770                TCPIP_DHCP_Enable

.text.TCPIP_DHCP_Renew%698
                0x0041b790       0x20
 .text.TCPIP_DHCP_Renew
                0x0041b790       0x20 build/sam_e70_xult_freertos/production/_ext/810785262/dhcp.o
                0x0041b790                TCPIP_DHCP_Renew

.text._SwapARPPacket%699
                0x0041b7b0       0x20
 .text._SwapARPPacket
                0x0041b7b0       0x20 build/sam_e70_xult_freertos/production/_ext/810785262/arp.o

.text.TCPIP_Helper_SingleListHeadRemove%700
                0x0041b7d0       0x20
 .text.TCPIP_Helper_SingleListHeadRemove
                0x0041b7d0       0x20 build/sam_e70_xult_freertos/production/_ext/810785262/tcpip_helpers.o
                0x0041b7d0                TCPIP_Helper_SingleListHeadRemove

.text.TCPIP_Helper_ProtectedSingleListLock%701
                0x0041b7f0       0x20
 .text.TCPIP_Helper_ProtectedSingleListLock
                0x0041b7f0       0x20 build/sam_e70_xult_freertos/production/_ext/810785262/tcpip_helpers.o
                0x0041b7f0                TCPIP_Helper_ProtectedSingleListLock

.rodata.TCPIP_MAC_POWER_TBL%702
                0x0041b810       0x20
 .rodata.TCPIP_MAC_POWER_TBL
                0x0041b810       0x20 build/sam_e70_xult_freertos/production/_ext/810785262/tcpip_helpers.o

.text.TCPIP_STACK_NetDefaultSet%703
                0x0041b830       0x20
 .text.TCPIP_STACK_NetDefaultSet
                0x0041b830       0x20 build/sam_e70_xult_freertos/production/_ext/810785262/tcpip_manager.o
                0x0041b830                TCPIP_STACK_NetDefaultSet

.text.TCPIP_STACK_IndexToNet%704
                0x0041b850       0x20
 .text.TCPIP_STACK_IndexToNet
                0x0041b850       0x20 build/sam_e70_xult_freertos/production/_ext/810785262/tcpip_manager.o
                0x0041b850                TCPIP_STACK_IndexToNet

.text.TCPIP_STACK_Deinitialize%705
                0x0041b870       0x20
 .text.TCPIP_STACK_Deinitialize
                0x0041b870       0x20 build/sam_e70_xult_freertos/production/_ext/810785262/tcpip_manager.o
                0x0041b870                TCPIP_STACK_Deinitialize

.text.TCPIP_Notification_Remove%706
                0x0041b890       0x20
 .text.TCPIP_Notification_Remove
                0x0041b890       0x20 build/sam_e70_xult_freertos/production/_ext/810785262/tcpip_notify.o
                0x0041b890                TCPIP_Notification_Remove

.rodata%707     0x0041b8b0       0x20
 .rodata        0x0041b8b0       0x20 build/sam_e70_xult_freertos/production/_ext/810785262/tcpip_packet.o

.text.TCPIP_UDP_DestinationPortSet%708
                0x0041b8d0       0x20
 .text.TCPIP_UDP_DestinationPortSet
                0x0041b8d0       0x20 build/sam_e70_xult_freertos/production/_ext/810785262/udp.o
                0x0041b8d0                TCPIP_UDP_DestinationPortSet

.rodata.sysConsoleUARTDevDesc%709
                0x0041b8f0       0x20
 .rodata.sysConsoleUARTDevDesc
                0x0041b8f0       0x20 build/sam_e70_xult_freertos/production/_ext/762686499/sys_console_uart.o
                0x0041b8f0                sysConsoleUARTDevDesc

.text.SYS_DEBUG_Initialize%710
                0x0041b910       0x20
 .text.SYS_DEBUG_Initialize
                0x0041b910       0x20 build/sam_e70_xult_freertos/production/_ext/762686499/sys_debug.o
                0x0041b910                SYS_DEBUG_Initialize

.text.SYS_INT_SourceRestore%711
                0x0041b930       0x20
 .text.SYS_INT_SourceRestore
                0x0041b930       0x20 build/sam_e70_xult_freertos/production/_ext/1775855163/sys_int.o
                0x0041b930                SYS_INT_SourceRestore

.text.SYS_TIME_GetElapsedCount%712
                0x0041b950       0x20
 .text.SYS_TIME_GetElapsedCount
                0x0041b950       0x20 build/sam_e70_xult_freertos/production/_ext/912870411/sys_time.o

.rodata.tcpipPhyInitData%713
                0x0041b970       0x20
 .rodata.tcpipPhyInitData
                0x0041b970       0x20 build/sam_e70_xult_freertos/production/_ext/1552905064/initialization.o
                0x0041b970                tcpipPhyInitData

.text.pvPortMalloc%714
                0x0041b990       0x20
 .text.pvPortMalloc
                0x0041b990       0x20 build/sam_e70_xult_freertos/production/_ext/1665200909/heap_3.o
                0x0041b990                pvPortMalloc

.text.vsnprintf%715
                0x0041b9b0       0x20
 .text.vsnprintf
                0x0041b9b0       0x20 c:/program files (x86)/microchip/xc32/v2.15/bin/bin/../../lib/gcc/pic32c/6.2.1/../../../../pic32c/lib/v7e-m/fpv5/hard\libc.a(lib_a-vsnprintf.o)
                0x0041b9b0                vsnprintf

.text.DRV_ETHPHY_ClientOperationAbort%716
                0x0041b9d0       0x1e
 .text.DRV_ETHPHY_ClientOperationAbort
                0x0041b9d0       0x1e build/sam_e70_xult_freertos/production/_ext/1607428259/drv_ethphy.o
                0x0041b9d0                DRV_ETHPHY_ClientOperationAbort

.text._TCPIsGetReady%717
                0x0041b9ee       0x1e
 .text._TCPIsGetReady
                0x0041b9ee       0x1e build/sam_e70_xult_freertos/production/_ext/810785262/tcp.o

.text.TCPIP_STACK_NetAddressBcast%718
                0x0041ba0c       0x1e
 .text.TCPIP_STACK_NetAddressBcast
                0x0041ba0c       0x1e build/sam_e70_xult_freertos/production/_ext/810785262/tcpip_manager.o
                0x0041ba0c                TCPIP_STACK_NetAddressBcast

.text.TCPIP_STACK_NetworkIsLinked%719
                0x0041ba2a       0x1e
 .text.TCPIP_STACK_NetworkIsLinked
                0x0041ba2a       0x1e build/sam_e70_xult_freertos/production/_ext/810785262/tcpip_manager.o
                0x0041ba2a                TCPIP_STACK_NetworkIsLinked

.text.TCPIP_PKT_PayloadLen%720
                0x0041ba48       0x1e
 .text.TCPIP_PKT_PayloadLen
                0x0041ba48       0x1e build/sam_e70_xult_freertos/production/_ext/810785262/tcpip_packet.o
                0x0041ba48                TCPIP_PKT_PayloadLen

.text.OSAL_SEM_Pend%721
                0x0041ba66       0x1e
 .text.OSAL_SEM_Pend
                0x0041ba66       0x1e build/sam_e70_xult_freertos/production/_ext/281930714/osal_freertos.o
                0x0041ba66                OSAL_SEM_Pend

.text.OSAL_MUTEX_Lock%722
                0x0041ba84       0x1e
 .text.OSAL_MUTEX_Lock
                0x0041ba84       0x1e build/sam_e70_xult_freertos/production/_ext/281930714/osal_freertos.o
                0x0041ba84                OSAL_MUTEX_Lock

.rodata._DRV_PHY_SetupPhaseNegotiateSubPhaseTbl%723
                0x0041baa4       0x1c
 .rodata._DRV_PHY_SetupPhaseNegotiateSubPhaseTbl
                0x0041baa4       0x1c build/sam_e70_xult_freertos/production/_ext/1607428259/drv_ethphy.o

.text.TCPIP_DNS_IsResolved%724
                0x0041bac0       0x1c
 .text.TCPIP_DNS_IsResolved
                0x0041bac0       0x1c build/sam_e70_xult_freertos/production/_ext/810785262/dns.o
                0x0041bac0                TCPIP_DNS_IsResolved

.rodata._DHCPOptWriteTbl%725
                0x0041badc       0x1c
 .rodata._DHCPOptWriteTbl
                0x0041badc       0x1c build/sam_e70_xult_freertos/production/_ext/810785262/dhcp.o

.text._ARPTxAckFnc%726
                0x0041baf8       0x1c
 .text._ARPTxAckFnc
                0x0041baf8       0x1c build/sam_e70_xult_freertos/production/_ext/810785262/arp.o

.text.TCPIP_IPV4_MaxDatagramDataSizeGet%727
                0x0041bb14       0x1c
 .text.TCPIP_IPV4_MaxDatagramDataSizeGet
                0x0041bb14       0x1c build/sam_e70_xult_freertos/production/_ext/810785262/ipv4.o
                0x0041bb14                TCPIP_IPV4_MaxDatagramDataSizeGet

.rodata.__func__.14104%728
                0x0041bb30       0x1c
 .rodata.__func__.14104
                0x0041bb30       0x1c build/sam_e70_xult_freertos/production/_ext/810785262/ipv4.o

.text._TCPIP_HEAP_FreeSize%729
                0x0041bb4c       0x1c
 .text._TCPIP_HEAP_FreeSize
                0x0041bb4c       0x1c build/sam_e70_xult_freertos/production/_ext/810785262/tcpip_heap_internal.o

.text._TCPIP_HEAP_Calloc%730
                0x0041bb68       0x1c
 .text._TCPIP_HEAP_Calloc
                0x0041bb68       0x1c build/sam_e70_xult_freertos/production/_ext/810785262/tcpip_heap_internal.o

.text.TCPIP_Helper_SingleListAppend%731
                0x0041bb84       0x1c
 .text.TCPIP_Helper_SingleListAppend
                0x0041bb84       0x1c build/sam_e70_xult_freertos/production/_ext/810785262/tcpip_helpers.o
                0x0041bb84                TCPIP_Helper_SingleListAppend

.text.TCPIP_Helper_ProtectedSingleListUnlock%732
                0x0041bba0       0x1c
 .text.TCPIP_Helper_ProtectedSingleListUnlock
                0x0041bba0       0x1c build/sam_e70_xult_freertos/production/_ext/810785262/tcpip_helpers.o
                0x0041bba0                TCPIP_Helper_ProtectedSingleListUnlock

.text._TCPIPSignalEntryNotify%733
                0x0041bbbc       0x1c
 .text._TCPIPSignalEntryNotify
                0x0041bbbc       0x1c build/sam_e70_xult_freertos/production/_ext/810785262/tcpip_manager.o

.text.TCPIP_STACK_Status%734
                0x0041bbd8       0x1c
 .text.TCPIP_STACK_Status
                0x0041bbd8       0x1c build/sam_e70_xult_freertos/production/_ext/810785262/tcpip_manager.o
                0x0041bbd8                TCPIP_STACK_Status

.text.TCPIP_STACK_NetAddressGatewaySet%735
                0x0041bbf4       0x1c
 .text.TCPIP_STACK_NetAddressGatewaySet
                0x0041bbf4       0x1c build/sam_e70_xult_freertos/production/_ext/810785262/tcpip_manager.o
                0x0041bbf4                TCPIP_STACK_NetAddressGatewaySet

.text.TCPIP_STACK_NetIsUp%736
                0x0041bc10       0x1c
 .text.TCPIP_STACK_NetIsUp
                0x0041bc10       0x1c build/sam_e70_xult_freertos/production/_ext/810785262/tcpip_manager.o
                0x0041bc10                TCPIP_STACK_NetIsUp

.text.TCPIP_STACK_NetAddress%737
                0x0041bc2c       0x1c
 .text.TCPIP_STACK_NetAddress
                0x0041bc2c       0x1c build/sam_e70_xult_freertos/production/_ext/810785262/tcpip_manager.o
                0x0041bc2c                TCPIP_STACK_NetAddress

.text.TCPIP_STACK_NetMask%738
                0x0041bc48       0x1c
 .text.TCPIP_STACK_NetMask
                0x0041bc48       0x1c build/sam_e70_xult_freertos/production/_ext/810785262/tcpip_manager.o
                0x0041bc48                TCPIP_STACK_NetMask

.text.TCPIP_STACK_NetIsLinked%739
                0x0041bc64       0x1c
 .text.TCPIP_STACK_NetIsLinked
                0x0041bc64       0x1c build/sam_e70_xult_freertos/production/_ext/810785262/tcpip_manager.o
                0x0041bc64                TCPIP_STACK_NetIsLinked

.text.TCPIP_STACK_NetAddressMac%740
                0x0041bc80       0x1c
 .text.TCPIP_STACK_NetAddressMac
                0x0041bc80       0x1c build/sam_e70_xult_freertos/production/_ext/810785262/tcpip_manager.o
                0x0041bc80                TCPIP_STACK_NetAddressMac

.text.TCPIP_Notification_Add%741
                0x0041bc9c       0x1c
 .text.TCPIP_Notification_Add
                0x0041bc9c       0x1c build/sam_e70_xult_freertos/production/_ext/810785262/tcpip_notify.o
                0x0041bc9c                TCPIP_Notification_Add

.text.TCPIP_Notification_RemoveAll%742
                0x0041bcb8       0x1c
 .text.TCPIP_Notification_RemoveAll
                0x0041bcb8       0x1c build/sam_e70_xult_freertos/production/_ext/810785262/tcpip_notify.o
                0x0041bcb8                TCPIP_Notification_RemoveAll

.text.TCPIP_UDP_TxPointerGet%743
                0x0041bcd4       0x1c
 .text.TCPIP_UDP_TxPointerGet
                0x0041bcd4       0x1c build/sam_e70_xult_freertos/production/_ext/810785262/udp.o
                0x0041bcd4                TCPIP_UDP_TxPointerGet

.text.SYS_TIME_Counter64Update%744
                0x0041bcf0       0x1c
 .text.SYS_TIME_Counter64Update
                0x0041bcf0       0x1c build/sam_e70_xult_freertos/production/_ext/912870411/sys_time.o

.text.SYS_TMR_CallbackPeriodic%745
                0x0041bd0c       0x1c
 .text.SYS_TMR_CallbackPeriodic
                0x0041bd0c       0x1c build/sam_e70_xult_freertos/production/_ext/231871610/sys_time_h2_adapter.o
                0x0041bd0c                SYS_TMR_CallbackPeriodic

.rodata.sysTimePlibAPI%746
                0x0041bd28       0x1c
 .rodata.sysTimePlibAPI
                0x0041bd28       0x1c build/sam_e70_xult_freertos/production/_ext/1552905064/initialization.o
                0x0041bd28                sysTimePlibAPI

.text.vTaskPlaceOnEventList%747
                0x0041bd44       0x1c
 .text.vTaskPlaceOnEventList
                0x0041bd44       0x1c build/sam_e70_xult_freertos/production/_ext/404212886/FreeRTOS_tasks.o
                0x0041bd44                vTaskPlaceOnEventList

.text.pvTaskIncrementMutexHeldCount%748
                0x0041bd60       0x1c
 .text.pvTaskIncrementMutexHeldCount
                0x0041bd60       0x1c build/sam_e70_xult_freertos/production/_ext/404212886/FreeRTOS_tasks.o
                0x0041bd60                pvTaskIncrementMutexHeldCount

.text.__locale_ctype_ptr%749
                0x0041bd7c       0x1c
 .text.__locale_ctype_ptr
                0x0041bd7c       0x1c c:/program files (x86)/microchip/xc32/v2.15/bin/bin/../../lib/gcc/pic32c/6.2.1/../../../../pic32c/lib/v7e-m/fpv5/hard\libc.a(lib_a-locale.o)
                0x0041bd7c                __locale_ctype_ptr

.text.__ascii_wctomb%750
                0x0041bd98       0x1c
 .text.__ascii_wctomb
                0x0041bd98       0x1c c:/program files (x86)/microchip/xc32/v2.15/bin/bin/../../lib/gcc/pic32c/6.2.1/../../../../pic32c/lib/v7e-m/fpv5/hard\libc.a(lib_a-wctomb_r.o)
                0x0041bd98                __ascii_wctomb

.text._localeconv_r%751
                0x0041bdb4       0x1c
 .text._localeconv_r
                0x0041bdb4       0x1c c:/program files (x86)/microchip/xc32/v2.15/bin/bin/../../lib/gcc/pic32c/6.2.1/../../../../pic32c/lib/v7e-m/fpv5/hard\libc.a(lib_a-localeconv.o)
                0x0041bdb4                _localeconv_r

.text._DRV_ETHPHY_NegCompletePhaseResultNoWait%752
                0x0041bdd0       0x1a
 .text._DRV_ETHPHY_NegCompletePhaseResultNoWait
                0x0041bdd0       0x1a build/sam_e70_xult_freertos/production/_ext/1607428259/drv_ethphy.o

.text.DRV_PIC32CGMAC_SingleListTailAdd%753
                0x0041bdea       0x1a
 .text.DRV_PIC32CGMAC_SingleListTailAdd
                0x0041bdea       0x1a build/sam_e70_xult_freertos/production/_ext/1619526243/drv_gmac_lib_samE7x_V7x.o
                0x0041bdea                DRV_PIC32CGMAC_SingleListTailAdd

.text.Helper_SingleListTailAdd%754
                0x0041be04       0x1a
 .text.Helper_SingleListTailAdd
                0x0041be04       0x1a build/sam_e70_xult_freertos/production/_ext/511568427/drv_miim.o
                0x0041be04                Helper_SingleListTailAdd

.text.DRV_MIIM_Read%755
                0x0041be1e       0x1a
 .text.DRV_MIIM_Read
                0x0041be1e       0x1a build/sam_e70_xult_freertos/production/_ext/511568427/drv_miim.o
                0x0041be1e                DRV_MIIM_Read

.text.DRV_MIIM_Write%756
                0x0041be38       0x1a
 .text.DRV_MIIM_Write
                0x0041be38       0x1a build/sam_e70_xult_freertos/production/_ext/511568427/drv_miim.o
                0x0041be38                DRV_MIIM_Write

.text.DRV_MIIM_Scan%757
                0x0041be52       0x1a
 .text.DRV_MIIM_Scan
                0x0041be52       0x1a build/sam_e70_xult_freertos/production/_ext/511568427/drv_miim.o
                0x0041be52                DRV_MIIM_Scan

.text.TCPIP_TCP_ClientOpen%758
                0x0041be6c       0x1a
 .text.TCPIP_TCP_ClientOpen
                0x0041be6c       0x1a build/sam_e70_xult_freertos/production/_ext/810785262/tcp.o
                0x0041be6c                TCPIP_TCP_ClientOpen

.text.TCPIP_TCP_PutIsReady%759
                0x0041be86       0x1a
 .text.TCPIP_TCP_PutIsReady
                0x0041be86       0x1a build/sam_e70_xult_freertos/production/_ext/810785262/tcp.o
                0x0041be86                TCPIP_TCP_PutIsReady

.text.TCPIP_Helper_SingleListTailAdd%760
                0x0041bea0       0x1a
 .text.TCPIP_Helper_SingleListTailAdd
                0x0041bea0       0x1a build/sam_e70_xult_freertos/production/_ext/810785262/tcpip_helpers.o
                0x0041bea0                TCPIP_Helper_SingleListTailAdd

.text.TCPIP_STACK_NetIsReady%761
                0x0041beba       0x1a
 .text.TCPIP_STACK_NetIsReady
                0x0041beba       0x1a build/sam_e70_xult_freertos/production/_ext/810785262/tcpip_manager.o
                0x0041beba                TCPIP_STACK_NetIsReady

.text._UDPTxPktValid%762
                0x0041bed4       0x1a
 .text._UDPTxPktValid
                0x0041bed4       0x1a build/sam_e70_xult_freertos/production/_ext/810785262/udp.o

.text.BSP_Initialize%763
                0x00409e48       0x18
 .text.BSP_Initialize
                0x00409e48       0x18 build/sam_e70_xult_freertos/production/_ext/683629640/bsp.o
                0x00409e48                BSP_Initialize

.text.DRV_ETHPHY_PhyAddressGet%764
                0x0041beee       0x18
 .text.DRV_ETHPHY_PhyAddressGet
                0x0041beee       0x18 build/sam_e70_xult_freertos/production/_ext/1607428259/drv_ethphy.o
                0x0041beee                DRV_ETHPHY_PhyAddressGet

.text._DRV_PHY_SMIReadStart%765
                0x0041bf06       0x18
 .text._DRV_PHY_SMIReadStart
                0x0041bf06       0x18 build/sam_e70_xult_freertos/production/_ext/1607428259/drv_ethphy.o

.text._DRV_PHY_SMIWriteStart%766
                0x0041bf1e       0x18
 .text._DRV_PHY_SMIWriteStart
                0x0041bf1e       0x18 build/sam_e70_xult_freertos/production/_ext/1607428259/drv_ethphy.o

.text._DRV_ETHPHY_ResetPhaseIdle%767
                0x0041bf36       0x18
 .text._DRV_ETHPHY_ResetPhaseIdle
                0x0041bf36       0x18 build/sam_e70_xult_freertos/production/_ext/1607428259/drv_ethphy.o

.rodata._DRV_PHY_NegCompletePhasesTbl%768
                0x0041bf50       0x18
 .rodata._DRV_PHY_NegCompletePhasesTbl
                0x0041bf50       0x18 build/sam_e70_xult_freertos/production/_ext/1607428259/drv_ethphy.o

.text.DRV_PIC32CGMAC_SingleListHeadAdd%769
                0x0041bf68       0x18
 .text.DRV_PIC32CGMAC_SingleListHeadAdd
                0x0041bf68       0x18 build/sam_e70_xult_freertos/production/_ext/1619526243/drv_gmac_lib_samE7x_V7x.o
                0x0041bf68                DRV_PIC32CGMAC_SingleListHeadAdd

.text.DRV_MIIM_Close%770
                0x0041bf80       0x18
 .text.DRV_MIIM_Close
                0x0041bf80       0x18 build/sam_e70_xult_freertos/production/_ext/511568427/drv_miim.o
                0x0041bf80                DRV_MIIM_Close

.rodata.__func__.14139%771
                0x0041bf98       0x18
 .rodata.__func__.14139
                0x0041bf98       0x18 build/sam_e70_xult_freertos/production/_ext/810785262/dns.o

.rodata.__func__.14157%772
                0x0041bfb0       0x18
 .rodata.__func__.14157
                0x0041bfb0       0x18 build/sam_e70_xult_freertos/production/_ext/810785262/dns.o

.rodata.__func__.14408%773
                0x0041bfc8       0x18
 .rodata.__func__.14408
                0x0041bfc8       0x18 build/sam_e70_xult_freertos/production/_ext/810785262/dns.o

.text.TCPIP_ICMP_Cleanup%774
                0x0041bfe0       0x18
 .text.TCPIP_ICMP_Cleanup
                0x0041bfe0       0x18 build/sam_e70_xult_freertos/production/_ext/810785262/icmp.o

.text.TCPIP_ARP_HashKeyHash%775
                0x0041bff8       0x18
 .text.TCPIP_ARP_HashKeyHash
                0x0041bff8       0x18 build/sam_e70_xult_freertos/production/_ext/810785262/arp.o
                0x0041bff8                TCPIP_ARP_HashKeyHash

.text.TCPIP_HEAP_Create%776
                0x0041c010       0x18
 .text.TCPIP_HEAP_Create
                0x0041c010       0x18 build/sam_e70_xult_freertos/production/_ext/810785262/tcpip_heap_alloc.o
                0x0041c010                TCPIP_HEAP_Create

.text.TCPIP_OAHASH_EntryRemove%777
                0x0041c028       0x18
 .text.TCPIP_OAHASH_EntryRemove
                0x0041c028       0x18 build/sam_e70_xult_freertos/production/_ext/810785262/oahash.o
                0x0041c028                TCPIP_OAHASH_EntryRemove

.text.TCPIP_STACK_NetAddressGateway%778
                0x0041c040       0x18
 .text.TCPIP_STACK_NetAddressGateway
                0x0041c040       0x18 build/sam_e70_xult_freertos/production/_ext/810785262/tcpip_manager.o
                0x0041c040                TCPIP_STACK_NetAddressGateway

.text.TCPIP_STACK_NetAddressDnsPrimary%779
                0x0041c058       0x18
 .text.TCPIP_STACK_NetAddressDnsPrimary
                0x0041c058       0x18 build/sam_e70_xult_freertos/production/_ext/810785262/tcpip_manager.o
                0x0041c058                TCPIP_STACK_NetAddressDnsPrimary

.text.TCPIP_STACK_NetAddressGet%780
                0x0041c070       0x18
 .text.TCPIP_STACK_NetAddressGet
                0x0041c070       0x18 build/sam_e70_xult_freertos/production/_ext/810785262/tcpip_manager.o
                0x0041c070                TCPIP_STACK_NetAddressGet

.text.TCPIP_STACK_NetMaskGet%781
                0x0041c088       0x18
 .text.TCPIP_STACK_NetMaskGet
                0x0041c088       0x18 build/sam_e70_xult_freertos/production/_ext/810785262/tcpip_manager.o
                0x0041c088                TCPIP_STACK_NetMaskGet

.text.TCPIP_STACK_NetMACAddressGet%782
                0x0041c0a0       0x18
 .text.TCPIP_STACK_NetMACAddressGet
                0x0041c0a0       0x18 build/sam_e70_xult_freertos/production/_ext/810785262/tcpip_manager.o
                0x0041c0a0                TCPIP_STACK_NetMACAddressGet

.text.TCPIP_STACK_HeapHandleGet%783
                0x0041c0b8       0x18
 .text.TCPIP_STACK_HeapHandleGet
                0x0041c0b8       0x18 build/sam_e70_xult_freertos/production/_ext/810785262/tcpip_manager.o
                0x0041c0b8                TCPIP_STACK_HeapHandleGet

.rodata.TCPIP_FRAME_PROCESS_TBL%784
                0x0041c0d0       0x18
 .rodata.TCPIP_FRAME_PROCESS_TBL
                0x0041c0d0       0x18 build/sam_e70_xult_freertos/production/_ext/810785262/tcpip_manager.o

.text.Console_UART_RegisterCallback%785
                0x0041c0e8       0x18
 .text.Console_UART_RegisterCallback
                0x0041c0e8       0x18 build/sam_e70_xult_freertos/production/_ext/762686499/sys_console_uart.o
                0x0041c0e8                Console_UART_RegisterCallback

.text.CommandReset%786
                0x0041c100       0x18
 .text.CommandReset
                0x0041c100       0x18 build/sam_e70_xult_freertos/production/_ext/762686499/sys_command.o

.text.SendCommandMessage%787
                0x0041c118       0x18
 .text.SendCommandMessage
                0x0041c118       0x18 build/sam_e70_xult_freertos/production/_ext/762686499/sys_command.o

.rodata.sysConsoleApi%788
                0x0041c130       0x18
 .rodata.sysConsoleApi
                0x0041c130       0x18 build/sam_e70_xult_freertos/production/_ext/762686499/sys_command.o
                0x0041c130                sysConsoleApi

.text._TCPIP_STACK_Task%789
                0x0041c148       0x18
 .text._TCPIP_STACK_Task
                0x0041c148       0x18 build/sam_e70_xult_freertos/production/_ext/1552905064/tasks.o
                0x0041c148                _TCPIP_STACK_Task

.text._DRV_MIIM_Task%790
                0x0041c160       0x18
 .text._DRV_MIIM_Task
                0x0041c160       0x18 build/sam_e70_xult_freertos/production/_ext/1552905064/tasks.o
                0x0041c160                _DRV_MIIM_Task

.rodata.sysConsole0UARTInitData%791
                0x0041c178       0x18
 .rodata.sysConsole0UARTInitData
                0x0041c178       0x18 build/sam_e70_xult_freertos/production/_ext/1552905064/initialization.o
                0x0041c178                sysConsole0UARTInitData

.rodata.tcpipDNSClientInitData%792
                0x0041c190       0x18
 .rodata.tcpipDNSClientInitData
                0x0041c190       0x18 build/sam_e70_xult_freertos/production/_ext/1552905064/initialization.o
                0x0041c190                tcpipDNSClientInitData

.text.vPortFree%793
                0x0041c1a8       0x18
 .text.vPortFree
                0x0041c1a8       0x18 build/sam_e70_xult_freertos/production/_ext/1665200909/heap_3.o
                0x0041c1a8                vPortFree

.text.vListInsertEnd%794
                0x0041c1c0       0x18
 .text.vListInsertEnd
                0x0041c1c0       0x18 build/sam_e70_xult_freertos/production/_ext/404212886/list.o
                0x0041c1c0                vListInsertEnd

.text.vTaskInternalSetTimeOutState%795
                0x0041c1d8       0x18
 .text.vTaskInternalSetTimeOutState
                0x0041c1d8       0x18 build/sam_e70_xult_freertos/production/_ext/404212886/FreeRTOS_tasks.o
                0x0041c1d8                vTaskInternalSetTimeOutState

.text.OSAL_CRIT_Enter%796
                0x0041c1f0       0x18
 .text.OSAL_CRIT_Enter
                0x0041c1f0       0x18 build/sam_e70_xult_freertos/production/_ext/281930714/osal_freertos.o
                0x0041c1f0                OSAL_CRIT_Enter

.text.OSAL_SEM_Post%797
                0x0041c208       0x18
 .text.OSAL_SEM_Post
                0x0041c208       0x18 build/sam_e70_xult_freertos/production/_ext/281930714/osal_freertos.o
                0x0041c208                OSAL_SEM_Post

.text.OSAL_MUTEX_Create%798
                0x0041c220       0x18
 .text.OSAL_MUTEX_Create
                0x0041c220       0x18 build/sam_e70_xult_freertos/production/_ext/281930714/osal_freertos.o
                0x0041c220                OSAL_MUTEX_Create

.text.OSAL_MUTEX_Unlock%799
                0x0041c238       0x18
 .text.OSAL_MUTEX_Unlock
                0x0041c238       0x18 build/sam_e70_xult_freertos/production/_ext/281930714/osal_freertos.o
                0x0041c238                OSAL_MUTEX_Unlock

.text.DRV_ETHPHY_VendorDataGet%800
                0x0041c250       0x16
 .text.DRV_ETHPHY_VendorDataGet
                0x0041c250       0x16 build/sam_e70_xult_freertos/production/_ext/1607428259/drv_ethphy.o
                0x0041c250                DRV_ETHPHY_VendorDataGet

.text.DRV_MIIM_ClientStatus%801
                0x0041c266       0x16
 .text.DRV_MIIM_ClientStatus
                0x0041c266       0x16 build/sam_e70_xult_freertos/production/_ext/511568427/drv_miim.o
                0x0041c266                DRV_MIIM_ClientStatus

.text._DNSSocketRxSignalHandler%802
                0x0041c27c       0x16
 .text._DNSSocketRxSignalHandler
                0x0041c27c       0x16 build/sam_e70_xult_freertos/production/_ext/810785262/dns.o

.text._TCP_TxPktValid%803
                0x0041c292       0x16
 .text._TCP_TxPktValid
                0x0041c292       0x16 build/sam_e70_xult_freertos/production/_ext/810785262/tcp.o

.text._DHCPSocketRxSignalHandler%804
                0x0041c2a8       0x16
 .text._DHCPSocketRxSignalHandler
                0x0041c2a8       0x16 build/sam_e70_xult_freertos/production/_ext/810785262/dhcp.o

.text._TCPIP_HEAP_Size%805
                0x0041c2be       0x16
 .text._TCPIP_HEAP_Size
                0x0041c2be       0x16 build/sam_e70_xult_freertos/production/_ext/810785262/tcpip_heap_internal.o

.text._TCPIP_HEAP_HighWatermark%806
                0x0041c2d4       0x16
 .text._TCPIP_HEAP_HighWatermark
                0x0041c2d4       0x16 build/sam_e70_xult_freertos/production/_ext/810785262/tcpip_heap_internal.o

.text.TCPIP_STACK_AddressServiceCanStart%807
                0x0041c2ea       0x16
 .text.TCPIP_STACK_AddressServiceCanStart
                0x0041c2ea       0x16 build/sam_e70_xult_freertos/production/_ext/810785262/tcpip_manager.o
                0x0041c2ea                TCPIP_STACK_AddressServiceCanStart

.text._TCPIPStackPacketTx%808
                0x0041c300       0x16
 .text._TCPIPStackPacketTx
                0x0041c300       0x16 build/sam_e70_xult_freertos/production/_ext/810785262/tcpip_manager.o
                0x0041c300                _TCPIPStackPacketTx

.text.vApplicationStackOverflowHook%809
                0x0041c316       0x16
 .text.vApplicationStackOverflowHook
                0x0041c316       0x16 build/sam_e70_xult_freertos/production/_ext/1552905064/freertos_hooks.o
                0x0041c316                vApplicationStackOverflowHook

.text.vApplicationMallocFailedHook%810
                0x0041c32c       0x16
 .text.vApplicationMallocFailedHook
                0x0041c32c       0x16 build/sam_e70_xult_freertos/production/_ext/1552905064/freertos_hooks.o
                0x0041c32c                vApplicationMallocFailedHook

.text.vListInitialise%811
                0x0041c342       0x16
 .text.vListInitialise
                0x0041c342       0x16 build/sam_e70_xult_freertos/production/_ext/404212886/list.o
                0x0041c342                vListInitialise

.text.prvIsQueueEmpty%812
                0x0041c358       0x16
 .text.prvIsQueueEmpty
                0x0041c358       0x16 build/sam_e70_xult_freertos/production/_ext/404212886/queue.o

.text.xQueueCreateCountingSemaphore%813
                0x0041c36e       0x16
 .text.xQueueCreateCountingSemaphore
                0x0041c36e       0x16 build/sam_e70_xult_freertos/production/_ext/404212886/queue.o
                0x0041c36e                xQueueCreateCountingSemaphore

.text.OSAL_CRIT_Leave%814
                0x0041c384       0x16
 .text.OSAL_CRIT_Leave
                0x0041c384       0x16 build/sam_e70_xult_freertos/production/_ext/281930714/osal_freertos.o
                0x0041c384                OSAL_CRIT_Leave

.text._DRV_ETHPHY_NegRestartPhaseIdle%815
                0x0041c39a       0x14
 .text._DRV_ETHPHY_NegRestartPhaseIdle
                0x0041c39a       0x14 build/sam_e70_xult_freertos/production/_ext/1607428259/drv_ethphy.o

.text._DRV_ETHPHY_NegResultPhaseIdle%816
                0x0041c3ae       0x14
 .text._DRV_ETHPHY_NegResultPhaseIdle
                0x0041c3ae       0x14 build/sam_e70_xult_freertos/production/_ext/1607428259/drv_ethphy.o

.text._DRV_ETHPHY_NegCompletePhaseIdle%817
                0x0041c3c2       0x14
 .text._DRV_ETHPHY_NegCompletePhaseIdle
                0x0041c3c2       0x14 build/sam_e70_xult_freertos/production/_ext/1607428259/drv_ethphy.o

.text._DRV_ETHPHY_LinkStatPhaseIdle%818
                0x0041c3d6       0x14
 .text._DRV_ETHPHY_LinkStatPhaseIdle
                0x0041c3d6       0x14 build/sam_e70_xult_freertos/production/_ext/1607428259/drv_ethphy.o

.rodata._DRV_PHY_NegResultPhasesTbl%819
                0x0041c3ec       0x14
 .rodata._DRV_PHY_NegResultPhasesTbl
                0x0041c3ec       0x14 build/sam_e70_xult_freertos/production/_ext/1607428259/drv_ethphy.o

.rodata._DRV_GMAC_LinkStateTbl%820
                0x0041c400       0x14
 .rodata._DRV_GMAC_LinkStateTbl
                0x0041c400       0x14 build/sam_e70_xult_freertos/production/_ext/1619526243/drv_gmac.o

.text._DHCPOptionWriteEnd%821
                0x0041c414       0x14
 .text._DHCPOptionWriteEnd
                0x0041c414       0x14 build/sam_e70_xult_freertos/production/_ext/810785262/dhcp.o

.text.TCPIP_OAHASH_EntryGet%822
                0x0041c428       0x14
 .text.TCPIP_OAHASH_EntryGet
                0x0041c428       0x14 build/sam_e70_xult_freertos/production/_ext/810785262/oahash.o
                0x0041c428                TCPIP_OAHASH_EntryGet

.rodata.sysConsole0UARTInterruptSources%823
                0x0041c43c       0x14
 .rodata.sysConsole0UARTInterruptSources
                0x0041c43c       0x14 build/sam_e70_xult_freertos/production/_ext/1552905064/initialization.o
                0x0041c43c                sysConsole0UARTInterruptSources

.rodata.sysConsole0UARTPlibAPI%824
                0x0041c450       0x14
 .rodata.sysConsole0UARTPlibAPI
                0x0041c450       0x14 build/sam_e70_xult_freertos/production/_ext/1552905064/initialization.o
                0x0041c450                sysConsole0UARTPlibAPI

.text.vPortEnableVFP%825
                0x0041c464       0x14
 .text.vPortEnableVFP
                0x0041c464       0x14 build/sam_e70_xult_freertos/production/_ext/977623654/port.o

.text.vPortExitCritical%826
                0x0041c478       0x14
 .text.vPortExitCritical
                0x0041c478       0x14 build/sam_e70_xult_freertos/production/_ext/977623654/port.o
                0x0041c478                vPortExitCritical

.rodata%827     0x0041c48c       0x14
 .rodata        0x0041c48c       0x14 c:/program files (x86)/microchip/xc32/v2.15/bin/bin/../../lib/gcc/pic32c/6.2.1/../../../../pic32c/lib/v7e-m/fpv5/hard\libc.a(lib_a-locale.o)

.text.register_fini%828
                0x0041c4a0       0x14
 .text.register_fini
                0x0041c4a0       0x14 c:/program files (x86)/microchip/xc32/v2.15/bin/bin/../../lib/gcc/pic32c/6.2.1/../../../../pic32c/lib/v7e-m/fpv5/hard\libc.a(lib_a-__call_atexit.o)

.rodata%829     0x0041c4b4       0x14
 .rodata        0x0041c4b4       0x14 c:/program files (x86)/microchip/xc32/v2.15/bin/bin/../../lib/gcc/pic32c/6.2.1/../../../../pic32c/lib/v7e-m/fpv5/hard\libc.a(lib_a-dtoa.o)

.text._Bfree%830
                0x0041c4c8       0x14
 .text._Bfree   0x0041c4c8       0x14 c:/program files (x86)/microchip/xc32/v2.15/bin/bin/../../lib/gcc/pic32c/6.2.1/../../../../pic32c/lib/v7e-m/fpv5/hard\libc.a(lib_a-mprec.o)
                0x0041c4c8                _Bfree

.text.__i2b%831
                0x0041c4dc       0x14
 .text.__i2b    0x0041c4dc       0x14 c:/program files (x86)/microchip/xc32/v2.15/bin/bin/../../lib/gcc/pic32c/6.2.1/../../../../pic32c/lib/v7e-m/fpv5/hard\libc.a(lib_a-mprec.o)
                0x0041c4dc                __i2b

.text.DRV_GMAC_Status%832
                0x0041c4f0       0x12
 .text.DRV_GMAC_Status
                0x0041c4f0       0x12 build/sam_e70_xult_freertos/production/_ext/1619526243/drv_gmac.o
                0x0041c4f0                DRV_GMAC_Status

.text.DRV_GMAC_Close%833
                0x0041c502       0x12
 .text.DRV_GMAC_Close
                0x0041c502       0x12 build/sam_e70_xult_freertos/production/_ext/1619526243/drv_gmac.o
                0x0041c502                DRV_GMAC_Close

.text.DRV_GMAC_Deinitialize%834
                0x0041c514       0x12
 .text.DRV_GMAC_Deinitialize
                0x0041c514       0x12 build/sam_e70_xult_freertos/production/_ext/1619526243/drv_gmac.o
                0x0041c514                DRV_GMAC_Deinitialize

.text.TCPIP_TCP_GetIsReady%835
                0x0041c526       0x12
 .text.TCPIP_TCP_GetIsReady
                0x0041c526       0x12 build/sam_e70_xult_freertos/production/_ext/810785262/tcp.o
                0x0041c526                TCPIP_TCP_GetIsReady

.text.TCPIP_STACK_NetNameGet%836
                0x0041c538       0x12
 .text.TCPIP_STACK_NetNameGet
                0x0041c538       0x12 build/sam_e70_xult_freertos/production/_ext/810785262/tcpip_manager.o
                0x0041c538                TCPIP_STACK_NetNameGet

.text.IsCommandReady%837
                0x0041c54a       0x12
 .text.IsCommandReady
                0x0041c54a       0x12 build/sam_e70_xult_freertos/production/_ext/762686499/sys_command.o

.text.SYS_INT_Disable%838
                0x0041c55c       0x12
 .text.SYS_INT_Disable
                0x0041c55c       0x12 build/sam_e70_xult_freertos/production/_ext/1775855163/sys_int.o
                0x0041c55c                SYS_INT_Disable

.text.SYS_INT_Restore%839
                0x0041c56e       0x12
 .text.SYS_INT_Restore
                0x0041c56e       0x12 build/sam_e70_xult_freertos/production/_ext/1775855163/sys_int.o
                0x0041c56e                SYS_INT_Restore

.text.OSAL_SEM_Delete%840
                0x0041c580       0x12
 .text.OSAL_SEM_Delete
                0x0041c580       0x12 build/sam_e70_xult_freertos/production/_ext/281930714/osal_freertos.o
                0x0041c580                OSAL_SEM_Delete

.rodata._DRV_PHY_SetupPhasesTbl%841
                0x0041c594       0x10
 .rodata._DRV_PHY_SetupPhasesTbl
                0x0041c594       0x10 build/sam_e70_xult_freertos/production/_ext/1607428259/drv_ethphy.o

.rodata.DRV_ETHPHY_OBJECT_SMSC_LAN8740%842
                0x0041c5a4       0x10
 .rodata.DRV_ETHPHY_OBJECT_SMSC_LAN8740
                0x0041c5a4       0x10 build/sam_e70_xult_freertos/production/_ext/1607428259/drv_extphy_smsc8740.o
                0x0041c5a4                DRV_ETHPHY_OBJECT_SMSC_LAN8740

.text.TCPIP_DNS_GetIPv4Addresses%843
                0x0041c5b4       0x10
 .text.TCPIP_DNS_GetIPv4Addresses
                0x0041c5b4       0x10 build/sam_e70_xult_freertos/production/_ext/810785262/dns.o
                0x0041c5b4                TCPIP_DNS_GetIPv4Addresses

.text.TCPIP_DNS_GetIPv6Addresses%844
                0x0041c5c4       0x10
 .text.TCPIP_DNS_GetIPv6Addresses
                0x0041c5c4       0x10 build/sam_e70_xult_freertos/production/_ext/810785262/dns.o
                0x0041c5c4                TCPIP_DNS_GetIPv6Addresses

.text.TCPIP_Notification_Deinitialize%845
                0x0041c5d4       0x10
 .text.TCPIP_Notification_Deinitialize
                0x0041c5d4       0x10 build/sam_e70_xult_freertos/production/_ext/810785262/tcpip_notify.o
                0x0041c5d4                TCPIP_Notification_Deinitialize

.text.sy_time_h2_adapter_callback%846
                0x0041c5e4       0x10
 .text.sy_time_h2_adapter_callback
                0x0041c5e4       0x10 build/sam_e70_xult_freertos/production/_ext/231871610/sys_time_h2_adapter.o
                0x0041c5e4                sy_time_h2_adapter_callback

.text._APP_Tasks%847
                0x0041c5f4       0x10
 .text._APP_Tasks
                0x0041c5f4       0x10 build/sam_e70_xult_freertos/production/_ext/1552905064/tasks.o
                0x0041c5f4                _APP_Tasks

.text._SYS_CMD_Tasks%848
                0x0041c604       0x10
 .text._SYS_CMD_Tasks
                0x0041c604       0x10 build/sam_e70_xult_freertos/production/_ext/1552905064/tasks.o
                0x0041c604                _SYS_CMD_Tasks

.rodata.tcpipDHCPInitData%849
                0x0041c614       0x10
 .rodata.tcpipDHCPInitData
                0x0041c614       0x10 build/sam_e70_xult_freertos/production/_ext/1552905064/initialization.o
                0x0041c614                tcpipDHCPInitData

.text.vTaskSuspendAll%850
                0x0041c624       0x10
 .text.vTaskSuspendAll
                0x0041c624       0x10 build/sam_e70_xult_freertos/production/_ext/404212886/FreeRTOS_tasks.o
                0x0041c624                vTaskSuspendAll

.text.calloc%851
                0x0041c634       0x10
 .text.calloc   0x0041c634       0x10 c:/program files (x86)/microchip/xc32/v2.15/bin/bin/../../lib/gcc/pic32c/6.2.1/../../../../pic32c/lib/v7e-m/fpv5/hard\libc.a(lib_a-calloc.o)
                0x0041c634                calloc

.text.malloc%852
                0x0041c644       0x10
 .text.malloc   0x0041c644       0x10 c:/program files (x86)/microchip/xc32/v2.15/bin/bin/../../lib/gcc/pic32c/6.2.1/../../../../pic32c/lib/v7e-m/fpv5/hard\libc.a(lib_a-malloc.o)
                0x0041c644                malloc

.text.free%853  0x0041c654       0x10
 .text.free     0x0041c654       0x10 c:/program files (x86)/microchip/xc32/v2.15/bin/bin/../../lib/gcc/pic32c/6.2.1/../../../../pic32c/lib/v7e-m/fpv5/hard\libc.a(lib_a-malloc.o)
                0x0041c654                free

.text.strtok%854
                0x0041c664       0x10
 .text.strtok   0x0041c664       0x10 c:/program files (x86)/microchip/xc32/v2.15/bin/bin/../../lib/gcc/pic32c/6.2.1/../../../../pic32c/lib/v7e-m/fpv5/hard\libc.a(lib_a-strtok.o)
                0x0041c664                strtok

.rodata.blanks.8352%855
                0x0041c674       0x10
 .rodata.blanks.8352
                0x0041c674       0x10 c:/program files (x86)/microchip/xc32/v2.15/bin/bin/../../lib/gcc/pic32c/6.2.1/../../../../pic32c/lib/v7e-m/fpv5/hard\libc.a(lib_a-svfprintf.o)

.rodata.zeroes.8353%856
                0x0041c684       0x10
 .rodata.zeroes.8353
                0x0041c684       0x10 c:/program files (x86)/microchip/xc32/v2.15/bin/bin/../../lib/gcc/pic32c/6.2.1/../../../../pic32c/lib/v7e-m/fpv5/hard\libc.a(lib_a-svfprintf.o)

.text.DRV_ETHPHY_Status%857
                0x0041c694        0xe
 .text.DRV_ETHPHY_Status
                0x0041c694        0xe build/sam_e70_xult_freertos/production/_ext/1607428259/drv_ethphy.o
                0x0041c694                DRV_ETHPHY_Status

.text.DRV_ETHPHY_ClientStatus%858
                0x0041c6a2        0xe
 .text.DRV_ETHPHY_ClientStatus
                0x0041c6a2        0xe build/sam_e70_xult_freertos/production/_ext/1607428259/drv_ethphy.o
                0x0041c6a2                DRV_ETHPHY_ClientStatus

.text.DRV_ETHPHY_ClientOperationResult%859
                0x0041c6b0        0xe
 .text.DRV_ETHPHY_ClientOperationResult
                0x0041c6b0        0xe build/sam_e70_xult_freertos/production/_ext/1607428259/drv_ethphy.o
                0x0041c6b0                DRV_ETHPHY_ClientOperationResult

.text.DRV_ETHPHY_VendorDataSet%860
                0x0041c6be        0xe
 .text.DRV_ETHPHY_VendorDataSet
                0x0041c6be        0xe build/sam_e70_xult_freertos/production/_ext/1607428259/drv_ethphy.o
                0x0041c6be                DRV_ETHPHY_VendorDataSet

.text.btohexa_low%861
                0x0041c6cc        0xe
 .text.btohexa_low
                0x0041c6cc        0xe build/sam_e70_xult_freertos/production/_ext/810785262/helpers.o
                0x0041c6cc                btohexa_low

.text.TCPIP_Helper_ChecksumFold%862
                0x0041c6da        0xe
 .text.TCPIP_Helper_ChecksumFold
                0x0041c6da        0xe build/sam_e70_xult_freertos/production/_ext/810785262/tcpip_helpers.o
                0x0041c6da                TCPIP_Helper_ChecksumFold

.text.TCPIP_STACK_NetIndexGet%863
                0x0041c6e8        0xe
 .text.TCPIP_STACK_NetIndexGet
                0x0041c6e8        0xe build/sam_e70_xult_freertos/production/_ext/810785262/tcpip_manager.o
                0x0041c6e8                TCPIP_STACK_NetIndexGet

.text.TCPIP_STACK_NetIxGet%864
                0x0041c6f6        0xe
 .text.TCPIP_STACK_NetIxGet
                0x0041c6f6        0xe build/sam_e70_xult_freertos/production/_ext/810785262/tcpip_manager.o
                0x0041c6f6                TCPIP_STACK_NetIxGet

.text._TCPIPStackSignalHandlerDeregister%865
                0x0041c704        0xe
 .text._TCPIPStackSignalHandlerDeregister
                0x0041c704        0xe build/sam_e70_xult_freertos/production/_ext/810785262/tcpip_manager.o
                0x0041c704                _TCPIPStackSignalHandlerDeregister

.text.main%866  0x0041c712        0xe
 .text.main     0x0041c712        0xe build/sam_e70_xult_freertos/production/_ext/1360937237/main.o
                0x0041c712                main

.text.DRV_ETHPHY_Deinitialize%867
                0x0041b4c4        0xc
 .text.DRV_ETHPHY_Deinitialize
                0x0041b4c4        0xc build/sam_e70_xult_freertos/production/_ext/1607428259/drv_ethphy.o
                0x0041b4c4                DRV_ETHPHY_Deinitialize

.rodata._DRV_PHY_LinkStatPhasesTbl%868
                0x0041c720        0xc
 .rodata._DRV_PHY_LinkStatPhasesTbl
                0x0041c720        0xc build/sam_e70_xult_freertos/production/_ext/1607428259/drv_ethphy.o

.rodata._DRV_PHY_NegRestartPhasesTbl%869
                0x0041c72c        0xc
 .rodata._DRV_PHY_NegRestartPhasesTbl
                0x0041c72c        0xc build/sam_e70_xult_freertos/production/_ext/1607428259/drv_ethphy.o

.rodata._DRV_PHY_ResetPhasesTbl%870
                0x0041c738        0xc
 .rodata._DRV_PHY_ResetPhasesTbl
                0x0041c738        0xc build/sam_e70_xult_freertos/production/_ext/1607428259/drv_ethphy.o

.text._DRV_GMAC_GetTxOctetLow%871
                0x0041c744        0xc
 .text._DRV_GMAC_GetTxOctetLow
                0x0041c744        0xc build/sam_e70_xult_freertos/production/_ext/1619526243/drv_gmac.o

.text._DRV_GMAC_GetTxOctetHigh%872
                0x0041c750        0xc
 .text._DRV_GMAC_GetTxOctetHigh
                0x0041c750        0xc build/sam_e70_xult_freertos/production/_ext/1619526243/drv_gmac.o

.text._DRV_GMAC_GetTxFrameCount%873
                0x0041c75c        0xc
 .text._DRV_GMAC_GetTxFrameCount
                0x0041c75c        0xc build/sam_e70_xult_freertos/production/_ext/1619526243/drv_gmac.o

.text._DRV_GMAC_GetTxBCastFrameCount%874
                0x0041c768        0xc
 .text._DRV_GMAC_GetTxBCastFrameCount
                0x0041c768        0xc build/sam_e70_xult_freertos/production/_ext/1619526243/drv_gmac.o

.text._DRV_GMAC_GetTxMCastFrameCount%875
                0x0041c774        0xc
 .text._DRV_GMAC_GetTxMCastFrameCount
                0x0041c774        0xc build/sam_e70_xult_freertos/production/_ext/1619526243/drv_gmac.o

.text._DRV_GMAC_GetTxPauseFrameCount%876
                0x0041c780        0xc
 .text._DRV_GMAC_GetTxPauseFrameCount
                0x0041c780        0xc build/sam_e70_xult_freertos/production/_ext/1619526243/drv_gmac.o

.text._DRV_GMAC_GetTx64ByteFrameCount%877
                0x0041c78c        0xc
 .text._DRV_GMAC_GetTx64ByteFrameCount
                0x0041c78c        0xc build/sam_e70_xult_freertos/production/_ext/1619526243/drv_gmac.o

.text._DRV_GMAC_GetTx127ByteFrameCount%878
                0x0041c798        0xc
 .text._DRV_GMAC_GetTx127ByteFrameCount
                0x0041c798        0xc build/sam_e70_xult_freertos/production/_ext/1619526243/drv_gmac.o

.text._DRV_GMAC_GetTx255ByteFrameCount%879
                0x0041c7a4        0xc
 .text._DRV_GMAC_GetTx255ByteFrameCount
                0x0041c7a4        0xc build/sam_e70_xult_freertos/production/_ext/1619526243/drv_gmac.o

.text._DRV_GMAC_GetTx511ByteFrameCount%880
                0x0041c7b0        0xc
 .text._DRV_GMAC_GetTx511ByteFrameCount
                0x0041c7b0        0xc build/sam_e70_xult_freertos/production/_ext/1619526243/drv_gmac.o

.text._DRV_GMAC_GetTx1023ByteFrameCount%881
                0x0041c7bc        0xc
 .text._DRV_GMAC_GetTx1023ByteFrameCount
                0x0041c7bc        0xc build/sam_e70_xult_freertos/production/_ext/1619526243/drv_gmac.o

.text._DRV_GMAC_GetTx1518ByteFrameCount%882
                0x0041c7c8        0xc
 .text._DRV_GMAC_GetTx1518ByteFrameCount
                0x0041c7c8        0xc build/sam_e70_xult_freertos/production/_ext/1619526243/drv_gmac.o

.text._DRV_GMAC_GetTxGT1518ByteFrameCount%883
                0x0041c7d4        0xc
 .text._DRV_GMAC_GetTxGT1518ByteFrameCount
                0x0041c7d4        0xc build/sam_e70_xult_freertos/production/_ext/1619526243/drv_gmac.o

.text._DRV_GMAC_GetTxUnderRunFrameCount%884
                0x0041c7e0        0xc
 .text._DRV_GMAC_GetTxUnderRunFrameCount
                0x0041c7e0        0xc build/sam_e70_xult_freertos/production/_ext/1619526243/drv_gmac.o

.text._DRV_GMAC_GetTxSingleCollFrameCount%885
                0x0041c7ec        0xc
 .text._DRV_GMAC_GetTxSingleCollFrameCount
                0x0041c7ec        0xc build/sam_e70_xult_freertos/production/_ext/1619526243/drv_gmac.o

.text._DRV_GMAC_GetTxMultiCollFrameCount%886
                0x0041c7f8        0xc
 .text._DRV_GMAC_GetTxMultiCollFrameCount
                0x0041c7f8        0xc build/sam_e70_xult_freertos/production/_ext/1619526243/drv_gmac.o

.text._DRV_GMAC_GetTxExcessCollFrameCount%887
                0x0041c804        0xc
 .text._DRV_GMAC_GetTxExcessCollFrameCount
                0x0041c804        0xc build/sam_e70_xult_freertos/production/_ext/1619526243/drv_gmac.o

.text._DRV_GMAC_GetTxLateCollFrameCount%888
                0x0041c810        0xc
 .text._DRV_GMAC_GetTxLateCollFrameCount
                0x0041c810        0xc build/sam_e70_xult_freertos/production/_ext/1619526243/drv_gmac.o

.text._DRV_GMAC_GetTxDeferFrameCount%889
                0x0041c81c        0xc
 .text._DRV_GMAC_GetTxDeferFrameCount
                0x0041c81c        0xc build/sam_e70_xult_freertos/production/_ext/1619526243/drv_gmac.o

.text._DRV_GMAC_GetTxCSErrorFrameCount%890
                0x0041c828        0xc
 .text._DRV_GMAC_GetTxCSErrorFrameCount
                0x0041c828        0xc build/sam_e70_xult_freertos/production/_ext/1619526243/drv_gmac.o

.text._DRV_GMAC_GetRxOctetLow%891
                0x0041c834        0xc
 .text._DRV_GMAC_GetRxOctetLow
                0x0041c834        0xc build/sam_e70_xult_freertos/production/_ext/1619526243/drv_gmac.o

.text._DRV_GMAC_GetRxOctetHigh%892
                0x0041c840        0xc
 .text._DRV_GMAC_GetRxOctetHigh
                0x0041c840        0xc build/sam_e70_xult_freertos/production/_ext/1619526243/drv_gmac.o

.text._DRV_GMAC_GetRxFrameCount%893
                0x0041c84c        0xc
 .text._DRV_GMAC_GetRxFrameCount
                0x0041c84c        0xc build/sam_e70_xult_freertos/production/_ext/1619526243/drv_gmac.o

.text._DRV_GMAC_GetRxBCastFrameCount%894
                0x0041c858        0xc
 .text._DRV_GMAC_GetRxBCastFrameCount
                0x0041c858        0xc build/sam_e70_xult_freertos/production/_ext/1619526243/drv_gmac.o

.text._DRV_GMAC_GetRxMCastFrameCount%895
                0x0041c864        0xc
 .text._DRV_GMAC_GetRxMCastFrameCount
                0x0041c864        0xc build/sam_e70_xult_freertos/production/_ext/1619526243/drv_gmac.o

.text._DRV_GMAC_GetRxPauseFrameCount%896
                0x0041c870        0xc
 .text._DRV_GMAC_GetRxPauseFrameCount
                0x0041c870        0xc build/sam_e70_xult_freertos/production/_ext/1619526243/drv_gmac.o

.text._DRV_GMAC_GetRx64ByteFrameCount%897
                0x0041c87c        0xc
 .text._DRV_GMAC_GetRx64ByteFrameCount
                0x0041c87c        0xc build/sam_e70_xult_freertos/production/_ext/1619526243/drv_gmac.o

.text._DRV_GMAC_GetRx127ByteFrameCount%898
                0x0041c888        0xc
 .text._DRV_GMAC_GetRx127ByteFrameCount
                0x0041c888        0xc build/sam_e70_xult_freertos/production/_ext/1619526243/drv_gmac.o

.text._DRV_GMAC_GetRx255ByteFrameCount%899
                0x0041c894        0xc
 .text._DRV_GMAC_GetRx255ByteFrameCount
                0x0041c894        0xc build/sam_e70_xult_freertos/production/_ext/1619526243/drv_gmac.o

.text._DRV_GMAC_GetRx511ByteFrameCount%900
                0x0041c8a0        0xc
 .text._DRV_GMAC_GetRx511ByteFrameCount
                0x0041c8a0        0xc build/sam_e70_xult_freertos/production/_ext/1619526243/drv_gmac.o

.text._DRV_GMAC_GetRx1023ByteFrameCount%901
                0x0041c8ac        0xc
 .text._DRV_GMAC_GetRx1023ByteFrameCount
                0x0041c8ac        0xc build/sam_e70_xult_freertos/production/_ext/1619526243/drv_gmac.o

.text._DRV_GMAC_GetRx1518ByteFrameCount%902
                0x0041c8b8        0xc
 .text._DRV_GMAC_GetRx1518ByteFrameCount
                0x0041c8b8        0xc build/sam_e70_xult_freertos/production/_ext/1619526243/drv_gmac.o

.text._DRV_GMAC_GetRxGT1518ByteFrameCount%903
                0x0041c8c4        0xc
 .text._DRV_GMAC_GetRxGT1518ByteFrameCount
                0x0041c8c4        0xc build/sam_e70_xult_freertos/production/_ext/1619526243/drv_gmac.o

.text._DRV_GMAC_GetRxUnderSizeFrameCount%904
                0x0041c8d0        0xc
 .text._DRV_GMAC_GetRxUnderSizeFrameCount
                0x0041c8d0        0xc build/sam_e70_xult_freertos/production/_ext/1619526243/drv_gmac.o

.text._DRV_GMAC_GetRxOverSizeFrameCount%905
                0x0041c8dc        0xc
 .text._DRV_GMAC_GetRxOverSizeFrameCount
                0x0041c8dc        0xc build/sam_e70_xult_freertos/production/_ext/1619526243/drv_gmac.o

.text._DRV_GMAC_GetRxJabberFrameCount%906
                0x0041c8e8        0xc
 .text._DRV_GMAC_GetRxJabberFrameCount
                0x0041c8e8        0xc build/sam_e70_xult_freertos/production/_ext/1619526243/drv_gmac.o

.text._DRV_GMAC_GetRxFCSErrorFrameCount%907
                0x0041c8f4        0xc
 .text._DRV_GMAC_GetRxFCSErrorFrameCount
                0x0041c8f4        0xc build/sam_e70_xult_freertos/production/_ext/1619526243/drv_gmac.o

.text._DRV_GMAC_GetRxLFErrorFrameCount%908
                0x0041c900        0xc
 .text._DRV_GMAC_GetRxLFErrorFrameCount
                0x0041c900        0xc build/sam_e70_xult_freertos/production/_ext/1619526243/drv_gmac.o

.text._DRV_GMAC_GetRxSymErrorFrameCount%909
                0x0041c90c        0xc
 .text._DRV_GMAC_GetRxSymErrorFrameCount
                0x0041c90c        0xc build/sam_e70_xult_freertos/production/_ext/1619526243/drv_gmac.o

.text._DRV_GMAC_GetRxAlignErrorFrameCount%910
                0x0041c918        0xc
 .text._DRV_GMAC_GetRxAlignErrorFrameCount
                0x0041c918        0xc build/sam_e70_xult_freertos/production/_ext/1619526243/drv_gmac.o

.text._DRV_GMAC_GetRxResErrorFrameCount%911
                0x0041c924        0xc
 .text._DRV_GMAC_GetRxResErrorFrameCount
                0x0041c924        0xc build/sam_e70_xult_freertos/production/_ext/1619526243/drv_gmac.o

.text._DRV_GMAC_GetRxOverRunFrameCount%912
                0x0041c930        0xc
 .text._DRV_GMAC_GetRxOverRunFrameCount
                0x0041c930        0xc build/sam_e70_xult_freertos/production/_ext/1619526243/drv_gmac.o

.text._DRV_GMAC_GetRxIPHdrCSErrorFrameCount%913
                0x0041c93c        0xc
 .text._DRV_GMAC_GetRxIPHdrCSErrorFrameCount
                0x0041c93c        0xc build/sam_e70_xult_freertos/production/_ext/1619526243/drv_gmac.o

.text._DRV_GMAC_GetRxTCPCSErrorFrameCount%914
                0x0041c948        0xc
 .text._DRV_GMAC_GetRxTCPCSErrorFrameCount
                0x0041c948        0xc build/sam_e70_xult_freertos/production/_ext/1619526243/drv_gmac.o

.text._DRV_GMAC_GetRxUDPCSErrorFrameCount%915
                0x0041c954        0xc
 .text._DRV_GMAC_GetRxUDPCSErrorFrameCount
                0x0041c954        0xc build/sam_e70_xult_freertos/production/_ext/1619526243/drv_gmac.o

.text.btohexa_high%916
                0x0041c960        0xc
 .text.btohexa_high
                0x0041c960        0xc build/sam_e70_xult_freertos/production/_ext/810785262/helpers.o
                0x0041c960                btohexa_high

.text.TCPIP_DNS_OAHASH_KeyCompare%917
                0x0041c96c        0xc
 .text.TCPIP_DNS_OAHASH_KeyCompare
                0x0041c96c        0xc build/sam_e70_xult_freertos/production/_ext/810785262/dns.o

.text.TCPIP_DNS_Enable%918
                0x0041c978        0xc
 .text.TCPIP_DNS_Enable
                0x0041c978        0xc build/sam_e70_xult_freertos/production/_ext/810785262/dns.o
                0x0041c978                TCPIP_DNS_Enable

.text.TCPIP_ARP_HashKeyCompare%919
                0x0041c984        0xc
 .text.TCPIP_ARP_HashKeyCompare
                0x0041c984        0xc build/sam_e70_xult_freertos/production/_ext/810785262/arp.o
                0x0041c984                TCPIP_ARP_HashKeyCompare

.text.TCPIP_STACK_NetDefaultGet%920
                0x0041c990        0xc
 .text.TCPIP_STACK_NetDefaultGet
                0x0041c990        0xc build/sam_e70_xult_freertos/production/_ext/810785262/tcpip_manager.o
                0x0041c990                TCPIP_STACK_NetDefaultGet

.text.TCPIP_STACK_NumberOfNetworksGet%921
                0x0041c99c        0xc
 .text.TCPIP_STACK_NumberOfNetworksGet
                0x0041c99c        0xc build/sam_e70_xult_freertos/production/_ext/810785262/tcpip_manager.o
                0x0041c99c                TCPIP_STACK_NumberOfNetworksGet

.rodata.TCPIP_STACK_IF_ALIAS_NAME_TBL%922
                0x0041c9a8        0xc
 .rodata.TCPIP_STACK_IF_ALIAS_NAME_TBL
                0x0041c9a8        0xc build/sam_e70_xult_freertos/production/_ext/810785262/tcpip_manager.o

.text.TCPIP_PKT_Deinitialize%923
                0x0041c9b4        0xc
 .text.TCPIP_PKT_Deinitialize
                0x0041c9b4        0xc build/sam_e70_xult_freertos/production/_ext/810785262/tcpip_packet.o
                0x0041c9b4                TCPIP_PKT_Deinitialize

.text.TC0_CH0_TimerStart%924
                0x0041c9c0        0xc
 .text.TC0_CH0_TimerStart
                0x0041c9c0        0xc build/sam_e70_xult_freertos/production/_ext/1245453995/plib_tc0.o
                0x0041c9c0                TC0_CH0_TimerStart

.text.TC0_CH0_TimerStop%925
                0x0041c9cc        0xc
 .text.TC0_CH0_TimerStop
                0x0041c9cc        0xc build/sam_e70_xult_freertos/production/_ext/1245453995/plib_tc0.o
                0x0041c9cc                TC0_CH0_TimerStop

.text.TC0_CH0_TimerPeriodSet%926
                0x0041c9d8        0xc
 .text.TC0_CH0_TimerPeriodSet
                0x0041c9d8        0xc build/sam_e70_xult_freertos/production/_ext/1245453995/plib_tc0.o
                0x0041c9d8                TC0_CH0_TimerPeriodSet

.text.TC0_CH0_TimerCompareSet%927
                0x0041c9e4        0xc
 .text.TC0_CH0_TimerCompareSet
                0x0041c9e4        0xc build/sam_e70_xult_freertos/production/_ext/1245453995/plib_tc0.o
                0x0041c9e4                TC0_CH0_TimerCompareSet

.text.TC0_CH0_TimerCounterGet%928
                0x0041c9f0        0xc
 .text.TC0_CH0_TimerCounterGet
                0x0041c9f0        0xc build/sam_e70_xult_freertos/production/_ext/1245453995/plib_tc0.o
                0x0041c9f0                TC0_CH0_TimerCounterGet

.text.TC0_CH0_TimerCallbackRegister%929
                0x0041c9fc        0xc
 .text.TC0_CH0_TimerCallbackRegister
                0x0041c9fc        0xc build/sam_e70_xult_freertos/production/_ext/1245453995/plib_tc0.o
                0x0041c9fc                TC0_CH0_TimerCallbackRegister

.text.USART1_WriteCallbackRegister%930
                0x0041ca08        0xc
 .text.USART1_WriteCallbackRegister
                0x0041ca08        0xc build/sam_e70_xult_freertos/production/_ext/901008055/plib_usart1.o
                0x0041ca08                USART1_WriteCallbackRegister

.text.USART1_ReadCallbackRegister%931
                0x0041ca14        0xc
 .text.USART1_ReadCallbackRegister
                0x0041ca14        0xc build/sam_e70_xult_freertos/production/_ext/901008055/plib_usart1.o
                0x0041ca14                USART1_ReadCallbackRegister

.text.SYS_DEBUG_ErrorLevelGet%932
                0x0041ca20        0xc
 .text.SYS_DEBUG_ErrorLevelGet
                0x0041ca20        0xc build/sam_e70_xult_freertos/production/_ext/762686499/sys_debug.o
                0x0041ca20                SYS_DEBUG_ErrorLevelGet

.text.SYS_CMD_MESSAGE%933
                0x0041ca2c        0xc
 .text.SYS_CMD_MESSAGE
                0x0041ca2c        0xc build/sam_e70_xult_freertos/production/_ext/762686499/sys_command.o
                0x0041ca2c                SYS_CMD_MESSAGE

.text.SYS_TIME_FrequencyGet%934
                0x0041ca38        0xc
 .text.SYS_TIME_FrequencyGet
                0x0041ca38        0xc build/sam_e70_xult_freertos/production/_ext/912870411/sys_time.o
                0x0041ca38                SYS_TIME_FrequencyGet

.rodata.sysConsole0Init%935
                0x0041ca44        0xc
 .rodata.sysConsole0Init
                0x0041ca44        0xc build/sam_e70_xult_freertos/production/_ext/1552905064/initialization.o
                0x0041ca44                sysConsole0Init

.text.vTaskMissedYield%936
                0x0041ca50        0xc
 .text.vTaskMissedYield
                0x0041ca50        0xc build/sam_e70_xult_freertos/production/_ext/404212886/FreeRTOS_tasks.o
                0x0041ca50                vTaskMissedYield

.rodata.appCmdTbl%937
                0x0041ca5c        0xc
 .rodata.appCmdTbl
                0x0041ca5c        0xc build/sam_e70_xult_freertos/production/_ext/1360937237/app_commands.o

.text.atexit%938
                0x0041ca68        0xc
 .text.atexit   0x0041ca68        0xc c:/program files (x86)/microchip/xc32/v2.15/bin/bin/../../lib/gcc/pic32c/6.2.1/../../../../pic32c/lib/v7e-m/fpv5/hard\libc.a(lib_a-atexit.o)
                0x0041ca68                atexit

.rodata.p05.7179%939
                0x0041ca74        0xc
 .rodata.p05.7179
                0x0041ca74        0xc c:/program files (x86)/microchip/xc32/v2.15/bin/bin/../../lib/gcc/pic32c/6.2.1/../../../../pic32c/lib/v7e-m/fpv5/hard\libc.a(lib_a-mprec.o)

.text.GMAC_InterruptHandler%940
                0x0041ca80        0xa
 .text.GMAC_InterruptHandler
                0x0041ca80        0xa build/sam_e70_xult_freertos/production/_ext/1619526243/drv_gmac.o
                0x0041ca80                GMAC_InterruptHandler

.text.TCPIP_DNS_Resolve%941
                0x0041ca8a        0xa
 .text.TCPIP_DNS_Resolve
                0x0041ca8a        0xa build/sam_e70_xult_freertos/production/_ext/810785262/dns.o
                0x0041ca8a                TCPIP_DNS_Resolve

.text._Command_ZcllOnOff%942
                0x0041ca94        0xa
 .text._Command_ZcllOnOff
                0x0041ca94        0xa build/sam_e70_xult_freertos/production/_ext/810785262/tcpip_commands.o

.text._Command_DHCPSOnOff%943
                0x0041ca9e        0xa
 .text._Command_DHCPSOnOff
                0x0041ca9e        0xa build/sam_e70_xult_freertos/production/_ext/810785262/tcpip_commands.o

.text.TCPIP_Helper_SingleListInitialize%944
                0x0041caa8        0xa
 .text.TCPIP_Helper_SingleListInitialize
                0x0041caa8        0xa build/sam_e70_xult_freertos/production/_ext/810785262/tcpip_helpers.o
                0x0041caa8                TCPIP_Helper_SingleListInitialize

.text.TCPIP_STACK_NetBIOSName%945
                0x0041cab2        0xa
 .text.TCPIP_STACK_NetBIOSName
                0x0041cab2        0xa build/sam_e70_xult_freertos/production/_ext/810785262/tcpip_manager.o
                0x0041cab2                TCPIP_STACK_NetBIOSName

.text._TCPIPStackAddressServiceIsRunning%946
                0x0041cabc        0xa
 .text._TCPIPStackAddressServiceIsRunning
                0x0041cabc        0xa build/sam_e70_xult_freertos/production/_ext/810785262/tcpip_manager.o
                0x0041cabc                _TCPIPStackAddressServiceIsRunning

.text.TCPIP_UDP_ClientOpen%947
                0x0041cac6        0xa
 .text.TCPIP_UDP_ClientOpen
                0x0041cac6        0xa build/sam_e70_xult_freertos/production/_ext/810785262/udp.o
                0x0041cac6                TCPIP_UDP_ClientOpen

.text._DRV_ETHPHY_ClientOpSmiScan%948
                0x0041cad0        0x8
 .text._DRV_ETHPHY_ClientOpSmiScan
                0x0041cad0        0x8 build/sam_e70_xult_freertos/production/_ext/1607428259/drv_ethphy.o

.text.DRV_EXTPHY_SMIClockGet%949
                0x0041cad8        0x8
 .text.DRV_EXTPHY_SMIClockGet
                0x0041cad8        0x8 build/sam_e70_xult_freertos/production/_ext/1607428259/drv_extphy_smsc8740.o

.text.DRV_GMAC_EventPendingGet%950
                0x0041cae0        0x8
 .text.DRV_GMAC_EventPendingGet
                0x0041cae0        0x8 build/sam_e70_xult_freertos/production/_ext/1619526243/drv_gmac.o
                0x0041cae0                DRV_GMAC_EventPendingGet

.text.TCPIP_HEAP_MallocOutline%951
                0x0041cae8        0x8
 .text.TCPIP_HEAP_MallocOutline
                0x0041cae8        0x8 build/sam_e70_xult_freertos/production/_ext/810785262/tcpip_heap_alloc.o
                0x0041cae8                TCPIP_HEAP_MallocOutline

.text.TCPIP_HEAP_CallocOutline%952
                0x0041caf0        0x8
 .text.TCPIP_HEAP_CallocOutline
                0x0041caf0        0x8 build/sam_e70_xult_freertos/production/_ext/810785262/tcpip_heap_alloc.o
                0x0041caf0                TCPIP_HEAP_CallocOutline

.text.TCPIP_HEAP_FreeOutline%953
                0x0041caf8        0x8
 .text.TCPIP_HEAP_FreeOutline
                0x0041caf8        0x8 build/sam_e70_xult_freertos/production/_ext/810785262/tcpip_heap_alloc.o
                0x0041caf8                TCPIP_HEAP_FreeOutline

.text.TCPIP_STACK_GatewayAddressSet%954
                0x0041cb00        0x8
 .text.TCPIP_STACK_GatewayAddressSet
                0x0041cb00        0x8 build/sam_e70_xult_freertos/production/_ext/810785262/tcpip_manager.o
                0x0041cb00                TCPIP_STACK_GatewayAddressSet

.text.TCPIP_STACK_PrimaryDNSAddressSet%955
                0x0041cb08        0x8
 .text.TCPIP_STACK_PrimaryDNSAddressSet
                0x0041cb08        0x8 build/sam_e70_xult_freertos/production/_ext/810785262/tcpip_manager.o
                0x0041cb08                TCPIP_STACK_PrimaryDNSAddressSet

.text.TCPIP_STACK_SecondaryDNSAddressSet%956
                0x0041cb10        0x8
 .text.TCPIP_STACK_SecondaryDNSAddressSet
                0x0041cb10        0x8 build/sam_e70_xult_freertos/production/_ext/810785262/tcpip_manager.o
                0x0041cb10                TCPIP_STACK_SecondaryDNSAddressSet

.text.TCPIP_STACK_NetGetType%957
                0x0041cb18        0x8
 .text.TCPIP_STACK_NetGetType
                0x0041cb18        0x8 build/sam_e70_xult_freertos/production/_ext/810785262/tcpip_manager.o
                0x0041cb18                TCPIP_STACK_NetGetType

.text.TCPIP_Notification_Initialize%958
                0x0041cb20        0x8
 .text.TCPIP_Notification_Initialize
                0x0041cb20        0x8 build/sam_e70_xult_freertos/production/_ext/810785262/tcpip_notify.o
                0x0041cb20                TCPIP_Notification_Initialize

.text.TCPIP_UDP_TxPutIsReady%959
                0x0041cb28        0x8
 .text.TCPIP_UDP_TxPutIsReady
                0x0041cb28        0x8 build/sam_e70_xult_freertos/production/_ext/810785262/udp.o
                0x0041cb28                TCPIP_UDP_TxPutIsReady

.text.TC0_CH0_TimerFrequencyGet%960
                0x0041cb30        0x8
 .text.TC0_CH0_TimerFrequencyGet
                0x0041cb30        0x8 build/sam_e70_xult_freertos/production/_ext/1245453995/plib_tc0.o
                0x0041cb30                TC0_CH0_TimerFrequencyGet

.rodata.drvMiimInitData%961
                0x0041cb38        0x8
 .rodata.drvMiimInitData
                0x0041cb38        0x8 build/sam_e70_xult_freertos/production/_ext/1552905064/initialization.o

.rodata.sysTimeInitData%962
                0x0041cb40        0x8
 .rodata.sysTimeInitData
                0x0041cb40        0x8 build/sam_e70_xult_freertos/production/_ext/1552905064/initialization.o
                0x0041cb40                sysTimeInitData

.rodata.tcpipTCPInitData%963
                0x0041cb48        0x8
 .rodata.tcpipTCPInitData
                0x0041cb48        0x8 build/sam_e70_xult_freertos/production/_ext/1552905064/initialization.o
                0x0041cb48                tcpipTCPInitData

.rodata.tcpipUDPInitData%964
                0x0041cb50        0x8
 .rodata.tcpipUDPInitData
                0x0041cb50        0x8 build/sam_e70_xult_freertos/production/_ext/1552905064/initialization.o
                0x0041cb50                tcpipUDPInitData

.text.vQueueDelete%965
                0x0041cb58        0x8
 .text.vQueueDelete
                0x0041cb58        0x8 build/sam_e70_xult_freertos/production/_ext/404212886/queue.o
                0x0041cb58                vQueueDelete

.rodata%966     0x0041cb60        0x8
 .rodata        0x0041cb60        0x8 build/sam_e70_xult_freertos/production/_ext/404212886/FreeRTOS_tasks.o

.text.atoi%967  0x0041cb68        0x8
 .text.atoi     0x0041cb68        0x8 c:/program files (x86)/microchip/xc32/v2.15/bin/bin/../../lib/gcc/pic32c/6.2.1/../../../../pic32c/lib/v7e-m/fpv5/hard\libc.a(lib_a-atoi.o)
                0x0041cb68                atoi

.text.__locale_ctype_ptr_l%968
                0x0041cb70        0x8
 .text.__locale_ctype_ptr_l
                0x0041cb70        0x8 c:/program files (x86)/microchip/xc32/v2.15/bin/bin/../../lib/gcc/pic32c/6.2.1/../../../../pic32c/lib/v7e-m/fpv5/hard\libc.a(lib_a-locale.o)
                0x0041cb70                __locale_ctype_ptr_l

.text.DRV_ETHPHY_SMIRead%969
                0x0041cb78        0x6
 .text.DRV_ETHPHY_SMIRead
                0x0041cb78        0x6 build/sam_e70_xult_freertos/production/_ext/1607428259/drv_ethphy.o
                0x0041cb78                DRV_ETHPHY_SMIRead

.text.DRV_ETHPHY_SMIWrite%970
                0x0041cb7e        0x6
 .text.DRV_ETHPHY_SMIWrite
                0x0041cb7e        0x6 build/sam_e70_xult_freertos/production/_ext/1607428259/drv_ethphy.o
                0x0041cb7e                DRV_ETHPHY_SMIWrite

.text.DRV_ETHPHY_SMIScanStart%971
                0x0041cb84        0x6
 .text.DRV_ETHPHY_SMIScanStart
                0x0041cb84        0x6 build/sam_e70_xult_freertos/production/_ext/1607428259/drv_ethphy.o
                0x0041cb84                DRV_ETHPHY_SMIScanStart

.text.DRV_ETHPHY_SMIScanStop%972
                0x0041cb8a        0x6
 .text.DRV_ETHPHY_SMIScanStop
                0x0041cb8a        0x6 build/sam_e70_xult_freertos/production/_ext/1607428259/drv_ethphy.o
                0x0041cb8a                DRV_ETHPHY_SMIScanStop

.text.DRV_ETHPHY_SMIScanStatusGet%973
                0x0041cb90        0x6
 .text.DRV_ETHPHY_SMIScanStatusGet
                0x0041cb90        0x6 build/sam_e70_xult_freertos/production/_ext/1607428259/drv_ethphy.o
                0x0041cb90                DRV_ETHPHY_SMIScanStatusGet

.text.DRV_ETHPHY_SMIScanDataGet%974
                0x0041cb96        0x6
 .text.DRV_ETHPHY_SMIScanDataGet
                0x0041cb96        0x6 build/sam_e70_xult_freertos/production/_ext/1607428259/drv_ethphy.o
                0x0041cb96                DRV_ETHPHY_SMIScanDataGet

.text.DRV_ETHPHY_SMIStatus%975
                0x0041cb9c        0x6
 .text.DRV_ETHPHY_SMIStatus
                0x0041cb9c        0x6 build/sam_e70_xult_freertos/production/_ext/1607428259/drv_ethphy.o
                0x0041cb9c                DRV_ETHPHY_SMIStatus

.text.DRV_ETHPHY_SMIClockSet%976
                0x0041cba2        0x6
 .text.DRV_ETHPHY_SMIClockSet
                0x0041cba2        0x6 build/sam_e70_xult_freertos/production/_ext/1607428259/drv_ethphy.o
                0x0041cba2                DRV_ETHPHY_SMIClockSet

.text.TCPIP_ARP_HashKeyCopy%977
                0x0041cba8        0x6
 .text.TCPIP_ARP_HashKeyCopy
                0x0041cba8        0x6 build/sam_e70_xult_freertos/production/_ext/810785262/arp.o
                0x0041cba8                TCPIP_ARP_HashKeyCopy

.text.vListInitialiseItem%978
                0x0041cbae        0x6
 .text.vListInitialiseItem
                0x0041cbae        0x6 build/sam_e70_xult_freertos/production/_ext/404212886/list.o
                0x0041cbae                vListInitialiseItem

.text.DRV_GMAC_PowerMode%979
                0x00400194        0x4
 .text.DRV_GMAC_PowerMode
                0x00400194        0x4 build/sam_e70_xult_freertos/production/_ext/1619526243/drv_gmac.o
                0x00400194                DRV_GMAC_PowerMode

.text._DHCPOptionProcessEnd%980
                0x0040537c        0x4
 .text._DHCPOptionProcessEnd
                0x0040537c        0x4 build/sam_e70_xult_freertos/production/_ext/810785262/dhcp.o

.rodata._DHCPRequestParamsTbl%981
                0x0041725c        0x4
 .rodata._DHCPRequestParamsTbl
                0x0041725c        0x4 build/sam_e70_xult_freertos/production/_ext/810785262/dhcp.o

.rodata.dhcpMagicCookie%982
                0x00419ba4        0x4
 .rodata.dhcpMagicCookie
                0x00419ba4        0x4 build/sam_e70_xult_freertos/production/_ext/810785262/dhcp.o

.text.TCPIP_IPV4_IsFragmentationEnabled%983
                0x0041b10c        0x4
 .text.TCPIP_IPV4_IsFragmentationEnabled
                0x0041b10c        0x4 build/sam_e70_xult_freertos/production/_ext/810785262/ipv4.o
                0x0041b10c                TCPIP_IPV4_IsFragmentationEnabled

.text.GetCommandCharacter%984
                0x0041cbb4        0x4
 .text.GetCommandCharacter
                0x0041cbb4        0x4 build/sam_e70_xult_freertos/production/_ext/762686499/sys_command.o

.rodata._seqDownArrow%985
                0x0041cbb8        0x4
 .rodata._seqDownArrow
                0x0041cbb8        0x4 build/sam_e70_xult_freertos/production/_ext/762686499/sys_command.o

.rodata._seqLeftArrow%986
                0x0041cbbc        0x4
 .rodata._seqLeftArrow
                0x0041cbbc        0x4 build/sam_e70_xult_freertos/production/_ext/762686499/sys_command.o

.rodata._seqRightArrow%987
                0x0041cbc0        0x4
 .rodata._seqRightArrow
                0x0041cbc0        0x4 build/sam_e70_xult_freertos/production/_ext/762686499/sys_command.o

.rodata._seqUpArrow%988
                0x0041cbc4        0x4
 .rodata._seqUpArrow
                0x0041cbc4        0x4 build/sam_e70_xult_freertos/production/_ext/762686499/sys_command.o

.rodata.debugInit%989
                0x0041cbc8        0x4
 .rodata.debugInit
                0x0041cbc8        0x4 build/sam_e70_xult_freertos/production/_ext/1552905064/initialization.o
                0x0041cbc8                debugInit

.rodata.sysCmdInit%990
                0x0041cbcc        0x4
 .rodata.sysCmdInit
                0x0041cbcc        0x4 build/sam_e70_xult_freertos/production/_ext/1552905064/initialization.o
                0x0041cbcc                sysCmdInit

.text%991       0x0041cbd0        0x4
 .text          0x0041cbd0        0x4 c:/program files (x86)/microchip/xc32/v2.15/bin/bin/../../lib/gcc/pic32c/6.2.1/v7e-m/fpv5/hard\libgcc.a(_dvmd_tls.o)
                0x0041cbd0                __aeabi_idiv0
                0x0041cbd0                __aeabi_ldiv0

.rodata._global_impure_ptr%992
                0x0041cbd4        0x4
 .rodata._global_impure_ptr
                0x0041cbd4        0x4 c:/program files (x86)/microchip/xc32/v2.15/bin/bin/../../lib/gcc/pic32c/6.2.1/../../../../pic32c/lib/v7e-m/fpv5/hard\libc.a(lib_a-impure.o)
                0x0041cbd4                _global_impure_ptr

.text.__malloc_lock%993
                0x0041cbd8        0x4
 .text.__malloc_lock
                0x0041cbd8        0x4 c:/program files (x86)/microchip/xc32/v2.15/bin/bin/../../lib/gcc/pic32c/6.2.1/../../../../pic32c/lib/v7e-m/fpv5/hard\libc.a(lib_a-mlock.o)
                0x0041cbd8                __malloc_lock

.text.__malloc_unlock%994
                0x0041cbdc        0x4
 .text.__malloc_unlock
                0x0041cbdc        0x4 c:/program files (x86)/microchip/xc32/v2.15/bin/bin/../../lib/gcc/pic32c/6.2.1/../../../../pic32c/lib/v7e-m/fpv5/hard\libc.a(lib_a-mlock.o)
                0x0041cbdc                __malloc_unlock

.text._DRV_ETHPHY_ClientOpNone%995
                0x0040c18a        0x2
 .text._DRV_ETHPHY_ClientOpNone
                0x0040c18a        0x2 build/sam_e70_xult_freertos/production/_ext/1607428259/drv_ethphy.o

.text.DRV_GMAC_Reinitialize%996
                0x0040f4a2        0x2
 .text.DRV_GMAC_Reinitialize
                0x0040f4a2        0x2 build/sam_e70_xult_freertos/production/_ext/1619526243/drv_gmac.o
                0x0040f4a2                DRV_GMAC_Reinitialize

.text.DRV_MIIM_Reinitialize%997
                0x0041034e        0x2
 .text.DRV_MIIM_Reinitialize
                0x0041034e        0x2 build/sam_e70_xult_freertos/production/_ext/511568427/drv_miim.o
                0x0041034e                DRV_MIIM_Reinitialize

.text._TCPIP_HEAP_BufferMapNonCached%998
                0x0041067e        0x2
 .text._TCPIP_HEAP_BufferMapNonCached
                0x0041067e        0x2 build/sam_e70_xult_freertos/production/_ext/810785262/tcpip_heap_alloc.o
                0x0041067e                _TCPIP_HEAP_BufferMapNonCached

.text.Console_UART_Tasks%999
                0x00411176        0x2
 .text.Console_UART_Tasks
                0x00411176        0x2 build/sam_e70_xult_freertos/production/_ext/762686499/sys_console_uart.o
                0x00411176                Console_UART_Tasks

.text.Dummy_Handler%1000
                0x00412cfa        0x2
 .text.Dummy_Handler
                0x00412cfa        0x2 build/sam_e70_xult_freertos/production/_ext/1552905064/interrupts.o
                0x00412cfa                DACC_Handler
                0x00412cfa                TC0_CH2_Handler
                0x00412cfa                TC3_CH1_Handler
                0x00412cfa                UART3_Handler
                0x00412cfa                UART2_Handler
                0x00412cfa                TRNG_Handler
                0x00412cfa                AFEC1_Handler
                0x00412cfa                TC0_CH1_Handler
                0x00412cfa                QSPI_Handler
                0x00412cfa                ISI_Handler
                0x00412cfa                MCAN0_INT0_Handler
                0x00412cfa                RSWDT_Handler
                0x00412cfa                USART0_Handler
                0x00412cfa                TC1_CH2_Handler
                0x00412cfa                RTT_Handler
                0x00412cfa                USBHS_Handler
                0x00412cfa                IXC_Handler
                0x00412cfa                CCF_Handler
                0x00412cfa                PIOB_Handler
                0x00412cfa                RTC_Handler
                0x00412cfa                WDT_Handler
                0x00412cfa                MCAN1_INT1_Handler
                0x00412cfa                HSMCI_Handler
                0x00412cfa                UART1_Handler
                0x00412cfa                Dummy_Handler
                0x00412cfa                TWIHS1_Handler
                0x00412cfa                TC3_CH2_Handler
                0x00412cfa                XDMAC_Handler
                0x00412cfa                UART4_Handler
                0x00412cfa                TC2_CH0_Handler
                0x00412cfa                PWM1_Handler
                0x00412cfa                PWM0_Handler
                0x00412cfa                PIOA_Handler
                0x00412cfa                AFEC0_Handler
                0x00412cfa                CCW_Handler
                0x00412cfa                TC3_CH0_Handler
                0x00412cfa                SSC_Handler
                0x00412cfa                TC1_CH0_Handler
                0x00412cfa                ACC_Handler
                0x00412cfa                PMC_Handler
                0x00412cfa                TC2_CH2_Handler
                0x00412cfa                MCAN0_INT1_Handler
                0x00412cfa                GMAC_Q5_Handler
                0x00412cfa                SUPC_Handler
                0x00412cfa                TC2_CH1_Handler
                0x00412cfa                MCAN1_INT0_Handler
                0x00412cfa                EFC_Handler
                0x00412cfa                GMAC_Q1_Handler
                0x00412cfa                USART2_Handler
                0x00412cfa                SDRAMC_Handler
                0x00412cfa                GMAC_Q2_Handler
                0x00412cfa                PIOE_Handler
                0x00412cfa                SPI1_Handler
                0x00412cfa                TC1_CH1_Handler
                0x00412cfa                GMAC_Q3_Handler
                0x00412cfa                PIOD_Handler
                0x00412cfa                TWIHS2_Handler
                0x00412cfa                I2SC0_Handler
                0x00412cfa                UART0_Handler
                0x00412cfa                I2SC1_Handler
                0x00412cfa                PIOC_Handler
                0x00412cfa                GMAC_Q4_Handler
                0x00412cfa                FPU_Handler
                0x00412cfa                RSTC_Handler
                0x00412cfa                ICM_Handler
                0x00412cfa                AES_Handler
                0x00412cfa                TWIHS0_Handler
                0x00412cfa                SPI0_Handler

.text.NonMaskableInt_Handler%1001
                0x004132c6        0x2
 .text.NonMaskableInt_Handler
                0x004132c6        0x2 build/sam_e70_xult_freertos/production/_ext/1552905064/exceptions.o
                0x004132c6                NonMaskableInt_Handler

.text.HardFault_Handler%1002
                0x00413786        0x2
 .text.HardFault_Handler
                0x00413786        0x2 build/sam_e70_xult_freertos/production/_ext/1552905064/exceptions.o
                0x00413786                HardFault_Handler

.text.DebugMonitor_Handler%1003
                0x004142ee        0x2
 .text.DebugMonitor_Handler
                0x004142ee        0x2 build/sam_e70_xult_freertos/production/_ext/1552905064/exceptions.o
                0x004142ee                DebugMonitor_Handler

.text.MemoryManagement_Handler%1004
                0x0041534e        0x2
 .text.MemoryManagement_Handler
                0x0041534e        0x2 build/sam_e70_xult_freertos/production/_ext/1552905064/exceptions.o
                0x0041534e                MemoryManagement_Handler

.text.BusFault_Handler%1005
                0x004158ce        0x2
 .text.BusFault_Handler
                0x004158ce        0x2 build/sam_e70_xult_freertos/production/_ext/1552905064/exceptions.o
                0x004158ce                BusFault_Handler

.text.UsageFault_Handler%1006
                0x00415cae        0x2
 .text.UsageFault_Handler
                0x00415cae        0x2 build/sam_e70_xult_freertos/production/_ext/1552905064/exceptions.o
                0x00415cae                UsageFault_Handler
