Archive member included to satisfy reference by file (symbol)

/Applications/microchip/xc32/v2.15/bin/bin/../../lib/gcc/pic32c/6.2.1/../../../../pic32c/lib/v7e-m/fpv5/hard/libpic32c.a(data_init.o)
                              build/sam_e70_xult_freertos/production/_ext/1552905064/startup_xc32.o (__pic32c_data_initialization)
/Applications/microchip/xc32/v2.15/bin/bin/../../lib/gcc/pic32c/6.2.1/v7e-m/fpv5/hard/libgcc.a(_aeabi_uldivmod.o)
                              build/sam_e70_xult_freertos/production/_ext/1607428259/drv_ethphy.o (__aeabi_uldivmod)
/Applications/microchip/xc32/v2.15/bin/bin/../../lib/gcc/pic32c/6.2.1/v7e-m/fpv5/hard/libgcc.a(_udivmoddi4.o)
                              /Applications/microchip/xc32/v2.15/bin/bin/../../lib/gcc/pic32c/6.2.1/v7e-m/fpv5/hard/libgcc.a(_aeabi_uldivmod.o) (__udivmoddi4)
/Applications/microchip/xc32/v2.15/bin/bin/../../lib/gcc/pic32c/6.2.1/v7e-m/fpv5/hard/libgcc.a(_dvmd_tls.o)
                              /Applications/microchip/xc32/v2.15/bin/bin/../../lib/gcc/pic32c/6.2.1/v7e-m/fpv5/hard/libgcc.a(_aeabi_uldivmod.o) (__aeabi_ldiv0)
/Applications/microchip/xc32/v2.15/bin/bin/../../lib/gcc/pic32c/6.2.1/../../../../pic32c/lib/v7e-m/fpv5/hard/libc.a(lib_a-atof.o)
                              build/sam_e70_xult_freertos/production/_ext/1360937237/app.o (atof)
/Applications/microchip/xc32/v2.15/bin/bin/../../lib/gcc/pic32c/6.2.1/../../../../pic32c/lib/v7e-m/fpv5/hard/libc.a(lib_a-atoi.o)
                              build/sam_e70_xult_freertos/production/_ext/810785262/tcpip_commands.o (atoi)
/Applications/microchip/xc32/v2.15/bin/bin/../../lib/gcc/pic32c/6.2.1/../../../../pic32c/lib/v7e-m/fpv5/hard/libc.a(lib_a-calloc.o)
                              build/sam_e70_xult_freertos/production/_ext/1552905064/initialization.o (calloc)
/Applications/microchip/xc32/v2.15/bin/bin/../../lib/gcc/pic32c/6.2.1/../../../../pic32c/lib/v7e-m/fpv5/hard/libc.a(lib_a-callocr.o)
                              /Applications/microchip/xc32/v2.15/bin/bin/../../lib/gcc/pic32c/6.2.1/../../../../pic32c/lib/v7e-m/fpv5/hard/libc.a(lib_a-calloc.o) (_calloc_r)
/Applications/microchip/xc32/v2.15/bin/bin/../../lib/gcc/pic32c/6.2.1/../../../../pic32c/lib/v7e-m/fpv5/hard/libc.a(lib_a-exit.o)
                              /Applications/microchip/xc32/v2.15/bin/bin/../../lib/gcc/pic32c/6.2.1/../../../../pic32c/lib/v7e-m/fpv5/hard/crt0.o (exit)
/Applications/microchip/xc32/v2.15/bin/bin/../../lib/gcc/pic32c/6.2.1/../../../../pic32c/lib/v7e-m/fpv5/hard/libc.a(lib_a-impure.o)
                              /Applications/microchip/xc32/v2.15/bin/bin/../../lib/gcc/pic32c/6.2.1/../../../../pic32c/lib/v7e-m/fpv5/hard/libc.a(lib_a-exit.o) (_global_impure_ptr)
/Applications/microchip/xc32/v2.15/bin/bin/../../lib/gcc/pic32c/6.2.1/../../../../pic32c/lib/v7e-m/fpv5/hard/libc.a(lib_a-init.o)
                              /Applications/microchip/xc32/v2.15/bin/bin/../../lib/gcc/pic32c/6.2.1/../../../../pic32c/lib/v7e-m/fpv5/hard/crt0.o (__libc_init_array)
/Applications/microchip/xc32/v2.15/bin/bin/../../lib/gcc/pic32c/6.2.1/../../../../pic32c/lib/v7e-m/fpv5/hard/libc.a(lib_a-locale.o)
                              build/sam_e70_xult_freertos/production/_ext/810785262/helpers.o (__locale_ctype_ptr)
/Applications/microchip/xc32/v2.15/bin/bin/../../lib/gcc/pic32c/6.2.1/../../../../pic32c/lib/v7e-m/fpv5/hard/libc.a(lib_a-malloc.o)
                              build/sam_e70_xult_freertos/production/_ext/762686499/sys_command.o (malloc)
/Applications/microchip/xc32/v2.15/bin/bin/../../lib/gcc/pic32c/6.2.1/../../../../pic32c/lib/v7e-m/fpv5/hard/libc.a(lib_a-mallocr.o)
                              /Applications/microchip/xc32/v2.15/bin/bin/../../lib/gcc/pic32c/6.2.1/../../../../pic32c/lib/v7e-m/fpv5/hard/libc.a(lib_a-callocr.o) (_malloc_r)
/Applications/microchip/xc32/v2.15/bin/bin/../../lib/gcc/pic32c/6.2.1/../../../../pic32c/lib/v7e-m/fpv5/hard/libc.a(lib_a-mbtowc_r.o)
                              /Applications/microchip/xc32/v2.15/bin/bin/../../lib/gcc/pic32c/6.2.1/../../../../pic32c/lib/v7e-m/fpv5/hard/libc.a(lib_a-locale.o) (__ascii_mbtowc)
/Applications/microchip/xc32/v2.15/bin/bin/../../lib/gcc/pic32c/6.2.1/../../../../pic32c/lib/v7e-m/fpv5/hard/libc.a(lib_a-memcmp.o)
                              build/sam_e70_xult_freertos/production/_ext/1619526243/drv_gmac.o (memcmp)
/Applications/microchip/xc32/v2.15/bin/bin/../../lib/gcc/pic32c/6.2.1/../../../../pic32c/lib/v7e-m/fpv5/hard/libc.a(lib_a-memcpy.o)
                              build/sam_e70_xult_freertos/production/_ext/1619526243/drv_gmac.o (memcpy)
/Applications/microchip/xc32/v2.15/bin/bin/../../lib/gcc/pic32c/6.2.1/../../../../pic32c/lib/v7e-m/fpv5/hard/libc.a(lib_a-memset.o)
                              /Applications/microchip/xc32/v2.15/bin/bin/../../lib/gcc/pic32c/6.2.1/../../../../pic32c/lib/v7e-m/fpv5/hard/crt0.o (memset)
/Applications/microchip/xc32/v2.15/bin/bin/../../lib/gcc/pic32c/6.2.1/../../../../pic32c/lib/v7e-m/fpv5/hard/libc.a(lib_a-mlock.o)
                              /Applications/microchip/xc32/v2.15/bin/bin/../../lib/gcc/pic32c/6.2.1/../../../../pic32c/lib/v7e-m/fpv5/hard/libc.a(lib_a-mallocr.o) (__malloc_lock)
/Applications/microchip/xc32/v2.15/bin/bin/../../lib/gcc/pic32c/6.2.1/../../../../pic32c/lib/v7e-m/fpv5/hard/libc.a(lib_a-rand.o)
                              build/sam_e70_xult_freertos/production/_ext/810785262/dns.o (rand)
/Applications/microchip/xc32/v2.15/bin/bin/../../lib/gcc/pic32c/6.2.1/../../../../pic32c/lib/v7e-m/fpv5/hard/libc.a(lib_a-sbrkr.o)
                              /Applications/microchip/xc32/v2.15/bin/bin/../../lib/gcc/pic32c/6.2.1/../../../../pic32c/lib/v7e-m/fpv5/hard/libc.a(lib_a-mallocr.o) (_sbrk_r)
/Applications/microchip/xc32/v2.15/bin/bin/../../lib/gcc/pic32c/6.2.1/../../../../pic32c/lib/v7e-m/fpv5/hard/libc.a(lib_a-snprintf.o)
                              build/sam_e70_xult_freertos/production/_ext/1360937237/app.o (snprintf)
/Applications/microchip/xc32/v2.15/bin/bin/../../lib/gcc/pic32c/6.2.1/../../../../pic32c/lib/v7e-m/fpv5/hard/libc.a(lib_a-sprintf.o)
                              (sprintf)
/Applications/microchip/xc32/v2.15/bin/bin/../../lib/gcc/pic32c/6.2.1/../../../../pic32c/lib/v7e-m/fpv5/hard/libc.a(lib_a-strcmp.o)
                              build/sam_e70_xult_freertos/production/_ext/810785262/dns.o (strcmp)
/Applications/microchip/xc32/v2.15/bin/bin/../../lib/gcc/pic32c/6.2.1/../../../../pic32c/lib/v7e-m/fpv5/hard/libc.a(lib_a-strcpy.o)
                              build/sam_e70_xult_freertos/production/_ext/810785262/tcpip_commands.o (strcpy)
/Applications/microchip/xc32/v2.15/bin/bin/../../lib/gcc/pic32c/6.2.1/../../../../pic32c/lib/v7e-m/fpv5/hard/libc.a(lib_a-strlen.o)
                              build/sam_e70_xult_freertos/production/_ext/810785262/helpers.o (strlen)
/Applications/microchip/xc32/v2.15/bin/bin/../../lib/gcc/pic32c/6.2.1/../../../../pic32c/lib/v7e-m/fpv5/hard/libc.a(lib_a-strncat.o)
                              build/sam_e70_xult_freertos/production/_ext/1360937237/app.o (strncat)
/Applications/microchip/xc32/v2.15/bin/bin/../../lib/gcc/pic32c/6.2.1/../../../../pic32c/lib/v7e-m/fpv5/hard/libc.a(lib_a-strncpy.o)
                              build/sam_e70_xult_freertos/production/_ext/1619526243/drv_gmac.o (strncpy)
/Applications/microchip/xc32/v2.15/bin/bin/../../lib/gcc/pic32c/6.2.1/../../../../pic32c/lib/v7e-m/fpv5/hard/libc.a(lib_a-strstr.o)
                              build/sam_e70_xult_freertos/production/_ext/1360937237/app.o (strstr)
/Applications/microchip/xc32/v2.15/bin/bin/../../lib/gcc/pic32c/6.2.1/../../../../pic32c/lib/v7e-m/fpv5/hard/libc.a(lib_a-strtod.o)
                              /Applications/microchip/xc32/v2.15/bin/bin/../../lib/gcc/pic32c/6.2.1/../../../../pic32c/lib/v7e-m/fpv5/hard/libc.a(lib_a-atof.o) (strtod)
/Applications/microchip/xc32/v2.15/bin/bin/../../lib/gcc/pic32c/6.2.1/../../../../pic32c/lib/v7e-m/fpv5/hard/libc.a(lib_a-strtok.o)
                              build/sam_e70_xult_freertos/production/_ext/1360937237/app.o (strtok)
/Applications/microchip/xc32/v2.15/bin/bin/../../lib/gcc/pic32c/6.2.1/../../../../pic32c/lib/v7e-m/fpv5/hard/libc.a(lib_a-strtok_r.o)
                              /Applications/microchip/xc32/v2.15/bin/bin/../../lib/gcc/pic32c/6.2.1/../../../../pic32c/lib/v7e-m/fpv5/hard/libc.a(lib_a-strtok.o) (__strtok_r)
/Applications/microchip/xc32/v2.15/bin/bin/../../lib/gcc/pic32c/6.2.1/../../../../pic32c/lib/v7e-m/fpv5/hard/libc.a(lib_a-strtol.o)
                              /Applications/microchip/xc32/v2.15/bin/bin/../../lib/gcc/pic32c/6.2.1/../../../../pic32c/lib/v7e-m/fpv5/hard/libc.a(lib_a-atoi.o) (_strtol_r)
/Applications/microchip/xc32/v2.15/bin/bin/../../lib/gcc/pic32c/6.2.1/../../../../pic32c/lib/v7e-m/fpv5/hard/libc.a(lib_a-svfprintf.o)
                              /Applications/microchip/xc32/v2.15/bin/bin/../../lib/gcc/pic32c/6.2.1/../../../../pic32c/lib/v7e-m/fpv5/hard/libc.a(lib_a-snprintf.o) (_svfprintf_r)
/Applications/microchip/xc32/v2.15/bin/bin/../../lib/gcc/pic32c/6.2.1/../../../../pic32c/lib/v7e-m/fpv5/hard/libc.a(lib_a-vsnprintf.o)
                              build/sam_e70_xult_freertos/production/_ext/762686499/sys_debug.o (vsnprintf)
/Applications/microchip/xc32/v2.15/bin/bin/../../lib/gcc/pic32c/6.2.1/../../../../pic32c/lib/v7e-m/fpv5/hard/libc.a(lib_a-wctomb_r.o)
                              /Applications/microchip/xc32/v2.15/bin/bin/../../lib/gcc/pic32c/6.2.1/../../../../pic32c/lib/v7e-m/fpv5/hard/libc.a(lib_a-locale.o) (__ascii_wctomb)
/Applications/microchip/xc32/v2.15/bin/bin/../../lib/gcc/pic32c/6.2.1/../../../../pic32c/lib/v7e-m/fpv5/hard/libc.a(lib_a-__call_atexit.o)
                              /Applications/microchip/xc32/v2.15/bin/bin/../../lib/gcc/pic32c/6.2.1/../../../../pic32c/lib/v7e-m/fpv5/hard/libc.a(lib_a-exit.o) (__call_exitprocs)
/Applications/microchip/xc32/v2.15/bin/bin/../../lib/gcc/pic32c/6.2.1/../../../../pic32c/lib/v7e-m/fpv5/hard/libc.a(lib_a-atexit.o)
                              /Applications/microchip/xc32/v2.15/bin/bin/../../lib/gcc/pic32c/6.2.1/../../../../pic32c/lib/v7e-m/fpv5/hard/libc.a(lib_a-__call_atexit.o) (atexit)
/Applications/microchip/xc32/v2.15/bin/bin/../../lib/gcc/pic32c/6.2.1/../../../../pic32c/lib/v7e-m/fpv5/hard/libc.a(lib_a-ctype_.o)
                              /Applications/microchip/xc32/v2.15/bin/bin/../../lib/gcc/pic32c/6.2.1/../../../../pic32c/lib/v7e-m/fpv5/hard/libc.a(lib_a-locale.o) (_ctype_)
/Applications/microchip/xc32/v2.15/bin/bin/../../lib/gcc/pic32c/6.2.1/../../../../pic32c/lib/v7e-m/fpv5/hard/libc.a(lib_a-dtoa.o)
                              /Applications/microchip/xc32/v2.15/bin/bin/../../lib/gcc/pic32c/6.2.1/../../../../pic32c/lib/v7e-m/fpv5/hard/libc.a(lib_a-svfprintf.o) (_dtoa_r)
/Applications/microchip/xc32/v2.15/bin/bin/../../lib/gcc/pic32c/6.2.1/../../../../pic32c/lib/v7e-m/fpv5/hard/libc.a(lib_a-fini.o)
                              /Applications/microchip/xc32/v2.15/bin/bin/../../lib/gcc/pic32c/6.2.1/../../../../pic32c/lib/v7e-m/fpv5/hard/libc.a(lib_a-__call_atexit.o) (__libc_fini_array)
/Applications/microchip/xc32/v2.15/bin/bin/../../lib/gcc/pic32c/6.2.1/../../../../pic32c/lib/v7e-m/fpv5/hard/libc.a(lib_a-freer.o)
                              /Applications/microchip/xc32/v2.15/bin/bin/../../lib/gcc/pic32c/6.2.1/../../../../pic32c/lib/v7e-m/fpv5/hard/libc.a(lib_a-malloc.o) (_free_r)
/Applications/microchip/xc32/v2.15/bin/bin/../../lib/gcc/pic32c/6.2.1/../../../../pic32c/lib/v7e-m/fpv5/hard/libc.a(lib_a-gdtoa-gethex.o)
                              /Applications/microchip/xc32/v2.15/bin/bin/../../lib/gcc/pic32c/6.2.1/../../../../pic32c/lib/v7e-m/fpv5/hard/libc.a(lib_a-strtod.o) (__gethex)
/Applications/microchip/xc32/v2.15/bin/bin/../../lib/gcc/pic32c/6.2.1/../../../../pic32c/lib/v7e-m/fpv5/hard/libc.a(lib_a-gdtoa-hexnan.o)
                              /Applications/microchip/xc32/v2.15/bin/bin/../../lib/gcc/pic32c/6.2.1/../../../../pic32c/lib/v7e-m/fpv5/hard/libc.a(lib_a-strtod.o) (__match)
/Applications/microchip/xc32/v2.15/bin/bin/../../lib/gcc/pic32c/6.2.1/../../../../pic32c/lib/v7e-m/fpv5/hard/libc.a(lib_a-localeconv.o)
                              /Applications/microchip/xc32/v2.15/bin/bin/../../lib/gcc/pic32c/6.2.1/../../../../pic32c/lib/v7e-m/fpv5/hard/libc.a(lib_a-strtod.o) (__localeconv_l)
/Applications/microchip/xc32/v2.15/bin/bin/../../lib/gcc/pic32c/6.2.1/../../../../pic32c/lib/v7e-m/fpv5/hard/libc.a(lib_a-memchr.o)
                              /Applications/microchip/xc32/v2.15/bin/bin/../../lib/gcc/pic32c/6.2.1/../../../../pic32c/lib/v7e-m/fpv5/hard/libc.a(lib_a-strstr.o) (memchr)
/Applications/microchip/xc32/v2.15/bin/bin/../../lib/gcc/pic32c/6.2.1/../../../../pic32c/lib/v7e-m/fpv5/hard/libc.a(lib_a-mprec.o)
                              /Applications/microchip/xc32/v2.15/bin/bin/../../lib/gcc/pic32c/6.2.1/../../../../pic32c/lib/v7e-m/fpv5/hard/libc.a(lib_a-strtod.o) (_Balloc)
/Applications/microchip/xc32/v2.15/bin/bin/../../lib/gcc/pic32c/6.2.1/../../../../pic32c/lib/v7e-m/fpv5/hard/libc.a(lib_a-reent.o)
                              /Applications/microchip/xc32/v2.15/bin/bin/../../lib/gcc/pic32c/6.2.1/../../../../pic32c/lib/v7e-m/fpv5/hard/libc.a(lib_a-sbrkr.o) (errno)
/Applications/microchip/xc32/v2.15/bin/bin/../../lib/gcc/pic32c/6.2.1/../../../../pic32c/lib/v7e-m/fpv5/hard/libc.a(lib_a-s_frexp.o)
                              /Applications/microchip/xc32/v2.15/bin/bin/../../lib/gcc/pic32c/6.2.1/../../../../pic32c/lib/v7e-m/fpv5/hard/libc.a(lib_a-svfprintf.o) (frexp)
/Applications/microchip/xc32/v2.15/bin/bin/../../lib/gcc/pic32c/6.2.1/../../../../pic32c/lib/v7e-m/fpv5/hard/libc.a(lib_a-sf_nan.o)
                              /Applications/microchip/xc32/v2.15/bin/bin/../../lib/gcc/pic32c/6.2.1/../../../../pic32c/lib/v7e-m/fpv5/hard/libc.a(lib_a-strtod.o) (nanf)
/Applications/microchip/xc32/v2.15/bin/bin/../../lib/gcc/pic32c/6.2.1/../../../../pic32c/lib/v7e-m/fpv5/hard/libc.a(lib_a-strchr.o)
                              /Applications/microchip/xc32/v2.15/bin/bin/../../lib/gcc/pic32c/6.2.1/../../../../pic32c/lib/v7e-m/fpv5/hard/libc.a(lib_a-strstr.o) (strchr)
/Applications/microchip/xc32/v2.15/bin/bin/../../lib/gcc/pic32c/6.2.1/../../../../pic32c/lib/v7e-m/fpv5/hard/libc.a(lib_a-strncmp.o)
                              /Applications/microchip/xc32/v2.15/bin/bin/../../lib/gcc/pic32c/6.2.1/../../../../pic32c/lib/v7e-m/fpv5/hard/libc.a(lib_a-strtod.o) (strncmp)
/Applications/microchip/xc32/v2.15/bin/bin/../../lib/gcc/pic32c/6.2.1/../../../../pic32c/lib/v7e-m/fpv5/hard/libc.a(lib_a-svfiprintf.o)
                              /Applications/microchip/xc32/v2.15/bin/bin/../../lib/gcc/pic32c/6.2.1/../../../../pic32c/lib/v7e-m/fpv5/hard/libc.a(lib_a-svfprintf.o) (__ssprint_r)
/Applications/microchip/xc32/v2.15/bin/bin/../../lib/gcc/pic32c/6.2.1/../../../../pic32c/lib/v7e-m/fpv5/hard/libc.a(lib_a-__atexit.o)
                              /Applications/microchip/xc32/v2.15/bin/bin/../../lib/gcc/pic32c/6.2.1/../../../../pic32c/lib/v7e-m/fpv5/hard/libc.a(lib_a-atexit.o) (__register_exitproc)
/Applications/microchip/xc32/v2.15/bin/bin/../../lib/gcc/pic32c/6.2.1/../../../../pic32c/lib/v7e-m/fpv5/hard/libc.a(lib_a-memmove.o)
                              /Applications/microchip/xc32/v2.15/bin/bin/../../lib/gcc/pic32c/6.2.1/../../../../pic32c/lib/v7e-m/fpv5/hard/libc.a(lib_a-svfiprintf.o) (memmove)
/Applications/microchip/xc32/v2.15/bin/bin/../../lib/gcc/pic32c/6.2.1/../../../../pic32c/lib/v7e-m/fpv5/hard/libc.a(lib_a-reallocr.o)
                              /Applications/microchip/xc32/v2.15/bin/bin/../../lib/gcc/pic32c/6.2.1/../../../../pic32c/lib/v7e-m/fpv5/hard/libc.a(lib_a-svfiprintf.o) (_realloc_r)
/Applications/microchip/xc32/v2.15/bin/bin/../../lib/gcc/pic32c/6.2.1/../../../../pic32c/lib/v7e-m/fpv5/hard/libpic32c.a(sbrk.o)
                              /Applications/microchip/xc32/v2.15/bin/bin/../../lib/gcc/pic32c/6.2.1/../../../../pic32c/lib/v7e-m/fpv5/hard/libc.a(lib_a-sbrkr.o) (_sbrk)

Allocating common symbols
Common symbol       size              file

TC0_CH0_CallbackObj
                    0x8               build/sam_e70_xult_freertos/production/_ext/1245453995/plib_tc0.o
errno               0x4               /Applications/microchip/xc32/v2.15/bin/bin/../../lib/gcc/pic32c/6.2.1/../../../../pic32c/lib/v7e-m/fpv5/hard/libc.a(lib_a-reent.o)
APP_URL_Buffer      0xff              build/sam_e70_xult_freertos/production/_ext/1360937237/app_commands.o
appData             0x10              build/sam_e70_xult_freertos/production/_ext/1360937237/app.o
jsonBuffer          0x400             build/sam_e70_xult_freertos/production/_ext/1360937237/app.o
xAPP_Tasks          0x4               build/sam_e70_xult_freertos/production/_ext/1552905064/tasks.o
sysObj              0x14              build/sam_e70_xult_freertos/production/_ext/1552905064/initialization.o
sysDebugInstance    0x8               build/sam_e70_xult_freertos/production/_ext/762686499/sys_debug.o
gblErrLvl           0x1               build/sam_e70_xult_freertos/production/_ext/762686499/sys_debug.o
usart1Obj           0x30              build/sam_e70_xult_freertos/production/_ext/901008055/plib_usart1.o
cityBuffer          0x80              build/sam_e70_xult_freertos/production/_ext/1360937237/app.o

Microchip PIC32 Memory-Usage Report

ROM Program-Memory Usage
section                    address  length [bytes]      (dec)  Description
-------                 ----------  -------------------------  -----------
.vectors                  0x400000          0x168         360   
.text                     0x400168           0x24          36  App's exec code 
.ARM.exidx                0x40018c            0x8           8   
.text.DRV_GMAC_PowerMod   0x400194            0x4           4   
.text._svfprintf_r        0x400198         0x18f0        6384   
.rodata                   0x401a88         0x1640        5696  Read-only const 
.dinit                    0x4030c8         0x1390        5008   
.text.TCPIP_TCP_Task      0x404458          0xf24        3876   
.text._DHCPOptionProces   0x40537c            0x4           4   
.text._strtod_l           0x405380          0xe48        3656   
.text._dtoa_r             0x4061c8          0xc4c        3148   
.rodata.macPIC32CHwRegD   0x406e14          0x708        1800   
.text.TCPIP_STACK_Task    0x40751c          0x630        1584   
.text._TcpSend            0x407b4c          0x5cc        1484   
.text._Command_DNS_Serv   0x408118          0x56c        1388   
.text._malloc_r           0x408684          0x550        1360   
.text.__gethex            0x408bd4          0x518        1304   
.text.TCPIP_DHCP_Task     0x4090ec          0x4e4        1252   
.rodata                   0x4095d0          0x48c        1164  Read-only const 
.text.TCPIP_STACK_Initi   0x409a5c          0x410        1040   
.text.DRV_PIC32CGMAC_Li   0x409e6c          0x3c0         960   
.rodata._DHCPRequestPar   0x40a22c            0x4           4   
.text.APP_Tasks           0x40a230          0x390         912   
.text._realloc_r          0x40a5c0          0x34c         844   
.text.SYS_CMD_Tasks       0x40a90c          0x314         788   
.text.TCPIP_Helper_Stri   0x40ac20          0x2e8         744   
.text                     0x40af08          0x2dc         732  App's exec code 
.rodata._DRV_PHY_SetupP   0x40b1e4           0x1c          28   
.text                     0x40b200          0x2dc         732  App's exec code 
.text.DRV_GMAC_Initiali   0x40b4dc          0x2d4         724   
.text.TCPIP_ARP_Task      0x40b7b0          0x2b8         696   
.text.DRV_PIC32CGMAC_Li   0x40ba68          0x294         660   
.rodata                   0x40bcfc          0x290         656  Read-only const 
.text._CommandArp         0x40bf8c          0x260         608   
.text.TCPIP_UDP_Task      0x40c1ec          0x24c         588   
.text._TCP_Open           0x40c438          0x238         568   
.text.TCPIP_UDP_Flush     0x40c670          0x22c         556   
.text._CommandDhcpOptio   0x40c89c          0x220         544   
.text._DNS_Send_Query     0x40cabc          0x218         536   
.text.TCPIP_DNS_ClientI   0x40ccd4          0x218         536   
.rodata                   0x40ceec          0x218         536  Read-only const 
.text.strstr              0x40d104          0x218         536   
.text.TCPIP_UDP_Options   0x40d31c          0x212         530   
.text._DRV_ETHPHY_Clien   0x40d52e            0x2           2   
.text.TCPIP_COMMAND_Tas   0x40d530          0x20c         524   
.text.two_way_long_need   0x40d73c          0x1fc         508   
.text._DNS_ProcessPacke   0x40d938          0x1ec         492   
.text._Command_NetInfo    0x40db24          0x1e8         488   
.text.TCPIP_STACK_Bring   0x40dd0c          0x1e8         488   
.text._DHCPReceive        0x40def4          0x1e0         480   
.text.TCPIP_ARP_Initial   0x40e0d4          0x1e0         480   
.text.xTaskCreate         0x40e2b4          0x1e0         480   
.text.TCPIP_IPV4_Packet   0x40e494          0x1d8         472   
.text.DRV_MIIM_Tasks      0x40e66c          0x1cc         460   
.text._free_r             0x40e838          0x1cc         460   
.text._DHCPSend           0x40ea04          0x1b8         440   
.text.ParseCmdBuffer      0x40ebbc          0x1b8         440   
.text.TCPIP_IPV4_Task     0x40ed74          0x1b4         436   
.text.TCPIP_DHCP_Initia   0x40ef28          0x1ac         428   
.text._Command_MacInfo    0x40f0d4          0x198         408   
.text.TCPIP_TCP_ArrayPu   0x40f26c          0x194         404   
.text.CommandHelp         0x40f400          0x190         400   
.text._DHCPOptionHostNa   0x40f590          0x18c         396   
.text.__hexnan            0x40f71c          0x184         388   
.text.DRV_PIC32CGMAC_Li   0x40f8a0          0x178         376   
.text.TCPIP_IPV4_Packet   0x40fa18          0x178         376   
.text.Reset_Handler       0x40fb90          0x178         376   
.text._UDPOpen            0x40fd08          0x16c         364   
.text.xQueueSemaphoreTa   0x40fe74          0x15c         348   
.text.TCPIP_DNS_EntryQu   0x40ffd0          0x158         344   
.text._MACDeinit          0x410128          0x14c         332   
.text._MacTxDiscardQueu   0x410274          0x144         324   
.text.TCPIP_TCP_Initial   0x4103b8          0x144         324   
.text.TCPIP_UDP_Bind      0x4104fc          0x13c         316   
.text                     0x410638          0x134         308  App's exec code 
.text._Command_StackOnO   0x41076c          0x130         304   
.text._DNS_RESPONSE_Has   0x41089c          0x12e         302   
.text.DRV_GMAC_Reinitia   0x4109ca            0x2           2   
.text._Command_NetworkO   0x4109cc          0x128         296   
.text.xQueueGenericSend   0x410af4          0x128         296   
.text._strtol_l.isra.0    0x410c1c          0x128         296   
.text.quorem              0x410d44          0x128         296   
.text._Command_AddressS   0x410e6c          0x124         292   
.text.__multiply          0x410f90          0x124         292   
.text.TCPIP_DNS_ClientT   0x4110b4          0x120         288   
.text.TCPIP_UDP_Deiniti   0x4111d4          0x120         288   
.text._DRV_ETHPHY_Setup   0x4112f4          0x11c         284   
.text._DNS_Resolve        0x411410          0x11c         284   
.text.USART1_InterruptH   0x41152c          0x11c         284   
.text._LoadNetworkConfi   0x411648          0x11a         282   
.text._TCPIP_HEAP_Free    0x411762          0x114         276   
.text.DRV_MIIM_Reinitia   0x411876            0x2           2   
.text._Command_HeapInfo   0x411878          0x110         272   
.text._UDPv4TxAckFnc      0x411988          0x110         272   
.text.TCPIP_UDP_Options   0x411a98          0x10e         270   
.text._TCPIP_HEAP_Buffe   0x411ba6            0x2           2   
.text.__mdiff             0x411ba8          0x108         264   
.text.DRV_GMAC_Tasks      0x411cb0          0x104         260   
.rodata._ctype_           0x411db4          0x104         260   
.text._Command_IPAddres   0x411eb8          0x100         256   
.text.xTaskIncrementTic   0x411fb8          0x100         256   
.rodata.__hexdig          0x4120b8          0x100         256   
.text._Tcpv4TxAckFnc      0x4121b8           0xfc         252   
.text.TCPIP_ARP_EntryRe   0x4122b4           0xfc         252   
.text.TCPIP_Helper_Stri   0x4123b0           0xfc         252   
.text.TCPIP_UDP_Initial   0x4124ac           0xfc         252   
.text.__ssprint_r         0x4125a8           0xfc         252   
.text.DRV_PIC32CGMAC_Li   0x4126a4           0xfa         250   
.text.Console_UART_Task   0x41279e            0x2           2   
.text.DRV_PIC32CGMAC_Li   0x4127a0           0xf8         248   
.text._DNS_IsNameResolv   0x412898           0xf8         248   
.text._ARPProbeAddress    0x412990           0xec         236   
.text.TCPIP_UDP_ArrayGe   0x412a7c           0xec         236   
.text.DRV_GMAC_PacketRx   0x412b68           0xe8         232   
.text.DRV_PIC32CGMAC_Li   0x412c50           0xe8         232   
.text.TCPIP_TCP_Deiniti   0x412d38           0xe8         232   
.text.TCPIP_TCP_ArrayGe   0x412e20           0xe8         232   
.text.xTaskResumeAll      0x412f08           0xe8         232   
.text.strchr              0x412ff0           0xe8         232   
.text.DRV_GMAC_EventMas   0x4130d8           0xe4         228   
.text._DRV_MIIM_StartOp   0x4131bc           0xe4         228   
.text._DRV_MIIM_ClientD   0x4132a0           0xe0         224   
.text.SYS_TIME_PLIBCall   0x413380           0xe0         224   
.text._DRV_ETHPHY_Setup   0x413460           0xdc         220   
.text.DRV_EXTPHY_MDIXCo   0x41353c           0xdc         220   
.text.TCPIP_ICMP_Task     0x413618           0xdc         220   
.text.DRV_ETHPHY_Deinit   0x4136f4            0xc          12   
.text                     0x413700           0xdc         220  App's exec code 
.text.DRV_PIC32CGMAC_Li   0x4137dc           0xd8         216   
.text._DNS_GetAddresses   0x4138b4           0xd8         216   
.text._TcpCloseSocket     0x41398c           0xd6         214   
.text._DRV_ETHPHY_NegRe   0x413a62           0xd2         210   
.text._GetMaxSegSizeOpt   0x413b34           0xcc         204   
.text.DRV_ETHPHY_Setup    0x413c00           0xc8         200   
.text._DHCPStartOperati   0x413cc8           0xc8         200   
.text.TCPIP_IPV4_Select   0x413d90           0xc8         200   
.text.TCPIP_HEAP_Create   0x413e58           0xc8         200   
.rodata                   0x413f20           0xc8         200  Read-only const 
.rodata.__mprec_tens      0x413fe8           0xc8         200   
.text.memmove             0x4140b0           0xc8         200   
.text._DHCPProcessRecei   0x414178           0xc4         196   
.text.__b2d               0x41423c           0xc4         196   
.text._DRV_PHY_SMITrans   0x414300           0xc2         194   
.text.Dummy_Handler       0x4143c2            0x2           2   
.rodata.tcpipCmdTbl       0x4143c4           0xc0         192   
.text.DRV_EXTPHY_MIICon   0x414484           0xbc         188   
.text.strcpy              0x414540           0xbc         188   
.text.__d2b               0x4145fc           0xbc         188   
.text.TCPIP_STACK_KillS   0x4146b8           0xb8         184   
.text.xTaskPriorityInhe   0x414770           0xb8         184   
.text.critical_factoriz   0x414828           0xb4         180   
.text.TCPIP_Helper_IPv6   0x4148dc           0xb2         178   
.text.NonMaskableInt_Ha   0x41498e            0x2           2   
.text.DRV_GMAC_Tasks_IS   0x414990           0xb0         176   
.text._TcpSocketSetIdle   0x414a40           0xb0         176   
.text.SYS_TIME_Initiali   0x414af0           0xb0         176   
.text._TCPIP_HEAP_Mallo   0x414ba0           0xac         172   
.text.SYS_TIME_TimerObj   0x414c4c           0xac         172   
.text.vTaskSwitchContex   0x414cf8           0xac         172   
.text._TcpDisconnect      0x414da4           0xaa         170   
.text.HardFault_Handler   0x414e4e            0x2           2   
.text._DHCPEnable         0x414e50           0xa8         168   
.text._Command_MACAddre   0x414ef8           0xa8         168   
.text.TCPIP_STACK_NetUp   0x414fa0           0xa8         168   
.text._ARPSendIfPkt       0x415048           0xa4         164   
.text.TCPIP_ARP_EntryQu   0x4150ec           0xa4         164   
.text.__lshift            0x415190           0xa4         164   
.text.strncmp             0x415234           0xa4         164   
.text.__register_exitpr   0x4152d8           0xa4         164   
.text._DRV_ETHPHY_Setup   0x41537c           0xa0         160   
.text._DRV_ETHPHY_NegCo   0x41541c           0xa0         160   
.text.DRV_GMAC_PacketTx   0x4154bc           0xa0         160   
.text._ARPDeleteResourc   0x41555c           0xa0         160   
.text._UDPv4AllocateSkt   0x4155fc           0xa0         160   
.text.TCPIP_UDP_Disconn   0x41569c           0xa0         160   
.text.DisplayNodeMsg      0x41573c           0xa0         160   
.text.SYS_TIME_AddToLis   0x4157dc           0xa0         160   
.rodata.dhcpMagicCookie   0x41587c            0x4           4   
.text                     0x415880           0xa0         160  App's exec code 
.text.__pow5mult          0x415920           0xa0         160   
.text._DRV_ETHPHY_Setup   0x4159c0           0x9e         158   
.text.DebugMonitor_Hand   0x415a5e            0x2           2   
.text.DRV_MIIM_Setup      0x415a60           0x9c         156   
.text.DRV_MIIM_Operatio   0x415afc           0x9c         156   
.text.SYS_TIME_HwTimerC   0x415b98           0x9c         156   
.text.memset              0x415c34           0x9c         156   
.text.__s2b               0x415cd0           0x9c         156   
.text._Command_PrimaryD   0x415d6c           0x98         152   
.text.TCPIP_IPV4_ArpHan   0x415e04           0x98         152   
.text._TCPIPStackModule   0x415e9c           0x98         152   
.text.snprintf            0x415f34           0x98         152   
.text.rshift              0x415fcc           0x98         152   
.text.TCPIP_DHCP_InfoGe   0x416064           0x94         148   
.text._Command_GatewayA   0x4160f8           0x94         148   
.text._UDPsetPacketInfo   0x41618c           0x94         148   
.text.prvAddCurrentTask   0x416220           0x94         148   
.text._malloc_trim_r      0x4162b4           0x94         148   
.text.TCPIP_STACK_NetAd   0x416348           0x92         146   
.text.Console_UART_Reso   0x4163da           0x92         146   
.text.PIO_Initialize      0x41646c           0x90         144   
.text.vTaskPriorityDisi   0x4164fc           0x90         144   
.text._DHCPSetLeaseTime   0x41658c           0x8c         140   
.text.TCPIP_ARP_IsResol   0x416618           0x8c         140   
.text.TCPIP_STACK_NetDo   0x4166a4           0x8c         140   
.text.SYS_CMD_DELETE      0x416730           0x8c         140   
.text._DRV_ETHPHY_Reset   0x4167bc           0x88         136   
.text._DHCPPacketFilter   0x416844           0x88         136   
.text.TCPIP_IPV4_DeInit   0x4168cc           0x88         136   
.text._OAHashFindBkt      0x416954           0x88         136   
.text.MPU_Initialize      0x4169dc           0x88         136   
.text.SYS_CMD_Initializ   0x416a64           0x88         136   
.text.TCPIP_Commands_In   0x416aec           0x84         132   
.text.TCPIP_IPV4_MacPac   0x416b70           0x82         130   
.text.MemoryManagement_   0x416bf2            0x2           2   
.text.DRV_PIC32CGMAC_Li   0x416bf4           0x80         128   
.text.DRV_MIIM_Initiali   0x416c74           0x80         128   
.text._DHCPClientClose    0x416cf4           0x80         128   
.text.TCPIP_Helper_Pack   0x416d74           0x80         128   
.text.SendCommandPrint    0x416df4           0x80         128   
.text.SYS_CMD_PRINT       0x416e74           0x80         128   
.text.SYS_CMD_READY_TO_   0x416ef4           0x80         128   
.text.SYS_Initialize      0x416f74           0x80         128   
.text.__pic32c_data_ini   0x416ff4           0x80         128   
.text.__multadd           0x417074           0x80         128   
.text.prvUnlockQueue      0x4170f4           0x7e         126   
.text.BusFault_Handler    0x417172            0x2           2   
.text._DRV_ETHPHY_Setup   0x417174           0x7c         124   
.rodata.DRV_ETHPHY_OBJE   0x4171f0           0x7c         124   
.text.DRV_MIIM_Open       0x41726c           0x7c         124   
.text._Command_DefaultI   0x4172e8           0x7c         124   
.text.SYS_Tasks           0x417364           0x7c         124   
.text.xTaskPriorityDisi   0x4173e0           0x7c         124   
.text.TCPIP_IPV4_IsFrag   0x41745c            0x4           4   
.text.frexp               0x417460           0x7c         124   
.text.TCPIP_Helper_Stri   0x4174dc           0x7a         122   
.text.UsageFault_Handle   0x417556            0x2           2   
.text._DRV_ETHPHY_NegCo   0x417558           0x78         120   
.text._DNS_ValidateIf     0x4175d0           0x78         120   
.text._DHCPCleanup        0x417648           0x78         120   
.text.CLK_Initialize      0x4176c0           0x78         120   
.text.Console_UART_Reso   0x417738           0x78         120   
.text.SYS_DEBUG_Print     0x4177b0           0x78         120   
.text.xTaskRemoveFromEv   0x417828           0x78         120   
.text._DRV_GMAC_LinkSta   0x4178a0           0x76         118   
.text._DRV_ETHPHY_NegRe   0x417916           0x74         116   
.text.TCPIP_DHCP_Connec   0x41798c           0x74         116   
.text._ARPUpdateEntry     0x417a00           0x74         116   
.text.TCPIP_ARP_EntryRe   0x417a74           0x74         116   
.text._Command_BIOSName   0x417ae8           0x74         116   
.text.TCPIP_STACK_Bring   0x417b5c           0x74         116   
.text._TCPIP_PKT_Packet   0x417bd0           0x74         116   
.text.Console_UART_Read   0x417c44           0x74         116   
.text.Console_UART_Writ   0x417cb8           0x74         116   
.text._vsnprintf_r        0x417d2c           0x74         116   
.text._TCPIP_StackSyncF   0x417da0           0x72         114   
.text.TCPIP_PKT_DataSeg   0x417e12           0x72         114   
.text.prvCopyDataToQueu   0x417e84           0x72         114   
.text.DRV_ETHPHY_Open     0x417ef8           0x70         112   
.text._DRV_ETHPHY_Reset   0x417f68           0x70         112   
.text.DRV_GMAC_LibDescr   0x417fd8           0x70         112   
.text.TCPIP_IPV4_Initia   0x418048           0x70         112   
.text.Console_UART_Init   0x4180b8           0x70         112   
.text.SYS_CMD_ADDGRP      0x418128           0x70         112   
.text.xQueueGenericRese   0x418198           0x70         112   
.text.prvIdleTask         0x418208           0x70         112   
.text                     0x418278           0x6c         108  App's exec code 
.text.TCPIP_DNS_Disable   0x4182e4           0x6c         108   
.text._TcpCleanup         0x418350           0x6c         108   
.text._MacTxPendingPack   0x4183bc           0x6a         106   
.text._DNS_AddSelection   0x418426           0x6a         106   
.text.TCPIP_Helper_Pack   0x418490           0x6a         106   
.text._DRV_GMAC_LinkSta   0x4184fc           0x68         104   
.text.DRV_PIC32CGMAC_Li   0x418564           0x68         104   
.text._TcpSwapHeader      0x4185cc           0x68         104   
.text._TcpClientSocketC   0x418634           0x68         104   
.text.TCPIP_ARP_CacheEn   0x41869c           0x68         104   
.text.TCPIP_OAHASH_Entr   0x418704           0x68         104   
.text.TCPIP_OAHASH_Entr   0x41876c           0x68         104   
.text._TCPIPStackInsert   0x4187d4           0x68         104   
.rodata                   0x41883c           0x68         104  Read-only const 
.text.vTaskStartSchedul   0x4188a4           0x68         104   
.text.TCPIP_Helper_Calc   0x41890c           0x66         102   
.text._DRV_ETHPHY_Setup   0x418972           0x64         100   
.text.TCPIP_DHCP_Disabl   0x4189d8           0x64         100   
.text.TCPIP_IPV4_MacPac   0x418a3c           0x64         100   
.text.SYS_CMDIO_ADD       0x418aa0           0x64         100   
.rodata._DRV_PHY_LinkSt   0x418b04            0xc          12   
.text.xPortPendSVHandle   0x418b10           0x64         100   
.text.strncpy             0x418b74           0x64         100   
.text.__strtok_r          0x418bd8           0x64         100   
.text.TCPIP_ARP_EntryGe   0x418c3c           0x62          98   
.text.Console_UART_PLIB   0x418c9e           0x62          98   
.text.TCPIP_DNS_ClientD   0x418d00           0x60          96   
.text.TCPIP_DNS_GetIPAd   0x418d60           0x60          96   
.rodata.TCPIP_STACK_MOD   0x418dc0           0x60          96   
.text.TCPIP_UDP_SocketI   0x418e20           0x60          96   
.text._calloc_r           0x418e80           0x60          96   
.text.memcmp              0x418ee0           0x60          96   
.text.__lo0bits           0x418f40           0x60          96   
.text.__ratio             0x418fa0           0x60          96   
.text.__any_on            0x419000           0x60          96   
.text.DRV_ETHPHY_Initia   0x419060           0x5c          92   
.text._TCPIPStackIpAddF   0x4190bc           0x5c          92   
.text.strncat             0x419118           0x5c          92   
.text.DRV_GMAC_Statisti   0x419174           0x5a          90   
.text._DHCPOptionProces   0x4191ce           0x5a          90   
.text.TCPIP_UDP_BcastIP   0x419228           0x5a          90   
.text.DRV_ETHPHY_Vendor   0x419282           0x58          88   
.text.DRV_ETHPHY_Vendor   0x4192da           0x58          88   
.rodata.DRV_GMAC_Object   0x419334           0x58          88   
.text.DRV_PIC32CGMAC_Li   0x41938c           0x58          88   
.text._DRV_MIIM_Release   0x4193e4           0x58          88   
.text._DNS_Enable         0x41943c           0x58          88   
.text._DNS_CleanCacheEn   0x419494           0x58          88   
.text.TCPIP_STACK_Strin   0x4194ec           0x58          88   
.text._TCPIPStackAnyNet   0x419544           0x58          88   
.text._TCPIPStackModule   0x41959c           0x58          88   
.text.SYS_TIME_TimerSta   0x4195f4           0x58          88   
.text.xTaskCheckForTime   0x41964c           0x58          88   
.text.OSAL_SEM_Create     0x4196a4           0x58          88   
.text._DRV_ETHPHY_LinkS   0x4196fc           0x56          86   
.text.TCPIP_ARP_Probe     0x419752           0x56          86   
.text._DRV_ETHPHY_NegCo   0x4197a8           0x54          84   
.text.DRV_GMAC_EventAck   0x4197fc           0x54          84   
.text._DNS_DeleteHash     0x419850           0x54          84   
.text.TCPIP_DNS_RemoveA   0x4198a4           0x54          84   
.text._DHCPOptionWriteS   0x4198f8           0x54          84   
.text._ARPNotifyClients   0x41994c           0x54          84   
.rodata                   0x4199a0           0x54          84  Read-only const 
.text.SYS_TIME_RemoveFr   0x4199f4           0x54          84   
.rodata.tcpipMACPIC32CI   0x419a48           0x54          84   
.text.__ulp               0x419a9c           0x54          84   
.text._XtlEventsTcp2Eth   0x419af0           0x52          82   
.text._TcpAbort           0x419b42           0x52          82   
.text._DRV_MIIM_GetClie   0x419b94           0x50          80   
.text.TCPIP_DNS_OAHASH_   0x419be4           0x50          80   
.rodata                   0x419c34           0x50          80  Read-only const 
.text._DHCPOptionWriteI   0x419c84           0x50          80   
.text.TCPIP_Helper_IPAd   0x419cd4           0x50          80   
.text.SYS_CONSOLE_Initi   0x419d24           0x50          80   
.text.SYS_CONSOLE_Statu   0x419d74           0x50          80   
.text.SYS_TIME_Callback   0x419dc4           0x50          80   
.text.__libc_init_array   0x419e14           0x50          80   
.text.TCPIP_Helper_Form   0x419e64           0x4e          78   
.text._DRV_GMAC_LinkSta   0x419eb2           0x4c          76   
.text.DRV_MIIM_Operatio   0x419efe           0x4c          76   
.text.TCPIP_IPV4_Cleanu   0x419f4c           0x4c          76   
.text._TCPIP_MacEventCB   0x419f98           0x4c          76   
.text._UDPClose           0x419fe4           0x4c          76   
.text.TCPIP_UDP_PutIsRe   0x41a030           0x4c          76   
.text.Console_UART_PLIB   0x41a07c           0x4c          76   
.text.sprintf             0x41a0c8           0x4c          76   
.text._Balloc             0x41a114           0x4c          76   
.text.TCPIP_UDP_Destina   0x41a160           0x4a          74   
.text._DRV_ETHPHY_Setup   0x41a1ac           0x48          72   
.text.DRV_ETHPHY_Vendor   0x41a1f4           0x48          72   
.text.DRV_GMAC_Register   0x41a23c           0x48          72   
.text._TCPSendWinIncUpd   0x41a284           0x48          72   
.text.TCPIP_DHCP_IsEnab   0x41a2cc           0x48          72   
.rodata._DHCPOptProcTbl   0x41a314           0x48          72   
.text.TCPIP_ARP_Deiniti   0x41a35c           0x48          72   
.text.TCPIP_Helper_MACA   0x41a3a4           0x48          72   
.text.TCPIP_STACK_MACId   0x41a3ec           0x48          72   
.text._TCPIPStackSignal   0x41a434           0x48          72   
.text.NVIC_Initialize     0x41a47c           0x48          72   
.text.USART1_Write        0x41a4c4           0x48          72   
.text.CommandCleanup      0x41a50c           0x48          72   
.rodata.TCPIP_STACK_MOD   0x41a554           0x48          72   
.text.xPortStartSchedul   0x41a59c           0x48          72   
.text.__copybits          0x41a5e4           0x48          72   
.text._TCPIP_HEAP_Delet   0x41a62c           0x46          70   
.text.TCPIP_STACK_Addre   0x41a672           0x46          70   
.text.TCPIP_UDP_ArrayPu   0x41a6b8           0x46          70   
.text.DRV_GMAC_RxFilter   0x41a6fe           0x44          68   
.text.Helper_SingleList   0x41a742           0x44          68   
.text.hexatob             0x41a786           0x44          68   
.text.TCPIP_ICMP_Initia   0x41a7cc           0x44          68   
.text._DHCPSetTimeout     0x41a810           0x44          68   
.text._TCPIP_HEAP_MaxSi   0x41a854           0x44          68   
.text.TCPIP_Helper_Sing   0x41a898           0x44          68   
.text.TCPIP_STACK_NetBy   0x41a8dc           0x44          68   
.text._TCPIPStackModule   0x41a920           0x44          68   
.text._UDPSetNewRxPacke   0x41a964           0x44          68   
.rodata                   0x41a9a8           0x44          68  Read-only const 
.text.SYS_INT_SourceDis   0x41a9ec           0x44          68   
.text._APP_Commands_req   0x41aa30           0x44          68   
.text.APP_Commands_Init   0x41aa74           0x44          68   
.rodata                   0x41aab8           0x44          68  Read-only const 
.text._DRV_GMAC_LinkSta   0x41aafc           0x42          66   
.text._TcpSocketSetSour   0x41ab3e           0x42          66   
.text._DHCPOptionClient   0x41ab80           0x42          66   
.text._DRV_ETHPHY_NegRe   0x41abc2           0x40          64   
.text._DRV_ETHPHY_Setup   0x41ac02           0x40          64   
.rodata.DRV_MIIM_OBJECT   0x41ac44           0x40          64   
.text.TCPIP_DNS_RemoveE   0x41ac84           0x40          64   
.rodata                   0x41acc4           0x40          64  Read-only const 
.text._TCP_PortIsAvaila   0x41ad04           0x40          64   
.text._DHCPSetRunFail     0x41ad44           0x40          64   
.text.TCPIP_DHCP_Deinit   0x41ad84           0x40          64   
.rodata                   0x41adc4           0x40          64  Read-only const 
.text.TCPIP_STACK_NetAl   0x41ae04           0x40          64   
.text.TCPIP_STACK_NetHa   0x41ae44           0x40          64   
.text._UDPIsAvailablePo   0x41ae84           0x40          64   
.text.TCPIP_UDP_SocketN   0x41aec4           0x40          64   
.text.TCPIP_UDP_SourceI   0x41af04           0x40          64   
.text.SYS_TIME_TimerAdd   0x41af44           0x40          64   
.rodata                   0x41af84           0x40          64  Read-only const 
.text.rand                0x41afc4           0x40          64   
.text.__hi0bits           0x41b004           0x40          64   
.text._DNSDiscardName     0x41b044           0x3e          62   
.text._TCPSetHalfFlushF   0x41b082           0x3e          62   
.text._DHCPOptionProces   0x41b0c0           0x3e          62   
.text.TCPIP_UDP_TxOffse   0x41b0fe           0x3e          62   
.text._DRV_ETHPHY_Setup   0x41b13c           0x3c          60   
.text._DRV_ETHPHY_NegCo   0x41b178           0x3c          60   
.text.DRV_GMAC_Open       0x41b1b4           0x3c          60   
.text.DRV_GMAC_Process    0x41b1f0           0x3c          60   
.text._DRV_MIIM_GetOpDc   0x41b22c           0x3c          60   
.text._TcpSocketKill      0x41b268           0x3c          60   
.text._TCP_EphemeralPor   0x41b2a4           0x3c          60   
.text.TCPIP_TCP_Close     0x41b2e0           0x3c          60   
.text._DHCPOptionProces   0x41b31c           0x3c          60   
.text._DHCPNotifyClient   0x41b358           0x3c          60   
.text._TCPIPStackModule   0x41b394           0x3c          60   
.text._TCPIP_PKT_Packet   0x41b3d0           0x3c          60   
.text._UDPAllocateEphem   0x41b40c           0x3c          60   
.text.TCPIP_UDP_OpenCli   0x41b448           0x3c          60   
.text.USART1_Initialize   0x41b484           0x3c          60   
.text.USART1_Read         0x41b4c0           0x3c          60   
.text.CommandQuit         0x41b4fc           0x3c          60   
.text.SYS_TIME_GetTimer   0x41b538           0x3c          60   
.text.SYS_TIME_Resource   0x41b574           0x3c          60   
.text.SYS_TIME_Counter6   0x41b5b0           0x3c          60   
.text.GetCommandCharact   0x41b5ec            0x4           4   
.text.SYS_TIME_MSToCoun   0x41b5f0           0x3c          60   
.text.SYS_TIME_TimerDes   0x41b62c           0x3c          60   
.text.APP_Initialize      0x41b668           0x3c          60   
.text.DRV_MIIM_Register   0x41b6a4           0x3a          58   
.text.DRV_MIIM_Deinitia   0x41b6de           0x3a          58   
.text._DHCPOptionProces   0x41b718           0x3a          58   
.text.DRV_ETHPHY_LinkSt   0x41b752           0x38          56   
.text._DRV_PHY_NegCompl   0x41b78a           0x38          56   
.text._DRV_ETHPHY_LinkS   0x41b7c2           0x38          56   
.text.DRV_PIC32CGMAC_Li   0x41b7fc           0x38          56   
.text.TCPIP_DNS_ClientI   0x41b834           0x38          56   
.text._TCPSetSourceAddr   0x41b86c           0x38          56   
.text.TCPIP_DHCP_IsActi   0x41b8a4           0x38          56   
.text.TCPIP_PKT_PacketM   0x41b8dc           0x38          56   
.text.SYS_CONSOLE_Read    0x41b914           0x38          56   
.text.SYS_TIME_Resource   0x41b94c           0x38          56   
.rodata.TCPIP_HOSTS_CON   0x41b984           0x38          56   
.text.__mcmp              0x41b9bc           0x38          56   
.text.DRV_ETHPHY_Negoti   0x41b9f4           0x36          54   
.text._TCPIPStackSetCon   0x41ba2a           0x36          54   
.text.TCPIP_UDP_RxOffse   0x41ba60           0x36          54   
.text.Console_UART_PopQ   0x41ba96           0x36          54   
.text.TCPIP_DNS_OAHASH_   0x41bacc           0x34          52   
.rodata                   0x41bb00           0x34          52  Read-only const 
.text._ARPSetEntry        0x41bb34           0x34          52   
.text.TCPIP_ARP_HashEnt   0x41bb68           0x34          52   
.text.TCPIP_ARP_Handler   0x41bb9c           0x34          52   
.text.TCPIP_Helper_Stri   0x41bbd0           0x34          52   
.text._TCPIP_PKT_Packet   0x41bc04           0x34          52   
.text.vListInsert         0x41bc38           0x34          52   
.text.vTaskDelay          0x41bc6c           0x34          52   
.text._APP_PumpDNS        0x41bca0           0x34          52   
.text.sulp                0x41bcd4           0x34          52   
.text.__libc_fini_array   0x41bd08           0x34          52   
.text._MacPacketAck       0x41bd3c           0x32          50   
.text._DNS_NetIsValid     0x41bd6e           0x32          50   
.text.TCPIP_STACK_NetBi   0x41bda0           0x32          50   
.text.DRV_GMAC_Paramete   0x41bdd2           0x30          48   
.text.DRV_PIC32CGMAC_Li   0x41be04           0x30          48   
.text._TCPSocketTxFreeS   0x41be34           0x30          48   
.text.TCPIP_IPV4_CheckP   0x41be64           0x30          48   
.text.IPv4RegisterFilte   0x41be94           0x30          48   
.text.fnv_32_hash         0x41bec4           0x30          48   
.text.TCPIP_OAHASH_Entr   0x41bef4           0x30          48   
.text.TCPIP_Helper_Prot   0x41bf24           0x30          48   
.text.TCPIP_Helper_Prot   0x41bf54           0x30          48   
.text.TCPIP_PKT_Initial   0x41bf84           0x30          48   
.text.TCPIP_UDP_Close     0x41bfb4           0x30          48   
.text.USART1_ErrorGet     0x41bfe4           0x30          48   
.text.SYS_TIME_UpdateTi   0x41c014           0x30          48   
.text.xPortSysTickHandl   0x41c044           0x30          48   
.text.xQueueGenericCrea   0x41c074           0x30          48   
.text                     0x41c0a4           0x30          48  App's exec code 
.text.__match             0x41c0d4           0x30          48   
.text.DRV_ETHPHY_Reset    0x41c104           0x2e          46   
.text.DRV_ETHPHY_Negoti   0x41c132           0x2e          46   
.text.DRV_MIIM_Deregist   0x41c160           0x2e          46   
.text._DHCPOptionProces   0x41c18e           0x2e          46   
.text._DHCPOptionProces   0x41c1bc           0x2e          46   
.text._DHCPOptionProces   0x41c1ea           0x2e          46   
.text._ARPRemoveEntry     0x41c218           0x2e          46   
.text.TCPIP_STACK_DNSSe   0x41c246           0x2e          46   
.text._TxSktGetLockedV4   0x41c274           0x2e          46   
.text._DRV_ETHPHY_Clien   0x41c2a4           0x2c          44   
.text.DRV_ETHPHY_Restar   0x41c2d0           0x2c          44   
.text._DRV_ETHPHY_Clien   0x41c2fc           0x2c          44   
.text._DRV_ETHPHY_Clien   0x41c328           0x2c          44   
.text._DRV_ETHPHY_Clien   0x41c354           0x2c          44   
.text._DRV_ETHPHY_Clien   0x41c380           0x2c          44   
.text._DRV_ETHPHY_Clien   0x41c3ac           0x2c          44   
.text._DRV_ETHPHY_Setup   0x41c3d8           0x2c          44   
.text._DRV_GMAC_LinkSta   0x41c404           0x2c          44   
.text._DNSClientCleanup   0x41c430           0x2c          44   
.text.TCPIP_Helper_Prot   0x41c45c           0x2c          44   
.text.TCPIP_STACK_Initi   0x41c488           0x2c          44   
.text.TCPIP_STACK_Addre   0x41c4b4           0x2c          44   
.text.TCPIP_STACK_IsBca   0x41c4e0           0x2c          44   
.text._TCPIPStackModule   0x41c50c           0x2c          44   
.text.SYS_CONSOLE_Write   0x41c538           0x2c          44   
.text.TCPIP_STACK_Init    0x41c564           0x2c          44   
.text.pxPortInitialiseS   0x41c590           0x2c          44   
.text.prvResetNextTaskU   0x41c5bc           0x2c          44   
.text.__ascii_mbtowc      0x41c5e8           0x2c          44   
.text.strtol              0x41c614           0x2c          44   
.text._sbrk               0x41c640           0x2c          44   
.text._DRV_GMAC_LinkSta   0x41c66c           0x2a          42   
.text._DRV_MIIM_GetObje   0x41c696           0x2a          42   
.text.TCPIP_Helper_Prot   0x41c6c0           0x2a          42   
.text.TCPIP_Helper_Prot   0x41c6ea           0x2a          42   
.text._DRV_ETHPHY_Clien   0x41c714           0x28          40   
.rodata._DRV_PHY_Client   0x41c73c           0x28          40   
.text.DRV_GMAC_ConfigGe   0x41c764           0x28          40   
.text.DRV_GMAC_LinkChec   0x41c78c           0x28          40   
.text.DRV_MIIM_Status     0x41c7b4           0x28          40   
.text._DNSGetData         0x41c7dc           0x28          40   
.text.TCPIP_ICMP_Deinit   0x41c804           0x28          40   
.text._TcpSocketChk       0x41c82c           0x28          40   
.text._TcpFlush           0x41c854           0x28          40   
.text._DHCPOptionWriteP   0x41c87c           0x28          40   
.text._TCPIP_STACK_Tick   0x41c8a4           0x28          40   
.text._TCPIPSignalEntry   0x41c8cc           0x28          40   
.text.TCPIP_STACK_NetMA   0x41c8f4           0x28          40   
.text.TCPIP_STACK_NetMA   0x41c91c           0x28          40   
.text.TCPIP_STACK_NetIs   0x41c944           0x28          40   
.text._TCPIPStackSignal   0x41c96c           0x28          40   
.text._TCPIP_PKT_Socket   0x41c994           0x28          40   
.text._UDPSocketDcpt      0x41c9bc           0x28          40   
.text._UDPFreeTxResourc   0x41c9e4           0x28          40   
.text._UDPUpdatePacketL   0x41ca0c           0x28          40   
.text.TCPIP_UDP_GetIsRe   0x41ca34           0x28          40   
.text.TCPIP_UDP_SignalH   0x41ca5c           0x28          40   
.text.TC0_CH0_TimerInit   0x41ca84           0x28          40   
.text.SYS_CONSOLE_Flush   0x41caac           0x28          40   
.text.Console_UART_Stat   0x41cad4           0x28          40   
.text.ReadCommandCharac   0x41cafc           0x28          40   
.text.SendCommandCharac   0x41cb24           0x28          40   
.rodata.tcpipARPInitDat   0x41cb4c           0x28          40   
.text.prvPortStartFirst   0x41cb74           0x28          40   
.text.vPortSetupTimerIn   0x41cb9c           0x28          40   
.text.uxListRemove        0x41cbc4           0x28          40   
.rodata._seqDownArrow     0x41cbec            0x4           4   
.rodata.tinytens          0x41cbf0           0x28          40   
.rodata.__mprec_bigtens   0x41cc18           0x28          40   
.text.TCPIP_STACK_DNSSe   0x41cc40           0x26          38   
.text.TCPIP_STACK_Addre   0x41cc66           0x26          38   
.text._UDPFreeRxQueue     0x41cc8c           0x26          38   
.text.DRV_ETHPHY_HWConf   0x41ccb4           0x24          36   
.text._DRV_ETHPHY_NegRe   0x41ccd8           0x24          36   
.text._DRV_ETHPHY_NegRe   0x41ccfc           0x24          36   
.rodata                   0x41cd20           0x24          36  Read-only const 
.text.DRV_PIC32CGMAC_Li   0x41cd44           0x24          36   
.text._DHCPOptionProces   0x41cd68           0x24          36   
.text._DHCPOptionWriteM   0x41cd8c           0x24          36   
.text.TCPIP_DHCP_Reques   0x41cdb0           0x24          36   
.text._ARPAllocateTxPac   0x41cdd4           0x24          36   
.text._ARPRemoveCacheEn   0x41cdf8           0x24          36   
.text.TCPIP_ARP_Handler   0x41ce1c           0x24          36   
.text.TCPIP_Commands_De   0x41ce40           0x24          36   
.text.Ipv4DeRegisterFil   0x41ce64           0x24          36   
.rodata._tcpip_heap_obj   0x41ce88           0x24          36   
.text.TCPIP_OAHASH_Init   0x41ceac           0x24          36   
.text.TCPIP_STACK_IPAdd   0x41ced0           0x24          36   
.text._TCPIPStackHandle   0x41cef4           0x24          36   
.text.TC0_CH0_Interrupt   0x41cf18           0x24          36   
.text.Console_UART_Flus   0x41cf3c           0x24          36   
.text.SYS_CMDIO_GET_HAN   0x41cf60           0x24          36   
.rodata._builtinCmdTbl    0x41cf84           0x24          36   
.text.prvTaskExitError    0x41cfa8           0x24          36   
.rodata._seqLeftArrow     0x41cfcc            0x4           4   
.text.vPortSVCHandler     0x41cfd0           0x24          36   
.text.vPortEnterCritica   0x41cff4           0x24          36   
.text.xQueueCreateMutex   0x41d018           0x24          36   
.text._sbrk_r             0x41d03c           0x24          36   
.text.strtod              0x41d060           0x24          36   
.text.DRV_ETHPHY_Reinit   0x41d084           0x22          34   
.text.TCPIP_TCP_IsConne   0x41d0a6           0x22          34   
.text._TCPIP_HEAP_LastE   0x41d0c8           0x22          34   
.text.TCPIP_Helper_Prot   0x41d0ea           0x22          34   
.text.TCPIP_STACK_NetAd   0x41d10c           0x22          34   
.text.TCPIP_STACK_NetAd   0x41d12e           0x22          34   
.text.TCPIP_UDP_Discard   0x41d150           0x22          34   
.text.DRV_ETHPHY_Tasks    0x41d174           0x20          32   
.text.DRV_ETHPHY_Close    0x41d194           0x20          32   
.text._DRV_ETHPHY_Clien   0x41d1b4           0x20          32   
.text._DRV_ETHPHY_NegRe   0x41d1d4           0x20          32   
.text._DRV_ETHPHY_Setup   0x41d1f4           0x20          32   
.text.DRV_PIC32CGMAC_Li   0x41d214           0x20          32   
.text.DRV_PIC32CGMAC_Si   0x41d234           0x20          32   
.text.Helper_SingleList   0x41d254           0x20          32   
.text.TCPIP_DNS_OAHASH_   0x41d274           0x20          32   
.text.TCPIP_DHCP_Enable   0x41d294           0x20          32   
.text.TCPIP_DHCP_Renew    0x41d2b4           0x20          32   
.text._SwapARPPacket      0x41d2d4           0x20          32   
.text.TCPIP_Helper_Sing   0x41d2f4           0x20          32   
.text.TCPIP_Helper_Prot   0x41d314           0x20          32   
.rodata.TCPIP_MAC_POWER   0x41d334           0x20          32   
.text.TCPIP_STACK_NetDe   0x41d354           0x20          32   
.text.TCPIP_STACK_Index   0x41d374           0x20          32   
.text.TCPIP_STACK_Deini   0x41d394           0x20          32   
.text.TCPIP_Notificatio   0x41d3b4           0x20          32   
.rodata                   0x41d3d4           0x20          32  Read-only const 
.text.TCPIP_UDP_Destina   0x41d3f4           0x20          32   
.rodata.sysConsoleUARTD   0x41d414           0x20          32   
.text.SYS_DEBUG_Initial   0x41d434           0x20          32   
.text.SYS_INT_SourceRes   0x41d454           0x20          32   
.text.SYS_TIME_GetElaps   0x41d474           0x20          32   
.rodata.tcpipPhyInitDat   0x41d494           0x20          32   
.text.pvPortMalloc        0x41d4b4           0x20          32   
.text.vsnprintf           0x41d4d4           0x20          32   
.text.DRV_ETHPHY_Client   0x41d4f4           0x1e          30   
.text._TCPIsGetReady      0x41d512           0x1e          30   
.text.TCPIP_STACK_NetAd   0x41d530           0x1e          30   
.text.TCPIP_STACK_Netwo   0x41d54e           0x1e          30   
.text.TCPIP_PKT_Payload   0x41d56c           0x1e          30   
.text.OSAL_SEM_Pend       0x41d58a           0x1e          30   
.text.OSAL_MUTEX_Lock     0x41d5a8           0x1e          30   
.text.TCPIP_DNS_IsResol   0x41d5c6           0x1c          28   
.rodata._DHCPOptWriteTb   0x41d5e4           0x1c          28   
.text._ARPTxAckFnc        0x41d600           0x1c          28   
.text.TCPIP_IPV4_MaxDat   0x41d61c           0x1c          28   
.rodata.__func__.14104    0x41d638           0x1c          28   
.text._TCPIP_HEAP_FreeS   0x41d654           0x1c          28   
.text._TCPIP_HEAP_Callo   0x41d670           0x1c          28   
.text.TCPIP_Helper_Sing   0x41d68c           0x1c          28   
.text.TCPIP_Helper_Prot   0x41d6a8           0x1c          28   
.text._TCPIPSignalEntry   0x41d6c4           0x1c          28   
.text.TCPIP_STACK_Statu   0x41d6e0           0x1c          28   
.text.TCPIP_STACK_NetAd   0x41d6fc           0x1c          28   
.text.TCPIP_STACK_NetIs   0x41d718           0x1c          28   
.text.TCPIP_STACK_NetAd   0x41d734           0x1c          28   
.text.TCPIP_STACK_NetMa   0x41d750           0x1c          28   
.text.TCPIP_STACK_NetIs   0x41d76c           0x1c          28   
.text.TCPIP_STACK_NetAd   0x41d788           0x1c          28   
.text.TCPIP_Notificatio   0x41d7a4           0x1c          28   
.text.TCPIP_Notificatio   0x41d7c0           0x1c          28   
.text.TCPIP_UDP_TxPoint   0x41d7dc           0x1c          28   
.text.SYS_TIME_Counter6   0x41d7f8           0x1c          28   
.text.SYS_TMR_CallbackP   0x41d814           0x1c          28   
.rodata.sysTimePlibAPI    0x41d830           0x1c          28   
.text.vTaskPlaceOnEvent   0x41d84c           0x1c          28   
.text.pvTaskIncrementMu   0x41d868           0x1c          28   
.text.__locale_ctype_pt   0x41d884           0x1c          28   
.text.__ascii_wctomb      0x41d8a0           0x1c          28   
.text._localeconv_r       0x41d8bc           0x1c          28   
.text._DRV_ETHPHY_NegCo   0x41d8d8           0x1a          26   
.text.DRV_PIC32CGMAC_Si   0x41d8f2           0x1a          26   
.text.Helper_SingleList   0x41d90c           0x1a          26   
.text.DRV_MIIM_Read       0x41d926           0x1a          26   
.text.DRV_MIIM_Write      0x41d940           0x1a          26   
.text.DRV_MIIM_Scan       0x41d95a           0x1a          26   
.text.TCPIP_TCP_ClientO   0x41d974           0x1a          26   
.text.TCPIP_TCP_PutIsRe   0x41d98e           0x1a          26   
.text.TCPIP_Helper_Sing   0x41d9a8           0x1a          26   
.text.TCPIP_STACK_NetIs   0x41d9c2           0x1a          26   
.text._UDPTxPktValid      0x41d9dc           0x1a          26   
.text.BSP_Initialize      0x41d9f8           0x18          24   
.text.DRV_ETHPHY_PhyAdd   0x41da10           0x18          24   
.text._DRV_PHY_SMIReadS   0x41da28           0x18          24   
.text._DRV_PHY_SMIWrite   0x41da40           0x18          24   
.text._DRV_ETHPHY_Reset   0x41da58           0x18          24   
.rodata._DRV_PHY_NegCom   0x41da70           0x18          24   
.text.DRV_PIC32CGMAC_Si   0x41da88           0x18          24   
.text.DRV_MIIM_Close      0x41daa0           0x18          24   
.rodata.__func__.14139    0x41dab8           0x18          24   
.rodata.__func__.14157    0x41dad0           0x18          24   
.rodata.__func__.14408    0x41dae8           0x18          24   
.text.TCPIP_ICMP_Cleanu   0x41db00           0x18          24   
.text.TCPIP_ARP_HashKey   0x41db18           0x18          24   
.text.TCPIP_HEAP_Create   0x41db30           0x18          24   
.text.TCPIP_OAHASH_Entr   0x41db48           0x18          24   
.text.TCPIP_STACK_NetAd   0x41db60           0x18          24   
.text.TCPIP_STACK_NetAd   0x41db78           0x18          24   
.text.TCPIP_STACK_NetAd   0x41db90           0x18          24   
.text.TCPIP_STACK_NetMa   0x41dba8           0x18          24   
.text.TCPIP_STACK_NetMA   0x41dbc0           0x18          24   
.text.TCPIP_STACK_HeapH   0x41dbd8           0x18          24   
.rodata.TCPIP_FRAME_PRO   0x41dbf0           0x18          24   
.text.Console_UART_Regi   0x41dc08           0x18          24   
.text.CommandReset        0x41dc20           0x18          24   
.text.SendCommandMessag   0x41dc38           0x18          24   
.rodata.sysConsoleApi     0x41dc50           0x18          24   
.text._TCPIP_STACK_Task   0x41dc68           0x18          24   
.text._DRV_MIIM_Task      0x41dc80           0x18          24   
.rodata.sysConsole0UART   0x41dc98           0x18          24   
.rodata.tcpipDNSClientI   0x41dcb0           0x18          24   
.text.vPortFree           0x41dcc8           0x18          24   
.text.vListInsertEnd      0x41dce0           0x18          24   
.text.vTaskInternalSetT   0x41dcf8           0x18          24   
.text.OSAL_CRIT_Enter     0x41dd10           0x18          24   
.text.OSAL_SEM_Post       0x41dd28           0x18          24   
.text.OSAL_MUTEX_Create   0x41dd40           0x18          24   
.text.OSAL_MUTEX_Unlock   0x41dd58           0x18          24   
.rodata.appCmdTbl         0x41dd70           0x18          24   
.text.DRV_ETHPHY_Vendor   0x41dd88           0x16          22   
.text.DRV_MIIM_ClientSt   0x41dd9e           0x16          22   
.text._DNSSocketRxSigna   0x41ddb4           0x16          22   
.text._TCP_TxPktValid     0x41ddca           0x16          22   
.text._DHCPSocketRxSign   0x41dde0           0x16          22   
.text._TCPIP_HEAP_Size    0x41ddf6           0x16          22   
.text._TCPIP_HEAP_HighW   0x41de0c           0x16          22   
.text.TCPIP_STACK_Addre   0x41de22           0x16          22   
.text._TCPIPStackPacket   0x41de38           0x16          22   
.text.vApplicationStack   0x41de4e           0x16          22   
.text.vApplicationMallo   0x41de64           0x16          22   
.text.vListInitialise     0x41de7a           0x16          22   
.text.prvIsQueueEmpty     0x41de90           0x16          22   
.text.xQueueCreateCount   0x41dea6           0x16          22   
.text.OSAL_CRIT_Leave     0x41debc           0x16          22   
.text._DRV_ETHPHY_NegRe   0x41ded2           0x14          20   
.text._DRV_ETHPHY_NegRe   0x41dee6           0x14          20   
.text._DRV_ETHPHY_NegCo   0x41defa           0x14          20   
.text._DRV_ETHPHY_LinkS   0x41df0e           0x14          20   
.rodata._DRV_PHY_NegRes   0x41df24           0x14          20   
.rodata._DRV_GMAC_LinkS   0x41df38           0x14          20   
.text._DHCPOptionWriteE   0x41df4c           0x14          20   
.text.TCPIP_OAHASH_Entr   0x41df60           0x14          20   
.rodata.sysConsole0UART   0x41df74           0x14          20   
.rodata.sysConsole0UART   0x41df88           0x14          20   
.text.vPortEnableVFP      0x41df9c           0x14          20   
.text.vPortExitCritical   0x41dfb0           0x14          20   
.rodata                   0x41dfc4           0x14          20  Read-only const 
.rodata.fpi.7265          0x41dfd8           0x14          20   
.rodata.fpinan.7301       0x41dfec           0x14          20   
.text.register_fini       0x41e000           0x14          20   
.rodata                   0x41e014           0x14          20  Read-only const 
.text._Bfree              0x41e028           0x14          20   
.text.__i2b               0x41e03c           0x14          20   
.text.DRV_GMAC_Status     0x41e050           0x12          18   
.text.DRV_GMAC_Close      0x41e062           0x12          18   
.text.DRV_GMAC_Deinitia   0x41e074           0x12          18   
.text.TCPIP_TCP_GetIsRe   0x41e086           0x12          18   
.text.TCPIP_STACK_NetNa   0x41e098           0x12          18   
.text.IsCommandReady      0x41e0aa           0x12          18   
.text.SYS_INT_Disable     0x41e0bc           0x12          18   
.text.SYS_INT_Restore     0x41e0ce           0x12          18   
.text.OSAL_SEM_Delete     0x41e0e0           0x12          18   
.rodata._DRV_PHY_SetupP   0x41e0f4           0x10          16   
.rodata.DRV_ETHPHY_OBJE   0x41e104           0x10          16   
.text.TCPIP_DNS_GetIPv4   0x41e114           0x10          16   
.text.TCPIP_DNS_GetIPv6   0x41e124           0x10          16   
.text.TCPIP_Notificatio   0x41e134           0x10          16   
.text.sy_time_h2_adapte   0x41e144           0x10          16   
.text._APP_Tasks          0x41e154           0x10          16   
.text._SYS_CMD_Tasks      0x41e164           0x10          16   
.rodata.tcpipDHCPInitDa   0x41e174           0x10          16   
.text.vTaskSuspendAll     0x41e184           0x10          16   
.text.calloc              0x41e194           0x10          16   
.text.malloc              0x41e1a4           0x10          16   
.text.free                0x41e1b4           0x10          16   
.rodata                   0x41e1c4           0x10          16  Read-only const 
.text.strtok              0x41e1d4           0x10          16   
.rodata.blanks.8352       0x41e1e4           0x10          16   
.rodata.zeroes.8353       0x41e1f4           0x10          16   
.text.DRV_ETHPHY_Status   0x41e204            0xe          14   
.text.DRV_ETHPHY_Client   0x41e212            0xe          14   
.text.DRV_ETHPHY_Client   0x41e220            0xe          14   
.text.DRV_ETHPHY_Vendor   0x41e22e            0xe          14   
.text.btohexa_low         0x41e23c            0xe          14   
.text.TCPIP_Helper_Chec   0x41e24a            0xe          14   
.text.TCPIP_STACK_NetIn   0x41e258            0xe          14   
.text.TCPIP_STACK_NetIx   0x41e266            0xe          14   
.text._TCPIPStackSignal   0x41e274            0xe          14   
.text.main                0x41e282            0xe          14   
.rodata._DRV_PHY_NegRes   0x41e290            0xc          12   
.rodata._DRV_PHY_ResetP   0x41e29c            0xc          12   
.text._DRV_GMAC_GetTxOc   0x41e2a8            0xc          12   
.text._DRV_GMAC_GetTxOc   0x41e2b4            0xc          12   
.text._DRV_GMAC_GetTxFr   0x41e2c0            0xc          12   
.text._DRV_GMAC_GetTxBC   0x41e2cc            0xc          12   
.text._DRV_GMAC_GetTxMC   0x41e2d8            0xc          12   
.text._DRV_GMAC_GetTxPa   0x41e2e4            0xc          12   
.text._DRV_GMAC_GetTx64   0x41e2f0            0xc          12   
.text._DRV_GMAC_GetTx12   0x41e2fc            0xc          12   
.text._DRV_GMAC_GetTx25   0x41e308            0xc          12   
.text._DRV_GMAC_GetTx51   0x41e314            0xc          12   
.text._DRV_GMAC_GetTx10   0x41e320            0xc          12   
.text._DRV_GMAC_GetTx15   0x41e32c            0xc          12   
.text._DRV_GMAC_GetTxGT   0x41e338            0xc          12   
.text._DRV_GMAC_GetTxUn   0x41e344            0xc          12   
.text._DRV_GMAC_GetTxSi   0x41e350            0xc          12   
.text._DRV_GMAC_GetTxMu   0x41e35c            0xc          12   
.text._DRV_GMAC_GetTxEx   0x41e368            0xc          12   
.text._DRV_GMAC_GetTxLa   0x41e374            0xc          12   
.text._DRV_GMAC_GetTxDe   0x41e380            0xc          12   
.text._DRV_GMAC_GetTxCS   0x41e38c            0xc          12   
.text._DRV_GMAC_GetRxOc   0x41e398            0xc          12   
.text._DRV_GMAC_GetRxOc   0x41e3a4            0xc          12   
.text._DRV_GMAC_GetRxFr   0x41e3b0            0xc          12   
.text._DRV_GMAC_GetRxBC   0x41e3bc            0xc          12   
.text._DRV_GMAC_GetRxMC   0x41e3c8            0xc          12   
.text._DRV_GMAC_GetRxPa   0x41e3d4            0xc          12   
.text._DRV_GMAC_GetRx64   0x41e3e0            0xc          12   
.text._DRV_GMAC_GetRx12   0x41e3ec            0xc          12   
.text._DRV_GMAC_GetRx25   0x41e3f8            0xc          12   
.text._DRV_GMAC_GetRx51   0x41e404            0xc          12   
.text._DRV_GMAC_GetRx10   0x41e410            0xc          12   
.text._DRV_GMAC_GetRx15   0x41e41c            0xc          12   
.text._DRV_GMAC_GetRxGT   0x41e428            0xc          12   
.text._DRV_GMAC_GetRxUn   0x41e434            0xc          12   
.text._DRV_GMAC_GetRxOv   0x41e440            0xc          12   
.text._DRV_GMAC_GetRxJa   0x41e44c            0xc          12   
.text._DRV_GMAC_GetRxFC   0x41e458            0xc          12   
.text._DRV_GMAC_GetRxLF   0x41e464            0xc          12   
.text._DRV_GMAC_GetRxSy   0x41e470            0xc          12   
.text._DRV_GMAC_GetRxAl   0x41e47c            0xc          12   
.text._DRV_GMAC_GetRxRe   0x41e488            0xc          12   
.text._DRV_GMAC_GetRxOv   0x41e494            0xc          12   
.text._DRV_GMAC_GetRxIP   0x41e4a0            0xc          12   
.text._DRV_GMAC_GetRxTC   0x41e4ac            0xc          12   
.text._DRV_GMAC_GetRxUD   0x41e4b8            0xc          12   
.text.btohexa_high        0x41e4c4            0xc          12   
.text.TCPIP_DNS_OAHASH_   0x41e4d0            0xc          12   
.text.TCPIP_DNS_Enable    0x41e4dc            0xc          12   
.text.TCPIP_ARP_HashKey   0x41e4e8            0xc          12   
.text.TCPIP_STACK_NetDe   0x41e4f4            0xc          12   
.text.TCPIP_STACK_Numbe   0x41e500            0xc          12   
.rodata.TCPIP_STACK_IF_   0x41e50c            0xc          12   
.text.TCPIP_PKT_Deiniti   0x41e518            0xc          12   
.text.TC0_CH0_TimerStar   0x41e524            0xc          12   
.text.TC0_CH0_TimerStop   0x41e530            0xc          12   
.text.TC0_CH0_TimerPeri   0x41e53c            0xc          12   
.text.TC0_CH0_TimerComp   0x41e548            0xc          12   
.text.TC0_CH0_TimerCoun   0x41e554            0xc          12   
.text.TC0_CH0_TimerCall   0x41e560            0xc          12   
.text.USART1_WriteCallb   0x41e56c            0xc          12   
.text.USART1_ReadCallba   0x41e578            0xc          12   
.text.SYS_DEBUG_ErrorLe   0x41e584            0xc          12   
.text.SYS_CMD_MESSAGE     0x41e590            0xc          12   
.text.SYS_TIME_Frequenc   0x41e59c            0xc          12   
.rodata.sysConsole0Init   0x41e5a8            0xc          12   
.text.vTaskMissedYield    0x41e5b4            0xc          12   
.text.atexit              0x41e5c0            0xc          12   
.rodata.p05.7179          0x41e5cc            0xc          12   
.text.GMAC_InterruptHan   0x41e5d8            0xa          10   
.text.TCPIP_DNS_Resolve   0x41e5e2            0xa          10   
.text._Command_ZcllOnOf   0x41e5ec            0xa          10   
.text._Command_DHCPSOnO   0x41e5f6            0xa          10   
.text.TCPIP_Helper_Sing   0x41e600            0xa          10   
.text.TCPIP_STACK_NetBI   0x41e60a            0xa          10   
.text._TCPIPStackAddres   0x41e614            0xa          10   
.text.TCPIP_UDP_ClientO   0x41e61e            0xa          10   
.text._DRV_ETHPHY_Clien   0x41e628            0x8           8   
.text.DRV_EXTPHY_SMIClo   0x41e630            0x8           8   
.text.DRV_GMAC_EventPen   0x41e638            0x8           8   
.text.TCPIP_HEAP_Malloc   0x41e640            0x8           8   
.text.TCPIP_HEAP_Calloc   0x41e648            0x8           8   
.text.TCPIP_HEAP_FreeOu   0x41e650            0x8           8   
.text.TCPIP_STACK_Gatew   0x41e658            0x8           8   
.text.TCPIP_STACK_Prima   0x41e660            0x8           8   
.text.TCPIP_STACK_Secon   0x41e668            0x8           8   
.text.TCPIP_STACK_NetGe   0x41e670            0x8           8   
.text.TCPIP_Notificatio   0x41e678            0x8           8   
.text.TCPIP_UDP_TxPutIs   0x41e680            0x8           8   
.text.TC0_CH0_TimerFreq   0x41e688            0x8           8   
.rodata.drvMiimInitData   0x41e690            0x8           8   
.rodata.sysTimeInitData   0x41e698            0x8           8   
.rodata.tcpipTCPInitDat   0x41e6a0            0x8           8   
.rodata.tcpipUDPInitDat   0x41e6a8            0x8           8   
.text.vQueueDelete        0x41e6b0            0x8           8   
.rodata                   0x41e6b8            0x8           8  Read-only const 
.text.atof                0x41e6c0            0x8           8   
.text.atoi                0x41e6c8            0x8           8   
.text.__locale_ctype_pt   0x41e6d0            0x8           8   
.text.DRV_ETHPHY_SMIRea   0x41e6d8            0x6           6   
.text.DRV_ETHPHY_SMIWri   0x41e6de            0x6           6   
.text.DRV_ETHPHY_SMISca   0x41e6e4            0x6           6   
.text.DRV_ETHPHY_SMISca   0x41e6ea            0x6           6   
.text.DRV_ETHPHY_SMISca   0x41e6f0            0x6           6   
.text.DRV_ETHPHY_SMISca   0x41e6f6            0x6           6   
.text.DRV_ETHPHY_SMISta   0x41e6fc            0x6           6   
.text.DRV_ETHPHY_SMIClo   0x41e702            0x6           6   
.text.TCPIP_ARP_HashKey   0x41e708            0x6           6   
.text.vListInitialiseIt   0x41e70e            0x6           6   
.rodata._seqRightArrow    0x41e714            0x4           4   
.rodata._seqUpArrow       0x41e718            0x4           4   
.rodata.debugInit         0x41e71c            0x4           4   
.rodata.sysCmdInit        0x41e720            0x4           4   
.text                     0x41e724            0x4           4  App's exec code 
.rodata._global_impure_   0x41e728            0x4           4   
.text.__malloc_lock       0x41e72c            0x4           4   
.text.__malloc_unlock     0x41e730            0x4           4   
.text.__localeconv_l      0x41e734            0x4           4   
      Total ROM used  :     0x1e714      124692  5.9% of 0x200000
        --------------------------------------------------------------------------
         Total Program Memory used  :     0x1e714      124692  5.9% of 0x200000
        --------------------------------------------------------------------------


RAM Data-Memory Usage
section                    address  length [bytes]      (dec)  Description
-------                 ----------  -------------------------  -----------
.bss                    0x20400000          0x5f0        1520  Uninitialized data 
.data.__malloc_av_      0x204005f0          0x408        1032   
.data._gmac_drv_dcpt    0x204009f8          0x304         772   
.bss.TCPIP_STACK_MODULE 0x20400cfc          0x250         592   
.bss.sysConsole0UARTWrQ 0x20400f4c          0x208         520   
.data.__global_locale   0x20401154          0x16c         364   
.bss.tmpBuf             0x204012c0           0xc8         200   
.bss.timers             0x20401388           0xa0         160   
.bss.gDrvMIIMObj        0x20401428           0x94         148   
.bss.TCPIP_MODULES_QUEU 0x204014bc           0x90         144   
.bss.saveCmd.7379       0x2040154c           0x81         129   
.bss.tcpipCmdStat       0x204015cd            0x1           1   
.bss.tcpDefTxSize       0x204015ce            0x2           2   
.bss._usrCmdTbl         0x204015d0           0x80         128   
.bss.readBuff           0x20401650           0x80         128   
.bss.gDrvETHPHYObj      0x204016d0           0x64         100   
.bss.gConsoleUartData   0x20401734           0x64         100   
.bss.pxReadyTasksLists  0x20401798           0x64         100   
.bss.sysConsole0UARTRdQ 0x204017fc           0x58          88   
.bss.arpMod             0x20401854           0x48          72   
.bss.gSystemCounterObj  0x2040189c           0x38          56   
.bss.gDnsDcpt           0x204018d4           0x28          40   
.bss.__malloc_current_m 0x204018fc           0x28          40   
.bss.dnslookupTargetHos 0x20401924           0x1f          31   
.bss.discard_flag.13927 0x20401943            0x1           1   
.bss                    0x20401944           0x1c          28  Uninitialized data 
.bss._cmdAppData        0x20401960           0x18          24   
.bss.dhcpRegisteredUser 0x20401978           0x14          20   
.bss.cmdTcpipInitData   0x2040198c           0x14          20   
.bss.ipv4ArpQueue       0x204019a0           0x14          20   
.bss.ipv4PacketFilters  0x204019b4           0x14          20   
.bss.tcpip_init_data    0x204019c8           0x14          20   
.data.tcpipHeapConfig   0x204019dc           0x14          20   
.bss.xDelayedTaskList1  0x204019f0           0x14          20   
.bss.xDelayedTaskList2  0x20401a04           0x14          20   
.bss.xPendingReadyList  0x20401a18           0x14          20   
.bss.xSuspendedTaskList 0x20401a2c           0x14          20   
.bss.xTasksWaitingTermi 0x20401a40           0x14          20   
.bss.tcpip_heap_config  0x20401a54           0x10          16   
.bss.consoleDeviceInsta 0x20401a64            0xc          12   
.bss.cmdIODevList       0x20401a70            0xc          12   
.bss._cmdList           0x20401a7c            0x8           8   
.data.dwLastIP.13363    0x20401a84            0x8           8   
.data.arpBcastAdd       0x20401a8c            0x6           6   
.bss.tcpDefRxSize       0x20401a92            0x2           2   
.bss._hEventMac         0x20401a94            0x4           4   
.bss._MIIMStayAssertLoo 0x20401a98            0x4           4   
.bss._DNSStayAssertLoop 0x20401a9c            0x4           4   
.bss._DNSStayCondLoop   0x20401aa0            0x4           4   
.bss.dnsInitCount       0x20401aa4            0x4           4   
.bss.pgDnsDcpt          0x20401aa8            0x4           4   
.bss.icmpInitCount      0x20401aac            0x4           4   
.bss.signalHandle       0x20401ab0            0x4           4   
.bss.TCBStubs           0x20401ab4            0x4           4   
.bss.TcpSockets         0x20401ab8            0x4           4   
.bss.tcpHeapH           0x20401abc            0x4           4   
.bss.tcpInitCount       0x20401ac0            0x4           4   
.bss.tcpLockCount       0x20401ac4            0x4           4   
.bss.tcpSemaphore       0x20401ac8            0x4           4   
.bss.tcpSignalHandle    0x20401acc            0x4           4   
.bss.DHCPClients        0x20401ad0            0x4           4   
.bss.dhcpFilterHandle   0x20401ad4            0x4           4   
.bss.dhcpInitCount      0x20401ad8            0x4           4   
.bss.dhcpInterfaces     0x20401adc            0x4           4   
.bss.dhcpMemH           0x20401ae0            0x4           4   
.bss.dhcpSecondCount    0x20401ae4            0x4           4   
.bss.dhcpSignalHandle   0x20401ae8            0x4           4   
.bss.dnsLookUpStartTick 0x20401aec            0x4           4   
.bss.dnsLookupCmdIoPara 0x20401af0            0x4           4   
.bss.initialNetIfs      0x20401af4            0x4           4   
.bss.pCmdTcpipInitData  0x20401af8            0x4           4   
.bss.pTcpipCmdDevice    0x20401afc            0x4           4   
.bss.tcpipCmdSignalHand 0x20401b00            0x4           4   
.bss._IPv4StayAssertLoo 0x20401b04            0x4           4   
.bss.ipv4ArpHandle      0x20401b08            0x4           4   
.bss.ipv4MemH           0x20401b0c            0x4           4   
.bss.signalHandle       0x20401b10            0x4           4   
.bss.newTcpipErrorEvent 0x20401b14            0x4           4   
.bss.newTcpipStackEvent 0x20401b18            0x4           4   
.bss.newTcpipTickAvlbl  0x20401b1c            0x4           4   
.bss.stackAsyncSignalCo 0x20401b20            0x4           4   
.bss.stackTaskRate      0x20401b24            0x4           4   
.bss.tcpipDefIf         0x20401b28            0x4           4   
.bss.tcpipNetIf         0x20401b2c            0x4           4   
.bss.totTcpipEventsCnt  0x20401b30            0x4           4   
.data.tcpip_stack_tickH 0x20401b34            0x4           4   
.bss.pktMemH            0x20401b38            0x4           4   
.bss.UDPSocketDcpt      0x20401b3c            0x4           4   
.bss.nUdpSockets        0x20401b40            0x4           4   
.bss.signalHandle       0x20401b44            0x4           4   
.bss.udpInitCount       0x20401b48            0x4           4   
.bss.udpMemH            0x20401b4c            0x4           4   
.bss.userSem            0x20401b50            0x4           4   
.bss._pCurrCmdN         0x20401b54            0x4           4   
.bss.printBuffPtr       0x20401b58            0x4           4   
.bss.systemAdaptObj     0x20401b5c            0x4           4   
.bss.cmd.13380          0x20401b60            0x4           4   
.data.uxCriticalNesting 0x20401b64            0x4           4   
.bss.pxCurrentTCB       0x20401b68            0x4           4   
.bss.pxDelayedTaskList  0x20401b6c            0x4           4   
.bss.pxOverflowDelayedT 0x20401b70            0x4           4   
.bss.uxCurrentNumberOfT 0x20401b74            0x4           4   
.bss.uxDeletedTasksWait 0x20401b78            0x4           4   
.bss.uxPendedTicks      0x20401b7c            0x4           4   
.bss.uxSchedulerSuspend 0x20401b80            0x4           4   
.bss.uxTaskNumber       0x20401b84            0x4           4   
.bss.uxTopReadyPriority 0x20401b88            0x4           4   
.bss.xIdleTaskHandle    0x20401b8c            0x4           4   
.bss.xNextTaskUnblockTi 0x20401b90            0x4           4   
.bss.xNumOfOverflows    0x20401b94            0x4           4   
.bss.xSchedulerRunning  0x20401b98            0x4           4   
.bss.xTickCount         0x20401b9c            0x4           4   
.bss.xYieldPending      0x20401ba0            0x4           4   
.data._impure_ptr       0x20401ba4            0x4           4   
.bss.__malloc_max_sbrke 0x20401ba8            0x4           4   
.bss.__malloc_max_total 0x20401bac            0x4           4   
.bss.__malloc_top_pad   0x20401bb0            0x4           4   
.data.__malloc_sbrk_bas 0x20401bb4            0x4           4   
.data.__malloc_trim_thr 0x20401bb8            0x4           4   
.bss                    0x20401bbc            0x4           4  Uninitialized data 
.bss.dhcpClientPort     0x20401bc0            0x2           2   
.bss.dhcpClientSocket   0x20401bc2            0x2           2   
.bss.dhcpServerPort     0x20401bc4            0x2           2   
.bss.ipv4Identifier     0x20401bc6            0x2           2   
.bss.ipv4InitCount      0x20401bc8            0x2           2   
.bss.udpDefTxSize       0x20401bca            0x2           2   
.data.gSysTimeTokenCoun 0x20401bcc            0x2           2   
.data.dnsType           0x20401bce            0x1           1   
.bss.ipv4FilterType     0x20401bcf            0x1           1   
.bss.tcpip_stack_status 0x20401bd0            0x1           1   
.bss.gmac_dcpt_array    0x2045f000           0xf0         240   
.bss.printBuff          0x2045f0f0          0xa00        2560   
.data.impure_data       0x2045faf0          0x428        1064   
.bss.printBuffer        0x2045ff18           0xc8         200   
.bss.tcpip_stack_ctrl_d 0x2045ffe0           0x20          32   
         Total RAM used  :      0x2bd1       11217  2.9% of 0x60000
        --------------------------------------------------------------------------
            Total Data Memory used  :      0x2bd1       11217  2.9% of 0x60000
        --------------------------------------------------------------------------


Dynamic Data-Memory Reservation
section                    address  length [bytes]      (dec)  Description
-------                 ----------  -------------------------  -----------
heap                    0x20401bd8        0x17ac0       96960  Reserved for heap 
stack                   0x204196b0        0x45948      285000  Reserved for stack 

        --------------------------------------------------------------------------

Discarded input sections

 .text          0x0000000000000000        0x0 /Applications/microchip/xc32/v2.15/bin/bin/../../lib/gcc/pic32c/6.2.1/v7e-m/fpv5/hard/crti.o
 .data          0x0000000000000000        0x0 /Applications/microchip/xc32/v2.15/bin/bin/../../lib/gcc/pic32c/6.2.1/v7e-m/fpv5/hard/crti.o
 .bss           0x0000000000000000        0x0 /Applications/microchip/xc32/v2.15/bin/bin/../../lib/gcc/pic32c/6.2.1/v7e-m/fpv5/hard/crti.o
 .data          0x0000000000000000        0x4 /Applications/microchip/xc32/v2.15/bin/bin/../../lib/gcc/pic32c/6.2.1/v7e-m/fpv5/hard/crtbegin.o
 .text          0x0000000000000000       0x74 /Applications/microchip/xc32/v2.15/bin/bin/../../lib/gcc/pic32c/6.2.1/../../../../pic32c/lib/v7e-m/fpv5/hard/crt0.o
 .data          0x0000000000000000        0x0 /Applications/microchip/xc32/v2.15/bin/bin/../../lib/gcc/pic32c/6.2.1/../../../../pic32c/lib/v7e-m/fpv5/hard/crt0.o
 .bss           0x0000000000000000        0x0 /Applications/microchip/xc32/v2.15/bin/bin/../../lib/gcc/pic32c/6.2.1/../../../../pic32c/lib/v7e-m/fpv5/hard/crt0.o
 .ARM.extab     0x0000000000000000        0x0 /Applications/microchip/xc32/v2.15/bin/bin/../../lib/gcc/pic32c/6.2.1/../../../../pic32c/lib/v7e-m/fpv5/hard/crt0.o
 .ARM.exidx     0x0000000000000000        0x8 /Applications/microchip/xc32/v2.15/bin/bin/../../lib/gcc/pic32c/6.2.1/../../../../pic32c/lib/v7e-m/fpv5/hard/crt0.o
 .ARM.attributes
                0x0000000000000000       0x1e /Applications/microchip/xc32/v2.15/bin/bin/../../lib/gcc/pic32c/6.2.1/../../../../pic32c/lib/v7e-m/fpv5/hard/crt0.o
 .text          0x0000000000000000        0x0 build/sam_e70_xult_freertos/production/_ext/683629640/bsp.o
 .data          0x0000000000000000        0x0 build/sam_e70_xult_freertos/production/_ext/683629640/bsp.o
 .bss           0x0000000000000000        0x0 build/sam_e70_xult_freertos/production/_ext/683629640/bsp.o
 .text          0x0000000000000000        0x0 build/sam_e70_xult_freertos/production/_ext/1607428259/drv_ethphy.o
 .data          0x0000000000000000        0x0 build/sam_e70_xult_freertos/production/_ext/1607428259/drv_ethphy.o
 .bss           0x0000000000000000        0x0 build/sam_e70_xult_freertos/production/_ext/1607428259/drv_ethphy.o
 .bss._PhyStayAssertLoop
                0x0000000000000000        0x4 build/sam_e70_xult_freertos/production/_ext/1607428259/drv_ethphy.o
 .bss._PhyStayCondLoop
                0x0000000000000000        0x4 build/sam_e70_xult_freertos/production/_ext/1607428259/drv_ethphy.o
 .text          0x0000000000000000        0x0 build/sam_e70_xult_freertos/production/_ext/1607428259/drv_extphy_smsc8740.o
 .data          0x0000000000000000        0x0 build/sam_e70_xult_freertos/production/_ext/1607428259/drv_extphy_smsc8740.o
 .bss           0x0000000000000000        0x0 build/sam_e70_xult_freertos/production/_ext/1607428259/drv_extphy_smsc8740.o
 .text          0x0000000000000000        0x0 build/sam_e70_xult_freertos/production/_ext/1619526243/drv_gmac.o
 .data          0x0000000000000000        0x0 build/sam_e70_xult_freertos/production/_ext/1619526243/drv_gmac.o
 .bss           0x0000000000000000        0x0 build/sam_e70_xult_freertos/production/_ext/1619526243/drv_gmac.o
 .text          0x0000000000000000        0x0 build/sam_e70_xult_freertos/production/_ext/1619526243/drv_gmac_lib_samE7x_V7x.o
 .data          0x0000000000000000        0x0 build/sam_e70_xult_freertos/production/_ext/1619526243/drv_gmac_lib_samE7x_V7x.o
 .bss           0x0000000000000000        0x0 build/sam_e70_xult_freertos/production/_ext/1619526243/drv_gmac_lib_samE7x_V7x.o
 .text          0x0000000000000000        0x0 build/sam_e70_xult_freertos/production/_ext/511568427/drv_miim.o
 .data          0x0000000000000000        0x0 build/sam_e70_xult_freertos/production/_ext/511568427/drv_miim.o
 .bss           0x0000000000000000        0x0 build/sam_e70_xult_freertos/production/_ext/511568427/drv_miim.o
 .text.Helper_SingleListInitialize
                0x0000000000000000        0xa build/sam_e70_xult_freertos/production/_ext/511568427/drv_miim.o
 .bss._MIIMStayCondLoop
                0x0000000000000000        0x4 build/sam_e70_xult_freertos/production/_ext/511568427/drv_miim.o
 .text          0x0000000000000000        0x0 build/sam_e70_xult_freertos/production/_ext/810785262/helpers.o
 .data          0x0000000000000000        0x0 build/sam_e70_xult_freertos/production/_ext/810785262/helpers.o
 .bss           0x0000000000000000        0x0 build/sam_e70_xult_freertos/production/_ext/810785262/helpers.o
 .text.uitoa    0x0000000000000000       0x60 build/sam_e70_xult_freertos/production/_ext/810785262/helpers.o
 .text.strncpy_m
                0x0000000000000000       0x70 build/sam_e70_xult_freertos/production/_ext/810785262/helpers.o
 .text.stricmp  0x0000000000000000       0x6a build/sam_e70_xult_freertos/production/_ext/810785262/helpers.o
 .text          0x0000000000000000        0x0 build/sam_e70_xult_freertos/production/_ext/810785262/dns.o
 .data          0x0000000000000000        0x0 build/sam_e70_xult_freertos/production/_ext/810785262/dns.o
 .bss           0x0000000000000000        0x0 build/sam_e70_xult_freertos/production/_ext/810785262/dns.o
 .text.TCPIP_DNS_Send_Query
                0x0000000000000000        0xa build/sam_e70_xult_freertos/production/_ext/810785262/dns.o
 .text.TCPIP_DNS_IsNameResolved
                0x0000000000000000        0xa build/sam_e70_xult_freertos/production/_ext/810785262/dns.o
 .text.TCPIP_DNS_IsEnabled
                0x0000000000000000       0x1e build/sam_e70_xult_freertos/production/_ext/810785262/dns.o
 .text          0x0000000000000000        0x0 build/sam_e70_xult_freertos/production/_ext/810785262/icmp.o
 .data          0x0000000000000000        0x0 build/sam_e70_xult_freertos/production/_ext/810785262/icmp.o
 .bss           0x0000000000000000        0x0 build/sam_e70_xult_freertos/production/_ext/810785262/icmp.o
 .text          0x0000000000000000        0x0 build/sam_e70_xult_freertos/production/_ext/810785262/tcp.o
 .data          0x0000000000000000        0x0 build/sam_e70_xult_freertos/production/_ext/810785262/tcp.o
 .bss           0x0000000000000000        0x0 build/sam_e70_xult_freertos/production/_ext/810785262/tcp.o
 .text.TCPIP_TCP_SocketTraceSet
                0x0000000000000000        0x4 build/sam_e70_xult_freertos/production/_ext/810785262/tcp.o
 .text.TCPIP_TCP_ServerOpen
                0x0000000000000000       0xa8 build/sam_e70_xult_freertos/production/_ext/810785262/tcp.o
 .text.TCPIP_TCP_WasReset
                0x0000000000000000       0x2a build/sam_e70_xult_freertos/production/_ext/810785262/tcp.o
 .text.TCPIP_TCP_Disconnect
                0x0000000000000000       0x1a build/sam_e70_xult_freertos/production/_ext/810785262/tcp.o
 .text.TCPIP_TCP_Abort
                0x0000000000000000       0x14 build/sam_e70_xult_freertos/production/_ext/810785262/tcp.o
 .text.TCPIP_TCP_Connect
                0x0000000000000000       0x2e build/sam_e70_xult_freertos/production/_ext/810785262/tcp.o
 .text.TCPIP_TCP_SocketsNumberGet
                0x0000000000000000        0xc build/sam_e70_xult_freertos/production/_ext/810785262/tcp.o
 .text.TCPIP_TCP_Flush
                0x0000000000000000       0x24 build/sam_e70_xult_freertos/production/_ext/810785262/tcp.o
 .text.TCPIP_TCP_Put
                0x0000000000000000       0x18 build/sam_e70_xult_freertos/production/_ext/810785262/tcp.o
 .text.TCPIP_TCP_StringPut
                0x0000000000000000       0x1a build/sam_e70_xult_freertos/production/_ext/810785262/tcp.o
 .text.TCPIP_TCP_FifoTxFullGet
                0x0000000000000000       0x3c build/sam_e70_xult_freertos/production/_ext/810785262/tcp.o
 .text.TCPIP_TCP_SocketInfoGet
                0x0000000000000000       0x6e build/sam_e70_xult_freertos/production/_ext/810785262/tcp.o
 .text.TCPIP_TCP_FifoTxFreeGet
                0x0000000000000000       0x20 build/sam_e70_xult_freertos/production/_ext/810785262/tcp.o
 .text.TCPIP_TCP_Discard
                0x0000000000000000       0x26 build/sam_e70_xult_freertos/production/_ext/810785262/tcp.o
 .text.TCPIP_TCP_Get
                0x0000000000000000        0xa build/sam_e70_xult_freertos/production/_ext/810785262/tcp.o
 .text.TCPIP_TCP_FifoRxFreeGet
                0x0000000000000000       0x1e build/sam_e70_xult_freertos/production/_ext/810785262/tcp.o
 .text.TCPIP_TCP_ArrayPeek
                0x0000000000000000       0x62 build/sam_e70_xult_freertos/production/_ext/810785262/tcp.o
 .text.TCPIP_TCP_Peek
                0x0000000000000000       0x1a build/sam_e70_xult_freertos/production/_ext/810785262/tcp.o
 .text.TCPIP_TCP_ArrayFind
                0x0000000000000000      0x262 build/sam_e70_xult_freertos/production/_ext/810785262/tcp.o
 .text.TCPIP_TCP_Find
                0x0000000000000000       0x20 build/sam_e70_xult_freertos/production/_ext/810785262/tcp.o
 .text.TCPIP_TCP_FifoSizeAdjust
                0x0000000000000000      0x2fc build/sam_e70_xult_freertos/production/_ext/810785262/tcp.o
 .text.TCPIP_TCP_SocketNetSet
                0x0000000000000000       0x2a build/sam_e70_xult_freertos/production/_ext/810785262/tcp.o
 .text.TCPIP_TCP_SocketNetGet
                0x0000000000000000       0x10 build/sam_e70_xult_freertos/production/_ext/810785262/tcp.o
 .text.TCPIP_TCP_Bind
                0x0000000000000000       0xce build/sam_e70_xult_freertos/production/_ext/810785262/tcp.o
 .text.TCPIP_TCP_OptionsSet
                0x0000000000000000      0x106 build/sam_e70_xult_freertos/production/_ext/810785262/tcp.o
 .text.TCPIP_TCP_OptionsGet
                0x0000000000000000       0xb2 build/sam_e70_xult_freertos/production/_ext/810785262/tcp.o
 .text.TCPIP_TCP_DestinationIPAddressSet
                0x0000000000000000       0x4e build/sam_e70_xult_freertos/production/_ext/810785262/tcp.o
 .text.TCPIP_TCP_RemoteBind
                0x0000000000000000       0x4e build/sam_e70_xult_freertos/production/_ext/810785262/tcp.o
 .text.TCPIP_TCP_SourceIPAddressSet
                0x0000000000000000       0x2e build/sam_e70_xult_freertos/production/_ext/810785262/tcp.o
 .text.TCPIP_TCP_SignalHandlerRegister
                0x0000000000000000       0x2c build/sam_e70_xult_freertos/production/_ext/810785262/tcp.o
 .text.TCPIP_TCP_SignalHandlerDeregister
                0x0000000000000000       0x24 build/sam_e70_xult_freertos/production/_ext/810785262/tcp.o
 .text.TCPIP_TCP_IsReady
                0x0000000000000000        0x4 build/sam_e70_xult_freertos/production/_ext/810785262/tcp.o
 .text          0x0000000000000000        0x0 build/sam_e70_xult_freertos/production/_ext/810785262/dhcp.o
 .data          0x0000000000000000        0x0 build/sam_e70_xult_freertos/production/_ext/810785262/dhcp.o
 .bss           0x0000000000000000        0x0 build/sam_e70_xult_freertos/production/_ext/810785262/dhcp.o
 .text.TCPIP_DHCP_IsBound
                0x0000000000000000       0x48 build/sam_e70_xult_freertos/production/_ext/810785262/dhcp.o
 .text.TCPIP_DHCP_IsServerDetected
                0x0000000000000000       0x48 build/sam_e70_xult_freertos/production/_ext/810785262/dhcp.o
 .text.TCPIP_DHCP_RequestTimeoutSet
                0x0000000000000000       0x58 build/sam_e70_xult_freertos/production/_ext/810785262/dhcp.o
 .text.TCPIP_DHCP_HandlerRegister
                0x0000000000000000       0x34 build/sam_e70_xult_freertos/production/_ext/810785262/dhcp.o
 .text.TCPIP_DHCP_HandlerDeRegister
                0x0000000000000000       0x24 build/sam_e70_xult_freertos/production/_ext/810785262/dhcp.o
 .text.TCPIP_DHCP_HostNameCallbackRegister
                0x0000000000000000       0x54 build/sam_e70_xult_freertos/production/_ext/810785262/dhcp.o
 .text          0x0000000000000000        0x0 build/sam_e70_xult_freertos/production/_ext/810785262/arp.o
 .data          0x0000000000000000        0x0 build/sam_e70_xult_freertos/production/_ext/810785262/arp.o
 .bss           0x0000000000000000        0x0 build/sam_e70_xult_freertos/production/_ext/810785262/arp.o
 .text.TCPIP_ARP_Resolve
                0x0000000000000000       0x46 build/sam_e70_xult_freertos/production/_ext/810785262/arp.o
 .text.TCPIP_ARP_EntrySet
                0x0000000000000000       0xe4 build/sam_e70_xult_freertos/production/_ext/810785262/arp.o
 .text.TCPIP_ARP_EntryRemoveAll
                0x0000000000000000       0x84 build/sam_e70_xult_freertos/production/_ext/810785262/arp.o
 .text.TCPIP_ARP_CacheThresholdSet
                0x0000000000000000       0x50 build/sam_e70_xult_freertos/production/_ext/810785262/arp.o
 .text          0x0000000000000000        0x0 build/sam_e70_xult_freertos/production/_ext/810785262/tcpip_commands.o
 .data          0x0000000000000000        0x0 build/sam_e70_xult_freertos/production/_ext/810785262/tcpip_commands.o
 .bss           0x0000000000000000        0x0 build/sam_e70_xult_freertos/production/_ext/810785262/tcpip_commands.o
 .text          0x0000000000000000        0x0 build/sam_e70_xult_freertos/production/_ext/810785262/ipv4.o
 .data          0x0000000000000000        0x0 build/sam_e70_xult_freertos/production/_ext/810785262/ipv4.o
 .bss           0x0000000000000000        0x0 build/sam_e70_xult_freertos/production/_ext/810785262/ipv4.o
 .text.TCPIP_IPV4_PacketFilterSet
                0x0000000000000000       0x24 build/sam_e70_xult_freertos/production/_ext/810785262/ipv4.o
 .text.TCPIP_IPV4_PacketFilterClear
                0x0000000000000000       0x24 build/sam_e70_xult_freertos/production/_ext/810785262/ipv4.o
 .text.TCPIP_IPV4_PacketAlloc
                0x0000000000000000       0x7a build/sam_e70_xult_freertos/production/_ext/810785262/ipv4.o
 .text.TCPIP_IPV4_PacketOptionFieldSet
                0x0000000000000000       0x36 build/sam_e70_xult_freertos/production/_ext/810785262/ipv4.o
 .text.TCPIP_IPV4_PacketOptionListGet
                0x0000000000000000       0x62 build/sam_e70_xult_freertos/production/_ext/810785262/ipv4.o
 .text.TCPIP_IPV4_PacketOptionGet
                0x0000000000000000       0x7c build/sam_e70_xult_freertos/production/_ext/810785262/ipv4.o
 .text          0x0000000000000000        0x0 build/sam_e70_xult_freertos/production/_ext/810785262/tcpip_heap_alloc.o
 .data          0x0000000000000000        0x0 build/sam_e70_xult_freertos/production/_ext/810785262/tcpip_heap_alloc.o
 .bss           0x0000000000000000        0x0 build/sam_e70_xult_freertos/production/_ext/810785262/tcpip_heap_alloc.o
 .text._TCPIP_HEAP_PointerMapCached
                0x0000000000000000        0x2 build/sam_e70_xult_freertos/production/_ext/810785262/tcpip_heap_alloc.o
 .text          0x0000000000000000        0x0 build/sam_e70_xult_freertos/production/_ext/810785262/tcpip_heap_internal.o
 .data          0x0000000000000000        0x0 build/sam_e70_xult_freertos/production/_ext/810785262/tcpip_heap_internal.o
 .bss           0x0000000000000000        0x0 build/sam_e70_xult_freertos/production/_ext/810785262/tcpip_heap_internal.o
 .text          0x0000000000000000        0x0 build/sam_e70_xult_freertos/production/_ext/810785262/hash_fnv.o
 .data          0x0000000000000000        0x0 build/sam_e70_xult_freertos/production/_ext/810785262/hash_fnv.o
 .bss           0x0000000000000000        0x0 build/sam_e70_xult_freertos/production/_ext/810785262/hash_fnv.o
 .text.fnv_32a_hash
                0x0000000000000000       0x30 build/sam_e70_xult_freertos/production/_ext/810785262/hash_fnv.o
 .text          0x0000000000000000        0x0 build/sam_e70_xult_freertos/production/_ext/810785262/oahash.o
 .data          0x0000000000000000        0x0 build/sam_e70_xult_freertos/production/_ext/810785262/oahash.o
 .bss           0x0000000000000000        0x0 build/sam_e70_xult_freertos/production/_ext/810785262/oahash.o
 .text          0x0000000000000000        0x0 build/sam_e70_xult_freertos/production/_ext/810785262/tcpip_helpers.o
 .data          0x0000000000000000        0x0 build/sam_e70_xult_freertos/production/_ext/810785262/tcpip_helpers.o
 .bss           0x0000000000000000        0x0 build/sam_e70_xult_freertos/production/_ext/810785262/tcpip_helpers.o
 .text._TCPIP_Helper_SecurePortEntry
                0x0000000000000000       0x38 build/sam_e70_xult_freertos/production/_ext/810785262/tcpip_helpers.o
 .text.TCPIP_Helper_IsPrivateAddress
                0x0000000000000000       0x2c build/sam_e70_xult_freertos/production/_ext/810785262/tcpip_helpers.o
 .text.TCPIP_Helper_PowerModeToString
                0x0000000000000000       0x18 build/sam_e70_xult_freertos/production/_ext/810785262/tcpip_helpers.o
 .text.TCPIP_Helper_Base64Decode
                0x0000000000000000       0xea build/sam_e70_xult_freertos/production/_ext/810785262/tcpip_helpers.o
 .text.TCPIP_Helper_Base64Encode
                0x0000000000000000      0x104 build/sam_e70_xult_freertos/production/_ext/810785262/tcpip_helpers.o
 .text.TCPIP_Helper_FindCommonPrefix
                0x0000000000000000       0x4e build/sam_e70_xult_freertos/production/_ext/810785262/tcpip_helpers.o
 .text.TCPIP_Helper_SingleListHeadAdd
                0x0000000000000000       0x16 build/sam_e70_xult_freertos/production/_ext/810785262/tcpip_helpers.o
 .text.TCPIP_Helper_SingleListMidAdd
                0x0000000000000000        0xe build/sam_e70_xult_freertos/production/_ext/810785262/tcpip_helpers.o
 .text.TCPIP_Helper_SingleListNextRemove
                0x0000000000000000       0x26 build/sam_e70_xult_freertos/production/_ext/810785262/tcpip_helpers.o
 .text.TCPIP_Helper_SingleListFind
                0x0000000000000000       0x20 build/sam_e70_xult_freertos/production/_ext/810785262/tcpip_helpers.o
 .text.TCPIP_Helper_ProtectedSingleListHeadAdd
                0x0000000000000000       0x2a build/sam_e70_xult_freertos/production/_ext/810785262/tcpip_helpers.o
 .text.TCPIP_Helper_ProtectedSingleListMidAdd
                0x0000000000000000       0x30 build/sam_e70_xult_freertos/production/_ext/810785262/tcpip_helpers.o
 .text.TCPIP_Helper_ProtectedSingleListNextRemove
                0x0000000000000000       0x30 build/sam_e70_xult_freertos/production/_ext/810785262/tcpip_helpers.o
 .text.TCPIP_Helper_ProtectedSingleListAppend
                0x0000000000000000       0x2a build/sam_e70_xult_freertos/production/_ext/810785262/tcpip_helpers.o
 .text.TCPIP_Helper_DoubleListInitialize
                0x0000000000000000        0xa build/sam_e70_xult_freertos/production/_ext/810785262/tcpip_helpers.o
 .text.TCPIP_Helper_DoubleListHeadAdd
                0x0000000000000000       0x22 build/sam_e70_xult_freertos/production/_ext/810785262/tcpip_helpers.o
 .text.TCPIP_Helper_DoubleListTailAdd
                0x0000000000000000       0x24 build/sam_e70_xult_freertos/production/_ext/810785262/tcpip_helpers.o
 .text.TCPIP_Helper_DoubleListMidAdd
                0x0000000000000000       0x14 build/sam_e70_xult_freertos/production/_ext/810785262/tcpip_helpers.o
 .text.TCPIP_Helper_DoubleListHeadRemove
                0x0000000000000000       0x24 build/sam_e70_xult_freertos/production/_ext/810785262/tcpip_helpers.o
 .text.TCPIP_Helper_DoubleListTailRemove
                0x0000000000000000       0x24 build/sam_e70_xult_freertos/production/_ext/810785262/tcpip_helpers.o
 .text.TCPIP_Helper_DoubleListMidRemove
                0x0000000000000000       0x14 build/sam_e70_xult_freertos/production/_ext/810785262/tcpip_helpers.o
 .text.TCPIP_Helper_DoubleListNodeRemove
                0x0000000000000000       0x20 build/sam_e70_xult_freertos/production/_ext/810785262/tcpip_helpers.o
 .text.TCPIP_Helper_DoubleListFind
                0x0000000000000000       0x20 build/sam_e70_xult_freertos/production/_ext/810785262/tcpip_helpers.o
 .text.TCPIP_Helper_ProtectedDoubleListInitialize
                0x0000000000000000       0x22 build/sam_e70_xult_freertos/production/_ext/810785262/tcpip_helpers.o
 .text.TCPIP_Helper_ProtectedDoubleListDeinitialize
                0x0000000000000000       0x30 build/sam_e70_xult_freertos/production/_ext/810785262/tcpip_helpers.o
 .text.TCPIP_Helper_ProtectedDoubleListHeadAdd
                0x0000000000000000       0x2a build/sam_e70_xult_freertos/production/_ext/810785262/tcpip_helpers.o
 .text.TCPIP_Helper_ProtectedDoubleListTailAdd
                0x0000000000000000       0x2a build/sam_e70_xult_freertos/production/_ext/810785262/tcpip_helpers.o
 .text.TCPIP_Helper_ProtectedDoubleListMidAdd
                0x0000000000000000       0x2e build/sam_e70_xult_freertos/production/_ext/810785262/tcpip_helpers.o
 .text.TCPIP_Helper_ProtectedDoubleListHeadRemove
                0x0000000000000000       0x2c build/sam_e70_xult_freertos/production/_ext/810785262/tcpip_helpers.o
 .text.TCPIP_Helper_ProtectedDoubleListTailRemove
                0x0000000000000000       0x2c build/sam_e70_xult_freertos/production/_ext/810785262/tcpip_helpers.o
 .text.TCPIP_Helper_ProtectedDoubleListMidRemove
                0x0000000000000000       0x2a build/sam_e70_xult_freertos/production/_ext/810785262/tcpip_helpers.o
 .text.TCPIP_Helper_ProtectedDoubleListNodeRemove
                0x0000000000000000       0x2a build/sam_e70_xult_freertos/production/_ext/810785262/tcpip_helpers.o
 .text.TCPIP_Helper_ProtectedDoubleListRemoveAll
                0x0000000000000000       0x2a build/sam_e70_xult_freertos/production/_ext/810785262/tcpip_helpers.o
 .text.TCPIP_Helper_ProtectedDoubleListLock
                0x0000000000000000       0x14 build/sam_e70_xult_freertos/production/_ext/810785262/tcpip_helpers.o
 .text.TCPIP_Helper_ProtectedDoubleListUnlock
                0x0000000000000000       0x10 build/sam_e70_xult_freertos/production/_ext/810785262/tcpip_helpers.o
 .text.TCPIP_Helper_TCPSecurePortGet
                0x0000000000000000       0x16 build/sam_e70_xult_freertos/production/_ext/810785262/tcpip_helpers.o
 .text.TCPIP_Helper_UDPSecurePortGet
                0x0000000000000000       0x16 build/sam_e70_xult_freertos/production/_ext/810785262/tcpip_helpers.o
 .text.TCPIP_Helper_SecurePortGetByIndex
                0x0000000000000000       0x34 build/sam_e70_xult_freertos/production/_ext/810785262/tcpip_helpers.o
 .text.TCPIP_Helper_SecurePortSet
                0x0000000000000000       0x5e build/sam_e70_xult_freertos/production/_ext/810785262/tcpip_helpers.o
 .data.tcpSecurePortTbl
                0x0000000000000000       0x28 build/sam_e70_xult_freertos/production/_ext/810785262/tcpip_helpers.o
 .text          0x0000000000000000        0x0 build/sam_e70_xult_freertos/production/_ext/810785262/tcpip_manager.o
 .data          0x0000000000000000        0x0 build/sam_e70_xult_freertos/production/_ext/810785262/tcpip_manager.o
 .bss           0x0000000000000000        0x0 build/sam_e70_xult_freertos/production/_ext/810785262/tcpip_manager.o
 .text._NetConfigStringToBuffer
                0x0000000000000000       0x54 build/sam_e70_xult_freertos/production/_ext/810785262/tcpip_manager.o
 .text.TCPIP_STACK_NetMulticastGet
                0x0000000000000000        0x4 build/sam_e70_xult_freertos/production/_ext/810785262/tcpip_manager.o
 .text.TCPIP_STACK_NetMulticastSet
                0x0000000000000000        0x4 build/sam_e70_xult_freertos/production/_ext/810785262/tcpip_manager.o
 .text.TCPIP_STACK_MacToNet
                0x0000000000000000       0x3c build/sam_e70_xult_freertos/production/_ext/810785262/tcpip_manager.o
 .text.TCPIP_STACK_MacToNetIndex
                0x0000000000000000       0x44 build/sam_e70_xult_freertos/production/_ext/810785262/tcpip_manager.o
 .text.TCPIP_STACK_MACObjectGet
                0x0000000000000000        0xa build/sam_e70_xult_freertos/production/_ext/810785262/tcpip_manager.o
 .text.TCPIP_STACK_NetAddressDnsSecond
                0x0000000000000000       0x18 build/sam_e70_xult_freertos/production/_ext/810785262/tcpip_manager.o
 .text.TCPIP_STACK_NetAddressDnsSecondSet
                0x0000000000000000       0x1c build/sam_e70_xult_freertos/production/_ext/810785262/tcpip_manager.o
 .text.TCPIP_STACK_NetMACIdGet
                0x0000000000000000       0x18 build/sam_e70_xult_freertos/production/_ext/810785262/tcpip_manager.o
 .text.TCPIP_STACK_ModuleConfigGet
                0x0000000000000000       0x4c build/sam_e70_xult_freertos/production/_ext/810785262/tcpip_manager.o
 .text.TCPIP_STACK_NetConfigGet
                0x0000000000000000       0x44 build/sam_e70_xult_freertos/production/_ext/810785262/tcpip_manager.o
 .text.TCPIP_STACK_NetConfigSet
                0x0000000000000000      0x1b2 build/sam_e70_xult_freertos/production/_ext/810785262/tcpip_manager.o
 .text.TCPIP_STACK_MACIdToString
                0x0000000000000000       0x3c build/sam_e70_xult_freertos/production/_ext/810785262/tcpip_manager.o
 .text.TCPIP_STACK_EventsPendingGet
                0x0000000000000000       0x20 build/sam_e70_xult_freertos/production/_ext/810785262/tcpip_manager.o
 .text.TCPIP_STACK_NetStaticIPv6AddressGet
                0x0000000000000000        0x4 build/sam_e70_xult_freertos/production/_ext/810785262/tcpip_manager.o
 .text.TCPIP_STACK_NetDefaultIPv6GatewayGet
                0x0000000000000000        0x4 build/sam_e70_xult_freertos/production/_ext/810785262/tcpip_manager.o
 .text.TCPIP_STACK_AddressIsOfNetUp
                0x0000000000000000       0x34 build/sam_e70_xult_freertos/production/_ext/810785262/tcpip_manager.o
 .text.TCPIP_STACK_NetMACId
                0x0000000000000000        0xc build/sam_e70_xult_freertos/production/_ext/810785262/tcpip_manager.o
 .text.TCPIP_STACK_NetToMAC
                0x0000000000000000        0xa build/sam_e70_xult_freertos/production/_ext/810785262/tcpip_manager.o
 .text.TCPIP_STACK_VersionGet
                0x0000000000000000        0x8 build/sam_e70_xult_freertos/production/_ext/810785262/tcpip_manager.o
 .text.TCPIP_STACK_VersionStrGet
                0x0000000000000000        0x8 build/sam_e70_xult_freertos/production/_ext/810785262/tcpip_manager.o
 .text.TCPIP_MODULE_SignalFunctionRegister
                0x0000000000000000       0x3c build/sam_e70_xult_freertos/production/_ext/810785262/tcpip_manager.o
 .text.TCPIP_MODULE_SignalFunctionDeregister
                0x0000000000000000        0xe build/sam_e70_xult_freertos/production/_ext/810785262/tcpip_manager.o
 .text.TCPIP_MODULE_SignalGet
                0x0000000000000000       0x2c build/sam_e70_xult_freertos/production/_ext/810785262/tcpip_manager.o
 .text.TCPIP_STACK_HEAP_Size
                0x0000000000000000        0xe build/sam_e70_xult_freertos/production/_ext/810785262/tcpip_manager.o
 .text.TCPIP_STACK_HEAP_MaxSize
                0x0000000000000000        0xe build/sam_e70_xult_freertos/production/_ext/810785262/tcpip_manager.o
 .text.TCPIP_STACK_HEAP_FreeSize
                0x0000000000000000        0xe build/sam_e70_xult_freertos/production/_ext/810785262/tcpip_manager.o
 .text.TCPIP_STACK_HEAP_HighWatermark
                0x0000000000000000        0xe build/sam_e70_xult_freertos/production/_ext/810785262/tcpip_manager.o
 .text.TCPIP_STACK_HEAP_LastError
                0x0000000000000000       0x10 build/sam_e70_xult_freertos/production/_ext/810785262/tcpip_manager.o
 .text._TCPIPStackHeapConfig
                0x0000000000000000        0x8 build/sam_e70_xult_freertos/production/_ext/810785262/tcpip_manager.o
 .text          0x0000000000000000        0x0 build/sam_e70_xult_freertos/production/_ext/810785262/tcpip_notify.o
 .data          0x0000000000000000        0x0 build/sam_e70_xult_freertos/production/_ext/810785262/tcpip_notify.o
 .bss           0x0000000000000000        0x0 build/sam_e70_xult_freertos/production/_ext/810785262/tcpip_notify.o
 .text          0x0000000000000000        0x0 build/sam_e70_xult_freertos/production/_ext/810785262/tcpip_packet.o
 .data          0x0000000000000000        0x0 build/sam_e70_xult_freertos/production/_ext/810785262/tcpip_packet.o
 .bss           0x0000000000000000        0x0 build/sam_e70_xult_freertos/production/_ext/810785262/tcpip_packet.o
 .text.TCPIP_PKT_SegmentAppend
                0x0000000000000000       0x14 build/sam_e70_xult_freertos/production/_ext/810785262/tcpip_packet.o
 .text._TCPIP_PKT_SegmentAlloc
                0x0000000000000000       0x60 build/sam_e70_xult_freertos/production/_ext/810785262/tcpip_packet.o
 .text._TCPIP_PKT_SegmentFree
                0x0000000000000000       0x1c build/sam_e70_xult_freertos/production/_ext/810785262/tcpip_packet.o
 .text          0x0000000000000000        0x0 build/sam_e70_xult_freertos/production/_ext/810785262/udp.o
 .data          0x0000000000000000        0x0 build/sam_e70_xult_freertos/production/_ext/810785262/udp.o
 .bss           0x0000000000000000        0x0 build/sam_e70_xult_freertos/production/_ext/810785262/udp.o
 .text.TCPIP_UDP_OpenServerSkt
                0x0000000000000000       0xc8 build/sam_e70_xult_freertos/production/_ext/810785262/udp.o
 .text.TCPIP_UDP_ServerOpen
                0x0000000000000000        0xa build/sam_e70_xult_freertos/production/_ext/810785262/udp.o
 .text.TCPIP_UDP_IsConnected
                0x0000000000000000       0x2c build/sam_e70_xult_freertos/production/_ext/810785262/udp.o
 .text.TCPIP_UDP_Put
                0x0000000000000000       0x18 build/sam_e70_xult_freertos/production/_ext/810785262/udp.o
 .text.TCPIP_UDP_StringPut
                0x0000000000000000       0x2a build/sam_e70_xult_freertos/production/_ext/810785262/udp.o
 .text.TCPIP_UDP_TxCountGet
                0x0000000000000000       0x22 build/sam_e70_xult_freertos/production/_ext/810785262/udp.o
 .text.TCPIP_UDP_Get
                0x0000000000000000        0xa build/sam_e70_xult_freertos/production/_ext/810785262/udp.o
 .text.TCPIP_UDP_SocketNetGet
                0x0000000000000000       0x10 build/sam_e70_xult_freertos/production/_ext/810785262/udp.o
 .text.TCPIP_UDP_RemoteBind
                0x0000000000000000       0xa6 build/sam_e70_xult_freertos/production/_ext/810785262/udp.o
 .text.TCPIP_UDP_SetSplitPayload
                0x0000000000000000       0x56 build/sam_e70_xult_freertos/production/_ext/810785262/udp.o
 .text.TCPIP_UDP_SignalHandlerDeregister
                0x0000000000000000       0x24 build/sam_e70_xult_freertos/production/_ext/810785262/udp.o
 .text.TCPIP_UDP_SocketsNumberGet
                0x0000000000000000        0xc build/sam_e70_xult_freertos/production/_ext/810785262/udp.o
 .text          0x0000000000000000        0x0 build/sam_e70_xult_freertos/production/_ext/45647770/plib_clk.o
 .data          0x0000000000000000        0x0 build/sam_e70_xult_freertos/production/_ext/45647770/plib_clk.o
 .bss           0x0000000000000000        0x0 build/sam_e70_xult_freertos/production/_ext/45647770/plib_clk.o
 .text          0x0000000000000000        0x0 build/sam_e70_xult_freertos/production/_ext/45638026/plib_mpu.o
 .data          0x0000000000000000        0x0 build/sam_e70_xult_freertos/production/_ext/45638026/plib_mpu.o
 .bss           0x0000000000000000        0x0 build/sam_e70_xult_freertos/production/_ext/45638026/plib_mpu.o
 .text          0x0000000000000000        0x0 build/sam_e70_xult_freertos/production/_ext/1414743522/plib_nvic.o
 .data          0x0000000000000000        0x0 build/sam_e70_xult_freertos/production/_ext/1414743522/plib_nvic.o
 .bss           0x0000000000000000        0x0 build/sam_e70_xult_freertos/production/_ext/1414743522/plib_nvic.o
 .text          0x0000000000000000        0x0 build/sam_e70_xult_freertos/production/_ext/45635366/plib_pio.o
 .data          0x0000000000000000        0x0 build/sam_e70_xult_freertos/production/_ext/45635366/plib_pio.o
 .bss           0x0000000000000000        0x0 build/sam_e70_xult_freertos/production/_ext/45635366/plib_pio.o
 .text.PIO_PortRead
                0x0000000000000000        0x4 build/sam_e70_xult_freertos/production/_ext/45635366/plib_pio.o
 .text.PIO_PortWrite
                0x0000000000000000        0xc build/sam_e70_xult_freertos/production/_ext/45635366/plib_pio.o
 .text.PIO_PortLatchRead
                0x0000000000000000        0x4 build/sam_e70_xult_freertos/production/_ext/45635366/plib_pio.o
 .text.PIO_PortSet
                0x0000000000000000        0x4 build/sam_e70_xult_freertos/production/_ext/45635366/plib_pio.o
 .text.PIO_PortClear
                0x0000000000000000        0x4 build/sam_e70_xult_freertos/production/_ext/45635366/plib_pio.o
 .text.PIO_PortToggle
                0x0000000000000000        0x8 build/sam_e70_xult_freertos/production/_ext/45635366/plib_pio.o
 .text.PIO_PortInputEnable
                0x0000000000000000        0x4 build/sam_e70_xult_freertos/production/_ext/45635366/plib_pio.o
 .text.PIO_PortOutputEnable
                0x0000000000000000        0x4 build/sam_e70_xult_freertos/production/_ext/45635366/plib_pio.o
 .text          0x0000000000000000        0x0 build/sam_e70_xult_freertos/production/_ext/1245453995/plib_tc0.o
 .data          0x0000000000000000        0x0 build/sam_e70_xult_freertos/production/_ext/1245453995/plib_tc0.o
 .bss           0x0000000000000000        0x0 build/sam_e70_xult_freertos/production/_ext/1245453995/plib_tc0.o
 .text.TC0_CH0_TimerPeriodGet
                0x0000000000000000        0xc build/sam_e70_xult_freertos/production/_ext/1245453995/plib_tc0.o
 .text          0x0000000000000000        0x0 build/sam_e70_xult_freertos/production/_ext/901008055/plib_usart1.o
 .data          0x0000000000000000        0x0 build/sam_e70_xult_freertos/production/_ext/901008055/plib_usart1.o
 .bss           0x0000000000000000        0x0 build/sam_e70_xult_freertos/production/_ext/901008055/plib_usart1.o
 .text.USART1_SerialSetup
                0x0000000000000000       0x74 build/sam_e70_xult_freertos/production/_ext/901008055/plib_usart1.o
 .text.USART1_WriteIsBusy
                0x0000000000000000        0xc build/sam_e70_xult_freertos/production/_ext/901008055/plib_usart1.o
 .text.USART1_ReadIsBusy
                0x0000000000000000        0xc build/sam_e70_xult_freertos/production/_ext/901008055/plib_usart1.o
 .text.USART1_WriteCountGet
                0x0000000000000000        0xc build/sam_e70_xult_freertos/production/_ext/901008055/plib_usart1.o
 .text.USART1_ReadCountGet
                0x0000000000000000        0xc build/sam_e70_xult_freertos/production/_ext/901008055/plib_usart1.o
 .text          0x0000000000000000        0x0 build/sam_e70_xult_freertos/production/_ext/146190766/xc32_monitor.o
 .data          0x0000000000000000        0x0 build/sam_e70_xult_freertos/production/_ext/146190766/xc32_monitor.o
 .bss           0x0000000000000000        0x0 build/sam_e70_xult_freertos/production/_ext/146190766/xc32_monitor.o
 .text._mon_getc
                0x0000000000000000        0x4 build/sam_e70_xult_freertos/production/_ext/146190766/xc32_monitor.o
 .text._mon_putc
                0x0000000000000000        0x2 build/sam_e70_xult_freertos/production/_ext/146190766/xc32_monitor.o
 .debug_info    0x0000000000000000      0x23c build/sam_e70_xult_freertos/production/_ext/146190766/xc32_monitor.o
 .debug_abbrev  0x0000000000000000       0x75 build/sam_e70_xult_freertos/production/_ext/146190766/xc32_monitor.o
 .debug_loc     0x0000000000000000       0x21 build/sam_e70_xult_freertos/production/_ext/146190766/xc32_monitor.o
 .debug_aranges
                0x0000000000000000       0x28 build/sam_e70_xult_freertos/production/_ext/146190766/xc32_monitor.o
 .debug_ranges  0x0000000000000000       0x18 build/sam_e70_xult_freertos/production/_ext/146190766/xc32_monitor.o
 .debug_line    0x0000000000000000       0x78 build/sam_e70_xult_freertos/production/_ext/146190766/xc32_monitor.o
 .debug_str     0x0000000000000000        0x0 build/sam_e70_xult_freertos/production/_ext/146190766/xc32_monitor.o
 .comment       0x0000000000000000       0x3d build/sam_e70_xult_freertos/production/_ext/146190766/xc32_monitor.o
 .debug_frame   0x0000000000000000       0x30 build/sam_e70_xult_freertos/production/_ext/146190766/xc32_monitor.o
 .ARM.attributes
                0x0000000000000000       0x37 build/sam_e70_xult_freertos/production/_ext/146190766/xc32_monitor.o
 .text          0x0000000000000000        0x0 build/sam_e70_xult_freertos/production/_ext/992551865/sys_cache.o
 .data          0x0000000000000000        0x0 build/sam_e70_xult_freertos/production/_ext/992551865/sys_cache.o
 .bss           0x0000000000000000        0x0 build/sam_e70_xult_freertos/production/_ext/992551865/sys_cache.o
 .text.SYS_CACHE_EnableCaches
                0x0000000000000000       0xa4 build/sam_e70_xult_freertos/production/_ext/992551865/sys_cache.o
 .text.SYS_CACHE_DisableCaches
                0x0000000000000000       0x9c build/sam_e70_xult_freertos/production/_ext/992551865/sys_cache.o
 .text.SYS_CACHE_EnableICache
                0x0000000000000000       0x38 build/sam_e70_xult_freertos/production/_ext/992551865/sys_cache.o
 .text.SYS_CACHE_DisableICache
                0x0000000000000000       0x30 build/sam_e70_xult_freertos/production/_ext/992551865/sys_cache.o
 .text.SYS_CACHE_InvalidateICache
                0x0000000000000000       0x28 build/sam_e70_xult_freertos/production/_ext/992551865/sys_cache.o
 .text.SYS_CACHE_EnableDCache
                0x0000000000000000       0x74 build/sam_e70_xult_freertos/production/_ext/992551865/sys_cache.o
 .text.SYS_CACHE_DisableDCache
                0x0000000000000000       0x74 build/sam_e70_xult_freertos/production/_ext/992551865/sys_cache.o
 .text.SYS_CACHE_InvalidateDCache
                0x0000000000000000       0x68 build/sam_e70_xult_freertos/production/_ext/992551865/sys_cache.o
 .text.SYS_CACHE_CleanDCache
                0x0000000000000000       0x68 build/sam_e70_xult_freertos/production/_ext/992551865/sys_cache.o
 .text.SYS_CACHE_CleanInvalidateDCache
                0x0000000000000000       0x68 build/sam_e70_xult_freertos/production/_ext/992551865/sys_cache.o
 .text.SYS_CACHE_InvalidateDCache_by_Addr
                0x0000000000000000       0x30 build/sam_e70_xult_freertos/production/_ext/992551865/sys_cache.o
 .text.SYS_CACHE_CleanDCache_by_Addr
                0x0000000000000000       0x30 build/sam_e70_xult_freertos/production/_ext/992551865/sys_cache.o
 .text.SYS_CACHE_CleanInvalidateDCache_by_Addr
                0x0000000000000000       0x30 build/sam_e70_xult_freertos/production/_ext/992551865/sys_cache.o
 .debug_info    0x0000000000000000     0x138c build/sam_e70_xult_freertos/production/_ext/992551865/sys_cache.o
 .debug_abbrev  0x0000000000000000      0x181 build/sam_e70_xult_freertos/production/_ext/992551865/sys_cache.o
 .debug_loc     0x0000000000000000      0x4ac build/sam_e70_xult_freertos/production/_ext/992551865/sys_cache.o
 .debug_aranges
                0x0000000000000000       0x80 build/sam_e70_xult_freertos/production/_ext/992551865/sys_cache.o
 .debug_ranges  0x0000000000000000       0x70 build/sam_e70_xult_freertos/production/_ext/992551865/sys_cache.o
 .debug_line    0x0000000000000000      0x418 build/sam_e70_xult_freertos/production/_ext/992551865/sys_cache.o
 .debug_str     0x0000000000000000       0x25 build/sam_e70_xult_freertos/production/_ext/992551865/sys_cache.o
 .comment       0x0000000000000000       0x3d build/sam_e70_xult_freertos/production/_ext/992551865/sys_cache.o
 .debug_frame   0x0000000000000000      0x150 build/sam_e70_xult_freertos/production/_ext/992551865/sys_cache.o
 .ARM.attributes
                0x0000000000000000       0x37 build/sam_e70_xult_freertos/production/_ext/992551865/sys_cache.o
 .text          0x0000000000000000        0x0 build/sam_e70_xult_freertos/production/_ext/762686499/sys_console.o
 .data          0x0000000000000000        0x0 build/sam_e70_xult_freertos/production/_ext/762686499/sys_console.o
 .bss           0x0000000000000000        0x0 build/sam_e70_xult_freertos/production/_ext/762686499/sys_console.o
 .text.SYS_CONSOLE_Tasks
                0x0000000000000000       0x2c build/sam_e70_xult_freertos/production/_ext/762686499/sys_console.o
 .text.SYS_CONSOLE_RegisterCallback
                0x0000000000000000       0x28 build/sam_e70_xult_freertos/production/_ext/762686499/sys_console.o
 .text          0x0000000000000000        0x0 build/sam_e70_xult_freertos/production/_ext/762686499/sys_console_uart.o
 .data          0x0000000000000000        0x0 build/sam_e70_xult_freertos/production/_ext/762686499/sys_console_uart.o
 .bss           0x0000000000000000        0x0 build/sam_e70_xult_freertos/production/_ext/762686499/sys_console_uart.o
 .text          0x0000000000000000        0x0 build/sam_e70_xult_freertos/production/_ext/762686499/sys_debug.o
 .data          0x0000000000000000        0x0 build/sam_e70_xult_freertos/production/_ext/762686499/sys_debug.o
 .bss           0x0000000000000000        0x0 build/sam_e70_xult_freertos/production/_ext/762686499/sys_debug.o
 .text.SYS_DEBUG_Tasks
                0x0000000000000000        0x2 build/sam_e70_xult_freertos/production/_ext/762686499/sys_debug.o
 .text.SYS_DEBUG_Status
                0x0000000000000000        0xc build/sam_e70_xult_freertos/production/_ext/762686499/sys_debug.o
 .text.SYS_DEBUG_Message
                0x0000000000000000       0x1c build/sam_e70_xult_freertos/production/_ext/762686499/sys_debug.o
 .text.SYS_DEBUG_ErrorLevelSet
                0x0000000000000000        0xc build/sam_e70_xult_freertos/production/_ext/762686499/sys_debug.o
 .text          0x0000000000000000        0x0 build/sam_e70_xult_freertos/production/_ext/762686499/sys_command.o
 .data          0x0000000000000000        0x0 build/sam_e70_xult_freertos/production/_ext/762686499/sys_command.o
 .bss           0x0000000000000000        0x0 build/sam_e70_xult_freertos/production/_ext/762686499/sys_command.o
 .text.SYS_CMD_RegisterCallback
                0x0000000000000000       0x2c build/sam_e70_xult_freertos/production/_ext/762686499/sys_command.o
 .text.SYS_CMD_READY_TO_WRITE
                0x0000000000000000       0x48 build/sam_e70_xult_freertos/production/_ext/762686499/sys_command.o
 .text          0x0000000000000000        0x0 build/sam_e70_xult_freertos/production/_ext/1775855163/sys_int.o
 .data          0x0000000000000000        0x0 build/sam_e70_xult_freertos/production/_ext/1775855163/sys_int.o
 .bss           0x0000000000000000        0x0 build/sam_e70_xult_freertos/production/_ext/1775855163/sys_int.o
 .text.SYS_INT_Enable
                0x0000000000000000        0x8 build/sam_e70_xult_freertos/production/_ext/1775855163/sys_int.o
 .text          0x0000000000000000        0x0 build/sam_e70_xult_freertos/production/_ext/912870411/sys_time.o
 .data          0x0000000000000000        0x0 build/sam_e70_xult_freertos/production/_ext/912870411/sys_time.o
 .bss           0x0000000000000000        0x0 build/sam_e70_xult_freertos/production/_ext/912870411/sys_time.o
 .text.SYS_TIME_Deinitialize
                0x0000000000000000       0x30 build/sam_e70_xult_freertos/production/_ext/912870411/sys_time.o
 .text.SYS_TIME_Status
                0x0000000000000000       0x14 build/sam_e70_xult_freertos/production/_ext/912870411/sys_time.o
 .text.SYS_TIME_CounterGet
                0x0000000000000000        0x8 build/sam_e70_xult_freertos/production/_ext/912870411/sys_time.o
 .text.SYS_TIME_CounterSet
                0x0000000000000000       0x20 build/sam_e70_xult_freertos/production/_ext/912870411/sys_time.o
 .text.SYS_TIME_CountToUS
                0x0000000000000000       0x34 build/sam_e70_xult_freertos/production/_ext/912870411/sys_time.o
 .text.SYS_TIME_CountToMS
                0x0000000000000000       0x34 build/sam_e70_xult_freertos/production/_ext/912870411/sys_time.o
 .text.SYS_TIME_USToCount
                0x0000000000000000       0x3c build/sam_e70_xult_freertos/production/_ext/912870411/sys_time.o
 .text.SYS_TIME_TimerCreate
                0x0000000000000000       0x1c build/sam_e70_xult_freertos/production/_ext/912870411/sys_time.o
 .text.SYS_TIME_TimerReload
                0x0000000000000000       0x8c build/sam_e70_xult_freertos/production/_ext/912870411/sys_time.o
 .text.SYS_TIME_TimerStop
                0x0000000000000000       0x3c build/sam_e70_xult_freertos/production/_ext/912870411/sys_time.o
 .text.SYS_TIME_TimerCounterGet
                0x0000000000000000       0x78 build/sam_e70_xult_freertos/production/_ext/912870411/sys_time.o
 .text.SYS_TIME_TimerPeriodHasExpired
                0x0000000000000000       0x28 build/sam_e70_xult_freertos/production/_ext/912870411/sys_time.o
 .text.SYS_TIME_DelayUS
                0x0000000000000000       0x3c build/sam_e70_xult_freertos/production/_ext/912870411/sys_time.o
 .text.SYS_TIME_DelayMS
                0x0000000000000000       0x3c build/sam_e70_xult_freertos/production/_ext/912870411/sys_time.o
 .text.SYS_TIME_DelayIsComplete
                0x0000000000000000       0x18 build/sam_e70_xult_freertos/production/_ext/912870411/sys_time.o
 .text.SYS_TIME_CallbackRegisterUS
                0x0000000000000000       0x50 build/sam_e70_xult_freertos/production/_ext/912870411/sys_time.o
 .text          0x0000000000000000        0x0 build/sam_e70_xult_freertos/production/_ext/231871610/sys_time_h2_adapter.o
 .data          0x0000000000000000        0x0 build/sam_e70_xult_freertos/production/_ext/231871610/sys_time_h2_adapter.o
 .bss           0x0000000000000000        0x0 build/sam_e70_xult_freertos/production/_ext/231871610/sys_time_h2_adapter.o
 .text          0x0000000000000000        0x0 build/sam_e70_xult_freertos/production/_ext/1552905064/tasks.o
 .data          0x0000000000000000        0x0 build/sam_e70_xult_freertos/production/_ext/1552905064/tasks.o
 .bss           0x0000000000000000        0x0 build/sam_e70_xult_freertos/production/_ext/1552905064/tasks.o
 .text          0x0000000000000000        0x0 build/sam_e70_xult_freertos/production/_ext/1552905064/initialization.o
 .data          0x0000000000000000        0x0 build/sam_e70_xult_freertos/production/_ext/1552905064/initialization.o
 .bss           0x0000000000000000        0x0 build/sam_e70_xult_freertos/production/_ext/1552905064/initialization.o
 .rodata.tcpipICMPInitData
                0x0000000000000000        0x4 build/sam_e70_xult_freertos/production/_ext/1552905064/initialization.o
 .text          0x0000000000000000        0x0 build/sam_e70_xult_freertos/production/_ext/1552905064/interrupts.o
 .data          0x0000000000000000        0x0 build/sam_e70_xult_freertos/production/_ext/1552905064/interrupts.o
 .bss           0x0000000000000000        0x0 build/sam_e70_xult_freertos/production/_ext/1552905064/interrupts.o
 .text          0x0000000000000000        0x0 build/sam_e70_xult_freertos/production/_ext/1552905064/exceptions.o
 .data          0x0000000000000000        0x0 build/sam_e70_xult_freertos/production/_ext/1552905064/exceptions.o
 .bss           0x0000000000000000        0x0 build/sam_e70_xult_freertos/production/_ext/1552905064/exceptions.o
 .text          0x0000000000000000        0x0 build/sam_e70_xult_freertos/production/_ext/1552905064/startup_xc32.o
 .data          0x0000000000000000        0x0 build/sam_e70_xult_freertos/production/_ext/1552905064/startup_xc32.o
 .bss           0x0000000000000000        0x0 build/sam_e70_xult_freertos/production/_ext/1552905064/startup_xc32.o
 .text          0x0000000000000000        0x0 build/sam_e70_xult_freertos/production/_ext/1552905064/libc_syscalls.o
 .data          0x0000000000000000        0x0 build/sam_e70_xult_freertos/production/_ext/1552905064/libc_syscalls.o
 .bss           0x0000000000000000        0x0 build/sam_e70_xult_freertos/production/_ext/1552905064/libc_syscalls.o
 .text._exit    0x0000000000000000        0x2 build/sam_e70_xult_freertos/production/_ext/1552905064/libc_syscalls.o
 .debug_info    0x0000000000000000      0xe55 build/sam_e70_xult_freertos/production/_ext/1552905064/libc_syscalls.o
 .debug_abbrev  0x0000000000000000      0x1a8 build/sam_e70_xult_freertos/production/_ext/1552905064/libc_syscalls.o
 .debug_aranges
                0x0000000000000000       0x20 build/sam_e70_xult_freertos/production/_ext/1552905064/libc_syscalls.o
 .debug_ranges  0x0000000000000000       0x10 build/sam_e70_xult_freertos/production/_ext/1552905064/libc_syscalls.o
 .debug_line    0x0000000000000000      0x1d1 build/sam_e70_xult_freertos/production/_ext/1552905064/libc_syscalls.o
 .debug_str     0x0000000000000000        0xe build/sam_e70_xult_freertos/production/_ext/1552905064/libc_syscalls.o
 .comment       0x0000000000000000       0x3d build/sam_e70_xult_freertos/production/_ext/1552905064/libc_syscalls.o
 .debug_frame   0x0000000000000000       0x20 build/sam_e70_xult_freertos/production/_ext/1552905064/libc_syscalls.o
 .ARM.attributes
                0x0000000000000000       0x37 build/sam_e70_xult_freertos/production/_ext/1552905064/libc_syscalls.o
 .text          0x0000000000000000        0x0 build/sam_e70_xult_freertos/production/_ext/1552905064/freertos_hooks.o
 .data          0x0000000000000000        0x0 build/sam_e70_xult_freertos/production/_ext/1552905064/freertos_hooks.o
 .bss           0x0000000000000000        0x0 build/sam_e70_xult_freertos/production/_ext/1552905064/freertos_hooks.o
 .text.vApplicationIdleHook
                0x0000000000000000        0x2 build/sam_e70_xult_freertos/production/_ext/1552905064/freertos_hooks.o
 .text.vApplicationTickHook
                0x0000000000000000        0x2 build/sam_e70_xult_freertos/production/_ext/1552905064/freertos_hooks.o
 .text.vAssertCalled
                0x0000000000000000       0x1c build/sam_e70_xult_freertos/production/_ext/1552905064/freertos_hooks.o
 .text          0x0000000000000000        0x0 build/sam_e70_xult_freertos/production/_ext/977623654/port.o
 .data          0x0000000000000000        0x0 build/sam_e70_xult_freertos/production/_ext/977623654/port.o
 .bss           0x0000000000000000        0x0 build/sam_e70_xult_freertos/production/_ext/977623654/port.o
 .text.vPortEndScheduler
                0x0000000000000000        0x2 build/sam_e70_xult_freertos/production/_ext/977623654/port.o
 .text          0x0000000000000000        0x0 build/sam_e70_xult_freertos/production/_ext/1665200909/heap_3.o
 .data          0x0000000000000000        0x0 build/sam_e70_xult_freertos/production/_ext/1665200909/heap_3.o
 .bss           0x0000000000000000        0x0 build/sam_e70_xult_freertos/production/_ext/1665200909/heap_3.o
 .text          0x0000000000000000        0x0 build/sam_e70_xult_freertos/production/_ext/404212886/croutine.o
 .data          0x0000000000000000        0x0 build/sam_e70_xult_freertos/production/_ext/404212886/croutine.o
 .bss           0x0000000000000000        0x0 build/sam_e70_xult_freertos/production/_ext/404212886/croutine.o
 .debug_info    0x0000000000000000      0x281 build/sam_e70_xult_freertos/production/_ext/404212886/croutine.o
 .debug_abbrev  0x0000000000000000       0x1b build/sam_e70_xult_freertos/production/_ext/404212886/croutine.o
 .debug_aranges
                0x0000000000000000       0x18 build/sam_e70_xult_freertos/production/_ext/404212886/croutine.o
 .debug_line    0x0000000000000000       0x1d build/sam_e70_xult_freertos/production/_ext/404212886/croutine.o
 .debug_str     0x0000000000000000        0x0 build/sam_e70_xult_freertos/production/_ext/404212886/croutine.o
 .comment       0x0000000000000000       0x3d build/sam_e70_xult_freertos/production/_ext/404212886/croutine.o
 .ARM.attributes
                0x0000000000000000       0x37 build/sam_e70_xult_freertos/production/_ext/404212886/croutine.o
 .text          0x0000000000000000        0x0 build/sam_e70_xult_freertos/production/_ext/404212886/list.o
 .data          0x0000000000000000        0x0 build/sam_e70_xult_freertos/production/_ext/404212886/list.o
 .bss           0x0000000000000000        0x0 build/sam_e70_xult_freertos/production/_ext/404212886/list.o
 .text          0x0000000000000000        0x0 build/sam_e70_xult_freertos/production/_ext/404212886/queue.o
 .data          0x0000000000000000        0x0 build/sam_e70_xult_freertos/production/_ext/404212886/queue.o
 .bss           0x0000000000000000        0x0 build/sam_e70_xult_freertos/production/_ext/404212886/queue.o
 .text.prvCopyDataFromQueue
                0x0000000000000000       0x24 build/sam_e70_xult_freertos/production/_ext/404212886/queue.o
 .text.xQueueGenericSendFromISR
                0x0000000000000000       0x6e build/sam_e70_xult_freertos/production/_ext/404212886/queue.o
 .text.xQueueGiveFromISR
                0x0000000000000000       0x64 build/sam_e70_xult_freertos/production/_ext/404212886/queue.o
 .text.xQueueReceive
                0x0000000000000000      0x114 build/sam_e70_xult_freertos/production/_ext/404212886/queue.o
 .text.xQueuePeek
                0x0000000000000000      0x110 build/sam_e70_xult_freertos/production/_ext/404212886/queue.o
 .text.xQueueReceiveFromISR
                0x0000000000000000       0x72 build/sam_e70_xult_freertos/production/_ext/404212886/queue.o
 .text.xQueuePeekFromISR
                0x0000000000000000       0x34 build/sam_e70_xult_freertos/production/_ext/404212886/queue.o
 .text.uxQueueMessagesWaiting
                0x0000000000000000       0x12 build/sam_e70_xult_freertos/production/_ext/404212886/queue.o
 .text.uxQueueSpacesAvailable
                0x0000000000000000       0x16 build/sam_e70_xult_freertos/production/_ext/404212886/queue.o
 .text.uxQueueMessagesWaitingFromISR
                0x0000000000000000        0x4 build/sam_e70_xult_freertos/production/_ext/404212886/queue.o
 .text.xQueueIsQueueEmptyFromISR
                0x0000000000000000        0xa build/sam_e70_xult_freertos/production/_ext/404212886/queue.o
 .text.xQueueIsQueueFullFromISR
                0x0000000000000000        0xe build/sam_e70_xult_freertos/production/_ext/404212886/queue.o
 .text          0x0000000000000000        0x0 build/sam_e70_xult_freertos/production/_ext/404212886/FreeRTOS_tasks.o
 .data          0x0000000000000000        0x0 build/sam_e70_xult_freertos/production/_ext/404212886/FreeRTOS_tasks.o
 .bss           0x0000000000000000        0x0 build/sam_e70_xult_freertos/production/_ext/404212886/FreeRTOS_tasks.o
 .text.prvTaskIsTaskSuspended
                0x0000000000000000       0x28 build/sam_e70_xult_freertos/production/_ext/404212886/FreeRTOS_tasks.o
 .text.vTaskDelete
                0x0000000000000000       0xcc build/sam_e70_xult_freertos/production/_ext/404212886/FreeRTOS_tasks.o
 .text.uxTaskPriorityGet
                0x0000000000000000       0x20 build/sam_e70_xult_freertos/production/_ext/404212886/FreeRTOS_tasks.o
 .text.uxTaskPriorityGetFromISR
                0x0000000000000000       0x2c build/sam_e70_xult_freertos/production/_ext/404212886/FreeRTOS_tasks.o
 .text.vTaskPrioritySet
                0x0000000000000000       0xd0 build/sam_e70_xult_freertos/production/_ext/404212886/FreeRTOS_tasks.o
 .text.vTaskResume
                0x0000000000000000       0x78 build/sam_e70_xult_freertos/production/_ext/404212886/FreeRTOS_tasks.o
 .text.xTaskResumeFromISR
                0x0000000000000000       0x8c build/sam_e70_xult_freertos/production/_ext/404212886/FreeRTOS_tasks.o
 .text.vTaskEndScheduler
                0x0000000000000000       0x28 build/sam_e70_xult_freertos/production/_ext/404212886/FreeRTOS_tasks.o
 .text.xTaskGetTickCount
                0x0000000000000000        0xc build/sam_e70_xult_freertos/production/_ext/404212886/FreeRTOS_tasks.o
 .text.xTaskGetTickCountFromISR
                0x0000000000000000        0xc build/sam_e70_xult_freertos/production/_ext/404212886/FreeRTOS_tasks.o
 .text.uxTaskGetNumberOfTasks
                0x0000000000000000        0xc build/sam_e70_xult_freertos/production/_ext/404212886/FreeRTOS_tasks.o
 .text.pcTaskGetName
                0x0000000000000000       0x14 build/sam_e70_xult_freertos/production/_ext/404212886/FreeRTOS_tasks.o
 .text.vTaskDelayUntil
                0x0000000000000000       0x68 build/sam_e70_xult_freertos/production/_ext/404212886/FreeRTOS_tasks.o
 .text.vTaskSuspend
                0x0000000000000000       0xd0 build/sam_e70_xult_freertos/production/_ext/404212886/FreeRTOS_tasks.o
 .text.vTaskPlaceOnUnorderedEventList
                0x0000000000000000       0x24 build/sam_e70_xult_freertos/production/_ext/404212886/FreeRTOS_tasks.o
 .text.vTaskRemoveFromUnorderedEventList
                0x0000000000000000       0x58 build/sam_e70_xult_freertos/production/_ext/404212886/FreeRTOS_tasks.o
 .text.vTaskSetTimeOutState
                0x0000000000000000       0x24 build/sam_e70_xult_freertos/production/_ext/404212886/FreeRTOS_tasks.o
 .text.xTaskGetCurrentTaskHandle
                0x0000000000000000        0xc build/sam_e70_xult_freertos/production/_ext/404212886/FreeRTOS_tasks.o
 .text.uxTaskResetEventItemValue
                0x0000000000000000       0x18 build/sam_e70_xult_freertos/production/_ext/404212886/FreeRTOS_tasks.o
 .text.ulTaskNotifyTake
                0x0000000000000000       0x78 build/sam_e70_xult_freertos/production/_ext/404212886/FreeRTOS_tasks.o
 .text.xTaskNotifyWait
                0x0000000000000000       0x98 build/sam_e70_xult_freertos/production/_ext/404212886/FreeRTOS_tasks.o
 .text.xTaskGenericNotify
                0x0000000000000000       0xb4 build/sam_e70_xult_freertos/production/_ext/404212886/FreeRTOS_tasks.o
 .text.xTaskGenericNotifyFromISR
                0x0000000000000000       0xd8 build/sam_e70_xult_freertos/production/_ext/404212886/FreeRTOS_tasks.o
 .text.vTaskNotifyGiveFromISR
                0x0000000000000000       0xa8 build/sam_e70_xult_freertos/production/_ext/404212886/FreeRTOS_tasks.o
 .text.xTaskNotifyStateClear
                0x0000000000000000       0x34 build/sam_e70_xult_freertos/production/_ext/404212886/FreeRTOS_tasks.o
 .text          0x0000000000000000        0x0 build/sam_e70_xult_freertos/production/_ext/404212886/timers.o
 .data          0x0000000000000000        0x0 build/sam_e70_xult_freertos/production/_ext/404212886/timers.o
 .bss           0x0000000000000000        0x0 build/sam_e70_xult_freertos/production/_ext/404212886/timers.o
 .debug_info    0x0000000000000000      0xdad build/sam_e70_xult_freertos/production/_ext/404212886/timers.o
 .debug_abbrev  0x0000000000000000      0x171 build/sam_e70_xult_freertos/production/_ext/404212886/timers.o
 .debug_aranges
                0x0000000000000000       0x18 build/sam_e70_xult_freertos/production/_ext/404212886/timers.o
 .debug_line    0x0000000000000000       0xfe build/sam_e70_xult_freertos/production/_ext/404212886/timers.o
 .debug_str     0x0000000000000000        0xe build/sam_e70_xult_freertos/production/_ext/404212886/timers.o
 .comment       0x0000000000000000       0x3d build/sam_e70_xult_freertos/production/_ext/404212886/timers.o
 .ARM.attributes
                0x0000000000000000       0x37 build/sam_e70_xult_freertos/production/_ext/404212886/timers.o
 .text          0x0000000000000000        0x0 build/sam_e70_xult_freertos/production/_ext/404212886/event_groups.o
 .data          0x0000000000000000        0x0 build/sam_e70_xult_freertos/production/_ext/404212886/event_groups.o
 .bss           0x0000000000000000        0x0 build/sam_e70_xult_freertos/production/_ext/404212886/event_groups.o
 .text.xEventGroupCreate
                0x0000000000000000       0x1a build/sam_e70_xult_freertos/production/_ext/404212886/event_groups.o
 .text.xEventGroupWaitBits
                0x0000000000000000       0xc0 build/sam_e70_xult_freertos/production/_ext/404212886/event_groups.o
 .text.xEventGroupClearBits
                0x0000000000000000       0x1a build/sam_e70_xult_freertos/production/_ext/404212886/event_groups.o
 .text.xEventGroupGetBitsFromISR
                0x0000000000000000       0x20 build/sam_e70_xult_freertos/production/_ext/404212886/event_groups.o
 .text.xEventGroupSetBits
                0x0000000000000000       0x74 build/sam_e70_xult_freertos/production/_ext/404212886/event_groups.o
 .text.xEventGroupSync
                0x0000000000000000       0x94 build/sam_e70_xult_freertos/production/_ext/404212886/event_groups.o
 .text.vEventGroupDelete
                0x0000000000000000       0x2a build/sam_e70_xult_freertos/production/_ext/404212886/event_groups.o
 .text.vEventGroupSetBitsCallback
                0x0000000000000000        0x8 build/sam_e70_xult_freertos/production/_ext/404212886/event_groups.o
 .text.vEventGroupClearBitsCallback
                0x0000000000000000        0x8 build/sam_e70_xult_freertos/production/_ext/404212886/event_groups.o
 .debug_info    0x0000000000000000     0x18c2 build/sam_e70_xult_freertos/production/_ext/404212886/event_groups.o
 .debug_abbrev  0x0000000000000000      0x3a8 build/sam_e70_xult_freertos/production/_ext/404212886/event_groups.o
 .debug_loc     0x0000000000000000      0x921 build/sam_e70_xult_freertos/production/_ext/404212886/event_groups.o
 .debug_aranges
                0x0000000000000000       0x60 build/sam_e70_xult_freertos/production/_ext/404212886/event_groups.o
 .debug_ranges  0x0000000000000000       0x98 build/sam_e70_xult_freertos/production/_ext/404212886/event_groups.o
 .debug_line    0x0000000000000000      0x3a1 build/sam_e70_xult_freertos/production/_ext/404212886/event_groups.o
 .debug_str     0x0000000000000000      0x1ba build/sam_e70_xult_freertos/production/_ext/404212886/event_groups.o
 .comment       0x0000000000000000       0x3d build/sam_e70_xult_freertos/production/_ext/404212886/event_groups.o
 .debug_frame   0x0000000000000000      0x100 build/sam_e70_xult_freertos/production/_ext/404212886/event_groups.o
 .ARM.attributes
                0x0000000000000000       0x37 build/sam_e70_xult_freertos/production/_ext/404212886/event_groups.o
 .text          0x0000000000000000        0x0 build/sam_e70_xult_freertos/production/_ext/404212886/stream_buffer.o
 .data          0x0000000000000000        0x0 build/sam_e70_xult_freertos/production/_ext/404212886/stream_buffer.o
 .bss           0x0000000000000000        0x0 build/sam_e70_xult_freertos/production/_ext/404212886/stream_buffer.o
 .text.prvBytesInBuffer
                0x0000000000000000       0x12 build/sam_e70_xult_freertos/production/_ext/404212886/stream_buffer.o
 .text.prvWriteBytesToBuffer
                0x0000000000000000       0x44 build/sam_e70_xult_freertos/production/_ext/404212886/stream_buffer.o
 .text.prvWriteMessageToBuffer
                0x0000000000000000       0x44 build/sam_e70_xult_freertos/production/_ext/404212886/stream_buffer.o
 .text.prvReadBytesFromBuffer
                0x0000000000000000       0x50 build/sam_e70_xult_freertos/production/_ext/404212886/stream_buffer.o
 .text.prvReadMessageFromBuffer
                0x0000000000000000       0x44 build/sam_e70_xult_freertos/production/_ext/404212886/stream_buffer.o
 .text.xStreamBufferGenericCreate
                0x0000000000000000       0x36 build/sam_e70_xult_freertos/production/_ext/404212886/stream_buffer.o
 .text.vStreamBufferDelete
                0x0000000000000000       0x1a build/sam_e70_xult_freertos/production/_ext/404212886/stream_buffer.o
 .text.xStreamBufferReset
                0x0000000000000000       0x4a build/sam_e70_xult_freertos/production/_ext/404212886/stream_buffer.o
 .text.xStreamBufferSetTriggerLevel
                0x0000000000000000       0x16 build/sam_e70_xult_freertos/production/_ext/404212886/stream_buffer.o
 .text.xStreamBufferSpacesAvailable
                0x0000000000000000       0x14 build/sam_e70_xult_freertos/production/_ext/404212886/stream_buffer.o
 .text.xStreamBufferBytesAvailable
                0x0000000000000000        0x8 build/sam_e70_xult_freertos/production/_ext/404212886/stream_buffer.o
 .text.xStreamBufferSend
                0x0000000000000000       0xbc build/sam_e70_xult_freertos/production/_ext/404212886/stream_buffer.o
 .text.xStreamBufferSendFromISR
                0x0000000000000000       0x7a build/sam_e70_xult_freertos/production/_ext/404212886/stream_buffer.o
 .text.xStreamBufferReceive
                0x0000000000000000       0x9c build/sam_e70_xult_freertos/production/_ext/404212886/stream_buffer.o
 .text.xStreamBufferReceiveFromISR
                0x0000000000000000       0x70 build/sam_e70_xult_freertos/production/_ext/404212886/stream_buffer.o
 .text.xStreamBufferIsEmpty
                0x0000000000000000        0xe build/sam_e70_xult_freertos/production/_ext/404212886/stream_buffer.o
 .text.xStreamBufferIsFull
                0x0000000000000000       0x18 build/sam_e70_xult_freertos/production/_ext/404212886/stream_buffer.o
 .text.xStreamBufferSendCompletedFromISR
                0x0000000000000000       0x42 build/sam_e70_xult_freertos/production/_ext/404212886/stream_buffer.o
 .text.xStreamBufferReceiveCompletedFromISR
                0x0000000000000000       0x42 build/sam_e70_xult_freertos/production/_ext/404212886/stream_buffer.o
 .debug_info    0x0000000000000000     0x2285 build/sam_e70_xult_freertos/production/_ext/404212886/stream_buffer.o
 .debug_abbrev  0x0000000000000000      0x3cc build/sam_e70_xult_freertos/production/_ext/404212886/stream_buffer.o
 .debug_loc     0x0000000000000000     0x12f2 build/sam_e70_xult_freertos/production/_ext/404212886/stream_buffer.o
 .debug_aranges
                0x0000000000000000       0xb0 build/sam_e70_xult_freertos/production/_ext/404212886/stream_buffer.o
 .debug_ranges  0x0000000000000000       0xb8 build/sam_e70_xult_freertos/production/_ext/404212886/stream_buffer.o
 .debug_line    0x0000000000000000      0x4c3 build/sam_e70_xult_freertos/production/_ext/404212886/stream_buffer.o
 .debug_str     0x0000000000000000      0x23d build/sam_e70_xult_freertos/production/_ext/404212886/stream_buffer.o
 .comment       0x0000000000000000       0x3d build/sam_e70_xult_freertos/production/_ext/404212886/stream_buffer.o
 .debug_frame   0x0000000000000000      0x258 build/sam_e70_xult_freertos/production/_ext/404212886/stream_buffer.o
 .ARM.attributes
                0x0000000000000000       0x37 build/sam_e70_xult_freertos/production/_ext/404212886/stream_buffer.o
 .text          0x0000000000000000        0x0 build/sam_e70_xult_freertos/production/_ext/281930714/osal_freertos.o
 .data          0x0000000000000000        0x0 build/sam_e70_xult_freertos/production/_ext/281930714/osal_freertos.o
 .bss           0x0000000000000000        0x0 build/sam_e70_xult_freertos/production/_ext/281930714/osal_freertos.o
 .text.OSAL_SEM_PostISR
                0x0000000000000000       0x3c build/sam_e70_xult_freertos/production/_ext/281930714/osal_freertos.o
 .text.OSAL_SEM_GetCount
                0x0000000000000000       0x12 build/sam_e70_xult_freertos/production/_ext/281930714/osal_freertos.o
 .text.OSAL_MUTEX_Delete
                0x0000000000000000       0x1a build/sam_e70_xult_freertos/production/_ext/281930714/osal_freertos.o
 .text.OSAL_Initialize
                0x0000000000000000        0x4 build/sam_e70_xult_freertos/production/_ext/281930714/osal_freertos.o
 .text          0x0000000000000000        0x0 build/sam_e70_xult_freertos/production/_ext/1360937237/app_commands.o
 .data          0x0000000000000000        0x0 build/sam_e70_xult_freertos/production/_ext/1360937237/app_commands.o
 .bss           0x0000000000000000        0x0 build/sam_e70_xult_freertos/production/_ext/1360937237/app_commands.o
 .text          0x0000000000000000        0x0 build/sam_e70_xult_freertos/production/_ext/1360937237/app.o
 .data          0x0000000000000000        0x0 build/sam_e70_xult_freertos/production/_ext/1360937237/app.o
 .bss           0x0000000000000000        0x0 build/sam_e70_xult_freertos/production/_ext/1360937237/app.o
 .text          0x0000000000000000        0x0 build/sam_e70_xult_freertos/production/_ext/1360937237/main.o
 .data          0x0000000000000000        0x0 build/sam_e70_xult_freertos/production/_ext/1360937237/main.o
 .bss           0x0000000000000000        0x0 build/sam_e70_xult_freertos/production/_ext/1360937237/main.o
 .text          0x0000000000000000        0x0 /Applications/microchip/xc32/v2.15/bin/bin/../../lib/gcc/pic32c/6.2.1/../../../../pic32c/lib/v7e-m/fpv5/hard/libpic32c.a(data_init.o)
 .data          0x0000000000000000        0x0 /Applications/microchip/xc32/v2.15/bin/bin/../../lib/gcc/pic32c/6.2.1/../../../../pic32c/lib/v7e-m/fpv5/hard/libpic32c.a(data_init.o)
 .bss           0x0000000000000000        0x0 /Applications/microchip/xc32/v2.15/bin/bin/../../lib/gcc/pic32c/6.2.1/../../../../pic32c/lib/v7e-m/fpv5/hard/libpic32c.a(data_init.o)
 .data          0x0000000000000000        0x0 /Applications/microchip/xc32/v2.15/bin/bin/../../lib/gcc/pic32c/6.2.1/v7e-m/fpv5/hard/libgcc.a(_aeabi_uldivmod.o)
 .bss           0x0000000000000000        0x0 /Applications/microchip/xc32/v2.15/bin/bin/../../lib/gcc/pic32c/6.2.1/v7e-m/fpv5/hard/libgcc.a(_aeabi_uldivmod.o)
 .data          0x0000000000000000        0x0 /Applications/microchip/xc32/v2.15/bin/bin/../../lib/gcc/pic32c/6.2.1/v7e-m/fpv5/hard/libgcc.a(_udivmoddi4.o)
 .bss           0x0000000000000000        0x0 /Applications/microchip/xc32/v2.15/bin/bin/../../lib/gcc/pic32c/6.2.1/v7e-m/fpv5/hard/libgcc.a(_udivmoddi4.o)
 .ARM.extab     0x0000000000000000        0x0 /Applications/microchip/xc32/v2.15/bin/bin/../../lib/gcc/pic32c/6.2.1/v7e-m/fpv5/hard/libgcc.a(_udivmoddi4.o)
 .data          0x0000000000000000        0x0 /Applications/microchip/xc32/v2.15/bin/bin/../../lib/gcc/pic32c/6.2.1/v7e-m/fpv5/hard/libgcc.a(_dvmd_tls.o)
 .bss           0x0000000000000000        0x0 /Applications/microchip/xc32/v2.15/bin/bin/../../lib/gcc/pic32c/6.2.1/v7e-m/fpv5/hard/libgcc.a(_dvmd_tls.o)
 .text          0x0000000000000000        0x0 /Applications/microchip/xc32/v2.15/bin/bin/../../lib/gcc/pic32c/6.2.1/../../../../pic32c/lib/v7e-m/fpv5/hard/libc.a(lib_a-atof.o)
 .data          0x0000000000000000        0x0 /Applications/microchip/xc32/v2.15/bin/bin/../../lib/gcc/pic32c/6.2.1/../../../../pic32c/lib/v7e-m/fpv5/hard/libc.a(lib_a-atof.o)
 .bss           0x0000000000000000        0x0 /Applications/microchip/xc32/v2.15/bin/bin/../../lib/gcc/pic32c/6.2.1/../../../../pic32c/lib/v7e-m/fpv5/hard/libc.a(lib_a-atof.o)
 .text          0x0000000000000000        0x0 /Applications/microchip/xc32/v2.15/bin/bin/../../lib/gcc/pic32c/6.2.1/../../../../pic32c/lib/v7e-m/fpv5/hard/libc.a(lib_a-atoi.o)
 .data          0x0000000000000000        0x0 /Applications/microchip/xc32/v2.15/bin/bin/../../lib/gcc/pic32c/6.2.1/../../../../pic32c/lib/v7e-m/fpv5/hard/libc.a(lib_a-atoi.o)
 .bss           0x0000000000000000        0x0 /Applications/microchip/xc32/v2.15/bin/bin/../../lib/gcc/pic32c/6.2.1/../../../../pic32c/lib/v7e-m/fpv5/hard/libc.a(lib_a-atoi.o)
 .text._atoi_r  0x0000000000000000        0x8 /Applications/microchip/xc32/v2.15/bin/bin/../../lib/gcc/pic32c/6.2.1/../../../../pic32c/lib/v7e-m/fpv5/hard/libc.a(lib_a-atoi.o)
 .text          0x0000000000000000        0x0 /Applications/microchip/xc32/v2.15/bin/bin/../../lib/gcc/pic32c/6.2.1/../../../../pic32c/lib/v7e-m/fpv5/hard/libc.a(lib_a-calloc.o)
 .data          0x0000000000000000        0x0 /Applications/microchip/xc32/v2.15/bin/bin/../../lib/gcc/pic32c/6.2.1/../../../../pic32c/lib/v7e-m/fpv5/hard/libc.a(lib_a-calloc.o)
 .bss           0x0000000000000000        0x0 /Applications/microchip/xc32/v2.15/bin/bin/../../lib/gcc/pic32c/6.2.1/../../../../pic32c/lib/v7e-m/fpv5/hard/libc.a(lib_a-calloc.o)
 .text          0x0000000000000000        0x0 /Applications/microchip/xc32/v2.15/bin/bin/../../lib/gcc/pic32c/6.2.1/../../../../pic32c/lib/v7e-m/fpv5/hard/libc.a(lib_a-callocr.o)
 .data          0x0000000000000000        0x0 /Applications/microchip/xc32/v2.15/bin/bin/../../lib/gcc/pic32c/6.2.1/../../../../pic32c/lib/v7e-m/fpv5/hard/libc.a(lib_a-callocr.o)
 .bss           0x0000000000000000        0x0 /Applications/microchip/xc32/v2.15/bin/bin/../../lib/gcc/pic32c/6.2.1/../../../../pic32c/lib/v7e-m/fpv5/hard/libc.a(lib_a-callocr.o)
 .text          0x0000000000000000        0x0 /Applications/microchip/xc32/v2.15/bin/bin/../../lib/gcc/pic32c/6.2.1/../../../../pic32c/lib/v7e-m/fpv5/hard/libc.a(lib_a-exit.o)
 .data          0x0000000000000000        0x0 /Applications/microchip/xc32/v2.15/bin/bin/../../lib/gcc/pic32c/6.2.1/../../../../pic32c/lib/v7e-m/fpv5/hard/libc.a(lib_a-exit.o)
 .bss           0x0000000000000000        0x0 /Applications/microchip/xc32/v2.15/bin/bin/../../lib/gcc/pic32c/6.2.1/../../../../pic32c/lib/v7e-m/fpv5/hard/libc.a(lib_a-exit.o)
 .text.exit     0x0000000000000000       0x20 /Applications/microchip/xc32/v2.15/bin/bin/../../lib/gcc/pic32c/6.2.1/../../../../pic32c/lib/v7e-m/fpv5/hard/libc.a(lib_a-exit.o)
 .debug_frame   0x0000000000000000       0x28 /Applications/microchip/xc32/v2.15/bin/bin/../../lib/gcc/pic32c/6.2.1/../../../../pic32c/lib/v7e-m/fpv5/hard/libc.a(lib_a-exit.o)
 .ARM.attributes
                0x0000000000000000       0x32 /Applications/microchip/xc32/v2.15/bin/bin/../../lib/gcc/pic32c/6.2.1/../../../../pic32c/lib/v7e-m/fpv5/hard/libc.a(lib_a-exit.o)
 .text          0x0000000000000000        0x0 /Applications/microchip/xc32/v2.15/bin/bin/../../lib/gcc/pic32c/6.2.1/../../../../pic32c/lib/v7e-m/fpv5/hard/libc.a(lib_a-impure.o)
 .data          0x0000000000000000        0x0 /Applications/microchip/xc32/v2.15/bin/bin/../../lib/gcc/pic32c/6.2.1/../../../../pic32c/lib/v7e-m/fpv5/hard/libc.a(lib_a-impure.o)
 .bss           0x0000000000000000        0x0 /Applications/microchip/xc32/v2.15/bin/bin/../../lib/gcc/pic32c/6.2.1/../../../../pic32c/lib/v7e-m/fpv5/hard/libc.a(lib_a-impure.o)
 .text          0x0000000000000000        0x0 /Applications/microchip/xc32/v2.15/bin/bin/../../lib/gcc/pic32c/6.2.1/../../../../pic32c/lib/v7e-m/fpv5/hard/libc.a(lib_a-init.o)
 .data          0x0000000000000000        0x0 /Applications/microchip/xc32/v2.15/bin/bin/../../lib/gcc/pic32c/6.2.1/../../../../pic32c/lib/v7e-m/fpv5/hard/libc.a(lib_a-init.o)
 .bss           0x0000000000000000        0x0 /Applications/microchip/xc32/v2.15/bin/bin/../../lib/gcc/pic32c/6.2.1/../../../../pic32c/lib/v7e-m/fpv5/hard/libc.a(lib_a-init.o)
 .text          0x0000000000000000        0x0 /Applications/microchip/xc32/v2.15/bin/bin/../../lib/gcc/pic32c/6.2.1/../../../../pic32c/lib/v7e-m/fpv5/hard/libc.a(lib_a-locale.o)
 .data          0x0000000000000000        0x0 /Applications/microchip/xc32/v2.15/bin/bin/../../lib/gcc/pic32c/6.2.1/../../../../pic32c/lib/v7e-m/fpv5/hard/libc.a(lib_a-locale.o)
 .bss           0x0000000000000000        0x0 /Applications/microchip/xc32/v2.15/bin/bin/../../lib/gcc/pic32c/6.2.1/../../../../pic32c/lib/v7e-m/fpv5/hard/libc.a(lib_a-locale.o)
 .text._setlocale_r
                0x0000000000000000       0x40 /Applications/microchip/xc32/v2.15/bin/bin/../../lib/gcc/pic32c/6.2.1/../../../../pic32c/lib/v7e-m/fpv5/hard/libc.a(lib_a-locale.o)
 .text.__locale_mb_cur_max
                0x0000000000000000       0x1c /Applications/microchip/xc32/v2.15/bin/bin/../../lib/gcc/pic32c/6.2.1/../../../../pic32c/lib/v7e-m/fpv5/hard/libc.a(lib_a-locale.o)
 .text.setlocale
                0x0000000000000000       0x10 /Applications/microchip/xc32/v2.15/bin/bin/../../lib/gcc/pic32c/6.2.1/../../../../pic32c/lib/v7e-m/fpv5/hard/libc.a(lib_a-locale.o)
 .bss._PathLocale
                0x0000000000000000        0x4 /Applications/microchip/xc32/v2.15/bin/bin/../../lib/gcc/pic32c/6.2.1/../../../../pic32c/lib/v7e-m/fpv5/hard/libc.a(lib_a-locale.o)
 .text          0x0000000000000000        0x0 /Applications/microchip/xc32/v2.15/bin/bin/../../lib/gcc/pic32c/6.2.1/../../../../pic32c/lib/v7e-m/fpv5/hard/libc.a(lib_a-malloc.o)
 .data          0x0000000000000000        0x0 /Applications/microchip/xc32/v2.15/bin/bin/../../lib/gcc/pic32c/6.2.1/../../../../pic32c/lib/v7e-m/fpv5/hard/libc.a(lib_a-malloc.o)
 .bss           0x0000000000000000        0x0 /Applications/microchip/xc32/v2.15/bin/bin/../../lib/gcc/pic32c/6.2.1/../../../../pic32c/lib/v7e-m/fpv5/hard/libc.a(lib_a-malloc.o)
 .text          0x0000000000000000        0x0 /Applications/microchip/xc32/v2.15/bin/bin/../../lib/gcc/pic32c/6.2.1/../../../../pic32c/lib/v7e-m/fpv5/hard/libc.a(lib_a-mallocr.o)
 .data          0x0000000000000000        0x0 /Applications/microchip/xc32/v2.15/bin/bin/../../lib/gcc/pic32c/6.2.1/../../../../pic32c/lib/v7e-m/fpv5/hard/libc.a(lib_a-mallocr.o)
 .bss           0x0000000000000000        0x0 /Applications/microchip/xc32/v2.15/bin/bin/../../lib/gcc/pic32c/6.2.1/../../../../pic32c/lib/v7e-m/fpv5/hard/libc.a(lib_a-mallocr.o)
 .text          0x0000000000000000        0x0 /Applications/microchip/xc32/v2.15/bin/bin/../../lib/gcc/pic32c/6.2.1/../../../../pic32c/lib/v7e-m/fpv5/hard/libc.a(lib_a-mbtowc_r.o)
 .data          0x0000000000000000        0x0 /Applications/microchip/xc32/v2.15/bin/bin/../../lib/gcc/pic32c/6.2.1/../../../../pic32c/lib/v7e-m/fpv5/hard/libc.a(lib_a-mbtowc_r.o)
 .bss           0x0000000000000000        0x0 /Applications/microchip/xc32/v2.15/bin/bin/../../lib/gcc/pic32c/6.2.1/../../../../pic32c/lib/v7e-m/fpv5/hard/libc.a(lib_a-mbtowc_r.o)
 .text._mbtowc_r
                0x0000000000000000       0x24 /Applications/microchip/xc32/v2.15/bin/bin/../../lib/gcc/pic32c/6.2.1/../../../../pic32c/lib/v7e-m/fpv5/hard/libc.a(lib_a-mbtowc_r.o)
 .text          0x0000000000000000        0x0 /Applications/microchip/xc32/v2.15/bin/bin/../../lib/gcc/pic32c/6.2.1/../../../../pic32c/lib/v7e-m/fpv5/hard/libc.a(lib_a-memcmp.o)
 .data          0x0000000000000000        0x0 /Applications/microchip/xc32/v2.15/bin/bin/../../lib/gcc/pic32c/6.2.1/../../../../pic32c/lib/v7e-m/fpv5/hard/libc.a(lib_a-memcmp.o)
 .bss           0x0000000000000000        0x0 /Applications/microchip/xc32/v2.15/bin/bin/../../lib/gcc/pic32c/6.2.1/../../../../pic32c/lib/v7e-m/fpv5/hard/libc.a(lib_a-memcmp.o)
 .data          0x0000000000000000        0x0 /Applications/microchip/xc32/v2.15/bin/bin/../../lib/gcc/pic32c/6.2.1/../../../../pic32c/lib/v7e-m/fpv5/hard/libc.a(lib_a-memcpy.o)
 .bss           0x0000000000000000        0x0 /Applications/microchip/xc32/v2.15/bin/bin/../../lib/gcc/pic32c/6.2.1/../../../../pic32c/lib/v7e-m/fpv5/hard/libc.a(lib_a-memcpy.o)
 .text          0x0000000000000000        0x0 /Applications/microchip/xc32/v2.15/bin/bin/../../lib/gcc/pic32c/6.2.1/../../../../pic32c/lib/v7e-m/fpv5/hard/libc.a(lib_a-memset.o)
 .data          0x0000000000000000        0x0 /Applications/microchip/xc32/v2.15/bin/bin/../../lib/gcc/pic32c/6.2.1/../../../../pic32c/lib/v7e-m/fpv5/hard/libc.a(lib_a-memset.o)
 .bss           0x0000000000000000        0x0 /Applications/microchip/xc32/v2.15/bin/bin/../../lib/gcc/pic32c/6.2.1/../../../../pic32c/lib/v7e-m/fpv5/hard/libc.a(lib_a-memset.o)
 .text          0x0000000000000000        0x0 /Applications/microchip/xc32/v2.15/bin/bin/../../lib/gcc/pic32c/6.2.1/../../../../pic32c/lib/v7e-m/fpv5/hard/libc.a(lib_a-mlock.o)
 .data          0x0000000000000000        0x0 /Applications/microchip/xc32/v2.15/bin/bin/../../lib/gcc/pic32c/6.2.1/../../../../pic32c/lib/v7e-m/fpv5/hard/libc.a(lib_a-mlock.o)
 .bss           0x0000000000000000        0x0 /Applications/microchip/xc32/v2.15/bin/bin/../../lib/gcc/pic32c/6.2.1/../../../../pic32c/lib/v7e-m/fpv5/hard/libc.a(lib_a-mlock.o)
 .text          0x0000000000000000        0x0 /Applications/microchip/xc32/v2.15/bin/bin/../../lib/gcc/pic32c/6.2.1/../../../../pic32c/lib/v7e-m/fpv5/hard/libc.a(lib_a-rand.o)
 .data          0x0000000000000000        0x0 /Applications/microchip/xc32/v2.15/bin/bin/../../lib/gcc/pic32c/6.2.1/../../../../pic32c/lib/v7e-m/fpv5/hard/libc.a(lib_a-rand.o)
 .bss           0x0000000000000000        0x0 /Applications/microchip/xc32/v2.15/bin/bin/../../lib/gcc/pic32c/6.2.1/../../../../pic32c/lib/v7e-m/fpv5/hard/libc.a(lib_a-rand.o)
 .text.srand    0x0000000000000000       0x14 /Applications/microchip/xc32/v2.15/bin/bin/../../lib/gcc/pic32c/6.2.1/../../../../pic32c/lib/v7e-m/fpv5/hard/libc.a(lib_a-rand.o)
 .text          0x0000000000000000        0x0 /Applications/microchip/xc32/v2.15/bin/bin/../../lib/gcc/pic32c/6.2.1/../../../../pic32c/lib/v7e-m/fpv5/hard/libc.a(lib_a-sbrkr.o)
 .data          0x0000000000000000        0x0 /Applications/microchip/xc32/v2.15/bin/bin/../../lib/gcc/pic32c/6.2.1/../../../../pic32c/lib/v7e-m/fpv5/hard/libc.a(lib_a-sbrkr.o)
 .bss           0x0000000000000000        0x0 /Applications/microchip/xc32/v2.15/bin/bin/../../lib/gcc/pic32c/6.2.1/../../../../pic32c/lib/v7e-m/fpv5/hard/libc.a(lib_a-sbrkr.o)
 .text          0x0000000000000000        0x0 /Applications/microchip/xc32/v2.15/bin/bin/../../lib/gcc/pic32c/6.2.1/../../../../pic32c/lib/v7e-m/fpv5/hard/libc.a(lib_a-snprintf.o)
 .data          0x0000000000000000        0x0 /Applications/microchip/xc32/v2.15/bin/bin/../../lib/gcc/pic32c/6.2.1/../../../../pic32c/lib/v7e-m/fpv5/hard/libc.a(lib_a-snprintf.o)
 .bss           0x0000000000000000        0x0 /Applications/microchip/xc32/v2.15/bin/bin/../../lib/gcc/pic32c/6.2.1/../../../../pic32c/lib/v7e-m/fpv5/hard/libc.a(lib_a-snprintf.o)
 .text._snprintf_r
                0x0000000000000000       0x90 /Applications/microchip/xc32/v2.15/bin/bin/../../lib/gcc/pic32c/6.2.1/../../../../pic32c/lib/v7e-m/fpv5/hard/libc.a(lib_a-snprintf.o)
 .text          0x0000000000000000        0x0 /Applications/microchip/xc32/v2.15/bin/bin/../../lib/gcc/pic32c/6.2.1/../../../../pic32c/lib/v7e-m/fpv5/hard/libc.a(lib_a-sprintf.o)
 .data          0x0000000000000000        0x0 /Applications/microchip/xc32/v2.15/bin/bin/../../lib/gcc/pic32c/6.2.1/../../../../pic32c/lib/v7e-m/fpv5/hard/libc.a(lib_a-sprintf.o)
 .bss           0x0000000000000000        0x0 /Applications/microchip/xc32/v2.15/bin/bin/../../lib/gcc/pic32c/6.2.1/../../../../pic32c/lib/v7e-m/fpv5/hard/libc.a(lib_a-sprintf.o)
 .text._sprintf_r
                0x0000000000000000       0x44 /Applications/microchip/xc32/v2.15/bin/bin/../../lib/gcc/pic32c/6.2.1/../../../../pic32c/lib/v7e-m/fpv5/hard/libc.a(lib_a-sprintf.o)
 .data          0x0000000000000000        0x0 /Applications/microchip/xc32/v2.15/bin/bin/../../lib/gcc/pic32c/6.2.1/../../../../pic32c/lib/v7e-m/fpv5/hard/libc.a(lib_a-strcmp.o)
 .bss           0x0000000000000000        0x0 /Applications/microchip/xc32/v2.15/bin/bin/../../lib/gcc/pic32c/6.2.1/../../../../pic32c/lib/v7e-m/fpv5/hard/libc.a(lib_a-strcmp.o)
 .text          0x0000000000000000        0x0 /Applications/microchip/xc32/v2.15/bin/bin/../../lib/gcc/pic32c/6.2.1/../../../../pic32c/lib/v7e-m/fpv5/hard/libc.a(lib_a-strcpy.o)
 .data          0x0000000000000000        0x0 /Applications/microchip/xc32/v2.15/bin/bin/../../lib/gcc/pic32c/6.2.1/../../../../pic32c/lib/v7e-m/fpv5/hard/libc.a(lib_a-strcpy.o)
 .bss           0x0000000000000000        0x0 /Applications/microchip/xc32/v2.15/bin/bin/../../lib/gcc/pic32c/6.2.1/../../../../pic32c/lib/v7e-m/fpv5/hard/libc.a(lib_a-strcpy.o)
 .data          0x0000000000000000        0x0 /Applications/microchip/xc32/v2.15/bin/bin/../../lib/gcc/pic32c/6.2.1/../../../../pic32c/lib/v7e-m/fpv5/hard/libc.a(lib_a-strlen.o)
 .bss           0x0000000000000000        0x0 /Applications/microchip/xc32/v2.15/bin/bin/../../lib/gcc/pic32c/6.2.1/../../../../pic32c/lib/v7e-m/fpv5/hard/libc.a(lib_a-strlen.o)
 .text          0x0000000000000000        0x0 /Applications/microchip/xc32/v2.15/bin/bin/../../lib/gcc/pic32c/6.2.1/../../../../pic32c/lib/v7e-m/fpv5/hard/libc.a(lib_a-strncat.o)
 .data          0x0000000000000000        0x0 /Applications/microchip/xc32/v2.15/bin/bin/../../lib/gcc/pic32c/6.2.1/../../../../pic32c/lib/v7e-m/fpv5/hard/libc.a(lib_a-strncat.o)
 .bss           0x0000000000000000        0x0 /Applications/microchip/xc32/v2.15/bin/bin/../../lib/gcc/pic32c/6.2.1/../../../../pic32c/lib/v7e-m/fpv5/hard/libc.a(lib_a-strncat.o)
 .text          0x0000000000000000        0x0 /Applications/microchip/xc32/v2.15/bin/bin/../../lib/gcc/pic32c/6.2.1/../../../../pic32c/lib/v7e-m/fpv5/hard/libc.a(lib_a-strncpy.o)
 .data          0x0000000000000000        0x0 /Applications/microchip/xc32/v2.15/bin/bin/../../lib/gcc/pic32c/6.2.1/../../../../pic32c/lib/v7e-m/fpv5/hard/libc.a(lib_a-strncpy.o)
 .bss           0x0000000000000000        0x0 /Applications/microchip/xc32/v2.15/bin/bin/../../lib/gcc/pic32c/6.2.1/../../../../pic32c/lib/v7e-m/fpv5/hard/libc.a(lib_a-strncpy.o)
 .text          0x0000000000000000        0x0 /Applications/microchip/xc32/v2.15/bin/bin/../../lib/gcc/pic32c/6.2.1/../../../../pic32c/lib/v7e-m/fpv5/hard/libc.a(lib_a-strstr.o)
 .data          0x0000000000000000        0x0 /Applications/microchip/xc32/v2.15/bin/bin/../../lib/gcc/pic32c/6.2.1/../../../../pic32c/lib/v7e-m/fpv5/hard/libc.a(lib_a-strstr.o)
 .bss           0x0000000000000000        0x0 /Applications/microchip/xc32/v2.15/bin/bin/../../lib/gcc/pic32c/6.2.1/../../../../pic32c/lib/v7e-m/fpv5/hard/libc.a(lib_a-strstr.o)
 .text          0x0000000000000000        0x0 /Applications/microchip/xc32/v2.15/bin/bin/../../lib/gcc/pic32c/6.2.1/../../../../pic32c/lib/v7e-m/fpv5/hard/libc.a(lib_a-strtod.o)
 .data          0x0000000000000000        0x0 /Applications/microchip/xc32/v2.15/bin/bin/../../lib/gcc/pic32c/6.2.1/../../../../pic32c/lib/v7e-m/fpv5/hard/libc.a(lib_a-strtod.o)
 .bss           0x0000000000000000        0x0 /Applications/microchip/xc32/v2.15/bin/bin/../../lib/gcc/pic32c/6.2.1/../../../../pic32c/lib/v7e-m/fpv5/hard/libc.a(lib_a-strtod.o)
 .text._strtod_r
                0x0000000000000000       0x20 /Applications/microchip/xc32/v2.15/bin/bin/../../lib/gcc/pic32c/6.2.1/../../../../pic32c/lib/v7e-m/fpv5/hard/libc.a(lib_a-strtod.o)
 .text.strtod_l
                0x0000000000000000       0x18 /Applications/microchip/xc32/v2.15/bin/bin/../../lib/gcc/pic32c/6.2.1/../../../../pic32c/lib/v7e-m/fpv5/hard/libc.a(lib_a-strtod.o)
 .text.strtof_l
                0x0000000000000000       0x30 /Applications/microchip/xc32/v2.15/bin/bin/../../lib/gcc/pic32c/6.2.1/../../../../pic32c/lib/v7e-m/fpv5/hard/libc.a(lib_a-strtod.o)
 .text.strtof   0x0000000000000000       0x3c /Applications/microchip/xc32/v2.15/bin/bin/../../lib/gcc/pic32c/6.2.1/../../../../pic32c/lib/v7e-m/fpv5/hard/libc.a(lib_a-strtod.o)
 .text          0x0000000000000000        0x0 /Applications/microchip/xc32/v2.15/bin/bin/../../lib/gcc/pic32c/6.2.1/../../../../pic32c/lib/v7e-m/fpv5/hard/libc.a(lib_a-strtok.o)
 .data          0x0000000000000000        0x0 /Applications/microchip/xc32/v2.15/bin/bin/../../lib/gcc/pic32c/6.2.1/../../../../pic32c/lib/v7e-m/fpv5/hard/libc.a(lib_a-strtok.o)
 .bss           0x0000000000000000        0x0 /Applications/microchip/xc32/v2.15/bin/bin/../../lib/gcc/pic32c/6.2.1/../../../../pic32c/lib/v7e-m/fpv5/hard/libc.a(lib_a-strtok.o)
 .text          0x0000000000000000        0x0 /Applications/microchip/xc32/v2.15/bin/bin/../../lib/gcc/pic32c/6.2.1/../../../../pic32c/lib/v7e-m/fpv5/hard/libc.a(lib_a-strtok_r.o)
 .data          0x0000000000000000        0x0 /Applications/microchip/xc32/v2.15/bin/bin/../../lib/gcc/pic32c/6.2.1/../../../../pic32c/lib/v7e-m/fpv5/hard/libc.a(lib_a-strtok_r.o)
 .bss           0x0000000000000000        0x0 /Applications/microchip/xc32/v2.15/bin/bin/../../lib/gcc/pic32c/6.2.1/../../../../pic32c/lib/v7e-m/fpv5/hard/libc.a(lib_a-strtok_r.o)
 .text.strtok_r
                0x0000000000000000        0x8 /Applications/microchip/xc32/v2.15/bin/bin/../../lib/gcc/pic32c/6.2.1/../../../../pic32c/lib/v7e-m/fpv5/hard/libc.a(lib_a-strtok_r.o)
 .text          0x0000000000000000        0x0 /Applications/microchip/xc32/v2.15/bin/bin/../../lib/gcc/pic32c/6.2.1/../../../../pic32c/lib/v7e-m/fpv5/hard/libc.a(lib_a-strtol.o)
 .data          0x0000000000000000        0x0 /Applications/microchip/xc32/v2.15/bin/bin/../../lib/gcc/pic32c/6.2.1/../../../../pic32c/lib/v7e-m/fpv5/hard/libc.a(lib_a-strtol.o)
 .bss           0x0000000000000000        0x0 /Applications/microchip/xc32/v2.15/bin/bin/../../lib/gcc/pic32c/6.2.1/../../../../pic32c/lib/v7e-m/fpv5/hard/libc.a(lib_a-strtol.o)
 .text._strtol_r
                0x0000000000000000       0x24 /Applications/microchip/xc32/v2.15/bin/bin/../../lib/gcc/pic32c/6.2.1/../../../../pic32c/lib/v7e-m/fpv5/hard/libc.a(lib_a-strtol.o)
 .text.strtol_l
                0x0000000000000000       0x20 /Applications/microchip/xc32/v2.15/bin/bin/../../lib/gcc/pic32c/6.2.1/../../../../pic32c/lib/v7e-m/fpv5/hard/libc.a(lib_a-strtol.o)
 .text          0x0000000000000000        0x0 /Applications/microchip/xc32/v2.15/bin/bin/../../lib/gcc/pic32c/6.2.1/../../../../pic32c/lib/v7e-m/fpv5/hard/libc.a(lib_a-svfprintf.o)
 .data          0x0000000000000000        0x0 /Applications/microchip/xc32/v2.15/bin/bin/../../lib/gcc/pic32c/6.2.1/../../../../pic32c/lib/v7e-m/fpv5/hard/libc.a(lib_a-svfprintf.o)
 .bss           0x0000000000000000        0x0 /Applications/microchip/xc32/v2.15/bin/bin/../../lib/gcc/pic32c/6.2.1/../../../../pic32c/lib/v7e-m/fpv5/hard/libc.a(lib_a-svfprintf.o)
 .text          0x0000000000000000        0x0 /Applications/microchip/xc32/v2.15/bin/bin/../../lib/gcc/pic32c/6.2.1/../../../../pic32c/lib/v7e-m/fpv5/hard/libc.a(lib_a-vsnprintf.o)
 .data          0x0000000000000000        0x0 /Applications/microchip/xc32/v2.15/bin/bin/../../lib/gcc/pic32c/6.2.1/../../../../pic32c/lib/v7e-m/fpv5/hard/libc.a(lib_a-vsnprintf.o)
 .bss           0x0000000000000000        0x0 /Applications/microchip/xc32/v2.15/bin/bin/../../lib/gcc/pic32c/6.2.1/../../../../pic32c/lib/v7e-m/fpv5/hard/libc.a(lib_a-vsnprintf.o)
 .text          0x0000000000000000        0x0 /Applications/microchip/xc32/v2.15/bin/bin/../../lib/gcc/pic32c/6.2.1/../../../../pic32c/lib/v7e-m/fpv5/hard/libc.a(lib_a-wctomb_r.o)
 .data          0x0000000000000000        0x0 /Applications/microchip/xc32/v2.15/bin/bin/../../lib/gcc/pic32c/6.2.1/../../../../pic32c/lib/v7e-m/fpv5/hard/libc.a(lib_a-wctomb_r.o)
 .bss           0x0000000000000000        0x0 /Applications/microchip/xc32/v2.15/bin/bin/../../lib/gcc/pic32c/6.2.1/../../../../pic32c/lib/v7e-m/fpv5/hard/libc.a(lib_a-wctomb_r.o)
 .text._wctomb_r
                0x0000000000000000       0x24 /Applications/microchip/xc32/v2.15/bin/bin/../../lib/gcc/pic32c/6.2.1/../../../../pic32c/lib/v7e-m/fpv5/hard/libc.a(lib_a-wctomb_r.o)
 .text          0x0000000000000000        0x0 /Applications/microchip/xc32/v2.15/bin/bin/../../lib/gcc/pic32c/6.2.1/../../../../pic32c/lib/v7e-m/fpv5/hard/libc.a(lib_a-__call_atexit.o)
 .data          0x0000000000000000        0x0 /Applications/microchip/xc32/v2.15/bin/bin/../../lib/gcc/pic32c/6.2.1/../../../../pic32c/lib/v7e-m/fpv5/hard/libc.a(lib_a-__call_atexit.o)
 .bss           0x0000000000000000        0x0 /Applications/microchip/xc32/v2.15/bin/bin/../../lib/gcc/pic32c/6.2.1/../../../../pic32c/lib/v7e-m/fpv5/hard/libc.a(lib_a-__call_atexit.o)
 .text.__call_exitprocs
                0x0000000000000000       0xd4 /Applications/microchip/xc32/v2.15/bin/bin/../../lib/gcc/pic32c/6.2.1/../../../../pic32c/lib/v7e-m/fpv5/hard/libc.a(lib_a-__call_atexit.o)
 .text          0x0000000000000000        0x0 /Applications/microchip/xc32/v2.15/bin/bin/../../lib/gcc/pic32c/6.2.1/../../../../pic32c/lib/v7e-m/fpv5/hard/libc.a(lib_a-atexit.o)
 .data          0x0000000000000000        0x0 /Applications/microchip/xc32/v2.15/bin/bin/../../lib/gcc/pic32c/6.2.1/../../../../pic32c/lib/v7e-m/fpv5/hard/libc.a(lib_a-atexit.o)
 .bss           0x0000000000000000        0x0 /Applications/microchip/xc32/v2.15/bin/bin/../../lib/gcc/pic32c/6.2.1/../../../../pic32c/lib/v7e-m/fpv5/hard/libc.a(lib_a-atexit.o)
 .text          0x0000000000000000        0x0 /Applications/microchip/xc32/v2.15/bin/bin/../../lib/gcc/pic32c/6.2.1/../../../../pic32c/lib/v7e-m/fpv5/hard/libc.a(lib_a-ctype_.o)
 .data          0x0000000000000000        0x0 /Applications/microchip/xc32/v2.15/bin/bin/../../lib/gcc/pic32c/6.2.1/../../../../pic32c/lib/v7e-m/fpv5/hard/libc.a(lib_a-ctype_.o)
 .bss           0x0000000000000000        0x0 /Applications/microchip/xc32/v2.15/bin/bin/../../lib/gcc/pic32c/6.2.1/../../../../pic32c/lib/v7e-m/fpv5/hard/libc.a(lib_a-ctype_.o)
 .text          0x0000000000000000        0x0 /Applications/microchip/xc32/v2.15/bin/bin/../../lib/gcc/pic32c/6.2.1/../../../../pic32c/lib/v7e-m/fpv5/hard/libc.a(lib_a-dtoa.o)
 .data          0x0000000000000000        0x0 /Applications/microchip/xc32/v2.15/bin/bin/../../lib/gcc/pic32c/6.2.1/../../../../pic32c/lib/v7e-m/fpv5/hard/libc.a(lib_a-dtoa.o)
 .bss           0x0000000000000000        0x0 /Applications/microchip/xc32/v2.15/bin/bin/../../lib/gcc/pic32c/6.2.1/../../../../pic32c/lib/v7e-m/fpv5/hard/libc.a(lib_a-dtoa.o)
 .text          0x0000000000000000        0x0 /Applications/microchip/xc32/v2.15/bin/bin/../../lib/gcc/pic32c/6.2.1/../../../../pic32c/lib/v7e-m/fpv5/hard/libc.a(lib_a-fini.o)
 .data          0x0000000000000000        0x0 /Applications/microchip/xc32/v2.15/bin/bin/../../lib/gcc/pic32c/6.2.1/../../../../pic32c/lib/v7e-m/fpv5/hard/libc.a(lib_a-fini.o)
 .bss           0x0000000000000000        0x0 /Applications/microchip/xc32/v2.15/bin/bin/../../lib/gcc/pic32c/6.2.1/../../../../pic32c/lib/v7e-m/fpv5/hard/libc.a(lib_a-fini.o)
 .text          0x0000000000000000        0x0 /Applications/microchip/xc32/v2.15/bin/bin/../../lib/gcc/pic32c/6.2.1/../../../../pic32c/lib/v7e-m/fpv5/hard/libc.a(lib_a-freer.o)
 .data          0x0000000000000000        0x0 /Applications/microchip/xc32/v2.15/bin/bin/../../lib/gcc/pic32c/6.2.1/../../../../pic32c/lib/v7e-m/fpv5/hard/libc.a(lib_a-freer.o)
 .bss           0x0000000000000000        0x0 /Applications/microchip/xc32/v2.15/bin/bin/../../lib/gcc/pic32c/6.2.1/../../../../pic32c/lib/v7e-m/fpv5/hard/libc.a(lib_a-freer.o)
 .text          0x0000000000000000        0x0 /Applications/microchip/xc32/v2.15/bin/bin/../../lib/gcc/pic32c/6.2.1/../../../../pic32c/lib/v7e-m/fpv5/hard/libc.a(lib_a-gdtoa-gethex.o)
 .data          0x0000000000000000        0x0 /Applications/microchip/xc32/v2.15/bin/bin/../../lib/gcc/pic32c/6.2.1/../../../../pic32c/lib/v7e-m/fpv5/hard/libc.a(lib_a-gdtoa-gethex.o)
 .bss           0x0000000000000000        0x0 /Applications/microchip/xc32/v2.15/bin/bin/../../lib/gcc/pic32c/6.2.1/../../../../pic32c/lib/v7e-m/fpv5/hard/libc.a(lib_a-gdtoa-gethex.o)
 .text          0x0000000000000000        0x0 /Applications/microchip/xc32/v2.15/bin/bin/../../lib/gcc/pic32c/6.2.1/../../../../pic32c/lib/v7e-m/fpv5/hard/libc.a(lib_a-gdtoa-hexnan.o)
 .data          0x0000000000000000        0x0 /Applications/microchip/xc32/v2.15/bin/bin/../../lib/gcc/pic32c/6.2.1/../../../../pic32c/lib/v7e-m/fpv5/hard/libc.a(lib_a-gdtoa-hexnan.o)
 .bss           0x0000000000000000        0x0 /Applications/microchip/xc32/v2.15/bin/bin/../../lib/gcc/pic32c/6.2.1/../../../../pic32c/lib/v7e-m/fpv5/hard/libc.a(lib_a-gdtoa-hexnan.o)
 .text          0x0000000000000000        0x0 /Applications/microchip/xc32/v2.15/bin/bin/../../lib/gcc/pic32c/6.2.1/../../../../pic32c/lib/v7e-m/fpv5/hard/libc.a(lib_a-localeconv.o)
 .data          0x0000000000000000        0x0 /Applications/microchip/xc32/v2.15/bin/bin/../../lib/gcc/pic32c/6.2.1/../../../../pic32c/lib/v7e-m/fpv5/hard/libc.a(lib_a-localeconv.o)
 .bss           0x0000000000000000        0x0 /Applications/microchip/xc32/v2.15/bin/bin/../../lib/gcc/pic32c/6.2.1/../../../../pic32c/lib/v7e-m/fpv5/hard/libc.a(lib_a-localeconv.o)
 .text.localeconv
                0x0000000000000000       0x1c /Applications/microchip/xc32/v2.15/bin/bin/../../lib/gcc/pic32c/6.2.1/../../../../pic32c/lib/v7e-m/fpv5/hard/libc.a(lib_a-localeconv.o)
 .data          0x0000000000000000        0x0 /Applications/microchip/xc32/v2.15/bin/bin/../../lib/gcc/pic32c/6.2.1/../../../../pic32c/lib/v7e-m/fpv5/hard/libc.a(lib_a-memchr.o)
 .bss           0x0000000000000000        0x0 /Applications/microchip/xc32/v2.15/bin/bin/../../lib/gcc/pic32c/6.2.1/../../../../pic32c/lib/v7e-m/fpv5/hard/libc.a(lib_a-memchr.o)
 .text          0x0000000000000000        0x0 /Applications/microchip/xc32/v2.15/bin/bin/../../lib/gcc/pic32c/6.2.1/../../../../pic32c/lib/v7e-m/fpv5/hard/libc.a(lib_a-mprec.o)
 .data          0x0000000000000000        0x0 /Applications/microchip/xc32/v2.15/bin/bin/../../lib/gcc/pic32c/6.2.1/../../../../pic32c/lib/v7e-m/fpv5/hard/libc.a(lib_a-mprec.o)
 .bss           0x0000000000000000        0x0 /Applications/microchip/xc32/v2.15/bin/bin/../../lib/gcc/pic32c/6.2.1/../../../../pic32c/lib/v7e-m/fpv5/hard/libc.a(lib_a-mprec.o)
 .text._mprec_log10
                0x0000000000000000       0x28 /Applications/microchip/xc32/v2.15/bin/bin/../../lib/gcc/pic32c/6.2.1/../../../../pic32c/lib/v7e-m/fpv5/hard/libc.a(lib_a-mprec.o)
 .rodata.__mprec_tinytens
                0x0000000000000000       0x28 /Applications/microchip/xc32/v2.15/bin/bin/../../lib/gcc/pic32c/6.2.1/../../../../pic32c/lib/v7e-m/fpv5/hard/libc.a(lib_a-mprec.o)
 .text          0x0000000000000000        0x0 /Applications/microchip/xc32/v2.15/bin/bin/../../lib/gcc/pic32c/6.2.1/../../../../pic32c/lib/v7e-m/fpv5/hard/libc.a(lib_a-reent.o)
 .data          0x0000000000000000        0x0 /Applications/microchip/xc32/v2.15/bin/bin/../../lib/gcc/pic32c/6.2.1/../../../../pic32c/lib/v7e-m/fpv5/hard/libc.a(lib_a-reent.o)
 .bss           0x0000000000000000        0x0 /Applications/microchip/xc32/v2.15/bin/bin/../../lib/gcc/pic32c/6.2.1/../../../../pic32c/lib/v7e-m/fpv5/hard/libc.a(lib_a-reent.o)
 .text.cleanup_glue
                0x0000000000000000       0x1c /Applications/microchip/xc32/v2.15/bin/bin/../../lib/gcc/pic32c/6.2.1/../../../../pic32c/lib/v7e-m/fpv5/hard/libc.a(lib_a-reent.o)
 .text._reclaim_reent
                0x0000000000000000       0x88 /Applications/microchip/xc32/v2.15/bin/bin/../../lib/gcc/pic32c/6.2.1/../../../../pic32c/lib/v7e-m/fpv5/hard/libc.a(lib_a-reent.o)
 .text          0x0000000000000000        0x0 /Applications/microchip/xc32/v2.15/bin/bin/../../lib/gcc/pic32c/6.2.1/../../../../pic32c/lib/v7e-m/fpv5/hard/libc.a(lib_a-s_frexp.o)
 .data          0x0000000000000000        0x0 /Applications/microchip/xc32/v2.15/bin/bin/../../lib/gcc/pic32c/6.2.1/../../../../pic32c/lib/v7e-m/fpv5/hard/libc.a(lib_a-s_frexp.o)
 .bss           0x0000000000000000        0x0 /Applications/microchip/xc32/v2.15/bin/bin/../../lib/gcc/pic32c/6.2.1/../../../../pic32c/lib/v7e-m/fpv5/hard/libc.a(lib_a-s_frexp.o)
 .text          0x0000000000000000        0x0 /Applications/microchip/xc32/v2.15/bin/bin/../../lib/gcc/pic32c/6.2.1/../../../../pic32c/lib/v7e-m/fpv5/hard/libc.a(lib_a-sf_nan.o)
 .data          0x0000000000000000        0x0 /Applications/microchip/xc32/v2.15/bin/bin/../../lib/gcc/pic32c/6.2.1/../../../../pic32c/lib/v7e-m/fpv5/hard/libc.a(lib_a-sf_nan.o)
 .bss           0x0000000000000000        0x0 /Applications/microchip/xc32/v2.15/bin/bin/../../lib/gcc/pic32c/6.2.1/../../../../pic32c/lib/v7e-m/fpv5/hard/libc.a(lib_a-sf_nan.o)
 .text.nanf     0x0000000000000000        0xc /Applications/microchip/xc32/v2.15/bin/bin/../../lib/gcc/pic32c/6.2.1/../../../../pic32c/lib/v7e-m/fpv5/hard/libc.a(lib_a-sf_nan.o)
 .debug_frame   0x0000000000000000       0x20 /Applications/microchip/xc32/v2.15/bin/bin/../../lib/gcc/pic32c/6.2.1/../../../../pic32c/lib/v7e-m/fpv5/hard/libc.a(lib_a-sf_nan.o)
 .ARM.attributes
                0x0000000000000000       0x32 /Applications/microchip/xc32/v2.15/bin/bin/../../lib/gcc/pic32c/6.2.1/../../../../pic32c/lib/v7e-m/fpv5/hard/libc.a(lib_a-sf_nan.o)
 .text          0x0000000000000000        0x0 /Applications/microchip/xc32/v2.15/bin/bin/../../lib/gcc/pic32c/6.2.1/../../../../pic32c/lib/v7e-m/fpv5/hard/libc.a(lib_a-strchr.o)
 .data          0x0000000000000000        0x0 /Applications/microchip/xc32/v2.15/bin/bin/../../lib/gcc/pic32c/6.2.1/../../../../pic32c/lib/v7e-m/fpv5/hard/libc.a(lib_a-strchr.o)
 .bss           0x0000000000000000        0x0 /Applications/microchip/xc32/v2.15/bin/bin/../../lib/gcc/pic32c/6.2.1/../../../../pic32c/lib/v7e-m/fpv5/hard/libc.a(lib_a-strchr.o)
 .text          0x0000000000000000        0x0 /Applications/microchip/xc32/v2.15/bin/bin/../../lib/gcc/pic32c/6.2.1/../../../../pic32c/lib/v7e-m/fpv5/hard/libc.a(lib_a-strncmp.o)
 .data          0x0000000000000000        0x0 /Applications/microchip/xc32/v2.15/bin/bin/../../lib/gcc/pic32c/6.2.1/../../../../pic32c/lib/v7e-m/fpv5/hard/libc.a(lib_a-strncmp.o)
 .bss           0x0000000000000000        0x0 /Applications/microchip/xc32/v2.15/bin/bin/../../lib/gcc/pic32c/6.2.1/../../../../pic32c/lib/v7e-m/fpv5/hard/libc.a(lib_a-strncmp.o)
 .text          0x0000000000000000        0x0 /Applications/microchip/xc32/v2.15/bin/bin/../../lib/gcc/pic32c/6.2.1/../../../../pic32c/lib/v7e-m/fpv5/hard/libc.a(lib_a-svfiprintf.o)
 .data          0x0000000000000000        0x0 /Applications/microchip/xc32/v2.15/bin/bin/../../lib/gcc/pic32c/6.2.1/../../../../pic32c/lib/v7e-m/fpv5/hard/libc.a(lib_a-svfiprintf.o)
 .bss           0x0000000000000000        0x0 /Applications/microchip/xc32/v2.15/bin/bin/../../lib/gcc/pic32c/6.2.1/../../../../pic32c/lib/v7e-m/fpv5/hard/libc.a(lib_a-svfiprintf.o)
 .text._svfiprintf_r
                0x0000000000000000      0xb28 /Applications/microchip/xc32/v2.15/bin/bin/../../lib/gcc/pic32c/6.2.1/../../../../pic32c/lib/v7e-m/fpv5/hard/libc.a(lib_a-svfiprintf.o)
 .rodata        0x0000000000000000       0x30 /Applications/microchip/xc32/v2.15/bin/bin/../../lib/gcc/pic32c/6.2.1/../../../../pic32c/lib/v7e-m/fpv5/hard/libc.a(lib_a-svfiprintf.o)
 .rodata.blanks.8331
                0x0000000000000000       0x10 /Applications/microchip/xc32/v2.15/bin/bin/../../lib/gcc/pic32c/6.2.1/../../../../pic32c/lib/v7e-m/fpv5/hard/libc.a(lib_a-svfiprintf.o)
 .rodata.zeroes.8332
                0x0000000000000000       0x10 /Applications/microchip/xc32/v2.15/bin/bin/../../lib/gcc/pic32c/6.2.1/../../../../pic32c/lib/v7e-m/fpv5/hard/libc.a(lib_a-svfiprintf.o)
 .text          0x0000000000000000        0x0 /Applications/microchip/xc32/v2.15/bin/bin/../../lib/gcc/pic32c/6.2.1/../../../../pic32c/lib/v7e-m/fpv5/hard/libc.a(lib_a-__atexit.o)
 .data          0x0000000000000000        0x0 /Applications/microchip/xc32/v2.15/bin/bin/../../lib/gcc/pic32c/6.2.1/../../../../pic32c/lib/v7e-m/fpv5/hard/libc.a(lib_a-__atexit.o)
 .bss           0x0000000000000000        0x0 /Applications/microchip/xc32/v2.15/bin/bin/../../lib/gcc/pic32c/6.2.1/../../../../pic32c/lib/v7e-m/fpv5/hard/libc.a(lib_a-__atexit.o)
 .text          0x0000000000000000        0x0 /Applications/microchip/xc32/v2.15/bin/bin/../../lib/gcc/pic32c/6.2.1/../../../../pic32c/lib/v7e-m/fpv5/hard/libc.a(lib_a-memmove.o)
 .data          0x0000000000000000        0x0 /Applications/microchip/xc32/v2.15/bin/bin/../../lib/gcc/pic32c/6.2.1/../../../../pic32c/lib/v7e-m/fpv5/hard/libc.a(lib_a-memmove.o)
 .bss           0x0000000000000000        0x0 /Applications/microchip/xc32/v2.15/bin/bin/../../lib/gcc/pic32c/6.2.1/../../../../pic32c/lib/v7e-m/fpv5/hard/libc.a(lib_a-memmove.o)
 .text          0x0000000000000000        0x0 /Applications/microchip/xc32/v2.15/bin/bin/../../lib/gcc/pic32c/6.2.1/../../../../pic32c/lib/v7e-m/fpv5/hard/libc.a(lib_a-reallocr.o)
 .data          0x0000000000000000        0x0 /Applications/microchip/xc32/v2.15/bin/bin/../../lib/gcc/pic32c/6.2.1/../../../../pic32c/lib/v7e-m/fpv5/hard/libc.a(lib_a-reallocr.o)
 .bss           0x0000000000000000        0x0 /Applications/microchip/xc32/v2.15/bin/bin/../../lib/gcc/pic32c/6.2.1/../../../../pic32c/lib/v7e-m/fpv5/hard/libc.a(lib_a-reallocr.o)
 .text          0x0000000000000000        0x0 /Applications/microchip/xc32/v2.15/bin/bin/../../lib/gcc/pic32c/6.2.1/../../../../pic32c/lib/v7e-m/fpv5/hard/libpic32c.a(sbrk.o)
 .data          0x0000000000000000        0x0 /Applications/microchip/xc32/v2.15/bin/bin/../../lib/gcc/pic32c/6.2.1/../../../../pic32c/lib/v7e-m/fpv5/hard/libpic32c.a(sbrk.o)
 .text          0x0000000000000000        0x0 /Applications/microchip/xc32/v2.15/bin/bin/../../lib/gcc/pic32c/6.2.1/v7e-m/fpv5/hard/crtend.o
 .data          0x0000000000000000        0x0 /Applications/microchip/xc32/v2.15/bin/bin/../../lib/gcc/pic32c/6.2.1/v7e-m/fpv5/hard/crtend.o
 .bss           0x0000000000000000        0x0 /Applications/microchip/xc32/v2.15/bin/bin/../../lib/gcc/pic32c/6.2.1/v7e-m/fpv5/hard/crtend.o
 .eh_frame      0x0000000000000000        0x4 /Applications/microchip/xc32/v2.15/bin/bin/../../lib/gcc/pic32c/6.2.1/v7e-m/fpv5/hard/crtend.o
 .jcr           0x0000000000000000        0x4 /Applications/microchip/xc32/v2.15/bin/bin/../../lib/gcc/pic32c/6.2.1/v7e-m/fpv5/hard/crtend.o
 .ARM.attributes
                0x0000000000000000       0x32 /Applications/microchip/xc32/v2.15/bin/bin/../../lib/gcc/pic32c/6.2.1/v7e-m/fpv5/hard/crtend.o
 .text          0x0000000000000000        0x0 /Applications/microchip/xc32/v2.15/bin/bin/../../lib/gcc/pic32c/6.2.1/v7e-m/fpv5/hard/crtn.o
 .data          0x0000000000000000        0x0 /Applications/microchip/xc32/v2.15/bin/bin/../../lib/gcc/pic32c/6.2.1/v7e-m/fpv5/hard/crtn.o
 .bss           0x0000000000000000        0x0 /Applications/microchip/xc32/v2.15/bin/bin/../../lib/gcc/pic32c/6.2.1/v7e-m/fpv5/hard/crtn.o

Memory Configuration

Name             Origin             Length             Attributes
rom              0x0000000000400000 0x0000000000200000 xr
ram              0x0000000020400000 0x0000000000060000 xrw
itcm             0x0000000000000000 0x0000000000000000 xrw
dtcm             0x0000000020000000 0x0000000000000000 xrw
*default*        0x0000000000000000 0xffffffffffffffff
tcm              0x0000000000000000 0xffffffffffffffff

Linker script and memory map

LOAD /Applications/microchip/xc32/v2.15/bin/bin/../../lib/gcc/pic32c/6.2.1/v7e-m/fpv5/hard/crti.o
LOAD /Applications/microchip/xc32/v2.15/bin/bin/../../lib/gcc/pic32c/6.2.1/v7e-m/fpv5/hard/crtbegin.o
LOAD /Applications/microchip/xc32/v2.15/bin/bin/../../lib/gcc/pic32c/6.2.1/../../../../pic32c/lib/v7e-m/fpv5/hard/crt0.o
LOAD build/sam_e70_xult_freertos/production/_ext/683629640/bsp.o
LOAD build/sam_e70_xult_freertos/production/_ext/1607428259/drv_ethphy.o
LOAD build/sam_e70_xult_freertos/production/_ext/1607428259/drv_extphy_smsc8740.o
LOAD build/sam_e70_xult_freertos/production/_ext/1619526243/drv_gmac.o
LOAD build/sam_e70_xult_freertos/production/_ext/1619526243/drv_gmac_lib_samE7x_V7x.o
LOAD build/sam_e70_xult_freertos/production/_ext/511568427/drv_miim.o
LOAD build/sam_e70_xult_freertos/production/_ext/810785262/helpers.o
LOAD build/sam_e70_xult_freertos/production/_ext/810785262/dns.o
LOAD build/sam_e70_xult_freertos/production/_ext/810785262/icmp.o
LOAD build/sam_e70_xult_freertos/production/_ext/810785262/tcp.o
LOAD build/sam_e70_xult_freertos/production/_ext/810785262/dhcp.o
LOAD build/sam_e70_xult_freertos/production/_ext/810785262/arp.o
LOAD build/sam_e70_xult_freertos/production/_ext/810785262/tcpip_commands.o
LOAD build/sam_e70_xult_freertos/production/_ext/810785262/ipv4.o
LOAD build/sam_e70_xult_freertos/production/_ext/810785262/tcpip_heap_alloc.o
LOAD build/sam_e70_xult_freertos/production/_ext/810785262/tcpip_heap_internal.o
LOAD build/sam_e70_xult_freertos/production/_ext/810785262/hash_fnv.o
LOAD build/sam_e70_xult_freertos/production/_ext/810785262/oahash.o
LOAD build/sam_e70_xult_freertos/production/_ext/810785262/tcpip_helpers.o
LOAD build/sam_e70_xult_freertos/production/_ext/810785262/tcpip_manager.o
LOAD build/sam_e70_xult_freertos/production/_ext/810785262/tcpip_notify.o
LOAD build/sam_e70_xult_freertos/production/_ext/810785262/tcpip_packet.o
LOAD build/sam_e70_xult_freertos/production/_ext/810785262/udp.o
LOAD build/sam_e70_xult_freertos/production/_ext/45647770/plib_clk.o
LOAD build/sam_e70_xult_freertos/production/_ext/45638026/plib_mpu.o
LOAD build/sam_e70_xult_freertos/production/_ext/1414743522/plib_nvic.o
LOAD build/sam_e70_xult_freertos/production/_ext/45635366/plib_pio.o
LOAD build/sam_e70_xult_freertos/production/_ext/1245453995/plib_tc0.o
LOAD build/sam_e70_xult_freertos/production/_ext/901008055/plib_usart1.o
LOAD build/sam_e70_xult_freertos/production/_ext/146190766/xc32_monitor.o
LOAD build/sam_e70_xult_freertos/production/_ext/992551865/sys_cache.o
LOAD build/sam_e70_xult_freertos/production/_ext/762686499/sys_console.o
LOAD build/sam_e70_xult_freertos/production/_ext/762686499/sys_console_uart.o
LOAD build/sam_e70_xult_freertos/production/_ext/762686499/sys_debug.o
LOAD build/sam_e70_xult_freertos/production/_ext/762686499/sys_command.o
LOAD build/sam_e70_xult_freertos/production/_ext/1775855163/sys_int.o
LOAD build/sam_e70_xult_freertos/production/_ext/912870411/sys_time.o
LOAD build/sam_e70_xult_freertos/production/_ext/231871610/sys_time_h2_adapter.o
LOAD build/sam_e70_xult_freertos/production/_ext/1552905064/tasks.o
LOAD build/sam_e70_xult_freertos/production/_ext/1552905064/initialization.o
LOAD build/sam_e70_xult_freertos/production/_ext/1552905064/interrupts.o
LOAD build/sam_e70_xult_freertos/production/_ext/1552905064/exceptions.o
LOAD build/sam_e70_xult_freertos/production/_ext/1552905064/startup_xc32.o
LOAD build/sam_e70_xult_freertos/production/_ext/1552905064/libc_syscalls.o
LOAD build/sam_e70_xult_freertos/production/_ext/1552905064/freertos_hooks.o
LOAD build/sam_e70_xult_freertos/production/_ext/977623654/port.o
LOAD build/sam_e70_xult_freertos/production/_ext/1665200909/heap_3.o
LOAD build/sam_e70_xult_freertos/production/_ext/404212886/croutine.o
LOAD build/sam_e70_xult_freertos/production/_ext/404212886/list.o
LOAD build/sam_e70_xult_freertos/production/_ext/404212886/queue.o
LOAD build/sam_e70_xult_freertos/production/_ext/404212886/FreeRTOS_tasks.o
LOAD build/sam_e70_xult_freertos/production/_ext/404212886/timers.o
LOAD build/sam_e70_xult_freertos/production/_ext/404212886/event_groups.o
LOAD build/sam_e70_xult_freertos/production/_ext/404212886/stream_buffer.o
LOAD build/sam_e70_xult_freertos/production/_ext/281930714/osal_freertos.o
LOAD build/sam_e70_xult_freertos/production/_ext/1360937237/app_commands.o
LOAD build/sam_e70_xult_freertos/production/_ext/1360937237/app.o
LOAD build/sam_e70_xult_freertos/production/_ext/1360937237/main.o
                0x0000000000000001                __MPLAB_BUILD = 0x1
                0x0000000000017ac0                _min_heap_size = 0x17ac0
START GROUP
LOAD /Applications/microchip/xc32/v2.15/bin/bin/../../lib/gcc/pic32c/6.2.1/../../../../pic32c/lib/v7e-m/fpv5/hard/libpic32c.a
LOAD /Applications/microchip/xc32/v2.15/bin/bin/../../lib/gcc/pic32c/6.2.1/v7e-m/fpv5/hard/libgcc.a
LOAD /Applications/microchip/xc32/v2.15/bin/bin/../../lib/gcc/pic32c/6.2.1/../../../../pic32c/lib/v7e-m/fpv5/hard/libc.a
LOAD /Applications/microchip/xc32/v2.15/bin/bin/../../lib/gcc/pic32c/6.2.1/../../../../pic32c/lib/v7e-m/fpv5/hard/libm.a
END GROUP
LOAD /Applications/microchip/xc32/v2.15/bin/bin/../../lib/gcc/pic32c/6.2.1/v7e-m/fpv5/hard/crtend.o
LOAD /Applications/microchip/xc32/v2.15/bin/bin/../../lib/gcc/pic32c/6.2.1/v7e-m/fpv5/hard/crtn.o
                0x0000000000600000                __rom_end = (ORIGIN (rom) + LENGTH (rom))
                0x0000000020460000                __ram_end = (ORIGIN (ram) + LENGTH (ram))

.vectors        0x0000000000400000      0x168
                0x0000000000400000                . = ALIGN (0x4)
                0x0000000000400000                _sfixed = .
 *(.vectors .vectors.* .vectors_default .vectors_default.*)
 .vectors       0x0000000000400000      0x168 build/sam_e70_xult_freertos/production/_ext/1552905064/interrupts.o
                0x0000000000400000                exception_table
 *(.isr_vector)
 *(.reset*)
 *(.after_vectors)

.text           0x0000000000400168       0x24
                0x0000000000400168                . = ALIGN (0x4)
 *(.glue_7t)
 .glue_7t       0x0000000000400168        0x0 linker stubs
 *(.glue_7)
 .glue_7        0x0000000000400168        0x0 linker stubs
 *(.gnu.linkonce.r.*)
 *(.ARM.extab* .gnu.linkonce.armextab.*)
                0x0000000000400168                . = ALIGN (0x4)
 *(.init)
 .init          0x0000000000400168        0x4 /Applications/microchip/xc32/v2.15/bin/bin/../../lib/gcc/pic32c/6.2.1/v7e-m/fpv5/hard/crti.o
                0x0000000000400168                _init
 .init          0x000000000040016c        0x8 /Applications/microchip/xc32/v2.15/bin/bin/../../lib/gcc/pic32c/6.2.1/v7e-m/fpv5/hard/crtn.o
                0x0000000000400174                . = ALIGN (0x4)
                0x0000000000400174                __preinit_array_start = .
 *(.preinit_array)
                0x0000000000400174                __preinit_array_end = .
                0x0000000000400174                . = ALIGN (0x4)
                0x0000000000400174                __init_array_start = .
 *(SORT(.init_array.*))
 .init_array.00000
                0x0000000000400174        0x4 /Applications/microchip/xc32/v2.15/bin/bin/../../lib/gcc/pic32c/6.2.1/../../../../pic32c/lib/v7e-m/fpv5/hard/libc.a(lib_a-__call_atexit.o)
 *(.init_array)
 .init_array    0x0000000000400178        0x4 /Applications/microchip/xc32/v2.15/bin/bin/../../lib/gcc/pic32c/6.2.1/v7e-m/fpv5/hard/crtbegin.o
                0x000000000040017c                __init_array_end = .
                0x000000000040017c                . = ALIGN (0x4)
 *crtbegin.o(.ctors)
 *(EXCLUDE_FILE(*crtend.o) .ctors)
 *(SORT(.ctors.*))
 *crtend.o(.ctors)
                0x000000000040017c                . = ALIGN (0x4)
 *(.fini)
 .fini          0x000000000040017c        0x4 /Applications/microchip/xc32/v2.15/bin/bin/../../lib/gcc/pic32c/6.2.1/v7e-m/fpv5/hard/crti.o
                0x000000000040017c                _fini
 .fini          0x0000000000400180        0x8 /Applications/microchip/xc32/v2.15/bin/bin/../../lib/gcc/pic32c/6.2.1/v7e-m/fpv5/hard/crtn.o
                0x0000000000400188                . = ALIGN (0x4)
                0x0000000000400188                __fini_array_start = .
 *(.fini_array)
 .fini_array    0x0000000000400188        0x4 /Applications/microchip/xc32/v2.15/bin/bin/../../lib/gcc/pic32c/6.2.1/v7e-m/fpv5/hard/crtbegin.o
 *(SORT(.fini_array.*))
                0x000000000040018c                __fini_array_end = .
 *crtbegin.o(.dtors)
 *(EXCLUDE_FILE(*crtend.o) .dtors)
 *(SORT(.dtors.*))
 *crtend.o(.dtors)
                0x000000000040018c                . = ALIGN (0x4)
                0x000000000040018c                _efixed = .
                [!provide]                        PROVIDE (__exidx_start, .)

.ARM.exidx      0x000000000040018c        0x8
 *(.ARM.exidx* .gnu.linkonce.armexidx.*)
 .ARM.exidx     0x000000000040018c        0x8 /Applications/microchip/xc32/v2.15/bin/bin/../../lib/gcc/pic32c/6.2.1/v7e-m/fpv5/hard/libgcc.a(_udivmoddi4.o)
                [!provide]                        PROVIDE (__exidx_end, .)
                0x0000000000400194                . = ALIGN (0x4)
                0x0000000000400194                _etext = .

.bss            0x0000000020400000      0x5f0
                0x0000000020400000                . = ALIGN (0x4)
                0x0000000020400000                __bss_start__ = .
                0x0000000020400000                _sbss = .
                0x0000000020400000                _szero = .
 *(COMMON)
 COMMON         0x0000000020400000        0x8 build/sam_e70_xult_freertos/production/_ext/1245453995/plib_tc0.o
                0x0000000020400000                TC0_CH0_CallbackObj
 COMMON         0x0000000020400008       0x30 build/sam_e70_xult_freertos/production/_ext/901008055/plib_usart1.o
                0x0000000020400008                usart1Obj
 COMMON         0x0000000020400038        0x9 build/sam_e70_xult_freertos/production/_ext/762686499/sys_debug.o
                0x0000000020400038                sysDebugInstance
                0x0000000020400040                gblErrLvl
 *fill*         0x0000000020400041        0x3 
 COMMON         0x0000000020400044        0x4 build/sam_e70_xult_freertos/production/_ext/1552905064/tasks.o
                0x0000000020400044                xAPP_Tasks
 COMMON         0x0000000020400048       0x14 build/sam_e70_xult_freertos/production/_ext/1552905064/initialization.o
                0x0000000020400048                sysObj
 COMMON         0x000000002040005c       0xff build/sam_e70_xult_freertos/production/_ext/1360937237/app_commands.o
                0x000000002040005c                APP_URL_Buffer
 *fill*         0x000000002040015b        0x1 
 COMMON         0x000000002040015c      0x490 build/sam_e70_xult_freertos/production/_ext/1360937237/app.o
                0x000000002040015c                appData
                0x000000002040016c                jsonBuffer
                0x000000002040056c                cityBuffer
 COMMON         0x00000000204005ec        0x4 /Applications/microchip/xc32/v2.15/bin/bin/../../lib/gcc/pic32c/6.2.1/../../../../pic32c/lib/v7e-m/fpv5/hard/libc.a(lib_a-reent.o)
                0x00000000204005ec                errno
                0x00000000204005f0                . = ALIGN (0x4)
                0x00000000204005f0                __bss_end__ = .
                0x00000000204005f0                _ebss = .
                0x00000000204005f0                _ezero = .
                0x00000000204005f0                . = ALIGN (0x4)
                0x00000000204005f0                _end = .
                0x000000002045ffff                _ram_end_ = ((ORIGIN (ram) + LENGTH (ram)) - 0x1)
OUTPUT(dist/sam_e70_xult_freertos/production/sam_e70_xult_freertos.X.production.elf elf32-littlearm)
LOAD stack
LOAD data_init

.ARM.attributes
                0x0000000000000000       0x2e
 .ARM.attributes
                0x0000000000000000       0x20 /Applications/microchip/xc32/v2.15/bin/bin/../../lib/gcc/pic32c/6.2.1/v7e-m/fpv5/hard/crti.o
 .ARM.attributes
                0x0000000000000020       0x32 /Applications/microchip/xc32/v2.15/bin/bin/../../lib/gcc/pic32c/6.2.1/v7e-m/fpv5/hard/crtbegin.o
 .ARM.attributes
                0x0000000000000052       0x37 build/sam_e70_xult_freertos/production/_ext/683629640/bsp.o
 .ARM.attributes
                0x0000000000000089       0x37 build/sam_e70_xult_freertos/production/_ext/1607428259/drv_ethphy.o
 .ARM.attributes
                0x00000000000000c0       0x37 build/sam_e70_xult_freertos/production/_ext/1607428259/drv_extphy_smsc8740.o
 .ARM.attributes
                0x00000000000000f7       0x37 build/sam_e70_xult_freertos/production/_ext/1619526243/drv_gmac.o
 .ARM.attributes
                0x000000000000012e       0x37 build/sam_e70_xult_freertos/production/_ext/1619526243/drv_gmac_lib_samE7x_V7x.o
 .ARM.attributes
                0x0000000000000165       0x37 build/sam_e70_xult_freertos/production/_ext/511568427/drv_miim.o
 .ARM.attributes
                0x000000000000019c       0x37 build/sam_e70_xult_freertos/production/_ext/810785262/helpers.o
 .ARM.attributes
                0x00000000000001d3       0x37 build/sam_e70_xult_freertos/production/_ext/810785262/dns.o
 .ARM.attributes
                0x000000000000020a       0x37 build/sam_e70_xult_freertos/production/_ext/810785262/icmp.o
 .ARM.attributes
                0x0000000000000241       0x37 build/sam_e70_xult_freertos/production/_ext/810785262/tcp.o
 .ARM.attributes
                0x0000000000000278       0x37 build/sam_e70_xult_freertos/production/_ext/810785262/dhcp.o
 .ARM.attributes
                0x00000000000002af       0x37 build/sam_e70_xult_freertos/production/_ext/810785262/arp.o
 .ARM.attributes
                0x00000000000002e6       0x37 build/sam_e70_xult_freertos/production/_ext/810785262/tcpip_commands.o
 .ARM.attributes
                0x000000000000031d       0x37 build/sam_e70_xult_freertos/production/_ext/810785262/ipv4.o
 .ARM.attributes
                0x0000000000000354       0x37 build/sam_e70_xult_freertos/production/_ext/810785262/tcpip_heap_alloc.o
 .ARM.attributes
                0x000000000000038b       0x37 build/sam_e70_xult_freertos/production/_ext/810785262/tcpip_heap_internal.o
 .ARM.attributes
                0x00000000000003c2       0x37 build/sam_e70_xult_freertos/production/_ext/810785262/hash_fnv.o
 .ARM.attributes
                0x00000000000003f9       0x37 build/sam_e70_xult_freertos/production/_ext/810785262/oahash.o
 .ARM.attributes
                0x0000000000000430       0x37 build/sam_e70_xult_freertos/production/_ext/810785262/tcpip_helpers.o
 .ARM.attributes
                0x0000000000000467       0x37 build/sam_e70_xult_freertos/production/_ext/810785262/tcpip_manager.o
 .ARM.attributes
                0x000000000000049e       0x37 build/sam_e70_xult_freertos/production/_ext/810785262/tcpip_notify.o
 .ARM.attributes
                0x00000000000004d5       0x37 build/sam_e70_xult_freertos/production/_ext/810785262/tcpip_packet.o
 .ARM.attributes
                0x000000000000050c       0x37 build/sam_e70_xult_freertos/production/_ext/810785262/udp.o
 .ARM.attributes
                0x0000000000000543       0x37 build/sam_e70_xult_freertos/production/_ext/45647770/plib_clk.o
 .ARM.attributes
                0x000000000000057a       0x37 build/sam_e70_xult_freertos/production/_ext/45638026/plib_mpu.o
 .ARM.attributes
                0x00000000000005b1       0x37 build/sam_e70_xult_freertos/production/_ext/1414743522/plib_nvic.o
 .ARM.attributes
                0x00000000000005e8       0x37 build/sam_e70_xult_freertos/production/_ext/45635366/plib_pio.o
 .ARM.attributes
                0x000000000000061f       0x37 build/sam_e70_xult_freertos/production/_ext/1245453995/plib_tc0.o
 .ARM.attributes
                0x0000000000000656       0x37 build/sam_e70_xult_freertos/production/_ext/901008055/plib_usart1.o
 .ARM.attributes
                0x000000000000068d       0x37 build/sam_e70_xult_freertos/production/_ext/762686499/sys_console.o
 .ARM.attributes
                0x00000000000006c4       0x37 build/sam_e70_xult_freertos/production/_ext/762686499/sys_console_uart.o
 .ARM.attributes
                0x00000000000006fb       0x37 build/sam_e70_xult_freertos/production/_ext/762686499/sys_debug.o
 .ARM.attributes
                0x0000000000000732       0x37 build/sam_e70_xult_freertos/production/_ext/762686499/sys_command.o
 .ARM.attributes
                0x0000000000000769       0x37 build/sam_e70_xult_freertos/production/_ext/1775855163/sys_int.o
 .ARM.attributes
                0x00000000000007a0       0x37 build/sam_e70_xult_freertos/production/_ext/912870411/sys_time.o
 .ARM.attributes
                0x00000000000007d7       0x37 build/sam_e70_xult_freertos/production/_ext/231871610/sys_time_h2_adapter.o
 .ARM.attributes
                0x000000000000080e       0x37 build/sam_e70_xult_freertos/production/_ext/1552905064/tasks.o
 .ARM.attributes
                0x0000000000000845       0x37 build/sam_e70_xult_freertos/production/_ext/1552905064/initialization.o
 .ARM.attributes
                0x000000000000087c       0x37 build/sam_e70_xult_freertos/production/_ext/1552905064/interrupts.o
 .ARM.attributes
                0x00000000000008b3       0x37 build/sam_e70_xult_freertos/production/_ext/1552905064/exceptions.o
 .ARM.attributes
                0x00000000000008ea       0x37 build/sam_e70_xult_freertos/production/_ext/1552905064/startup_xc32.o
 .ARM.attributes
                0x0000000000000921       0x37 build/sam_e70_xult_freertos/production/_ext/1552905064/freertos_hooks.o
 .ARM.attributes
                0x0000000000000958       0x37 build/sam_e70_xult_freertos/production/_ext/977623654/port.o
 .ARM.attributes
                0x000000000000098f       0x37 build/sam_e70_xult_freertos/production/_ext/1665200909/heap_3.o
 .ARM.attributes
                0x00000000000009c6       0x37 build/sam_e70_xult_freertos/production/_ext/404212886/list.o
 .ARM.attributes
                0x00000000000009fd       0x37 build/sam_e70_xult_freertos/production/_ext/404212886/queue.o
 .ARM.attributes
                0x0000000000000a34       0x37 build/sam_e70_xult_freertos/production/_ext/404212886/FreeRTOS_tasks.o
 .ARM.attributes
                0x0000000000000a6b       0x37 build/sam_e70_xult_freertos/production/_ext/281930714/osal_freertos.o
 .ARM.attributes
                0x0000000000000aa2       0x37 build/sam_e70_xult_freertos/production/_ext/1360937237/app_commands.o
 .ARM.attributes
                0x0000000000000ad9       0x37 build/sam_e70_xult_freertos/production/_ext/1360937237/app.o
 .ARM.attributes
                0x0000000000000b10       0x37 build/sam_e70_xult_freertos/production/_ext/1360937237/main.o
 .ARM.attributes
                0x0000000000000b47       0x32 /Applications/microchip/xc32/v2.15/bin/bin/../../lib/gcc/pic32c/6.2.1/../../../../pic32c/lib/v7e-m/fpv5/hard/libpic32c.a(data_init.o)
 .ARM.attributes
                0x0000000000000b79       0x20 /Applications/microchip/xc32/v2.15/bin/bin/../../lib/gcc/pic32c/6.2.1/v7e-m/fpv5/hard/libgcc.a(_aeabi_uldivmod.o)
 .ARM.attributes
                0x0000000000000b99       0x32 /Applications/microchip/xc32/v2.15/bin/bin/../../lib/gcc/pic32c/6.2.1/v7e-m/fpv5/hard/libgcc.a(_udivmoddi4.o)
 .ARM.attributes
                0x0000000000000bcb       0x20 /Applications/microchip/xc32/v2.15/bin/bin/../../lib/gcc/pic32c/6.2.1/v7e-m/fpv5/hard/libgcc.a(_dvmd_tls.o)
 .ARM.attributes
                0x0000000000000beb       0x32 /Applications/microchip/xc32/v2.15/bin/bin/../../lib/gcc/pic32c/6.2.1/../../../../pic32c/lib/v7e-m/fpv5/hard/libc.a(lib_a-atof.o)
 .ARM.attributes
                0x0000000000000c1d       0x32 /Applications/microchip/xc32/v2.15/bin/bin/../../lib/gcc/pic32c/6.2.1/../../../../pic32c/lib/v7e-m/fpv5/hard/libc.a(lib_a-atoi.o)
 .ARM.attributes
                0x0000000000000c4f       0x32 /Applications/microchip/xc32/v2.15/bin/bin/../../lib/gcc/pic32c/6.2.1/../../../../pic32c/lib/v7e-m/fpv5/hard/libc.a(lib_a-calloc.o)
 .ARM.attributes
                0x0000000000000c81       0x32 /Applications/microchip/xc32/v2.15/bin/bin/../../lib/gcc/pic32c/6.2.1/../../../../pic32c/lib/v7e-m/fpv5/hard/libc.a(lib_a-callocr.o)
 .ARM.attributes
                0x0000000000000cb3       0x32 /Applications/microchip/xc32/v2.15/bin/bin/../../lib/gcc/pic32c/6.2.1/../../../../pic32c/lib/v7e-m/fpv5/hard/libc.a(lib_a-impure.o)
 .ARM.attributes
                0x0000000000000ce5       0x32 /Applications/microchip/xc32/v2.15/bin/bin/../../lib/gcc/pic32c/6.2.1/../../../../pic32c/lib/v7e-m/fpv5/hard/libc.a(lib_a-init.o)
 .ARM.attributes
                0x0000000000000d17       0x32 /Applications/microchip/xc32/v2.15/bin/bin/../../lib/gcc/pic32c/6.2.1/../../../../pic32c/lib/v7e-m/fpv5/hard/libc.a(lib_a-locale.o)
 .ARM.attributes
                0x0000000000000d49       0x32 /Applications/microchip/xc32/v2.15/bin/bin/../../lib/gcc/pic32c/6.2.1/../../../../pic32c/lib/v7e-m/fpv5/hard/libc.a(lib_a-malloc.o)
 .ARM.attributes
                0x0000000000000d7b       0x32 /Applications/microchip/xc32/v2.15/bin/bin/../../lib/gcc/pic32c/6.2.1/../../../../pic32c/lib/v7e-m/fpv5/hard/libc.a(lib_a-mallocr.o)
 .ARM.attributes
                0x0000000000000dad       0x32 /Applications/microchip/xc32/v2.15/bin/bin/../../lib/gcc/pic32c/6.2.1/../../../../pic32c/lib/v7e-m/fpv5/hard/libc.a(lib_a-mbtowc_r.o)
 .ARM.attributes
                0x0000000000000ddf       0x32 /Applications/microchip/xc32/v2.15/bin/bin/../../lib/gcc/pic32c/6.2.1/../../../../pic32c/lib/v7e-m/fpv5/hard/libc.a(lib_a-memcmp.o)
 .ARM.attributes
                0x0000000000000e11       0x1e /Applications/microchip/xc32/v2.15/bin/bin/../../lib/gcc/pic32c/6.2.1/../../../../pic32c/lib/v7e-m/fpv5/hard/libc.a(lib_a-memcpy.o)
 .ARM.attributes
                0x0000000000000e2f       0x32 /Applications/microchip/xc32/v2.15/bin/bin/../../lib/gcc/pic32c/6.2.1/../../../../pic32c/lib/v7e-m/fpv5/hard/libc.a(lib_a-memset.o)
 .ARM.attributes
                0x0000000000000e61       0x32 /Applications/microchip/xc32/v2.15/bin/bin/../../lib/gcc/pic32c/6.2.1/../../../../pic32c/lib/v7e-m/fpv5/hard/libc.a(lib_a-mlock.o)
 .ARM.attributes
                0x0000000000000e93       0x32 /Applications/microchip/xc32/v2.15/bin/bin/../../lib/gcc/pic32c/6.2.1/../../../../pic32c/lib/v7e-m/fpv5/hard/libc.a(lib_a-rand.o)
 .ARM.attributes
                0x0000000000000ec5       0x32 /Applications/microchip/xc32/v2.15/bin/bin/../../lib/gcc/pic32c/6.2.1/../../../../pic32c/lib/v7e-m/fpv5/hard/libc.a(lib_a-sbrkr.o)
 .ARM.attributes
                0x0000000000000ef7       0x32 /Applications/microchip/xc32/v2.15/bin/bin/../../lib/gcc/pic32c/6.2.1/../../../../pic32c/lib/v7e-m/fpv5/hard/libc.a(lib_a-snprintf.o)
 .ARM.attributes
                0x0000000000000f29       0x32 /Applications/microchip/xc32/v2.15/bin/bin/../../lib/gcc/pic32c/6.2.1/../../../../pic32c/lib/v7e-m/fpv5/hard/libc.a(lib_a-sprintf.o)
 .ARM.attributes
                0x0000000000000f5b       0x1e /Applications/microchip/xc32/v2.15/bin/bin/../../lib/gcc/pic32c/6.2.1/../../../../pic32c/lib/v7e-m/fpv5/hard/libc.a(lib_a-strcmp.o)
 .ARM.attributes
                0x0000000000000f79       0x32 /Applications/microchip/xc32/v2.15/bin/bin/../../lib/gcc/pic32c/6.2.1/../../../../pic32c/lib/v7e-m/fpv5/hard/libc.a(lib_a-strcpy.o)
 .ARM.attributes
                0x0000000000000fab       0x1e /Applications/microchip/xc32/v2.15/bin/bin/../../lib/gcc/pic32c/6.2.1/../../../../pic32c/lib/v7e-m/fpv5/hard/libc.a(lib_a-strlen.o)
 .ARM.attributes
                0x0000000000000fc9       0x32 /Applications/microchip/xc32/v2.15/bin/bin/../../lib/gcc/pic32c/6.2.1/../../../../pic32c/lib/v7e-m/fpv5/hard/libc.a(lib_a-strncat.o)
 .ARM.attributes
                0x0000000000000ffb       0x32 /Applications/microchip/xc32/v2.15/bin/bin/../../lib/gcc/pic32c/6.2.1/../../../../pic32c/lib/v7e-m/fpv5/hard/libc.a(lib_a-strncpy.o)
 .ARM.attributes
                0x000000000000102d       0x32 /Applications/microchip/xc32/v2.15/bin/bin/../../lib/gcc/pic32c/6.2.1/../../../../pic32c/lib/v7e-m/fpv5/hard/libc.a(lib_a-strstr.o)
 .ARM.attributes
                0x000000000000105f       0x32 /Applications/microchip/xc32/v2.15/bin/bin/../../lib/gcc/pic32c/6.2.1/../../../../pic32c/lib/v7e-m/fpv5/hard/libc.a(lib_a-strtod.o)
 .ARM.attributes
                0x0000000000001091       0x32 /Applications/microchip/xc32/v2.15/bin/bin/../../lib/gcc/pic32c/6.2.1/../../../../pic32c/lib/v7e-m/fpv5/hard/libc.a(lib_a-strtok.o)
 .ARM.attributes
                0x00000000000010c3       0x32 /Applications/microchip/xc32/v2.15/bin/bin/../../lib/gcc/pic32c/6.2.1/../../../../pic32c/lib/v7e-m/fpv5/hard/libc.a(lib_a-strtok_r.o)
 .ARM.attributes
                0x00000000000010f5       0x32 /Applications/microchip/xc32/v2.15/bin/bin/../../lib/gcc/pic32c/6.2.1/../../../../pic32c/lib/v7e-m/fpv5/hard/libc.a(lib_a-strtol.o)
 .ARM.attributes
                0x0000000000001127       0x32 /Applications/microchip/xc32/v2.15/bin/bin/../../lib/gcc/pic32c/6.2.1/../../../../pic32c/lib/v7e-m/fpv5/hard/libc.a(lib_a-svfprintf.o)
 .ARM.attributes
                0x0000000000001159       0x32 /Applications/microchip/xc32/v2.15/bin/bin/../../lib/gcc/pic32c/6.2.1/../../../../pic32c/lib/v7e-m/fpv5/hard/libc.a(lib_a-vsnprintf.o)
 .ARM.attributes
                0x000000000000118b       0x32 /Applications/microchip/xc32/v2.15/bin/bin/../../lib/gcc/pic32c/6.2.1/../../../../pic32c/lib/v7e-m/fpv5/hard/libc.a(lib_a-wctomb_r.o)
 .ARM.attributes
                0x00000000000011bd       0x32 /Applications/microchip/xc32/v2.15/bin/bin/../../lib/gcc/pic32c/6.2.1/../../../../pic32c/lib/v7e-m/fpv5/hard/libc.a(lib_a-__call_atexit.o)
 .ARM.attributes
                0x00000000000011ef       0x32 /Applications/microchip/xc32/v2.15/bin/bin/../../lib/gcc/pic32c/6.2.1/../../../../pic32c/lib/v7e-m/fpv5/hard/libc.a(lib_a-atexit.o)
 .ARM.attributes
                0x0000000000001221       0x32 /Applications/microchip/xc32/v2.15/bin/bin/../../lib/gcc/pic32c/6.2.1/../../../../pic32c/lib/v7e-m/fpv5/hard/libc.a(lib_a-ctype_.o)
 .ARM.attributes
                0x0000000000001253       0x32 /Applications/microchip/xc32/v2.15/bin/bin/../../lib/gcc/pic32c/6.2.1/../../../../pic32c/lib/v7e-m/fpv5/hard/libc.a(lib_a-dtoa.o)
 .ARM.attributes
                0x0000000000001285       0x32 /Applications/microchip/xc32/v2.15/bin/bin/../../lib/gcc/pic32c/6.2.1/../../../../pic32c/lib/v7e-m/fpv5/hard/libc.a(lib_a-fini.o)
 .ARM.attributes
                0x00000000000012b7       0x32 /Applications/microchip/xc32/v2.15/bin/bin/../../lib/gcc/pic32c/6.2.1/../../../../pic32c/lib/v7e-m/fpv5/hard/libc.a(lib_a-freer.o)
 .ARM.attributes
                0x00000000000012e9       0x32 /Applications/microchip/xc32/v2.15/bin/bin/../../lib/gcc/pic32c/6.2.1/../../../../pic32c/lib/v7e-m/fpv5/hard/libc.a(lib_a-gdtoa-gethex.o)
 .ARM.attributes
                0x000000000000131b       0x32 /Applications/microchip/xc32/v2.15/bin/bin/../../lib/gcc/pic32c/6.2.1/../../../../pic32c/lib/v7e-m/fpv5/hard/libc.a(lib_a-gdtoa-hexnan.o)
 .ARM.attributes
                0x000000000000134d       0x32 /Applications/microchip/xc32/v2.15/bin/bin/../../lib/gcc/pic32c/6.2.1/../../../../pic32c/lib/v7e-m/fpv5/hard/libc.a(lib_a-localeconv.o)
 .ARM.attributes
                0x000000000000137f       0x1e /Applications/microchip/xc32/v2.15/bin/bin/../../lib/gcc/pic32c/6.2.1/../../../../pic32c/lib/v7e-m/fpv5/hard/libc.a(lib_a-memchr.o)
 .ARM.attributes
                0x000000000000139d       0x32 /Applications/microchip/xc32/v2.15/bin/bin/../../lib/gcc/pic32c/6.2.1/../../../../pic32c/lib/v7e-m/fpv5/hard/libc.a(lib_a-mprec.o)
 .ARM.attributes
                0x00000000000013cf       0x32 /Applications/microchip/xc32/v2.15/bin/bin/../../lib/gcc/pic32c/6.2.1/../../../../pic32c/lib/v7e-m/fpv5/hard/libc.a(lib_a-reent.o)
 .ARM.attributes
                0x0000000000001401       0x32 /Applications/microchip/xc32/v2.15/bin/bin/../../lib/gcc/pic32c/6.2.1/../../../../pic32c/lib/v7e-m/fpv5/hard/libc.a(lib_a-s_frexp.o)
 .ARM.attributes
                0x0000000000001433       0x32 /Applications/microchip/xc32/v2.15/bin/bin/../../lib/gcc/pic32c/6.2.1/../../../../pic32c/lib/v7e-m/fpv5/hard/libc.a(lib_a-strchr.o)
 .ARM.attributes
                0x0000000000001465       0x32 /Applications/microchip/xc32/v2.15/bin/bin/../../lib/gcc/pic32c/6.2.1/../../../../pic32c/lib/v7e-m/fpv5/hard/libc.a(lib_a-strncmp.o)
 .ARM.attributes
                0x0000000000001497       0x32 /Applications/microchip/xc32/v2.15/bin/bin/../../lib/gcc/pic32c/6.2.1/../../../../pic32c/lib/v7e-m/fpv5/hard/libc.a(lib_a-svfiprintf.o)
 .ARM.attributes
                0x00000000000014c9       0x32 /Applications/microchip/xc32/v2.15/bin/bin/../../lib/gcc/pic32c/6.2.1/../../../../pic32c/lib/v7e-m/fpv5/hard/libc.a(lib_a-__atexit.o)
 .ARM.attributes
                0x00000000000014fb       0x32 /Applications/microchip/xc32/v2.15/bin/bin/../../lib/gcc/pic32c/6.2.1/../../../../pic32c/lib/v7e-m/fpv5/hard/libc.a(lib_a-memmove.o)
 .ARM.attributes
                0x000000000000152d       0x32 /Applications/microchip/xc32/v2.15/bin/bin/../../lib/gcc/pic32c/6.2.1/../../../../pic32c/lib/v7e-m/fpv5/hard/libc.a(lib_a-reallocr.o)
 .ARM.attributes
                0x000000000000155f       0x32 /Applications/microchip/xc32/v2.15/bin/bin/../../lib/gcc/pic32c/6.2.1/../../../../pic32c/lib/v7e-m/fpv5/hard/libpic32c.a(sbrk.o)
 .ARM.attributes
                0x0000000000001591       0x20 /Applications/microchip/xc32/v2.15/bin/bin/../../lib/gcc/pic32c/6.2.1/v7e-m/fpv5/hard/crtn.o

.debug_info     0x0000000000000000    0xdf9a2
 .debug_info    0x0000000000000000     0x14d7 build/sam_e70_xult_freertos/production/_ext/683629640/bsp.o
 .debug_info    0x00000000000014d7     0x85e5 build/sam_e70_xult_freertos/production/_ext/1607428259/drv_ethphy.o
 .debug_info    0x0000000000009abc     0x31ca build/sam_e70_xult_freertos/production/_ext/1607428259/drv_extphy_smsc8740.o
 .debug_info    0x000000000000cc86     0xa739 build/sam_e70_xult_freertos/production/_ext/1619526243/drv_gmac.o
 .debug_info    0x00000000000173bf     0x8d19 build/sam_e70_xult_freertos/production/_ext/1619526243/drv_gmac_lib_samE7x_V7x.o
 .debug_info    0x00000000000200d8     0x5382 build/sam_e70_xult_freertos/production/_ext/511568427/drv_miim.o
 .debug_info    0x000000000002545a     0x11a6 build/sam_e70_xult_freertos/production/_ext/810785262/helpers.o
 .debug_info    0x0000000000026600     0x92bd build/sam_e70_xult_freertos/production/_ext/810785262/dns.o
 .debug_info    0x000000000002f8bd     0x55ae build/sam_e70_xult_freertos/production/_ext/810785262/icmp.o
 .debug_info    0x0000000000034e6b     0xc92f build/sam_e70_xult_freertos/production/_ext/810785262/tcp.o
 .debug_info    0x000000000004179a     0xae8c build/sam_e70_xult_freertos/production/_ext/810785262/dhcp.o
 .debug_info    0x000000000004c626     0x866f build/sam_e70_xult_freertos/production/_ext/810785262/arp.o
 .debug_info    0x0000000000054c95     0xa37e build/sam_e70_xult_freertos/production/_ext/810785262/tcpip_commands.o
 .debug_info    0x000000000005f013     0x7fcc build/sam_e70_xult_freertos/production/_ext/810785262/ipv4.o
 .debug_info    0x0000000000066fdf     0x4622 build/sam_e70_xult_freertos/production/_ext/810785262/tcpip_heap_alloc.o
 .debug_info    0x000000000006b601     0x4f84 build/sam_e70_xult_freertos/production/_ext/810785262/tcpip_heap_internal.o
 .debug_info    0x0000000000070585      0xf0c build/sam_e70_xult_freertos/production/_ext/810785262/hash_fnv.o
 .debug_info    0x0000000000071491     0x1586 build/sam_e70_xult_freertos/production/_ext/810785262/oahash.o
 .debug_info    0x0000000000072a17     0x6e8b build/sam_e70_xult_freertos/production/_ext/810785262/tcpip_helpers.o
 .debug_info    0x00000000000798a2     0xcae1 build/sam_e70_xult_freertos/production/_ext/810785262/tcpip_manager.o
 .debug_info    0x0000000000086383     0x449e build/sam_e70_xult_freertos/production/_ext/810785262/tcpip_notify.o
 .debug_info    0x000000000008a821     0x54b6 build/sam_e70_xult_freertos/production/_ext/810785262/tcpip_packet.o
 .debug_info    0x000000000008fcd7     0xa468 build/sam_e70_xult_freertos/production/_ext/810785262/udp.o
 .debug_info    0x000000000009a13f      0x8b1 build/sam_e70_xult_freertos/production/_ext/45647770/plib_clk.o
 .debug_info    0x000000000009a9f0      0x8af build/sam_e70_xult_freertos/production/_ext/45638026/plib_mpu.o
 .debug_info    0x000000000009b29f      0xf89 build/sam_e70_xult_freertos/production/_ext/1414743522/plib_nvic.o
 .debug_info    0x000000000009c228      0xe8f build/sam_e70_xult_freertos/production/_ext/45635366/plib_pio.o
 .debug_info    0x000000000009d0b7      0x903 build/sam_e70_xult_freertos/production/_ext/1245453995/plib_tc0.o
 .debug_info    0x000000000009d9ba      0xed1 build/sam_e70_xult_freertos/production/_ext/901008055/plib_usart1.o
 .debug_info    0x000000000009e88b     0x1910 build/sam_e70_xult_freertos/production/_ext/762686499/sys_console.o
 .debug_info    0x00000000000a019b     0x5d8a build/sam_e70_xult_freertos/production/_ext/762686499/sys_console_uart.o
 .debug_info    0x00000000000a5f25     0x1465 build/sam_e70_xult_freertos/production/_ext/762686499/sys_debug.o
 .debug_info    0x00000000000a738a     0x2e32 build/sam_e70_xult_freertos/production/_ext/762686499/sys_command.o
 .debug_info    0x00000000000aa1bc      0xc89 build/sam_e70_xult_freertos/production/_ext/1775855163/sys_int.o
 .debug_info    0x00000000000aae45     0x3471 build/sam_e70_xult_freertos/production/_ext/912870411/sys_time.o
 .debug_info    0x00000000000ae2b6      0x508 build/sam_e70_xult_freertos/production/_ext/231871610/sys_time_h2_adapter.o
 .debug_info    0x00000000000ae7be     0x47f8 build/sam_e70_xult_freertos/production/_ext/1552905064/tasks.o
 .debug_info    0x00000000000b2fb6     0x70d0 build/sam_e70_xult_freertos/production/_ext/1552905064/initialization.o
 .debug_info    0x00000000000ba086     0x4f49 build/sam_e70_xult_freertos/production/_ext/1552905064/interrupts.o
 .debug_info    0x00000000000befcf     0x4522 build/sam_e70_xult_freertos/production/_ext/1552905064/exceptions.o
 .debug_info    0x00000000000c34f1     0x4e2b build/sam_e70_xult_freertos/production/_ext/1552905064/startup_xc32.o
 .debug_info    0x00000000000c831c      0x4a4 build/sam_e70_xult_freertos/production/_ext/1552905064/freertos_hooks.o
 .debug_info    0x00000000000c87c0      0x6de build/sam_e70_xult_freertos/production/_ext/977623654/port.o
 .debug_info    0x00000000000c8e9e      0xf12 build/sam_e70_xult_freertos/production/_ext/1665200909/heap_3.o
 .debug_info    0x00000000000c9db0     0x10d0 build/sam_e70_xult_freertos/production/_ext/404212886/list.o
 .debug_info    0x00000000000cae80     0x27f7 build/sam_e70_xult_freertos/production/_ext/404212886/queue.o
 .debug_info    0x00000000000cd677     0x355b build/sam_e70_xult_freertos/production/_ext/404212886/FreeRTOS_tasks.o
 .debug_info    0x00000000000d0bd2      0xa3c build/sam_e70_xult_freertos/production/_ext/281930714/osal_freertos.o
 .debug_info    0x00000000000d160e     0x4b56 build/sam_e70_xult_freertos/production/_ext/1360937237/app_commands.o
 .debug_info    0x00000000000d6164     0x53ca build/sam_e70_xult_freertos/production/_ext/1360937237/app.o
 .debug_info    0x00000000000db52e     0x4474 build/sam_e70_xult_freertos/production/_ext/1360937237/main.o

.debug_abbrev   0x0000000000000000     0xafe3
 .debug_abbrev  0x0000000000000000      0x1a3 build/sam_e70_xult_freertos/production/_ext/683629640/bsp.o
 .debug_abbrev  0x00000000000001a3      0x582 build/sam_e70_xult_freertos/production/_ext/1607428259/drv_ethphy.o
 .debug_abbrev  0x0000000000000725      0x2d0 build/sam_e70_xult_freertos/production/_ext/1607428259/drv_extphy_smsc8740.o
 .debug_abbrev  0x00000000000009f5      0x618 build/sam_e70_xult_freertos/production/_ext/1619526243/drv_gmac.o
 .debug_abbrev  0x000000000000100d      0x540 build/sam_e70_xult_freertos/production/_ext/1619526243/drv_gmac_lib_samE7x_V7x.o
 .debug_abbrev  0x000000000000154d      0x683 build/sam_e70_xult_freertos/production/_ext/511568427/drv_miim.o
 .debug_abbrev  0x0000000000001bd0      0x2ae build/sam_e70_xult_freertos/production/_ext/810785262/helpers.o
 .debug_abbrev  0x0000000000001e7e      0x5e9 build/sam_e70_xult_freertos/production/_ext/810785262/dns.o
 .debug_abbrev  0x0000000000002467      0x40a build/sam_e70_xult_freertos/production/_ext/810785262/icmp.o
 .debug_abbrev  0x0000000000002871      0x5a6 build/sam_e70_xult_freertos/production/_ext/810785262/tcp.o
 .debug_abbrev  0x0000000000002e17      0x592 build/sam_e70_xult_freertos/production/_ext/810785262/dhcp.o
 .debug_abbrev  0x00000000000033a9      0x54c build/sam_e70_xult_freertos/production/_ext/810785262/arp.o
 .debug_abbrev  0x00000000000038f5      0x4c3 build/sam_e70_xult_freertos/production/_ext/810785262/tcpip_commands.o
 .debug_abbrev  0x0000000000003db8      0x50b build/sam_e70_xult_freertos/production/_ext/810785262/ipv4.o
 .debug_abbrev  0x00000000000042c3      0x299 build/sam_e70_xult_freertos/production/_ext/810785262/tcpip_heap_alloc.o
 .debug_abbrev  0x000000000000455c      0x3f2 build/sam_e70_xult_freertos/production/_ext/810785262/tcpip_heap_internal.o
 .debug_abbrev  0x000000000000494e      0x1d0 build/sam_e70_xult_freertos/production/_ext/810785262/hash_fnv.o
 .debug_abbrev  0x0000000000004b1e      0x34c build/sam_e70_xult_freertos/production/_ext/810785262/oahash.o
 .debug_abbrev  0x0000000000004e6a      0x4fc build/sam_e70_xult_freertos/production/_ext/810785262/tcpip_helpers.o
 .debug_abbrev  0x0000000000005366      0x621 build/sam_e70_xult_freertos/production/_ext/810785262/tcpip_manager.o
 .debug_abbrev  0x0000000000005987      0x2eb build/sam_e70_xult_freertos/production/_ext/810785262/tcpip_notify.o
 .debug_abbrev  0x0000000000005c72      0x48f build/sam_e70_xult_freertos/production/_ext/810785262/tcpip_packet.o
 .debug_abbrev  0x0000000000006101      0x5bc build/sam_e70_xult_freertos/production/_ext/810785262/udp.o
 .debug_abbrev  0x00000000000066bd       0xfa build/sam_e70_xult_freertos/production/_ext/45647770/plib_clk.o
 .debug_abbrev  0x00000000000067b7       0xcd build/sam_e70_xult_freertos/production/_ext/45638026/plib_mpu.o
 .debug_abbrev  0x0000000000006884      0x179 build/sam_e70_xult_freertos/production/_ext/1414743522/plib_nvic.o
 .debug_abbrev  0x00000000000069fd      0x160 build/sam_e70_xult_freertos/production/_ext/45635366/plib_pio.o
 .debug_abbrev  0x0000000000006b5d      0x182 build/sam_e70_xult_freertos/production/_ext/1245453995/plib_tc0.o
 .debug_abbrev  0x0000000000006cdf      0x2c4 build/sam_e70_xult_freertos/production/_ext/901008055/plib_usart1.o
 .debug_abbrev  0x0000000000006fa3      0x299 build/sam_e70_xult_freertos/production/_ext/762686499/sys_console.o
 .debug_abbrev  0x000000000000723c      0x51a build/sam_e70_xult_freertos/production/_ext/762686499/sys_console_uart.o
 .debug_abbrev  0x0000000000007756      0x2cb build/sam_e70_xult_freertos/production/_ext/762686499/sys_debug.o
 .debug_abbrev  0x0000000000007a21      0x4d4 build/sam_e70_xult_freertos/production/_ext/762686499/sys_command.o
 .debug_abbrev  0x0000000000007ef5      0x200 build/sam_e70_xult_freertos/production/_ext/1775855163/sys_int.o
 .debug_abbrev  0x00000000000080f5      0x572 build/sam_e70_xult_freertos/production/_ext/912870411/sys_time.o
 .debug_abbrev  0x0000000000008667      0x128 build/sam_e70_xult_freertos/production/_ext/231871610/sys_time_h2_adapter.o
 .debug_abbrev  0x000000000000878f      0x2ba build/sam_e70_xult_freertos/production/_ext/1552905064/tasks.o
 .debug_abbrev  0x0000000000008a49      0x32a build/sam_e70_xult_freertos/production/_ext/1552905064/initialization.o
 .debug_abbrev  0x0000000000008d73      0x247 build/sam_e70_xult_freertos/production/_ext/1552905064/interrupts.o
 .debug_abbrev  0x0000000000008fba      0x236 build/sam_e70_xult_freertos/production/_ext/1552905064/exceptions.o
 .debug_abbrev  0x00000000000091f0      0x366 build/sam_e70_xult_freertos/production/_ext/1552905064/startup_xc32.o
 .debug_abbrev  0x0000000000009556      0x11f build/sam_e70_xult_freertos/production/_ext/1552905064/freertos_hooks.o
 .debug_abbrev  0x0000000000009675      0x1f2 build/sam_e70_xult_freertos/production/_ext/977623654/port.o
 .debug_abbrev  0x0000000000009867      0x241 build/sam_e70_xult_freertos/production/_ext/1665200909/heap_3.o
 .debug_abbrev  0x0000000000009aa8      0x231 build/sam_e70_xult_freertos/production/_ext/404212886/list.o
 .debug_abbrev  0x0000000000009cd9      0x402 build/sam_e70_xult_freertos/production/_ext/404212886/queue.o
 .debug_abbrev  0x000000000000a0db      0x494 build/sam_e70_xult_freertos/production/_ext/404212886/FreeRTOS_tasks.o
 .debug_abbrev  0x000000000000a56f      0x19d build/sam_e70_xult_freertos/production/_ext/281930714/osal_freertos.o
 .debug_abbrev  0x000000000000a70c      0x30c build/sam_e70_xult_freertos/production/_ext/1360937237/app_commands.o
 .debug_abbrev  0x000000000000aa18      0x35b build/sam_e70_xult_freertos/production/_ext/1360937237/app.o
 .debug_abbrev  0x000000000000ad73      0x270 build/sam_e70_xult_freertos/production/_ext/1360937237/main.o

.debug_aranges  0x0000000000000000     0x2268
 .debug_aranges
                0x0000000000000000       0x20 build/sam_e70_xult_freertos/production/_ext/683629640/bsp.o
 .debug_aranges
                0x0000000000000020      0x278 build/sam_e70_xult_freertos/production/_ext/1607428259/drv_ethphy.o
 .debug_aranges
                0x0000000000000298       0x30 build/sam_e70_xult_freertos/production/_ext/1607428259/drv_extphy_smsc8740.o
 .debug_aranges
                0x00000000000002c8      0x280 build/sam_e70_xult_freertos/production/_ext/1619526243/drv_gmac.o
 .debug_aranges
                0x0000000000000548       0xb0 build/sam_e70_xult_freertos/production/_ext/1619526243/drv_gmac_lib_samE7x_V7x.o
 .debug_aranges
                0x00000000000005f8       0xe8 build/sam_e70_xult_freertos/production/_ext/511568427/drv_miim.o
 .debug_aranges
                0x00000000000006e0       0x48 build/sam_e70_xult_freertos/production/_ext/810785262/helpers.o
 .debug_aranges
                0x0000000000000728      0x140 build/sam_e70_xult_freertos/production/_ext/810785262/dns.o
 .debug_aranges
                0x0000000000000868       0x38 build/sam_e70_xult_freertos/production/_ext/810785262/icmp.o
 .debug_aranges
                0x00000000000008a0      0x220 build/sam_e70_xult_freertos/production/_ext/810785262/tcp.o
 .debug_aranges
                0x0000000000000ac0      0x188 build/sam_e70_xult_freertos/production/_ext/810785262/dhcp.o
 .debug_aranges
                0x0000000000000c48      0x110 build/sam_e70_xult_freertos/production/_ext/810785262/arp.o
 .debug_aranges
                0x0000000000000d58       0xb8 build/sam_e70_xult_freertos/production/_ext/810785262/tcpip_commands.o
 .debug_aranges
                0x0000000000000e10       0xc0 build/sam_e70_xult_freertos/production/_ext/810785262/ipv4.o
 .debug_aranges
                0x0000000000000ed0       0x48 build/sam_e70_xult_freertos/production/_ext/810785262/tcpip_heap_alloc.o
 .debug_aranges
                0x0000000000000f18       0x68 build/sam_e70_xult_freertos/production/_ext/810785262/tcpip_heap_internal.o
 .debug_aranges
                0x0000000000000f80       0x28 build/sam_e70_xult_freertos/production/_ext/810785262/hash_fnv.o
 .debug_aranges
                0x0000000000000fa8       0x50 build/sam_e70_xult_freertos/production/_ext/810785262/oahash.o
 .debug_aranges
                0x0000000000000ff8      0x218 build/sam_e70_xult_freertos/production/_ext/810785262/tcpip_helpers.o
 .debug_aranges
                0x0000000000001210      0x378 build/sam_e70_xult_freertos/production/_ext/810785262/tcpip_manager.o
 .debug_aranges
                0x0000000000001588       0x40 build/sam_e70_xult_freertos/production/_ext/810785262/tcpip_notify.o
 .debug_aranges
                0x00000000000015c8       0x78 build/sam_e70_xult_freertos/production/_ext/810785262/tcpip_packet.o
 .debug_aranges
                0x0000000000001640      0x1c0 build/sam_e70_xult_freertos/production/_ext/810785262/udp.o
 .debug_aranges
                0x0000000000001800       0x20 build/sam_e70_xult_freertos/production/_ext/45647770/plib_clk.o
 .debug_aranges
                0x0000000000001820       0x20 build/sam_e70_xult_freertos/production/_ext/45638026/plib_mpu.o
 .debug_aranges
                0x0000000000001840       0x20 build/sam_e70_xult_freertos/production/_ext/1414743522/plib_nvic.o
 .debug_aranges
                0x0000000000001860       0x60 build/sam_e70_xult_freertos/production/_ext/45635366/plib_pio.o
 .debug_aranges
                0x00000000000018c0       0x68 build/sam_e70_xult_freertos/production/_ext/1245453995/plib_tc0.o
 .debug_aranges
                0x0000000000001928       0x78 build/sam_e70_xult_freertos/production/_ext/901008055/plib_usart1.o
 .debug_aranges
                0x00000000000019a0       0x50 build/sam_e70_xult_freertos/production/_ext/762686499/sys_console.o
 .debug_aranges
                0x00000000000019f0       0x78 build/sam_e70_xult_freertos/production/_ext/762686499/sys_console_uart.o
 .debug_aranges
                0x0000000000001a68       0x50 build/sam_e70_xult_freertos/production/_ext/762686499/sys_debug.o
 .debug_aranges
                0x0000000000001ab8       0xd0 build/sam_e70_xult_freertos/production/_ext/762686499/sys_command.o
 .debug_aranges
                0x0000000000001b88       0x40 build/sam_e70_xult_freertos/production/_ext/1775855163/sys_int.o
 .debug_aranges
                0x0000000000001bc8      0x130 build/sam_e70_xult_freertos/production/_ext/912870411/sys_time.o
 .debug_aranges
                0x0000000000001cf8       0x28 build/sam_e70_xult_freertos/production/_ext/231871610/sys_time_h2_adapter.o
 .debug_aranges
                0x0000000000001d20       0x40 build/sam_e70_xult_freertos/production/_ext/1552905064/tasks.o
 .debug_aranges
                0x0000000000001d60       0x28 build/sam_e70_xult_freertos/production/_ext/1552905064/initialization.o
 .debug_aranges
                0x0000000000001d88       0x20 build/sam_e70_xult_freertos/production/_ext/1552905064/interrupts.o
 .debug_aranges
                0x0000000000001da8       0x48 build/sam_e70_xult_freertos/production/_ext/1552905064/exceptions.o
 .debug_aranges
                0x0000000000001df0       0x20 build/sam_e70_xult_freertos/production/_ext/1552905064/startup_xc32.o
 .debug_aranges
                0x0000000000001e10       0x40 build/sam_e70_xult_freertos/production/_ext/1552905064/freertos_hooks.o
 .debug_aranges
                0x0000000000001e50       0x78 build/sam_e70_xult_freertos/production/_ext/977623654/port.o
 .debug_aranges
                0x0000000000001ec8       0x28 build/sam_e70_xult_freertos/production/_ext/1665200909/heap_3.o
 .debug_aranges
                0x0000000000001ef0       0x40 build/sam_e70_xult_freertos/production/_ext/404212886/list.o
 .debug_aranges
                0x0000000000001f30       0xc8 build/sam_e70_xult_freertos/production/_ext/404212886/queue.o
 .debug_aranges
                0x0000000000001ff8      0x178 build/sam_e70_xult_freertos/production/_ext/404212886/FreeRTOS_tasks.o
 .debug_aranges
                0x0000000000002170       0x80 build/sam_e70_xult_freertos/production/_ext/281930714/osal_freertos.o
 .debug_aranges
                0x00000000000021f0       0x28 build/sam_e70_xult_freertos/production/_ext/1360937237/app_commands.o
 .debug_aranges
                0x0000000000002218       0x30 build/sam_e70_xult_freertos/production/_ext/1360937237/app.o
 .debug_aranges
                0x0000000000002248       0x20 build/sam_e70_xult_freertos/production/_ext/1360937237/main.o

.debug_ranges   0x0000000000000000     0x3780
 .debug_ranges  0x0000000000000000       0x10 build/sam_e70_xult_freertos/production/_ext/683629640/bsp.o
 .debug_ranges  0x0000000000000010      0x2e0 build/sam_e70_xult_freertos/production/_ext/1607428259/drv_ethphy.o
 .debug_ranges  0x00000000000002f0       0x20 build/sam_e70_xult_freertos/production/_ext/1607428259/drv_extphy_smsc8740.o
 .debug_ranges  0x0000000000000310      0x320 build/sam_e70_xult_freertos/production/_ext/1619526243/drv_gmac.o
 .debug_ranges  0x0000000000000630      0x118 build/sam_e70_xult_freertos/production/_ext/1619526243/drv_gmac_lib_samE7x_V7x.o
 .debug_ranges  0x0000000000000748      0x348 build/sam_e70_xult_freertos/production/_ext/511568427/drv_miim.o
 .debug_ranges  0x0000000000000a90       0x38 build/sam_e70_xult_freertos/production/_ext/810785262/helpers.o
 .debug_ranges  0x0000000000000ac8      0x238 build/sam_e70_xult_freertos/production/_ext/810785262/dns.o
 .debug_ranges  0x0000000000000d00       0x40 build/sam_e70_xult_freertos/production/_ext/810785262/icmp.o
 .debug_ranges  0x0000000000000d40      0x700 build/sam_e70_xult_freertos/production/_ext/810785262/tcp.o
 .debug_ranges  0x0000000000001440      0x2f0 build/sam_e70_xult_freertos/production/_ext/810785262/dhcp.o
 .debug_ranges  0x0000000000001730      0x1c0 build/sam_e70_xult_freertos/production/_ext/810785262/arp.o
 .debug_ranges  0x00000000000018f0      0x148 build/sam_e70_xult_freertos/production/_ext/810785262/tcpip_commands.o
 .debug_ranges  0x0000000000001a38      0x230 build/sam_e70_xult_freertos/production/_ext/810785262/ipv4.o
 .debug_ranges  0x0000000000001c68       0x38 build/sam_e70_xult_freertos/production/_ext/810785262/tcpip_heap_alloc.o
 .debug_ranges  0x0000000000001ca0       0x58 build/sam_e70_xult_freertos/production/_ext/810785262/tcpip_heap_internal.o
 .debug_ranges  0x0000000000001cf8       0x18 build/sam_e70_xult_freertos/production/_ext/810785262/hash_fnv.o
 .debug_ranges  0x0000000000001d10       0x40 build/sam_e70_xult_freertos/production/_ext/810785262/oahash.o
 .debug_ranges  0x0000000000001d50      0x258 build/sam_e70_xult_freertos/production/_ext/810785262/tcpip_helpers.o
 .debug_ranges  0x0000000000001fa8      0x6b8 build/sam_e70_xult_freertos/production/_ext/810785262/tcpip_manager.o
 .debug_ranges  0x0000000000002660       0x30 build/sam_e70_xult_freertos/production/_ext/810785262/tcpip_notify.o
 .debug_ranges  0x0000000000002690       0x80 build/sam_e70_xult_freertos/production/_ext/810785262/tcpip_packet.o
 .debug_ranges  0x0000000000002710      0x3f0 build/sam_e70_xult_freertos/production/_ext/810785262/udp.o
 .debug_ranges  0x0000000000002b00       0x10 build/sam_e70_xult_freertos/production/_ext/45647770/plib_clk.o
 .debug_ranges  0x0000000000002b10       0x10 build/sam_e70_xult_freertos/production/_ext/45638026/plib_mpu.o
 .debug_ranges  0x0000000000002b20       0x10 build/sam_e70_xult_freertos/production/_ext/1414743522/plib_nvic.o
 .debug_ranges  0x0000000000002b30       0x50 build/sam_e70_xult_freertos/production/_ext/45635366/plib_pio.o
 .debug_ranges  0x0000000000002b80       0x58 build/sam_e70_xult_freertos/production/_ext/1245453995/plib_tc0.o
 .debug_ranges  0x0000000000002bd8       0x80 build/sam_e70_xult_freertos/production/_ext/901008055/plib_usart1.o
 .debug_ranges  0x0000000000002c58       0x40 build/sam_e70_xult_freertos/production/_ext/762686499/sys_console.o
 .debug_ranges  0x0000000000002c98       0xc8 build/sam_e70_xult_freertos/production/_ext/762686499/sys_console_uart.o
 .debug_ranges  0x0000000000002d60       0x40 build/sam_e70_xult_freertos/production/_ext/762686499/sys_debug.o
 .debug_ranges  0x0000000000002da0      0x1a8 build/sam_e70_xult_freertos/production/_ext/762686499/sys_command.o
 .debug_ranges  0x0000000000002f48       0x30 build/sam_e70_xult_freertos/production/_ext/1775855163/sys_int.o
 .debug_ranges  0x0000000000002f78      0x168 build/sam_e70_xult_freertos/production/_ext/912870411/sys_time.o
 .debug_ranges  0x00000000000030e0       0x18 build/sam_e70_xult_freertos/production/_ext/231871610/sys_time_h2_adapter.o
 .debug_ranges  0x00000000000030f8       0x30 build/sam_e70_xult_freertos/production/_ext/1552905064/tasks.o
 .debug_ranges  0x0000000000003128       0x18 build/sam_e70_xult_freertos/production/_ext/1552905064/initialization.o
 .debug_ranges  0x0000000000003140       0x10 build/sam_e70_xult_freertos/production/_ext/1552905064/interrupts.o
 .debug_ranges  0x0000000000003150       0x38 build/sam_e70_xult_freertos/production/_ext/1552905064/exceptions.o
 .debug_ranges  0x0000000000003188       0x10 build/sam_e70_xult_freertos/production/_ext/1552905064/startup_xc32.o
 .debug_ranges  0x0000000000003198       0x30 build/sam_e70_xult_freertos/production/_ext/1552905064/freertos_hooks.o
 .debug_ranges  0x00000000000031c8       0x68 build/sam_e70_xult_freertos/production/_ext/977623654/port.o
 .debug_ranges  0x0000000000003230       0x18 build/sam_e70_xult_freertos/production/_ext/1665200909/heap_3.o
 .debug_ranges  0x0000000000003248       0x30 build/sam_e70_xult_freertos/production/_ext/404212886/list.o
 .debug_ranges  0x0000000000003278      0x1b8 build/sam_e70_xult_freertos/production/_ext/404212886/queue.o
 .debug_ranges  0x0000000000003430      0x250 build/sam_e70_xult_freertos/production/_ext/404212886/FreeRTOS_tasks.o
 .debug_ranges  0x0000000000003680       0x70 build/sam_e70_xult_freertos/production/_ext/281930714/osal_freertos.o
 .debug_ranges  0x00000000000036f0       0x18 build/sam_e70_xult_freertos/production/_ext/1360937237/app_commands.o
 .debug_ranges  0x0000000000003708       0x68 build/sam_e70_xult_freertos/production/_ext/1360937237/app.o
 .debug_ranges  0x0000000000003770       0x10 build/sam_e70_xult_freertos/production/_ext/1360937237/main.o

.debug_line     0x0000000000000000    0x13f92
 .debug_line    0x0000000000000000      0x201 build/sam_e70_xult_freertos/production/_ext/683629640/bsp.o
 .debug_line    0x0000000000000201      0xed7 build/sam_e70_xult_freertos/production/_ext/1607428259/drv_ethphy.o
 .debug_line    0x00000000000010d8      0x358 build/sam_e70_xult_freertos/production/_ext/1607428259/drv_extphy_smsc8740.o
 .debug_line    0x0000000000001430      0xe2a build/sam_e70_xult_freertos/production/_ext/1619526243/drv_gmac.o
 .debug_line    0x000000000000225a      0x976 build/sam_e70_xult_freertos/production/_ext/1619526243/drv_gmac_lib_samE7x_V7x.o
 .debug_line    0x0000000000002bd0      0x8ef build/sam_e70_xult_freertos/production/_ext/511568427/drv_miim.o
 .debug_line    0x00000000000034bf      0x275 build/sam_e70_xult_freertos/production/_ext/810785262/helpers.o
 .debug_line    0x0000000000003734      0xb8f build/sam_e70_xult_freertos/production/_ext/810785262/dns.o
 .debug_line    0x00000000000042c3      0x491 build/sam_e70_xult_freertos/production/_ext/810785262/icmp.o
 .debug_line    0x0000000000004754     0x17f1 build/sam_e70_xult_freertos/production/_ext/810785262/tcp.o
 .debug_line    0x0000000000005f45      0xe2f build/sam_e70_xult_freertos/production/_ext/810785262/dhcp.o
 .debug_line    0x0000000000006d74      0xae5 build/sam_e70_xult_freertos/production/_ext/810785262/arp.o
 .debug_line    0x0000000000007859      0xa11 build/sam_e70_xult_freertos/production/_ext/810785262/tcpip_commands.o
 .debug_line    0x000000000000826a      0xa20 build/sam_e70_xult_freertos/production/_ext/810785262/ipv4.o
 .debug_line    0x0000000000008c8a      0x3ef build/sam_e70_xult_freertos/production/_ext/810785262/tcpip_heap_alloc.o
 .debug_line    0x0000000000009079      0x5bf build/sam_e70_xult_freertos/production/_ext/810785262/tcpip_heap_internal.o
 .debug_line    0x0000000000009638      0x1d1 build/sam_e70_xult_freertos/production/_ext/810785262/hash_fnv.o
 .debug_line    0x0000000000009809      0x29c build/sam_e70_xult_freertos/production/_ext/810785262/oahash.o
 .debug_line    0x0000000000009aa5      0xc5c build/sam_e70_xult_freertos/production/_ext/810785262/tcpip_helpers.o
 .debug_line    0x000000000000a701     0x151c build/sam_e70_xult_freertos/production/_ext/810785262/tcpip_manager.o
 .debug_line    0x000000000000bc1d      0x48a build/sam_e70_xult_freertos/production/_ext/810785262/tcpip_notify.o
 .debug_line    0x000000000000c0a7      0x53f build/sam_e70_xult_freertos/production/_ext/810785262/tcpip_packet.o
 .debug_line    0x000000000000c5e6      0xf98 build/sam_e70_xult_freertos/production/_ext/810785262/udp.o
 .debug_line    0x000000000000d57e      0x17e build/sam_e70_xult_freertos/production/_ext/45647770/plib_clk.o
 .debug_line    0x000000000000d6fc      0x15d build/sam_e70_xult_freertos/production/_ext/45638026/plib_mpu.o
 .debug_line    0x000000000000d859      0x1a1 build/sam_e70_xult_freertos/production/_ext/1414743522/plib_nvic.o
 .debug_line    0x000000000000d9fa      0x221 build/sam_e70_xult_freertos/production/_ext/45635366/plib_pio.o
 .debug_line    0x000000000000dc1b      0x21c build/sam_e70_xult_freertos/production/_ext/1245453995/plib_tc0.o
 .debug_line    0x000000000000de37      0x30f build/sam_e70_xult_freertos/production/_ext/901008055/plib_usart1.o
 .debug_line    0x000000000000e146      0x333 build/sam_e70_xult_freertos/production/_ext/762686499/sys_console.o
 .debug_line    0x000000000000e479      0x67f build/sam_e70_xult_freertos/production/_ext/762686499/sys_console_uart.o
 .debug_line    0x000000000000eaf8      0x2fc build/sam_e70_xult_freertos/production/_ext/762686499/sys_debug.o
 .debug_line    0x000000000000edf4      0x61d build/sam_e70_xult_freertos/production/_ext/762686499/sys_command.o
 .debug_line    0x000000000000f411      0x246 build/sam_e70_xult_freertos/production/_ext/1775855163/sys_int.o
 .debug_line    0x000000000000f657      0x7d1 build/sam_e70_xult_freertos/production/_ext/912870411/sys_time.o
 .debug_line    0x000000000000fe28      0x19d build/sam_e70_xult_freertos/production/_ext/231871610/sys_time_h2_adapter.o
 .debug_line    0x000000000000ffc5      0x4be build/sam_e70_xult_freertos/production/_ext/1552905064/tasks.o
 .debug_line    0x0000000000010483      0x736 build/sam_e70_xult_freertos/production/_ext/1552905064/initialization.o
 .debug_line    0x0000000000010bb9      0x3d0 build/sam_e70_xult_freertos/production/_ext/1552905064/interrupts.o
 .debug_line    0x0000000000010f89      0x3ef build/sam_e70_xult_freertos/production/_ext/1552905064/exceptions.o
 .debug_line    0x0000000000011378      0x4f4 build/sam_e70_xult_freertos/production/_ext/1552905064/startup_xc32.o
 .debug_line    0x000000000001186c      0x1cd build/sam_e70_xult_freertos/production/_ext/1552905064/freertos_hooks.o
 .debug_line    0x0000000000011a39      0x26b build/sam_e70_xult_freertos/production/_ext/977623654/port.o
 .debug_line    0x0000000000011ca4      0x1ac build/sam_e70_xult_freertos/production/_ext/1665200909/heap_3.o
 .debug_line    0x0000000000011e50      0x292 build/sam_e70_xult_freertos/production/_ext/404212886/list.o
 .debug_line    0x00000000000120e2      0x64d build/sam_e70_xult_freertos/production/_ext/404212886/queue.o
 .debug_line    0x000000000001272f      0x8fa build/sam_e70_xult_freertos/production/_ext/404212886/FreeRTOS_tasks.o
 .debug_line    0x0000000000013029      0x2f3 build/sam_e70_xult_freertos/production/_ext/281930714/osal_freertos.o
 .debug_line    0x000000000001331c      0x3f5 build/sam_e70_xult_freertos/production/_ext/1360937237/app_commands.o
 .debug_line    0x0000000000013711      0x4df build/sam_e70_xult_freertos/production/_ext/1360937237/app.o
 .debug_line    0x0000000000013bf0      0x3a2 build/sam_e70_xult_freertos/production/_ext/1360937237/main.o

.debug_str      0x0000000000000000     0x4cfb
 .debug_str     0x0000000000000000        0xe build/sam_e70_xult_freertos/production/_ext/683629640/bsp.o
 .debug_str     0x000000000000000e      0x52c build/sam_e70_xult_freertos/production/_ext/1607428259/drv_ethphy.o
 .debug_str     0x000000000000053a       0x4d build/sam_e70_xult_freertos/production/_ext/1607428259/drv_extphy_smsc8740.o
 .debug_str     0x0000000000000587      0x3af build/sam_e70_xult_freertos/production/_ext/1619526243/drv_gmac.o
 .debug_str     0x0000000000000936      0x13c build/sam_e70_xult_freertos/production/_ext/1619526243/drv_gmac_lib_samE7x_V7x.o
 .debug_str     0x0000000000000a72      0x2a8 build/sam_e70_xult_freertos/production/_ext/511568427/drv_miim.o
 .debug_str     0x0000000000000d1a       0x21 build/sam_e70_xult_freertos/production/_ext/810785262/helpers.o
 .debug_str     0x0000000000000d3b      0x4d1 build/sam_e70_xult_freertos/production/_ext/810785262/dns.o
 .debug_str     0x000000000000120c      0x14e build/sam_e70_xult_freertos/production/_ext/810785262/icmp.o
 .debug_str     0x000000000000135a      0x40b build/sam_e70_xult_freertos/production/_ext/810785262/tcp.o
 .debug_str     0x0000000000001765      0x632 build/sam_e70_xult_freertos/production/_ext/810785262/dhcp.o
 .debug_str     0x0000000000001d97      0x4bc build/sam_e70_xult_freertos/production/_ext/810785262/arp.o
 .debug_str     0x0000000000002253      0x771 build/sam_e70_xult_freertos/production/_ext/810785262/tcpip_commands.o
 .debug_str     0x00000000000029c4      0x568 build/sam_e70_xult_freertos/production/_ext/810785262/ipv4.o
 .debug_str     0x0000000000002f2c       0x6d build/sam_e70_xult_freertos/production/_ext/810785262/tcpip_heap_alloc.o
 .debug_str     0x0000000000002f99       0x90 build/sam_e70_xult_freertos/production/_ext/810785262/tcpip_heap_internal.o
 .debug_str     0x0000000000003029        0xe build/sam_e70_xult_freertos/production/_ext/810785262/hash_fnv.o
 .debug_str     0x0000000000003037       0x18 build/sam_e70_xult_freertos/production/_ext/810785262/oahash.o
 .debug_str     0x000000000000304f      0x11e build/sam_e70_xult_freertos/production/_ext/810785262/tcpip_helpers.o
 .debug_str     0x000000000000316d      0x51a build/sam_e70_xult_freertos/production/_ext/810785262/tcpip_manager.o
 .debug_str     0x0000000000003687       0xfe build/sam_e70_xult_freertos/production/_ext/810785262/tcpip_notify.o
 .debug_str     0x0000000000003785       0x49 build/sam_e70_xult_freertos/production/_ext/810785262/tcpip_packet.o
 .debug_str     0x00000000000037ce      0x3c9 build/sam_e70_xult_freertos/production/_ext/810785262/udp.o
 .debug_str     0x0000000000003b97        0xa build/sam_e70_xult_freertos/production/_ext/45647770/plib_clk.o
 .debug_str     0x0000000000003ba1        0x0 build/sam_e70_xult_freertos/production/_ext/45638026/plib_mpu.o
 .debug_str     0x0000000000003ba1       0x28 build/sam_e70_xult_freertos/production/_ext/1414743522/plib_nvic.o
 .debug_str     0x0000000000003bc9       0x46 build/sam_e70_xult_freertos/production/_ext/45635366/plib_pio.o
 .debug_str     0x0000000000003c0f        0xa build/sam_e70_xult_freertos/production/_ext/1245453995/plib_tc0.o
 .debug_str     0x0000000000003c19       0x10 build/sam_e70_xult_freertos/production/_ext/901008055/plib_usart1.o
 .debug_str     0x0000000000003c29       0x27 build/sam_e70_xult_freertos/production/_ext/762686499/sys_console.o
 .debug_str     0x0000000000003c50      0x113 build/sam_e70_xult_freertos/production/_ext/762686499/sys_console_uart.o
 .debug_str     0x0000000000003d63       0x2a build/sam_e70_xult_freertos/production/_ext/762686499/sys_debug.o
 .debug_str     0x0000000000003d8d       0xc3 build/sam_e70_xult_freertos/production/_ext/762686499/sys_command.o
 .debug_str     0x0000000000003e50       0x10 build/sam_e70_xult_freertos/production/_ext/1775855163/sys_int.o
 .debug_str     0x0000000000003e60      0x16e build/sam_e70_xult_freertos/production/_ext/912870411/sys_time.o
 .debug_str     0x0000000000003fce       0x25 build/sam_e70_xult_freertos/production/_ext/231871610/sys_time_h2_adapter.o
 .debug_str     0x0000000000003ff3       0x9c build/sam_e70_xult_freertos/production/_ext/1552905064/tasks.o
 .debug_str     0x000000000000408f      0x19e build/sam_e70_xult_freertos/production/_ext/1552905064/initialization.o
 .debug_str     0x000000000000422d       0x2c build/sam_e70_xult_freertos/production/_ext/1552905064/interrupts.o
 .debug_str     0x0000000000004259       0x2c build/sam_e70_xult_freertos/production/_ext/1552905064/exceptions.o
 .debug_str     0x0000000000004285       0xa6 build/sam_e70_xult_freertos/production/_ext/1552905064/startup_xc32.o
 .debug_str     0x000000000000432b       0x25 build/sam_e70_xult_freertos/production/_ext/1552905064/freertos_hooks.o
 .debug_str     0x0000000000004350       0x26 build/sam_e70_xult_freertos/production/_ext/977623654/port.o
 .debug_str     0x0000000000004376       0x4a build/sam_e70_xult_freertos/production/_ext/1665200909/heap_3.o
 .debug_str     0x00000000000043c0       0x39 build/sam_e70_xult_freertos/production/_ext/404212886/list.o
 .debug_str     0x00000000000043f9      0x283 build/sam_e70_xult_freertos/production/_ext/404212886/queue.o
 .debug_str     0x000000000000467c      0x288 build/sam_e70_xult_freertos/production/_ext/404212886/FreeRTOS_tasks.o
 .debug_str     0x0000000000004904      0x124 build/sam_e70_xult_freertos/production/_ext/281930714/osal_freertos.o
 .debug_str     0x0000000000004a28       0x82 build/sam_e70_xult_freertos/production/_ext/1360937237/app_commands.o
 .debug_str     0x0000000000004aaa      0x20c build/sam_e70_xult_freertos/production/_ext/1360937237/app.o
 .debug_str     0x0000000000004cb6       0x45 build/sam_e70_xult_freertos/production/_ext/1360937237/main.o

.comment        0x0000000000000000       0x3c
 .comment       0x0000000000000000       0x3c build/sam_e70_xult_freertos/production/_ext/683629640/bsp.o
                                         0x3d (size before relaxing)
 .comment       0x000000000000003c       0x3d build/sam_e70_xult_freertos/production/_ext/1607428259/drv_ethphy.o
 .comment       0x000000000000003c       0x3d build/sam_e70_xult_freertos/production/_ext/1607428259/drv_extphy_smsc8740.o
 .comment       0x000000000000003c       0x3d build/sam_e70_xult_freertos/production/_ext/1619526243/drv_gmac.o
 .comment       0x000000000000003c       0x3d build/sam_e70_xult_freertos/production/_ext/1619526243/drv_gmac_lib_samE7x_V7x.o
 .comment       0x000000000000003c       0x3d build/sam_e70_xult_freertos/production/_ext/511568427/drv_miim.o
 .comment       0x000000000000003c       0x3d build/sam_e70_xult_freertos/production/_ext/810785262/helpers.o
 .comment       0x000000000000003c       0x3d build/sam_e70_xult_freertos/production/_ext/810785262/dns.o
 .comment       0x000000000000003c       0x3d build/sam_e70_xult_freertos/production/_ext/810785262/icmp.o
 .comment       0x000000000000003c       0x3d build/sam_e70_xult_freertos/production/_ext/810785262/tcp.o
 .comment       0x000000000000003c       0x3d build/sam_e70_xult_freertos/production/_ext/810785262/dhcp.o
 .comment       0x000000000000003c       0x3d build/sam_e70_xult_freertos/production/_ext/810785262/arp.o
 .comment       0x000000000000003c       0x3d build/sam_e70_xult_freertos/production/_ext/810785262/tcpip_commands.o
 .comment       0x000000000000003c       0x3d build/sam_e70_xult_freertos/production/_ext/810785262/ipv4.o
 .comment       0x000000000000003c       0x3d build/sam_e70_xult_freertos/production/_ext/810785262/tcpip_heap_alloc.o
 .comment       0x000000000000003c       0x3d build/sam_e70_xult_freertos/production/_ext/810785262/tcpip_heap_internal.o
 .comment       0x000000000000003c       0x3d build/sam_e70_xult_freertos/production/_ext/810785262/hash_fnv.o
 .comment       0x000000000000003c       0x3d build/sam_e70_xult_freertos/production/_ext/810785262/oahash.o
 .comment       0x000000000000003c       0x3d build/sam_e70_xult_freertos/production/_ext/810785262/tcpip_helpers.o
 .comment       0x000000000000003c       0x3d build/sam_e70_xult_freertos/production/_ext/810785262/tcpip_manager.o
 .comment       0x000000000000003c       0x3d build/sam_e70_xult_freertos/production/_ext/810785262/tcpip_notify.o
 .comment       0x000000000000003c       0x3d build/sam_e70_xult_freertos/production/_ext/810785262/tcpip_packet.o
 .comment       0x000000000000003c       0x3d build/sam_e70_xult_freertos/production/_ext/810785262/udp.o
 .comment       0x000000000000003c       0x3d build/sam_e70_xult_freertos/production/_ext/45647770/plib_clk.o
 .comment       0x000000000000003c       0x3d build/sam_e70_xult_freertos/production/_ext/45638026/plib_mpu.o
 .comment       0x000000000000003c       0x3d build/sam_e70_xult_freertos/production/_ext/1414743522/plib_nvic.o
 .comment       0x000000000000003c       0x3d build/sam_e70_xult_freertos/production/_ext/45635366/plib_pio.o
 .comment       0x000000000000003c       0x3d build/sam_e70_xult_freertos/production/_ext/1245453995/plib_tc0.o
 .comment       0x000000000000003c       0x3d build/sam_e70_xult_freertos/production/_ext/901008055/plib_usart1.o
 .comment       0x000000000000003c       0x3d build/sam_e70_xult_freertos/production/_ext/762686499/sys_console.o
 .comment       0x000000000000003c       0x3d build/sam_e70_xult_freertos/production/_ext/762686499/sys_console_uart.o
 .comment       0x000000000000003c       0x3d build/sam_e70_xult_freertos/production/_ext/762686499/sys_debug.o
 .comment       0x000000000000003c       0x3d build/sam_e70_xult_freertos/production/_ext/762686499/sys_command.o
 .comment       0x000000000000003c       0x3d build/sam_e70_xult_freertos/production/_ext/1775855163/sys_int.o
 .comment       0x000000000000003c       0x3d build/sam_e70_xult_freertos/production/_ext/912870411/sys_time.o
 .comment       0x000000000000003c       0x3d build/sam_e70_xult_freertos/production/_ext/231871610/sys_time_h2_adapter.o
 .comment       0x000000000000003c       0x3d build/sam_e70_xult_freertos/production/_ext/1552905064/tasks.o
 .comment       0x000000000000003c       0x3d build/sam_e70_xult_freertos/production/_ext/1552905064/initialization.o
 .comment       0x000000000000003c       0x3d build/sam_e70_xult_freertos/production/_ext/1552905064/interrupts.o
 .comment       0x000000000000003c       0x3d build/sam_e70_xult_freertos/production/_ext/1552905064/exceptions.o
 .comment       0x000000000000003c       0x3d build/sam_e70_xult_freertos/production/_ext/1552905064/startup_xc32.o
 .comment       0x000000000000003c       0x3d build/sam_e70_xult_freertos/production/_ext/1552905064/freertos_hooks.o
 .comment       0x000000000000003c       0x3d build/sam_e70_xult_freertos/production/_ext/977623654/port.o
 .comment       0x000000000000003c       0x3d build/sam_e70_xult_freertos/production/_ext/1665200909/heap_3.o
 .comment       0x000000000000003c       0x3d build/sam_e70_xult_freertos/production/_ext/404212886/list.o
 .comment       0x000000000000003c       0x3d build/sam_e70_xult_freertos/production/_ext/404212886/queue.o
 .comment       0x000000000000003c       0x3d build/sam_e70_xult_freertos/production/_ext/404212886/FreeRTOS_tasks.o
 .comment       0x000000000000003c       0x3d build/sam_e70_xult_freertos/production/_ext/281930714/osal_freertos.o
 .comment       0x000000000000003c       0x3d build/sam_e70_xult_freertos/production/_ext/1360937237/app_commands.o
 .comment       0x000000000000003c       0x3d build/sam_e70_xult_freertos/production/_ext/1360937237/app.o
 .comment       0x000000000000003c       0x3d build/sam_e70_xult_freertos/production/_ext/1360937237/main.o

.debug_frame    0x0000000000000000     0x7854
 .debug_frame   0x0000000000000000       0x20 build/sam_e70_xult_freertos/production/_ext/683629640/bsp.o
 .debug_frame   0x0000000000000020      0x728 build/sam_e70_xult_freertos/production/_ext/1607428259/drv_ethphy.o
 .debug_frame   0x0000000000000748       0x70 build/sam_e70_xult_freertos/production/_ext/1607428259/drv_extphy_smsc8740.o
 .debug_frame   0x00000000000007b8      0x670 build/sam_e70_xult_freertos/production/_ext/1619526243/drv_gmac.o
 .debug_frame   0x0000000000000e28      0x230 build/sam_e70_xult_freertos/production/_ext/1619526243/drv_gmac_lib_samE7x_V7x.o
 .debug_frame   0x0000000000001058      0x2c8 build/sam_e70_xult_freertos/production/_ext/511568427/drv_miim.o
 .debug_frame   0x0000000000001320       0xd8 build/sam_e70_xult_freertos/production/_ext/810785262/helpers.o
 .debug_frame   0x00000000000013f8      0x490 build/sam_e70_xult_freertos/production/_ext/810785262/dns.o
 .debug_frame   0x0000000000001888       0x84 build/sam_e70_xult_freertos/production/_ext/810785262/icmp.o
 .debug_frame   0x000000000000190c      0x76c build/sam_e70_xult_freertos/production/_ext/810785262/tcp.o
 .debug_frame   0x0000000000002078      0x52c build/sam_e70_xult_freertos/production/_ext/810785262/dhcp.o
 .debug_frame   0x00000000000025a4      0x4dc build/sam_e70_xult_freertos/production/_ext/810785262/arp.o
 .debug_frame   0x0000000000002a80      0x304 build/sam_e70_xult_freertos/production/_ext/810785262/tcpip_commands.o
 .debug_frame   0x0000000000002d84      0x2ac build/sam_e70_xult_freertos/production/_ext/810785262/ipv4.o
 .debug_frame   0x0000000000003030       0x9c build/sam_e70_xult_freertos/production/_ext/810785262/tcpip_heap_alloc.o
 .debug_frame   0x00000000000030cc      0x138 build/sam_e70_xult_freertos/production/_ext/810785262/tcpip_heap_internal.o
 .debug_frame   0x0000000000003204       0x30 build/sam_e70_xult_freertos/production/_ext/810785262/hash_fnv.o
 .debug_frame   0x0000000000003234       0xc0 build/sam_e70_xult_freertos/production/_ext/810785262/oahash.o
 .debug_frame   0x00000000000032f4      0x6dc build/sam_e70_xult_freertos/production/_ext/810785262/tcpip_helpers.o
 .debug_frame   0x00000000000039d0      0xaa8 build/sam_e70_xult_freertos/production/_ext/810785262/tcpip_manager.o
 .debug_frame   0x0000000000004478       0x94 build/sam_e70_xult_freertos/production/_ext/810785262/tcpip_notify.o
 .debug_frame   0x000000000000450c      0x150 build/sam_e70_xult_freertos/production/_ext/810785262/tcpip_packet.o
 .debug_frame   0x000000000000465c      0x678 build/sam_e70_xult_freertos/production/_ext/810785262/udp.o
 .debug_frame   0x0000000000004cd4       0x20 build/sam_e70_xult_freertos/production/_ext/45647770/plib_clk.o
 .debug_frame   0x0000000000004cf4       0x20 build/sam_e70_xult_freertos/production/_ext/45638026/plib_mpu.o
 .debug_frame   0x0000000000004d14       0x20 build/sam_e70_xult_freertos/production/_ext/1414743522/plib_nvic.o
 .debug_frame   0x0000000000004d34       0xa0 build/sam_e70_xult_freertos/production/_ext/45635366/plib_pio.o
 .debug_frame   0x0000000000004dd4       0xb8 build/sam_e70_xult_freertos/production/_ext/1245453995/plib_tc0.o
 .debug_frame   0x0000000000004e8c      0x114 build/sam_e70_xult_freertos/production/_ext/901008055/plib_usart1.o
 .debug_frame   0x0000000000004fa0       0xcc build/sam_e70_xult_freertos/production/_ext/762686499/sys_console.o
 .debug_frame   0x000000000000506c      0x174 build/sam_e70_xult_freertos/production/_ext/762686499/sys_console_uart.o
 .debug_frame   0x00000000000051e0       0xb4 build/sam_e70_xult_freertos/production/_ext/762686499/sys_debug.o
 .debug_frame   0x0000000000005294      0x2e0 build/sam_e70_xult_freertos/production/_ext/762686499/sys_command.o
 .debug_frame   0x0000000000005574       0x6c build/sam_e70_xult_freertos/production/_ext/1775855163/sys_int.o
 .debug_frame   0x00000000000055e0      0x3bc build/sam_e70_xult_freertos/production/_ext/912870411/sys_time.o
 .debug_frame   0x000000000000599c       0x40 build/sam_e70_xult_freertos/production/_ext/231871610/sys_time_h2_adapter.o
 .debug_frame   0x00000000000059dc       0x94 build/sam_e70_xult_freertos/production/_ext/1552905064/tasks.o
 .debug_frame   0x0000000000005a70       0x44 build/sam_e70_xult_freertos/production/_ext/1552905064/initialization.o
 .debug_frame   0x0000000000005ab4       0x20 build/sam_e70_xult_freertos/production/_ext/1552905064/interrupts.o
 .debug_frame   0x0000000000005ad4       0x70 build/sam_e70_xult_freertos/production/_ext/1552905064/exceptions.o
 .debug_frame   0x0000000000005b44       0x30 build/sam_e70_xult_freertos/production/_ext/1552905064/startup_xc32.o
 .debug_frame   0x0000000000005b74       0x6c build/sam_e70_xult_freertos/production/_ext/1552905064/freertos_hooks.o
 .debug_frame   0x0000000000005be0       0xe8 build/sam_e70_xult_freertos/production/_ext/977623654/port.o
 .debug_frame   0x0000000000005cc8       0x44 build/sam_e70_xult_freertos/production/_ext/1665200909/heap_3.o
 .debug_frame   0x0000000000005d0c       0x6c build/sam_e70_xult_freertos/production/_ext/404212886/list.o
 .debug_frame   0x0000000000005d78      0x280 build/sam_e70_xult_freertos/production/_ext/404212886/queue.o
 .debug_frame   0x0000000000005ff8      0x488 build/sam_e70_xult_freertos/production/_ext/404212886/FreeRTOS_tasks.o
 .debug_frame   0x0000000000006480      0x150 build/sam_e70_xult_freertos/production/_ext/281930714/osal_freertos.o
 .debug_frame   0x00000000000065d0       0x44 build/sam_e70_xult_freertos/production/_ext/1360937237/app_commands.o
 .debug_frame   0x0000000000006614       0x8c build/sam_e70_xult_freertos/production/_ext/1360937237/app.o
 .debug_frame   0x00000000000066a0       0x28 build/sam_e70_xult_freertos/production/_ext/1360937237/main.o
 .debug_frame   0x00000000000066c8       0x2c /Applications/microchip/xc32/v2.15/bin/bin/../../lib/gcc/pic32c/6.2.1/../../../../pic32c/lib/v7e-m/fpv5/hard/libpic32c.a(data_init.o)
 .debug_frame   0x00000000000066f4       0x2c /Applications/microchip/xc32/v2.15/bin/bin/../../lib/gcc/pic32c/6.2.1/v7e-m/fpv5/hard/libgcc.a(_aeabi_uldivmod.o)
 .debug_frame   0x0000000000006720       0x34 /Applications/microchip/xc32/v2.15/bin/bin/../../lib/gcc/pic32c/6.2.1/v7e-m/fpv5/hard/libgcc.a(_udivmoddi4.o)
 .debug_frame   0x0000000000006754       0x20 /Applications/microchip/xc32/v2.15/bin/bin/../../lib/gcc/pic32c/6.2.1/../../../../pic32c/lib/v7e-m/fpv5/hard/libc.a(lib_a-atof.o)
 .debug_frame   0x0000000000006774       0x30 /Applications/microchip/xc32/v2.15/bin/bin/../../lib/gcc/pic32c/6.2.1/../../../../pic32c/lib/v7e-m/fpv5/hard/libc.a(lib_a-atoi.o)
 .debug_frame   0x00000000000067a4       0x20 /Applications/microchip/xc32/v2.15/bin/bin/../../lib/gcc/pic32c/6.2.1/../../../../pic32c/lib/v7e-m/fpv5/hard/libc.a(lib_a-calloc.o)
 .debug_frame   0x00000000000067c4       0x28 /Applications/microchip/xc32/v2.15/bin/bin/../../lib/gcc/pic32c/6.2.1/../../../../pic32c/lib/v7e-m/fpv5/hard/libc.a(lib_a-callocr.o)
 .debug_frame   0x00000000000067ec       0x2c /Applications/microchip/xc32/v2.15/bin/bin/../../lib/gcc/pic32c/6.2.1/../../../../pic32c/lib/v7e-m/fpv5/hard/libc.a(lib_a-init.o)
 .debug_frame   0x0000000000006818       0x6c /Applications/microchip/xc32/v2.15/bin/bin/../../lib/gcc/pic32c/6.2.1/../../../../pic32c/lib/v7e-m/fpv5/hard/libc.a(lib_a-locale.o)
 .debug_frame   0x0000000000006884       0x30 /Applications/microchip/xc32/v2.15/bin/bin/../../lib/gcc/pic32c/6.2.1/../../../../pic32c/lib/v7e-m/fpv5/hard/libc.a(lib_a-malloc.o)
 .debug_frame   0x00000000000068b4       0x58 /Applications/microchip/xc32/v2.15/bin/bin/../../lib/gcc/pic32c/6.2.1/../../../../pic32c/lib/v7e-m/fpv5/hard/libc.a(lib_a-mallocr.o)
 .debug_frame   0x000000000000690c       0x4c /Applications/microchip/xc32/v2.15/bin/bin/../../lib/gcc/pic32c/6.2.1/../../../../pic32c/lib/v7e-m/fpv5/hard/libc.a(lib_a-mbtowc_r.o)
 .debug_frame   0x0000000000006958       0x3c /Applications/microchip/xc32/v2.15/bin/bin/../../lib/gcc/pic32c/6.2.1/../../../../pic32c/lib/v7e-m/fpv5/hard/libc.a(lib_a-memcmp.o)
 .debug_frame   0x0000000000006994       0x34 /Applications/microchip/xc32/v2.15/bin/bin/../../lib/gcc/pic32c/6.2.1/../../../../pic32c/lib/v7e-m/fpv5/hard/libc.a(lib_a-memset.o)
 .debug_frame   0x00000000000069c8       0x30 /Applications/microchip/xc32/v2.15/bin/bin/../../lib/gcc/pic32c/6.2.1/../../../../pic32c/lib/v7e-m/fpv5/hard/libc.a(lib_a-mlock.o)
 .debug_frame   0x00000000000069f8       0x3c /Applications/microchip/xc32/v2.15/bin/bin/../../lib/gcc/pic32c/6.2.1/../../../../pic32c/lib/v7e-m/fpv5/hard/libc.a(lib_a-rand.o)
 .debug_frame   0x0000000000006a34       0x2c /Applications/microchip/xc32/v2.15/bin/bin/../../lib/gcc/pic32c/6.2.1/../../../../pic32c/lib/v7e-m/fpv5/hard/libc.a(lib_a-sbrkr.o)
 .debug_frame   0x0000000000006a60       0xd0 /Applications/microchip/xc32/v2.15/bin/bin/../../lib/gcc/pic32c/6.2.1/../../../../pic32c/lib/v7e-m/fpv5/hard/libc.a(lib_a-snprintf.o)
 .debug_frame   0x0000000000006b30       0x84 /Applications/microchip/xc32/v2.15/bin/bin/../../lib/gcc/pic32c/6.2.1/../../../../pic32c/lib/v7e-m/fpv5/hard/libc.a(lib_a-sprintf.o)
 .debug_frame   0x0000000000006bb4       0x68 /Applications/microchip/xc32/v2.15/bin/bin/../../lib/gcc/pic32c/6.2.1/../../../../pic32c/lib/v7e-m/fpv5/hard/libc.a(lib_a-strcmp.o)
 .debug_frame   0x0000000000006c1c       0x20 /Applications/microchip/xc32/v2.15/bin/bin/../../lib/gcc/pic32c/6.2.1/../../../../pic32c/lib/v7e-m/fpv5/hard/libc.a(lib_a-strcpy.o)
 .debug_frame   0x0000000000006c3c       0x30 /Applications/microchip/xc32/v2.15/bin/bin/../../lib/gcc/pic32c/6.2.1/../../../../pic32c/lib/v7e-m/fpv5/hard/libc.a(lib_a-strncat.o)
 .debug_frame   0x0000000000006c6c       0x34 /Applications/microchip/xc32/v2.15/bin/bin/../../lib/gcc/pic32c/6.2.1/../../../../pic32c/lib/v7e-m/fpv5/hard/libc.a(lib_a-strncpy.o)
 .debug_frame   0x0000000000006ca0       0xd8 /Applications/microchip/xc32/v2.15/bin/bin/../../lib/gcc/pic32c/6.2.1/../../../../pic32c/lib/v7e-m/fpv5/hard/libc.a(lib_a-strstr.o)
 .debug_frame   0x0000000000006d78      0x13c /Applications/microchip/xc32/v2.15/bin/bin/../../lib/gcc/pic32c/6.2.1/../../../../pic32c/lib/v7e-m/fpv5/hard/libc.a(lib_a-strtod.o)
 .debug_frame   0x0000000000006eb4       0x20 /Applications/microchip/xc32/v2.15/bin/bin/../../lib/gcc/pic32c/6.2.1/../../../../pic32c/lib/v7e-m/fpv5/hard/libc.a(lib_a-strtok.o)
 .debug_frame   0x0000000000006ed4       0x48 /Applications/microchip/xc32/v2.15/bin/bin/../../lib/gcc/pic32c/6.2.1/../../../../pic32c/lib/v7e-m/fpv5/hard/libc.a(lib_a-strtok_r.o)
 .debug_frame   0x0000000000006f1c       0x98 /Applications/microchip/xc32/v2.15/bin/bin/../../lib/gcc/pic32c/6.2.1/../../../../pic32c/lib/v7e-m/fpv5/hard/libc.a(lib_a-strtol.o)
 .debug_frame   0x0000000000006fb4       0x68 /Applications/microchip/xc32/v2.15/bin/bin/../../lib/gcc/pic32c/6.2.1/../../../../pic32c/lib/v7e-m/fpv5/hard/libc.a(lib_a-svfprintf.o)
 .debug_frame   0x000000000000701c       0x60 /Applications/microchip/xc32/v2.15/bin/bin/../../lib/gcc/pic32c/6.2.1/../../../../pic32c/lib/v7e-m/fpv5/hard/libc.a(lib_a-vsnprintf.o)
 .debug_frame   0x000000000000707c       0x3c /Applications/microchip/xc32/v2.15/bin/bin/../../lib/gcc/pic32c/6.2.1/../../../../pic32c/lib/v7e-m/fpv5/hard/libc.a(lib_a-wctomb_r.o)
 .debug_frame   0x00000000000070b8       0x50 /Applications/microchip/xc32/v2.15/bin/bin/../../lib/gcc/pic32c/6.2.1/../../../../pic32c/lib/v7e-m/fpv5/hard/libc.a(lib_a-__call_atexit.o)
 .debug_frame   0x0000000000007108       0x20 /Applications/microchip/xc32/v2.15/bin/bin/../../lib/gcc/pic32c/6.2.1/../../../../pic32c/lib/v7e-m/fpv5/hard/libc.a(lib_a-atexit.o)
 .debug_frame   0x0000000000007128       0x84 /Applications/microchip/xc32/v2.15/bin/bin/../../lib/gcc/pic32c/6.2.1/../../../../pic32c/lib/v7e-m/fpv5/hard/libc.a(lib_a-dtoa.o)
 .debug_frame   0x00000000000071ac       0x34 /Applications/microchip/xc32/v2.15/bin/bin/../../lib/gcc/pic32c/6.2.1/../../../../pic32c/lib/v7e-m/fpv5/hard/libc.a(lib_a-fini.o)
 .debug_frame   0x00000000000071e0       0x74 /Applications/microchip/xc32/v2.15/bin/bin/../../lib/gcc/pic32c/6.2.1/../../../../pic32c/lib/v7e-m/fpv5/hard/libc.a(lib_a-freer.o)
 .debug_frame   0x0000000000007254       0x70 /Applications/microchip/xc32/v2.15/bin/bin/../../lib/gcc/pic32c/6.2.1/../../../../pic32c/lib/v7e-m/fpv5/hard/libc.a(lib_a-gdtoa-gethex.o)
 .debug_frame   0x00000000000072c4       0x70 /Applications/microchip/xc32/v2.15/bin/bin/../../lib/gcc/pic32c/6.2.1/../../../../pic32c/lib/v7e-m/fpv5/hard/libc.a(lib_a-gdtoa-hexnan.o)
 .debug_frame   0x0000000000007334       0x40 /Applications/microchip/xc32/v2.15/bin/bin/../../lib/gcc/pic32c/6.2.1/../../../../pic32c/lib/v7e-m/fpv5/hard/libc.a(lib_a-localeconv.o)
 .debug_frame   0x0000000000007374      0x248 /Applications/microchip/xc32/v2.15/bin/bin/../../lib/gcc/pic32c/6.2.1/../../../../pic32c/lib/v7e-m/fpv5/hard/libc.a(lib_a-mprec.o)
 .debug_frame   0x00000000000075bc       0x58 /Applications/microchip/xc32/v2.15/bin/bin/../../lib/gcc/pic32c/6.2.1/../../../../pic32c/lib/v7e-m/fpv5/hard/libc.a(lib_a-reent.o)
 .debug_frame   0x0000000000007614       0x38 /Applications/microchip/xc32/v2.15/bin/bin/../../lib/gcc/pic32c/6.2.1/../../../../pic32c/lib/v7e-m/fpv5/hard/libc.a(lib_a-s_frexp.o)
 .debug_frame   0x000000000000764c       0x50 /Applications/microchip/xc32/v2.15/bin/bin/../../lib/gcc/pic32c/6.2.1/../../../../pic32c/lib/v7e-m/fpv5/hard/libc.a(lib_a-strchr.o)
 .debug_frame   0x000000000000769c       0x54 /Applications/microchip/xc32/v2.15/bin/bin/../../lib/gcc/pic32c/6.2.1/../../../../pic32c/lib/v7e-m/fpv5/hard/libc.a(lib_a-strncmp.o)
 .debug_frame   0x00000000000076f0       0x78 /Applications/microchip/xc32/v2.15/bin/bin/../../lib/gcc/pic32c/6.2.1/../../../../pic32c/lib/v7e-m/fpv5/hard/libc.a(lib_a-svfiprintf.o)
 .debug_frame   0x0000000000007768       0x34 /Applications/microchip/xc32/v2.15/bin/bin/../../lib/gcc/pic32c/6.2.1/../../../../pic32c/lib/v7e-m/fpv5/hard/libc.a(lib_a-__atexit.o)
 .debug_frame   0x000000000000779c       0x30 /Applications/microchip/xc32/v2.15/bin/bin/../../lib/gcc/pic32c/6.2.1/../../../../pic32c/lib/v7e-m/fpv5/hard/libc.a(lib_a-memmove.o)
 .debug_frame   0x00000000000077cc       0x68 /Applications/microchip/xc32/v2.15/bin/bin/../../lib/gcc/pic32c/6.2.1/../../../../pic32c/lib/v7e-m/fpv5/hard/libc.a(lib_a-reallocr.o)
 .debug_frame   0x0000000000007834       0x20 /Applications/microchip/xc32/v2.15/bin/bin/../../lib/gcc/pic32c/6.2.1/../../../../pic32c/lib/v7e-m/fpv5/hard/libpic32c.a(sbrk.o)

.debug_loc      0x0000000000000000    0x338be
 .debug_loc     0x0000000000000000     0x38cb build/sam_e70_xult_freertos/production/_ext/1607428259/drv_ethphy.o
 .debug_loc     0x00000000000038cb      0x29b build/sam_e70_xult_freertos/production/_ext/1607428259/drv_extphy_smsc8740.o
 .debug_loc     0x0000000000003b66     0x1e66 build/sam_e70_xult_freertos/production/_ext/1619526243/drv_gmac.o
 .debug_loc     0x00000000000059cc     0x1a8f build/sam_e70_xult_freertos/production/_ext/1619526243/drv_gmac_lib_samE7x_V7x.o
 .debug_loc     0x000000000000745b     0x2421 build/sam_e70_xult_freertos/production/_ext/511568427/drv_miim.o
 .debug_loc     0x000000000000987c      0x4be build/sam_e70_xult_freertos/production/_ext/810785262/helpers.o
 .debug_loc     0x0000000000009d3a     0x2cf8 build/sam_e70_xult_freertos/production/_ext/810785262/dns.o
 .debug_loc     0x000000000000ca32      0x37c build/sam_e70_xult_freertos/production/_ext/810785262/icmp.o
 .debug_loc     0x000000000000cdae     0x65a2 build/sam_e70_xult_freertos/production/_ext/810785262/tcp.o
 .debug_loc     0x0000000000013350     0x2d25 build/sam_e70_xult_freertos/production/_ext/810785262/dhcp.o
 .debug_loc     0x0000000000016075     0x2a93 build/sam_e70_xult_freertos/production/_ext/810785262/arp.o
 .debug_loc     0x0000000000018b08     0x217c build/sam_e70_xult_freertos/production/_ext/810785262/tcpip_commands.o
 .debug_loc     0x000000000001ac84     0x209e build/sam_e70_xult_freertos/production/_ext/810785262/ipv4.o
 .debug_loc     0x000000000001cd22      0x1fe build/sam_e70_xult_freertos/production/_ext/810785262/tcpip_heap_alloc.o
 .debug_loc     0x000000000001cf20      0xad5 build/sam_e70_xult_freertos/production/_ext/810785262/tcpip_heap_internal.o
 .debug_loc     0x000000000001d9f5      0x278 build/sam_e70_xult_freertos/production/_ext/810785262/hash_fnv.o
 .debug_loc     0x000000000001dc6d      0x3ce build/sam_e70_xult_freertos/production/_ext/810785262/oahash.o
 .debug_loc     0x000000000001e03b     0x2c37 build/sam_e70_xult_freertos/production/_ext/810785262/tcpip_helpers.o
 .debug_loc     0x0000000000020c72     0x5513 build/sam_e70_xult_freertos/production/_ext/810785262/tcpip_manager.o
 .debug_loc     0x0000000000026185      0x2dc build/sam_e70_xult_freertos/production/_ext/810785262/tcpip_notify.o
 .debug_loc     0x0000000000026461      0xa29 build/sam_e70_xult_freertos/production/_ext/810785262/tcpip_packet.o
 .debug_loc     0x0000000000026e8a     0x3eb3 build/sam_e70_xult_freertos/production/_ext/810785262/udp.o
 .debug_loc     0x000000000002ad3d      0x11c build/sam_e70_xult_freertos/production/_ext/1414743522/plib_nvic.o
 .debug_loc     0x000000000002ae59       0x84 build/sam_e70_xult_freertos/production/_ext/45635366/plib_pio.o
 .debug_loc     0x000000000002aedd       0x42 build/sam_e70_xult_freertos/production/_ext/1245453995/plib_tc0.o
 .debug_loc     0x000000000002af1f      0x4ea build/sam_e70_xult_freertos/production/_ext/901008055/plib_usart1.o
 .debug_loc     0x000000000002b409      0x676 build/sam_e70_xult_freertos/production/_ext/762686499/sys_console.o
 .debug_loc     0x000000000002ba7f      0xb14 build/sam_e70_xult_freertos/production/_ext/762686499/sys_console_uart.o
 .debug_loc     0x000000000002c593      0x142 build/sam_e70_xult_freertos/production/_ext/762686499/sys_debug.o
 .debug_loc     0x000000000002c6d5     0x1257 build/sam_e70_xult_freertos/production/_ext/762686499/sys_command.o
 .debug_loc     0x000000000002d92c       0xe9 build/sam_e70_xult_freertos/production/_ext/1775855163/sys_int.o
 .debug_loc     0x000000000002da15     0x1e63 build/sam_e70_xult_freertos/production/_ext/912870411/sys_time.o
 .debug_loc     0x000000000002f878       0xde build/sam_e70_xult_freertos/production/_ext/231871610/sys_time_h2_adapter.o
 .debug_loc     0x000000000002f956      0x13c build/sam_e70_xult_freertos/production/_ext/1552905064/tasks.o
 .debug_loc     0x000000000002fa92       0x79 build/sam_e70_xult_freertos/production/_ext/1552905064/initialization.o
 .debug_loc     0x000000000002fb0b       0x6d build/sam_e70_xult_freertos/production/_ext/1552905064/startup_xc32.o
 .debug_loc     0x000000000002fb78       0x7a build/sam_e70_xult_freertos/production/_ext/1552905064/freertos_hooks.o
 .debug_loc     0x000000000002fbf2      0x122 build/sam_e70_xult_freertos/production/_ext/977623654/port.o
 .debug_loc     0x000000000002fd14       0xbf build/sam_e70_xult_freertos/production/_ext/1665200909/heap_3.o
 .debug_loc     0x000000000002fdd3       0x9c build/sam_e70_xult_freertos/production/_ext/404212886/list.o
 .debug_loc     0x000000000002fe6f     0x12d2 build/sam_e70_xult_freertos/production/_ext/404212886/queue.o
 .debug_loc     0x0000000000031141     0x1c07 build/sam_e70_xult_freertos/production/_ext/404212886/FreeRTOS_tasks.o
 .debug_loc     0x0000000000032d48      0x5b4 build/sam_e70_xult_freertos/production/_ext/281930714/osal_freertos.o
 .debug_loc     0x00000000000332fc      0x143 build/sam_e70_xult_freertos/production/_ext/1360937237/app_commands.o
 .debug_loc     0x000000000003343f      0x45f build/sam_e70_xult_freertos/production/_ext/1360937237/app.o
 .debug_loc     0x000000000003389e       0x20 build/sam_e70_xult_freertos/production/_ext/1360937237/main.o

.stack          0x00000000204196b0      0x100
 .stack         0x00000000204196b0      0x100 stack

.bss.gmac_dcpt_array%1
                0x000000002045f000       0xf0
 .bss.gmac_dcpt_array
                0x000000002045f000       0xf0 build/sam_e70_xult_freertos/production/_ext/1619526243/drv_gmac_lib_samE7x_V7x.o
                0x000000002045f000                gmac_dcpt_array

.bss.printBuff%2
                0x000000002045f0f0      0xa00
 .bss.printBuff
                0x000000002045f0f0      0xa00 build/sam_e70_xult_freertos/production/_ext/762686499/sys_command.o

.data.impure_data%3
                0x000000002045faf0      0x428
 .data.impure_data
                0x000000002045faf0      0x428 /Applications/microchip/xc32/v2.15/bin/bin/../../lib/gcc/pic32c/6.2.1/../../../../pic32c/lib/v7e-m/fpv5/hard/libc.a(lib_a-impure.o)

.data.__malloc_av_%4
                0x00000000204005f0      0x408
 .data.__malloc_av_
                0x00000000204005f0      0x408 /Applications/microchip/xc32/v2.15/bin/bin/../../lib/gcc/pic32c/6.2.1/../../../../pic32c/lib/v7e-m/fpv5/hard/libc.a(lib_a-mallocr.o)
                0x00000000204005f0                __malloc_av_

.data._gmac_drv_dcpt%5
                0x00000000204009f8      0x304
 .data._gmac_drv_dcpt
                0x00000000204009f8      0x304 build/sam_e70_xult_freertos/production/_ext/1619526243/drv_gmac.o

.bss.TCPIP_STACK_MODULE_SIGNAL_TBL%6
                0x0000000020400cfc      0x250
 .bss.TCPIP_STACK_MODULE_SIGNAL_TBL
                0x0000000020400cfc      0x250 build/sam_e70_xult_freertos/production/_ext/810785262/tcpip_manager.o

.bss.sysConsole0UARTWrQueueElements%7
                0x0000000020400f4c      0x208
 .bss.sysConsole0UARTWrQueueElements
                0x0000000020400f4c      0x208 build/sam_e70_xult_freertos/production/_ext/1552905064/initialization.o

.data.__global_locale%8
                0x0000000020401154      0x16c
 .data.__global_locale
                0x0000000020401154      0x16c /Applications/microchip/xc32/v2.15/bin/bin/../../lib/gcc/pic32c/6.2.1/../../../../pic32c/lib/v7e-m/fpv5/hard/libc.a(lib_a-locale.o)
                0x0000000020401154                __global_locale

.bss.printBuffer%9
                0x000000002045ff18       0xc8
 .bss.printBuffer
                0x000000002045ff18       0xc8 build/sam_e70_xult_freertos/production/_ext/762686499/sys_debug.o

.bss.tmpBuf%10  0x00000000204012c0       0xc8
 .bss.tmpBuf    0x00000000204012c0       0xc8 build/sam_e70_xult_freertos/production/_ext/762686499/sys_debug.o

.bss.timers%11  0x0000000020401388       0xa0
 .bss.timers    0x0000000020401388       0xa0 build/sam_e70_xult_freertos/production/_ext/912870411/sys_time.o

.bss.gDrvMIIMObj%12
                0x0000000020401428       0x94
 .bss.gDrvMIIMObj
                0x0000000020401428       0x94 build/sam_e70_xult_freertos/production/_ext/511568427/drv_miim.o

.bss.TCPIP_MODULES_QUEUE_TBL%13
                0x00000000204014bc       0x90
 .bss.TCPIP_MODULES_QUEUE_TBL
                0x00000000204014bc       0x90 build/sam_e70_xult_freertos/production/_ext/810785262/tcpip_manager.o

.bss.saveCmd.7379%14
                0x000000002040154c       0x81
 .bss.saveCmd.7379
                0x000000002040154c       0x81 build/sam_e70_xult_freertos/production/_ext/762686499/sys_command.o

.bss._usrCmdTbl%15
                0x00000000204015d0       0x80
 .bss._usrCmdTbl
                0x00000000204015d0       0x80 build/sam_e70_xult_freertos/production/_ext/762686499/sys_command.o

.bss.readBuff%16
                0x0000000020401650       0x80
 .bss.readBuff  0x0000000020401650       0x80 build/sam_e70_xult_freertos/production/_ext/762686499/sys_command.o

.bss.gDrvETHPHYObj%17
                0x00000000204016d0       0x64
 .bss.gDrvETHPHYObj
                0x00000000204016d0       0x64 build/sam_e70_xult_freertos/production/_ext/1607428259/drv_ethphy.o

.bss.gConsoleUartData%18
                0x0000000020401734       0x64
 .bss.gConsoleUartData
                0x0000000020401734       0x64 build/sam_e70_xult_freertos/production/_ext/762686499/sys_console_uart.o

.bss.pxReadyTasksLists%19
                0x0000000020401798       0x64
 .bss.pxReadyTasksLists
                0x0000000020401798       0x64 build/sam_e70_xult_freertos/production/_ext/404212886/FreeRTOS_tasks.o

.bss.sysConsole0UARTRdQueueElements%20
                0x00000000204017fc       0x58
 .bss.sysConsole0UARTRdQueueElements
                0x00000000204017fc       0x58 build/sam_e70_xult_freertos/production/_ext/1552905064/initialization.o

.bss.arpMod%21  0x0000000020401854       0x48
 .bss.arpMod    0x0000000020401854       0x48 build/sam_e70_xult_freertos/production/_ext/810785262/arp.o

.bss.gSystemCounterObj%22
                0x000000002040189c       0x38
 .bss.gSystemCounterObj
                0x000000002040189c       0x38 build/sam_e70_xult_freertos/production/_ext/912870411/sys_time.o

.bss.gDnsDcpt%23
                0x00000000204018d4       0x28
 .bss.gDnsDcpt  0x00000000204018d4       0x28 build/sam_e70_xult_freertos/production/_ext/810785262/dns.o

.bss.__malloc_current_mallinfo%24
                0x00000000204018fc       0x28
 .bss.__malloc_current_mallinfo
                0x00000000204018fc       0x28 /Applications/microchip/xc32/v2.15/bin/bin/../../lib/gcc/pic32c/6.2.1/../../../../pic32c/lib/v7e-m/fpv5/hard/libc.a(lib_a-mallocr.o)
                0x00000000204018fc                __malloc_current_mallinfo

.bss.tcpip_stack_ctrl_data%25
                0x000000002045ffe0       0x20
 .bss.tcpip_stack_ctrl_data
                0x000000002045ffe0       0x20 build/sam_e70_xult_freertos/production/_ext/810785262/tcpip_manager.o

.bss.dnslookupTargetHost%26
                0x0000000020401924       0x1f
 .bss.dnslookupTargetHost
                0x0000000020401924       0x1f build/sam_e70_xult_freertos/production/_ext/810785262/tcpip_commands.o

.bss%27         0x0000000020401944       0x1c
 .bss           0x0000000020401944       0x1c /Applications/microchip/xc32/v2.15/bin/bin/../../lib/gcc/pic32c/6.2.1/v7e-m/fpv5/hard/crtbegin.o

.bss._cmdAppData%28
                0x0000000020401960       0x18
 .bss._cmdAppData
                0x0000000020401960       0x18 build/sam_e70_xult_freertos/production/_ext/762686499/sys_command.o

.bss.dhcpRegisteredUsers%29
                0x0000000020401978       0x14
 .bss.dhcpRegisteredUsers
                0x0000000020401978       0x14 build/sam_e70_xult_freertos/production/_ext/810785262/dhcp.o

.bss.cmdTcpipInitData%30
                0x000000002040198c       0x14
 .bss.cmdTcpipInitData
                0x000000002040198c       0x14 build/sam_e70_xult_freertos/production/_ext/810785262/tcpip_commands.o

.bss.ipv4ArpQueue%31
                0x00000000204019a0       0x14
 .bss.ipv4ArpQueue
                0x00000000204019a0       0x14 build/sam_e70_xult_freertos/production/_ext/810785262/ipv4.o

.bss.ipv4PacketFilters%32
                0x00000000204019b4       0x14
 .bss.ipv4PacketFilters
                0x00000000204019b4       0x14 build/sam_e70_xult_freertos/production/_ext/810785262/ipv4.o

.bss.tcpip_init_data%33
                0x00000000204019c8       0x14
 .bss.tcpip_init_data
                0x00000000204019c8       0x14 build/sam_e70_xult_freertos/production/_ext/810785262/tcpip_manager.o

.data.tcpipHeapConfig%34
                0x00000000204019dc       0x14
 .data.tcpipHeapConfig
                0x00000000204019dc       0x14 build/sam_e70_xult_freertos/production/_ext/1552905064/initialization.o
                0x00000000204019dc                tcpipHeapConfig

.bss.xDelayedTaskList1%35
                0x00000000204019f0       0x14
 .bss.xDelayedTaskList1
                0x00000000204019f0       0x14 build/sam_e70_xult_freertos/production/_ext/404212886/FreeRTOS_tasks.o

.bss.xDelayedTaskList2%36
                0x0000000020401a04       0x14
 .bss.xDelayedTaskList2
                0x0000000020401a04       0x14 build/sam_e70_xult_freertos/production/_ext/404212886/FreeRTOS_tasks.o

.bss.xPendingReadyList%37
                0x0000000020401a18       0x14
 .bss.xPendingReadyList
                0x0000000020401a18       0x14 build/sam_e70_xult_freertos/production/_ext/404212886/FreeRTOS_tasks.o

.bss.xSuspendedTaskList%38
                0x0000000020401a2c       0x14
 .bss.xSuspendedTaskList
                0x0000000020401a2c       0x14 build/sam_e70_xult_freertos/production/_ext/404212886/FreeRTOS_tasks.o

.bss.xTasksWaitingTermination%39
                0x0000000020401a40       0x14
 .bss.xTasksWaitingTermination
                0x0000000020401a40       0x14 build/sam_e70_xult_freertos/production/_ext/404212886/FreeRTOS_tasks.o

.bss.tcpip_heap_config%40
                0x0000000020401a54       0x10
 .bss.tcpip_heap_config
                0x0000000020401a54       0x10 build/sam_e70_xult_freertos/production/_ext/810785262/tcpip_manager.o

.bss.consoleDeviceInstance%41
                0x0000000020401a64        0xc
 .bss.consoleDeviceInstance
                0x0000000020401a64        0xc build/sam_e70_xult_freertos/production/_ext/762686499/sys_console.o

.bss.cmdIODevList%42
                0x0000000020401a70        0xc
 .bss.cmdIODevList
                0x0000000020401a70        0xc build/sam_e70_xult_freertos/production/_ext/762686499/sys_command.o

.bss._cmdList%43
                0x0000000020401a7c        0x8
 .bss._cmdList  0x0000000020401a7c        0x8 build/sam_e70_xult_freertos/production/_ext/762686499/sys_command.o

.data.dwLastIP.13363%44
                0x0000000020401a84        0x8
 .data.dwLastIP.13363
                0x0000000020401a84        0x8 build/sam_e70_xult_freertos/production/_ext/1360937237/app.o

.data.arpBcastAdd%45
                0x0000000020401a8c        0x6
 .data.arpBcastAdd
                0x0000000020401a8c        0x6 build/sam_e70_xult_freertos/production/_ext/810785262/arp.o

.bss._hEventMac%46
                0x0000000020401a94        0x4
 .bss._hEventMac
                0x0000000020401a94        0x4 build/sam_e70_xult_freertos/production/_ext/1619526243/drv_gmac.o

.bss._MIIMStayAssertLoop%47
                0x0000000020401a98        0x4
 .bss._MIIMStayAssertLoop
                0x0000000020401a98        0x4 build/sam_e70_xult_freertos/production/_ext/511568427/drv_miim.o
                0x0000000020401a98                _MIIMStayAssertLoop

.bss._DNSStayAssertLoop%48
                0x0000000020401a9c        0x4
 .bss._DNSStayAssertLoop
                0x0000000020401a9c        0x4 build/sam_e70_xult_freertos/production/_ext/810785262/dns.o
                0x0000000020401a9c                _DNSStayAssertLoop

.bss._DNSStayCondLoop%49
                0x0000000020401aa0        0x4
 .bss._DNSStayCondLoop
                0x0000000020401aa0        0x4 build/sam_e70_xult_freertos/production/_ext/810785262/dns.o
                0x0000000020401aa0                _DNSStayCondLoop

.bss.dnsInitCount%50
                0x0000000020401aa4        0x4
 .bss.dnsInitCount
                0x0000000020401aa4        0x4 build/sam_e70_xult_freertos/production/_ext/810785262/dns.o

.bss.pgDnsDcpt%51
                0x0000000020401aa8        0x4
 .bss.pgDnsDcpt
                0x0000000020401aa8        0x4 build/sam_e70_xult_freertos/production/_ext/810785262/dns.o

.bss.icmpInitCount%52
                0x0000000020401aac        0x4
 .bss.icmpInitCount
                0x0000000020401aac        0x4 build/sam_e70_xult_freertos/production/_ext/810785262/icmp.o

.bss.signalHandle%53
                0x0000000020401ab0        0x4
 .bss.signalHandle
                0x0000000020401ab0        0x4 build/sam_e70_xult_freertos/production/_ext/810785262/icmp.o

.bss.TCBStubs%54
                0x0000000020401ab4        0x4
 .bss.TCBStubs  0x0000000020401ab4        0x4 build/sam_e70_xult_freertos/production/_ext/810785262/tcp.o

.bss.TcpSockets%55
                0x0000000020401ab8        0x4
 .bss.TcpSockets
                0x0000000020401ab8        0x4 build/sam_e70_xult_freertos/production/_ext/810785262/tcp.o

.bss.tcpHeapH%56
                0x0000000020401abc        0x4
 .bss.tcpHeapH  0x0000000020401abc        0x4 build/sam_e70_xult_freertos/production/_ext/810785262/tcp.o

.bss.tcpInitCount%57
                0x0000000020401ac0        0x4
 .bss.tcpInitCount
                0x0000000020401ac0        0x4 build/sam_e70_xult_freertos/production/_ext/810785262/tcp.o

.bss.tcpLockCount%58
                0x0000000020401ac4        0x4
 .bss.tcpLockCount
                0x0000000020401ac4        0x4 build/sam_e70_xult_freertos/production/_ext/810785262/tcp.o

.bss.tcpSemaphore%59
                0x0000000020401ac8        0x4
 .bss.tcpSemaphore
                0x0000000020401ac8        0x4 build/sam_e70_xult_freertos/production/_ext/810785262/tcp.o

.bss.tcpSignalHandle%60
                0x0000000020401acc        0x4
 .bss.tcpSignalHandle
                0x0000000020401acc        0x4 build/sam_e70_xult_freertos/production/_ext/810785262/tcp.o

.bss.DHCPClients%61
                0x0000000020401ad0        0x4
 .bss.DHCPClients
                0x0000000020401ad0        0x4 build/sam_e70_xult_freertos/production/_ext/810785262/dhcp.o

.bss.dhcpFilterHandle%62
                0x0000000020401ad4        0x4
 .bss.dhcpFilterHandle
                0x0000000020401ad4        0x4 build/sam_e70_xult_freertos/production/_ext/810785262/dhcp.o

.bss.dhcpInitCount%63
                0x0000000020401ad8        0x4
 .bss.dhcpInitCount
                0x0000000020401ad8        0x4 build/sam_e70_xult_freertos/production/_ext/810785262/dhcp.o

.bss.dhcpInterfaces%64
                0x0000000020401adc        0x4
 .bss.dhcpInterfaces
                0x0000000020401adc        0x4 build/sam_e70_xult_freertos/production/_ext/810785262/dhcp.o

.bss.dhcpMemH%65
                0x0000000020401ae0        0x4
 .bss.dhcpMemH  0x0000000020401ae0        0x4 build/sam_e70_xult_freertos/production/_ext/810785262/dhcp.o

.bss.dhcpSecondCount%66
                0x0000000020401ae4        0x4
 .bss.dhcpSecondCount
                0x0000000020401ae4        0x4 build/sam_e70_xult_freertos/production/_ext/810785262/dhcp.o

.bss.dhcpSignalHandle%67
                0x0000000020401ae8        0x4
 .bss.dhcpSignalHandle
                0x0000000020401ae8        0x4 build/sam_e70_xult_freertos/production/_ext/810785262/dhcp.o

.bss.dnsLookUpStartTick%68
                0x0000000020401aec        0x4
 .bss.dnsLookUpStartTick
                0x0000000020401aec        0x4 build/sam_e70_xult_freertos/production/_ext/810785262/tcpip_commands.o

.bss.dnsLookupCmdIoParam%69
                0x0000000020401af0        0x4
 .bss.dnsLookupCmdIoParam
                0x0000000020401af0        0x4 build/sam_e70_xult_freertos/production/_ext/810785262/tcpip_commands.o

.bss.initialNetIfs%70
                0x0000000020401af4        0x4
 .bss.initialNetIfs
                0x0000000020401af4        0x4 build/sam_e70_xult_freertos/production/_ext/810785262/tcpip_commands.o

.bss.pCmdTcpipInitData%71
                0x0000000020401af8        0x4
 .bss.pCmdTcpipInitData
                0x0000000020401af8        0x4 build/sam_e70_xult_freertos/production/_ext/810785262/tcpip_commands.o

.bss.pTcpipCmdDevice%72
                0x0000000020401afc        0x4
 .bss.pTcpipCmdDevice
                0x0000000020401afc        0x4 build/sam_e70_xult_freertos/production/_ext/810785262/tcpip_commands.o

.bss.tcpipCmdSignalHandle%73
                0x0000000020401b00        0x4
 .bss.tcpipCmdSignalHandle
                0x0000000020401b00        0x4 build/sam_e70_xult_freertos/production/_ext/810785262/tcpip_commands.o

.bss._IPv4StayAssertLoop%74
                0x0000000020401b04        0x4
 .bss._IPv4StayAssertLoop
                0x0000000020401b04        0x4 build/sam_e70_xult_freertos/production/_ext/810785262/ipv4.o
                0x0000000020401b04                _IPv4StayAssertLoop

.bss.ipv4ArpHandle%75
                0x0000000020401b08        0x4
 .bss.ipv4ArpHandle
                0x0000000020401b08        0x4 build/sam_e70_xult_freertos/production/_ext/810785262/ipv4.o

.bss.ipv4MemH%76
                0x0000000020401b0c        0x4
 .bss.ipv4MemH  0x0000000020401b0c        0x4 build/sam_e70_xult_freertos/production/_ext/810785262/ipv4.o

.bss.signalHandle%77
                0x0000000020401b10        0x4
 .bss.signalHandle
                0x0000000020401b10        0x4 build/sam_e70_xult_freertos/production/_ext/810785262/ipv4.o

.bss.newTcpipErrorEventCnt%78
                0x0000000020401b14        0x4
 .bss.newTcpipErrorEventCnt
                0x0000000020401b14        0x4 build/sam_e70_xult_freertos/production/_ext/810785262/tcpip_manager.o

.bss.newTcpipStackEventCnt%79
                0x0000000020401b18        0x4
 .bss.newTcpipStackEventCnt
                0x0000000020401b18        0x4 build/sam_e70_xult_freertos/production/_ext/810785262/tcpip_manager.o

.bss.newTcpipTickAvlbl%80
                0x0000000020401b1c        0x4
 .bss.newTcpipTickAvlbl
                0x0000000020401b1c        0x4 build/sam_e70_xult_freertos/production/_ext/810785262/tcpip_manager.o

.bss.stackAsyncSignalCount%81
                0x0000000020401b20        0x4
 .bss.stackAsyncSignalCount
                0x0000000020401b20        0x4 build/sam_e70_xult_freertos/production/_ext/810785262/tcpip_manager.o

.bss.stackTaskRate%82
                0x0000000020401b24        0x4
 .bss.stackTaskRate
                0x0000000020401b24        0x4 build/sam_e70_xult_freertos/production/_ext/810785262/tcpip_manager.o

.bss.tcpipDefIf%83
                0x0000000020401b28        0x4
 .bss.tcpipDefIf
                0x0000000020401b28        0x4 build/sam_e70_xult_freertos/production/_ext/810785262/tcpip_manager.o

.bss.tcpipNetIf%84
                0x0000000020401b2c        0x4
 .bss.tcpipNetIf
                0x0000000020401b2c        0x4 build/sam_e70_xult_freertos/production/_ext/810785262/tcpip_manager.o

.bss.totTcpipEventsCnt%85
                0x0000000020401b30        0x4
 .bss.totTcpipEventsCnt
                0x0000000020401b30        0x4 build/sam_e70_xult_freertos/production/_ext/810785262/tcpip_manager.o

.data.tcpip_stack_tickH%86
                0x0000000020401b34        0x4
 .data.tcpip_stack_tickH
                0x0000000020401b34        0x4 build/sam_e70_xult_freertos/production/_ext/810785262/tcpip_manager.o

.bss.pktMemH%87
                0x0000000020401b38        0x4
 .bss.pktMemH   0x0000000020401b38        0x4 build/sam_e70_xult_freertos/production/_ext/810785262/tcpip_packet.o

.bss.UDPSocketDcpt%88
                0x0000000020401b3c        0x4
 .bss.UDPSocketDcpt
                0x0000000020401b3c        0x4 build/sam_e70_xult_freertos/production/_ext/810785262/udp.o

.bss.nUdpSockets%89
                0x0000000020401b40        0x4
 .bss.nUdpSockets
                0x0000000020401b40        0x4 build/sam_e70_xult_freertos/production/_ext/810785262/udp.o

.bss.signalHandle%90
                0x0000000020401b44        0x4
 .bss.signalHandle
                0x0000000020401b44        0x4 build/sam_e70_xult_freertos/production/_ext/810785262/udp.o

.bss.udpInitCount%91
                0x0000000020401b48        0x4
 .bss.udpInitCount
                0x0000000020401b48        0x4 build/sam_e70_xult_freertos/production/_ext/810785262/udp.o

.bss.udpMemH%92
                0x0000000020401b4c        0x4
 .bss.udpMemH   0x0000000020401b4c        0x4 build/sam_e70_xult_freertos/production/_ext/810785262/udp.o

.bss.userSem%93
                0x0000000020401b50        0x4
 .bss.userSem   0x0000000020401b50        0x4 build/sam_e70_xult_freertos/production/_ext/810785262/udp.o

.bss._pCurrCmdN%94
                0x0000000020401b54        0x4
 .bss._pCurrCmdN
                0x0000000020401b54        0x4 build/sam_e70_xult_freertos/production/_ext/762686499/sys_command.o

.bss.printBuffPtr%95
                0x0000000020401b58        0x4
 .bss.printBuffPtr
                0x0000000020401b58        0x4 build/sam_e70_xult_freertos/production/_ext/762686499/sys_command.o

.bss.systemAdaptObj%96
                0x0000000020401b5c        0x4
 .bss.systemAdaptObj
                0x0000000020401b5c        0x4 build/sam_e70_xult_freertos/production/_ext/231871610/sys_time_h2_adapter.o

.bss.cmd.13380%97
                0x0000000020401b60        0x4
 .bss.cmd.13380
                0x0000000020401b60        0x4 build/sam_e70_xult_freertos/production/_ext/1552905064/startup_xc32.o

.data.uxCriticalNesting%98
                0x0000000020401b64        0x4
 .data.uxCriticalNesting
                0x0000000020401b64        0x4 build/sam_e70_xult_freertos/production/_ext/977623654/port.o

.bss.pxCurrentTCB%99
                0x0000000020401b68        0x4
 .bss.pxCurrentTCB
                0x0000000020401b68        0x4 build/sam_e70_xult_freertos/production/_ext/404212886/FreeRTOS_tasks.o
                0x0000000020401b68                pxCurrentTCB

.bss.pxDelayedTaskList%100
                0x0000000020401b6c        0x4
 .bss.pxDelayedTaskList
                0x0000000020401b6c        0x4 build/sam_e70_xult_freertos/production/_ext/404212886/FreeRTOS_tasks.o

.bss.pxOverflowDelayedTaskList%101
                0x0000000020401b70        0x4
 .bss.pxOverflowDelayedTaskList
                0x0000000020401b70        0x4 build/sam_e70_xult_freertos/production/_ext/404212886/FreeRTOS_tasks.o

.bss.uxCurrentNumberOfTasks%102
                0x0000000020401b74        0x4
 .bss.uxCurrentNumberOfTasks
                0x0000000020401b74        0x4 build/sam_e70_xult_freertos/production/_ext/404212886/FreeRTOS_tasks.o

.bss.uxDeletedTasksWaitingCleanUp%103
                0x0000000020401b78        0x4
 .bss.uxDeletedTasksWaitingCleanUp
                0x0000000020401b78        0x4 build/sam_e70_xult_freertos/production/_ext/404212886/FreeRTOS_tasks.o

.bss.uxPendedTicks%104
                0x0000000020401b7c        0x4
 .bss.uxPendedTicks
                0x0000000020401b7c        0x4 build/sam_e70_xult_freertos/production/_ext/404212886/FreeRTOS_tasks.o

.bss.uxSchedulerSuspended%105
                0x0000000020401b80        0x4
 .bss.uxSchedulerSuspended
                0x0000000020401b80        0x4 build/sam_e70_xult_freertos/production/_ext/404212886/FreeRTOS_tasks.o

.bss.uxTaskNumber%106
                0x0000000020401b84        0x4
 .bss.uxTaskNumber
                0x0000000020401b84        0x4 build/sam_e70_xult_freertos/production/_ext/404212886/FreeRTOS_tasks.o

.bss.uxTopReadyPriority%107
                0x0000000020401b88        0x4
 .bss.uxTopReadyPriority
                0x0000000020401b88        0x4 build/sam_e70_xult_freertos/production/_ext/404212886/FreeRTOS_tasks.o

.bss.xIdleTaskHandle%108
                0x0000000020401b8c        0x4
 .bss.xIdleTaskHandle
                0x0000000020401b8c        0x4 build/sam_e70_xult_freertos/production/_ext/404212886/FreeRTOS_tasks.o

.bss.xNextTaskUnblockTime%109
                0x0000000020401b90        0x4
 .bss.xNextTaskUnblockTime
                0x0000000020401b90        0x4 build/sam_e70_xult_freertos/production/_ext/404212886/FreeRTOS_tasks.o

.bss.xNumOfOverflows%110
                0x0000000020401b94        0x4
 .bss.xNumOfOverflows
                0x0000000020401b94        0x4 build/sam_e70_xult_freertos/production/_ext/404212886/FreeRTOS_tasks.o

.bss.xSchedulerRunning%111
                0x0000000020401b98        0x4
 .bss.xSchedulerRunning
                0x0000000020401b98        0x4 build/sam_e70_xult_freertos/production/_ext/404212886/FreeRTOS_tasks.o

.bss.xTickCount%112
                0x0000000020401b9c        0x4
 .bss.xTickCount
                0x0000000020401b9c        0x4 build/sam_e70_xult_freertos/production/_ext/404212886/FreeRTOS_tasks.o

.bss.xYieldPending%113
                0x0000000020401ba0        0x4
 .bss.xYieldPending
                0x0000000020401ba0        0x4 build/sam_e70_xult_freertos/production/_ext/404212886/FreeRTOS_tasks.o

.data._impure_ptr%114
                0x0000000020401ba4        0x4
 .data._impure_ptr
                0x0000000020401ba4        0x4 /Applications/microchip/xc32/v2.15/bin/bin/../../lib/gcc/pic32c/6.2.1/../../../../pic32c/lib/v7e-m/fpv5/hard/libc.a(lib_a-impure.o)
                0x0000000020401ba4                _impure_ptr

.bss.__malloc_max_sbrked_mem%115
                0x0000000020401ba8        0x4
 .bss.__malloc_max_sbrked_mem
                0x0000000020401ba8        0x4 /Applications/microchip/xc32/v2.15/bin/bin/../../lib/gcc/pic32c/6.2.1/../../../../pic32c/lib/v7e-m/fpv5/hard/libc.a(lib_a-mallocr.o)
                0x0000000020401ba8                __malloc_max_sbrked_mem

.bss.__malloc_max_total_mem%116
                0x0000000020401bac        0x4
 .bss.__malloc_max_total_mem
                0x0000000020401bac        0x4 /Applications/microchip/xc32/v2.15/bin/bin/../../lib/gcc/pic32c/6.2.1/../../../../pic32c/lib/v7e-m/fpv5/hard/libc.a(lib_a-mallocr.o)
                0x0000000020401bac                __malloc_max_total_mem

.bss.__malloc_top_pad%117
                0x0000000020401bb0        0x4
 .bss.__malloc_top_pad
                0x0000000020401bb0        0x4 /Applications/microchip/xc32/v2.15/bin/bin/../../lib/gcc/pic32c/6.2.1/../../../../pic32c/lib/v7e-m/fpv5/hard/libc.a(lib_a-mallocr.o)
                0x0000000020401bb0                __malloc_top_pad

.data.__malloc_sbrk_base%118
                0x0000000020401bb4        0x4
 .data.__malloc_sbrk_base
                0x0000000020401bb4        0x4 /Applications/microchip/xc32/v2.15/bin/bin/../../lib/gcc/pic32c/6.2.1/../../../../pic32c/lib/v7e-m/fpv5/hard/libc.a(lib_a-mallocr.o)
                0x0000000020401bb4                __malloc_sbrk_base

.data.__malloc_trim_threshold%119
                0x0000000020401bb8        0x4
 .data.__malloc_trim_threshold
                0x0000000020401bb8        0x4 /Applications/microchip/xc32/v2.15/bin/bin/../../lib/gcc/pic32c/6.2.1/../../../../pic32c/lib/v7e-m/fpv5/hard/libc.a(lib_a-mallocr.o)
                0x0000000020401bb8                __malloc_trim_threshold

.bss%120        0x0000000020401bbc        0x4
 .bss           0x0000000020401bbc        0x4 /Applications/microchip/xc32/v2.15/bin/bin/../../lib/gcc/pic32c/6.2.1/../../../../pic32c/lib/v7e-m/fpv5/hard/libpic32c.a(sbrk.o)

.bss.tcpDefRxSize%121
                0x0000000020401a92        0x2
 .bss.tcpDefRxSize
                0x0000000020401a92        0x2 build/sam_e70_xult_freertos/production/_ext/810785262/tcp.o

.bss.tcpDefTxSize%122
                0x00000000204015ce        0x2
 .bss.tcpDefTxSize
                0x00000000204015ce        0x2 build/sam_e70_xult_freertos/production/_ext/810785262/tcp.o

.bss.dhcpClientPort%123
                0x0000000020401bc0        0x2
 .bss.dhcpClientPort
                0x0000000020401bc0        0x2 build/sam_e70_xult_freertos/production/_ext/810785262/dhcp.o

.bss.dhcpClientSocket%124
                0x0000000020401bc2        0x2
 .bss.dhcpClientSocket
                0x0000000020401bc2        0x2 build/sam_e70_xult_freertos/production/_ext/810785262/dhcp.o

.bss.dhcpServerPort%125
                0x0000000020401bc4        0x2
 .bss.dhcpServerPort
                0x0000000020401bc4        0x2 build/sam_e70_xult_freertos/production/_ext/810785262/dhcp.o

.bss.ipv4Identifier%126
                0x0000000020401bc6        0x2
 .bss.ipv4Identifier
                0x0000000020401bc6        0x2 build/sam_e70_xult_freertos/production/_ext/810785262/ipv4.o

.bss.ipv4InitCount%127
                0x0000000020401bc8        0x2
 .bss.ipv4InitCount
                0x0000000020401bc8        0x2 build/sam_e70_xult_freertos/production/_ext/810785262/ipv4.o

.bss.udpDefTxSize%128
                0x0000000020401bca        0x2
 .bss.udpDefTxSize
                0x0000000020401bca        0x2 build/sam_e70_xult_freertos/production/_ext/810785262/udp.o

.data.gSysTimeTokenCount%129
                0x0000000020401bcc        0x2
 .data.gSysTimeTokenCount
                0x0000000020401bcc        0x2 build/sam_e70_xult_freertos/production/_ext/912870411/sys_time.o

.bss.discard_flag.13927%130
                0x0000000020401943        0x1
 .bss.discard_flag.13927
                0x0000000020401943        0x1 build/sam_e70_xult_freertos/production/_ext/1619526243/drv_gmac.o

.bss.tcpipCmdStat%131
                0x00000000204015cd        0x1
 .bss.tcpipCmdStat
                0x00000000204015cd        0x1 build/sam_e70_xult_freertos/production/_ext/810785262/tcpip_commands.o

.data.dnsType%132
                0x0000000020401bce        0x1
 .data.dnsType  0x0000000020401bce        0x1 build/sam_e70_xult_freertos/production/_ext/810785262/tcpip_commands.o

.bss.ipv4FilterType%133
                0x0000000020401bcf        0x1
 .bss.ipv4FilterType
                0x0000000020401bcf        0x1 build/sam_e70_xult_freertos/production/_ext/810785262/ipv4.o

.bss.tcpip_stack_status%134
                0x0000000020401bd0        0x1
 .bss.tcpip_stack_status
                0x0000000020401bd0        0x1 build/sam_e70_xult_freertos/production/_ext/810785262/tcpip_manager.o

.jcr%z1         0x0000000000000000        0x0
 .jcr           0x0000000000000000        0x0 /Applications/microchip/xc32/v2.15/bin/bin/../../lib/gcc/pic32c/6.2.1/v7e-m/fpv5/hard/crtbegin.o

.eh_frame%z2    0x0000000000000000        0x0
 .eh_frame      0x0000000000000000        0x0 /Applications/microchip/xc32/v2.15/bin/bin/../../lib/gcc/pic32c/6.2.1/v7e-m/fpv5/hard/crtbegin.o

.config_D0000000%135
                0x00000000d0000000        0x4
 .config_D0000000
                0x00000000d0000000        0x4 build/sam_e70_xult_freertos/production/_ext/1552905064/initialization.o

.text._svfprintf_r%136
                0x0000000000400198     0x18f0
 .text._svfprintf_r
                0x0000000000400198     0x18f0 /Applications/microchip/xc32/v2.15/bin/bin/../../lib/gcc/pic32c/6.2.1/../../../../pic32c/lib/v7e-m/fpv5/hard/libc.a(lib_a-svfprintf.o)
                0x0000000000400198                _svfprintf_r

.rodata%137     0x0000000000401a88     0x1640
 .rodata        0x0000000000401a88     0x1640 build/sam_e70_xult_freertos/production/_ext/810785262/tcpip_commands.o

.dinit%138      0x00000000004030c8     0x1390
 .dinit         0x00000000004030c8     0x1390 data_init

.text.TCPIP_TCP_Task%139
                0x0000000000404458      0xf24
 .text.TCPIP_TCP_Task
                0x0000000000404458      0xf24 build/sam_e70_xult_freertos/production/_ext/810785262/tcp.o
                0x0000000000404458                TCPIP_TCP_Task

.text._strtod_l%140
                0x0000000000405380      0xe48
 .text._strtod_l
                0x0000000000405380      0xe48 /Applications/microchip/xc32/v2.15/bin/bin/../../lib/gcc/pic32c/6.2.1/../../../../pic32c/lib/v7e-m/fpv5/hard/libc.a(lib_a-strtod.o)
                0x0000000000405380                _strtod_l

.text._dtoa_r%141
                0x00000000004061c8      0xc4c
 .text._dtoa_r  0x00000000004061c8      0xc4c /Applications/microchip/xc32/v2.15/bin/bin/../../lib/gcc/pic32c/6.2.1/../../../../pic32c/lib/v7e-m/fpv5/hard/libc.a(lib_a-dtoa.o)
                0x00000000004061c8                _dtoa_r

.rodata.macPIC32CHwRegDcpt%142
                0x0000000000406e14      0x708
 .rodata.macPIC32CHwRegDcpt
                0x0000000000406e14      0x708 build/sam_e70_xult_freertos/production/_ext/1619526243/drv_gmac.o

.text.TCPIP_STACK_Task%143
                0x000000000040751c      0x630
 .text.TCPIP_STACK_Task
                0x000000000040751c      0x630 build/sam_e70_xult_freertos/production/_ext/810785262/tcpip_manager.o
                0x000000000040751c                TCPIP_STACK_Task

.text._TcpSend%144
                0x0000000000407b4c      0x5cc
 .text._TcpSend
                0x0000000000407b4c      0x5cc build/sam_e70_xult_freertos/production/_ext/810785262/tcp.o

.text._Command_DNS_Service%145
                0x0000000000408118      0x56c
 .text._Command_DNS_Service
                0x0000000000408118      0x56c build/sam_e70_xult_freertos/production/_ext/810785262/tcpip_commands.o

.text._malloc_r%146
                0x0000000000408684      0x550
 .text._malloc_r
                0x0000000000408684      0x550 /Applications/microchip/xc32/v2.15/bin/bin/../../lib/gcc/pic32c/6.2.1/../../../../pic32c/lib/v7e-m/fpv5/hard/libc.a(lib_a-mallocr.o)
                0x0000000000408684                _malloc_r

.text.__gethex%147
                0x0000000000408bd4      0x518
 .text.__gethex
                0x0000000000408bd4      0x518 /Applications/microchip/xc32/v2.15/bin/bin/../../lib/gcc/pic32c/6.2.1/../../../../pic32c/lib/v7e-m/fpv5/hard/libc.a(lib_a-gdtoa-gethex.o)
                0x0000000000408bd4                __gethex

.text.TCPIP_DHCP_Task%148
                0x00000000004090ec      0x4e4
 .text.TCPIP_DHCP_Task
                0x00000000004090ec      0x4e4 build/sam_e70_xult_freertos/production/_ext/810785262/dhcp.o
                0x00000000004090ec                TCPIP_DHCP_Task

.rodata%149     0x00000000004095d0      0x48c
 .rodata        0x00000000004095d0      0x48c build/sam_e70_xult_freertos/production/_ext/810785262/tcpip_manager.o

.text.TCPIP_STACK_Initialize%150
                0x0000000000409a5c      0x410
 .text.TCPIP_STACK_Initialize
                0x0000000000409a5c      0x410 build/sam_e70_xult_freertos/production/_ext/810785262/tcpip_manager.o
                0x0000000000409a5c                TCPIP_STACK_Initialize

.text.DRV_PIC32CGMAC_LibRxGetPacket%151
                0x0000000000409e6c      0x3c0
 .text.DRV_PIC32CGMAC_LibRxGetPacket
                0x0000000000409e6c      0x3c0 build/sam_e70_xult_freertos/production/_ext/1619526243/drv_gmac_lib_samE7x_V7x.o
                0x0000000000409e6c                DRV_PIC32CGMAC_LibRxGetPacket

.text.APP_Tasks%152
                0x000000000040a230      0x390
 .text.APP_Tasks
                0x000000000040a230      0x390 build/sam_e70_xult_freertos/production/_ext/1360937237/app.o
                0x000000000040a230                APP_Tasks

.text._realloc_r%153
                0x000000000040a5c0      0x34c
 .text._realloc_r
                0x000000000040a5c0      0x34c /Applications/microchip/xc32/v2.15/bin/bin/../../lib/gcc/pic32c/6.2.1/../../../../pic32c/lib/v7e-m/fpv5/hard/libc.a(lib_a-reallocr.o)
                0x000000000040a5c0                _realloc_r

.text.SYS_CMD_Tasks%154
                0x000000000040a90c      0x314
 .text.SYS_CMD_Tasks
                0x000000000040a90c      0x314 build/sam_e70_xult_freertos/production/_ext/762686499/sys_command.o
                0x000000000040a90c                SYS_CMD_Tasks

.text.TCPIP_Helper_StringToIPv6Address%155
                0x000000000040ac20      0x2e8
 .text.TCPIP_Helper_StringToIPv6Address
                0x000000000040ac20      0x2e8 build/sam_e70_xult_freertos/production/_ext/810785262/tcpip_helpers.o
                0x000000000040ac20                TCPIP_Helper_StringToIPv6Address

.text%156       0x000000000040af08      0x2dc
 .text          0x000000000040af08      0x2dc /Applications/microchip/xc32/v2.15/bin/bin/../../lib/gcc/pic32c/6.2.1/v7e-m/fpv5/hard/libgcc.a(_udivmoddi4.o)
                0x000000000040af08                __udivmoddi4

.text%157       0x000000000040b200      0x2dc
 .text          0x000000000040b200      0x2dc /Applications/microchip/xc32/v2.15/bin/bin/../../lib/gcc/pic32c/6.2.1/../../../../pic32c/lib/v7e-m/fpv5/hard/libc.a(lib_a-strcmp.o)
                0x000000000040b208                strcmp

.text.DRV_GMAC_Initialize%158
                0x000000000040b4dc      0x2d4
 .text.DRV_GMAC_Initialize
                0x000000000040b4dc      0x2d4 build/sam_e70_xult_freertos/production/_ext/1619526243/drv_gmac.o
                0x000000000040b4dc                DRV_GMAC_Initialize

.text.TCPIP_ARP_Task%159
                0x000000000040b7b0      0x2b8
 .text.TCPIP_ARP_Task
                0x000000000040b7b0      0x2b8 build/sam_e70_xult_freertos/production/_ext/810785262/arp.o
                0x000000000040b7b0                TCPIP_ARP_Task

.text.DRV_PIC32CGMAC_LibTxSendPacket%160
                0x000000000040ba68      0x294
 .text.DRV_PIC32CGMAC_LibTxSendPacket
                0x000000000040ba68      0x294 build/sam_e70_xult_freertos/production/_ext/1619526243/drv_gmac_lib_samE7x_V7x.o
                0x000000000040ba68                DRV_PIC32CGMAC_LibTxSendPacket

.rodata%161     0x000000000040bcfc      0x290
 .rodata        0x000000000040bcfc      0x290 build/sam_e70_xult_freertos/production/_ext/1360937237/app.o

.text._CommandArp%162
                0x000000000040bf8c      0x260
 .text._CommandArp
                0x000000000040bf8c      0x260 build/sam_e70_xult_freertos/production/_ext/810785262/tcpip_commands.o

.text.TCPIP_UDP_Task%163
                0x000000000040c1ec      0x24c
 .text.TCPIP_UDP_Task
                0x000000000040c1ec      0x24c build/sam_e70_xult_freertos/production/_ext/810785262/udp.o
                0x000000000040c1ec                TCPIP_UDP_Task

.text._TCP_Open%164
                0x000000000040c438      0x238
 .text._TCP_Open
                0x000000000040c438      0x238 build/sam_e70_xult_freertos/production/_ext/810785262/tcp.o

.text.TCPIP_UDP_Flush%165
                0x000000000040c670      0x22c
 .text.TCPIP_UDP_Flush
                0x000000000040c670      0x22c build/sam_e70_xult_freertos/production/_ext/810785262/udp.o
                0x000000000040c670                TCPIP_UDP_Flush

.text._CommandDhcpOptions%166
                0x000000000040c89c      0x220
 .text._CommandDhcpOptions
                0x000000000040c89c      0x220 build/sam_e70_xult_freertos/production/_ext/810785262/tcpip_commands.o

.text._DNS_Send_Query%167
                0x000000000040cabc      0x218
 .text._DNS_Send_Query
                0x000000000040cabc      0x218 build/sam_e70_xult_freertos/production/_ext/810785262/dns.o

.text.TCPIP_DNS_ClientInitialize%168
                0x000000000040ccd4      0x218
 .text.TCPIP_DNS_ClientInitialize
                0x000000000040ccd4      0x218 build/sam_e70_xult_freertos/production/_ext/810785262/dns.o
                0x000000000040ccd4                TCPIP_DNS_ClientInitialize

.rodata%169     0x000000000040ceec      0x218
 .rodata        0x000000000040ceec      0x218 build/sam_e70_xult_freertos/production/_ext/762686499/sys_command.o

.text.strstr%170
                0x000000000040d104      0x218
 .text.strstr   0x000000000040d104      0x218 /Applications/microchip/xc32/v2.15/bin/bin/../../lib/gcc/pic32c/6.2.1/../../../../pic32c/lib/v7e-m/fpv5/hard/libc.a(lib_a-strstr.o)
                0x000000000040d104                strstr

.text.TCPIP_UDP_OptionsSet%171
                0x000000000040d31c      0x212
 .text.TCPIP_UDP_OptionsSet
                0x000000000040d31c      0x212 build/sam_e70_xult_freertos/production/_ext/810785262/udp.o
                0x000000000040d31c                TCPIP_UDP_OptionsSet

.text.TCPIP_COMMAND_Task%172
                0x000000000040d530      0x20c
 .text.TCPIP_COMMAND_Task
                0x000000000040d530      0x20c build/sam_e70_xult_freertos/production/_ext/810785262/tcpip_commands.o
                0x000000000040d530                TCPIP_COMMAND_Task

.text.two_way_long_needle%173
                0x000000000040d73c      0x1fc
 .text.two_way_long_needle
                0x000000000040d73c      0x1fc /Applications/microchip/xc32/v2.15/bin/bin/../../lib/gcc/pic32c/6.2.1/../../../../pic32c/lib/v7e-m/fpv5/hard/libc.a(lib_a-strstr.o)

.text._DNS_ProcessPacket%174
                0x000000000040d938      0x1ec
 .text._DNS_ProcessPacket
                0x000000000040d938      0x1ec build/sam_e70_xult_freertos/production/_ext/810785262/dns.o

.text._Command_NetInfo%175
                0x000000000040db24      0x1e8
 .text._Command_NetInfo
                0x000000000040db24      0x1e8 build/sam_e70_xult_freertos/production/_ext/810785262/tcpip_commands.o

.text.TCPIP_STACK_BringNetUp%176
                0x000000000040dd0c      0x1e8
 .text.TCPIP_STACK_BringNetUp
                0x000000000040dd0c      0x1e8 build/sam_e70_xult_freertos/production/_ext/810785262/tcpip_manager.o

.text._DHCPReceive%177
                0x000000000040def4      0x1e0
 .text._DHCPReceive
                0x000000000040def4      0x1e0 build/sam_e70_xult_freertos/production/_ext/810785262/dhcp.o

.text.TCPIP_ARP_Initialize%178
                0x000000000040e0d4      0x1e0
 .text.TCPIP_ARP_Initialize
                0x000000000040e0d4      0x1e0 build/sam_e70_xult_freertos/production/_ext/810785262/arp.o
                0x000000000040e0d4                TCPIP_ARP_Initialize

.text.xTaskCreate%179
                0x000000000040e2b4      0x1e0
 .text.xTaskCreate
                0x000000000040e2b4      0x1e0 build/sam_e70_xult_freertos/production/_ext/404212886/FreeRTOS_tasks.o
                0x000000000040e2b4                xTaskCreate

.text.TCPIP_IPV4_PacketTransmit%180
                0x000000000040e494      0x1d8
 .text.TCPIP_IPV4_PacketTransmit
                0x000000000040e494      0x1d8 build/sam_e70_xult_freertos/production/_ext/810785262/ipv4.o
                0x000000000040e494                TCPIP_IPV4_PacketTransmit

.text.DRV_MIIM_Tasks%181
                0x000000000040e66c      0x1cc
 .text.DRV_MIIM_Tasks
                0x000000000040e66c      0x1cc build/sam_e70_xult_freertos/production/_ext/511568427/drv_miim.o
                0x000000000040e66c                DRV_MIIM_Tasks

.text._free_r%182
                0x000000000040e838      0x1cc
 .text._free_r  0x000000000040e838      0x1cc /Applications/microchip/xc32/v2.15/bin/bin/../../lib/gcc/pic32c/6.2.1/../../../../pic32c/lib/v7e-m/fpv5/hard/libc.a(lib_a-freer.o)
                0x000000000040e838                _free_r

.text._DHCPSend%183
                0x000000000040ea04      0x1b8
 .text._DHCPSend
                0x000000000040ea04      0x1b8 build/sam_e70_xult_freertos/production/_ext/810785262/dhcp.o

.text.ParseCmdBuffer%184
                0x000000000040ebbc      0x1b8
 .text.ParseCmdBuffer
                0x000000000040ebbc      0x1b8 build/sam_e70_xult_freertos/production/_ext/762686499/sys_command.o

.text.TCPIP_IPV4_Task%185
                0x000000000040ed74      0x1b4
 .text.TCPIP_IPV4_Task
                0x000000000040ed74      0x1b4 build/sam_e70_xult_freertos/production/_ext/810785262/ipv4.o
                0x000000000040ed74                TCPIP_IPV4_Task

.text.TCPIP_DHCP_Initialize%186
                0x000000000040ef28      0x1ac
 .text.TCPIP_DHCP_Initialize
                0x000000000040ef28      0x1ac build/sam_e70_xult_freertos/production/_ext/810785262/dhcp.o
                0x000000000040ef28                TCPIP_DHCP_Initialize

.text._Command_MacInfo%187
                0x000000000040f0d4      0x198
 .text._Command_MacInfo
                0x000000000040f0d4      0x198 build/sam_e70_xult_freertos/production/_ext/810785262/tcpip_commands.o

.text.TCPIP_TCP_ArrayPut%188
                0x000000000040f26c      0x194
 .text.TCPIP_TCP_ArrayPut
                0x000000000040f26c      0x194 build/sam_e70_xult_freertos/production/_ext/810785262/tcp.o
                0x000000000040f26c                TCPIP_TCP_ArrayPut

.text.CommandHelp%189
                0x000000000040f400      0x190
 .text.CommandHelp
                0x000000000040f400      0x190 build/sam_e70_xult_freertos/production/_ext/762686499/sys_command.o

.text._DHCPOptionHostName%190
                0x000000000040f590      0x18c
 .text._DHCPOptionHostName
                0x000000000040f590      0x18c build/sam_e70_xult_freertos/production/_ext/810785262/dhcp.o

.text.__hexnan%191
                0x000000000040f71c      0x184
 .text.__hexnan
                0x000000000040f71c      0x184 /Applications/microchip/xc32/v2.15/bin/bin/../../lib/gcc/pic32c/6.2.1/../../../../pic32c/lib/v7e-m/fpv5/hard/libc.a(lib_a-gdtoa-hexnan.o)
                0x000000000040f71c                __hexnan

.text.DRV_PIC32CGMAC_LibRxFilterHash_Calculate%192
                0x000000000040f8a0      0x178
 .text.DRV_PIC32CGMAC_LibRxFilterHash_Calculate
                0x000000000040f8a0      0x178 build/sam_e70_xult_freertos/production/_ext/1619526243/drv_gmac_lib_samE7x_V7x.o
                0x000000000040f8a0                DRV_PIC32CGMAC_LibRxFilterHash_Calculate

.text.TCPIP_IPV4_PacketFormatTx%193
                0x000000000040fa18      0x178
 .text.TCPIP_IPV4_PacketFormatTx
                0x000000000040fa18      0x178 build/sam_e70_xult_freertos/production/_ext/810785262/ipv4.o
                0x000000000040fa18                TCPIP_IPV4_PacketFormatTx

.text.Reset_Handler%194
                0x000000000040fb90      0x178
 .text.Reset_Handler
                0x000000000040fb90      0x178 build/sam_e70_xult_freertos/production/_ext/1552905064/startup_xc32.o
                0x000000000040fb90                Reset_Handler

.text._UDPOpen%195
                0x000000000040fd08      0x16c
 .text._UDPOpen
                0x000000000040fd08      0x16c build/sam_e70_xult_freertos/production/_ext/810785262/udp.o

.text.xQueueSemaphoreTake%196
                0x000000000040fe74      0x15c
 .text.xQueueSemaphoreTake
                0x000000000040fe74      0x15c build/sam_e70_xult_freertos/production/_ext/404212886/queue.o
                0x000000000040fe74                xQueueSemaphoreTake

.text.TCPIP_DNS_EntryQuery%197
                0x000000000040ffd0      0x158
 .text.TCPIP_DNS_EntryQuery
                0x000000000040ffd0      0x158 build/sam_e70_xult_freertos/production/_ext/810785262/dns.o
                0x000000000040ffd0                TCPIP_DNS_EntryQuery

.text._MACDeinit%198
                0x0000000000410128      0x14c
 .text._MACDeinit
                0x0000000000410128      0x14c build/sam_e70_xult_freertos/production/_ext/1619526243/drv_gmac.o

.text._MacTxDiscardQueues%199
                0x0000000000410274      0x144
 .text._MacTxDiscardQueues
                0x0000000000410274      0x144 build/sam_e70_xult_freertos/production/_ext/1619526243/drv_gmac.o

.text.TCPIP_TCP_Initialize%200
                0x00000000004103b8      0x144
 .text.TCPIP_TCP_Initialize
                0x00000000004103b8      0x144 build/sam_e70_xult_freertos/production/_ext/810785262/tcp.o
                0x00000000004103b8                TCPIP_TCP_Initialize

.text.TCPIP_UDP_Bind%201
                0x00000000004104fc      0x13c
 .text.TCPIP_UDP_Bind
                0x00000000004104fc      0x13c build/sam_e70_xult_freertos/production/_ext/810785262/udp.o
                0x00000000004104fc                TCPIP_UDP_Bind

.text%202       0x0000000000410638      0x134
 .text          0x0000000000410638      0x134 /Applications/microchip/xc32/v2.15/bin/bin/../../lib/gcc/pic32c/6.2.1/../../../../pic32c/lib/v7e-m/fpv5/hard/libc.a(lib_a-memcpy.o)
                0x0000000000410638                memcpy

.text._Command_StackOnOff%203
                0x000000000041076c      0x130
 .text._Command_StackOnOff
                0x000000000041076c      0x130 build/sam_e70_xult_freertos/production/_ext/810785262/tcpip_commands.o

.text._DNS_RESPONSE_HashEntryUpdate%204
                0x000000000041089c      0x12e
 .text._DNS_RESPONSE_HashEntryUpdate
                0x000000000041089c      0x12e build/sam_e70_xult_freertos/production/_ext/810785262/dns.o

.text._Command_NetworkOnOff%205
                0x00000000004109cc      0x128
 .text._Command_NetworkOnOff
                0x00000000004109cc      0x128 build/sam_e70_xult_freertos/production/_ext/810785262/tcpip_commands.o

.text.xQueueGenericSend%206
                0x0000000000410af4      0x128
 .text.xQueueGenericSend
                0x0000000000410af4      0x128 build/sam_e70_xult_freertos/production/_ext/404212886/queue.o
                0x0000000000410af4                xQueueGenericSend

.text._strtol_l.isra.0%207
                0x0000000000410c1c      0x128
 .text._strtol_l.isra.0
                0x0000000000410c1c      0x128 /Applications/microchip/xc32/v2.15/bin/bin/../../lib/gcc/pic32c/6.2.1/../../../../pic32c/lib/v7e-m/fpv5/hard/libc.a(lib_a-strtol.o)

.text.quorem%208
                0x0000000000410d44      0x128
 .text.quorem   0x0000000000410d44      0x128 /Applications/microchip/xc32/v2.15/bin/bin/../../lib/gcc/pic32c/6.2.1/../../../../pic32c/lib/v7e-m/fpv5/hard/libc.a(lib_a-dtoa.o)

.text._Command_AddressService%209
                0x0000000000410e6c      0x124
 .text._Command_AddressService
                0x0000000000410e6c      0x124 build/sam_e70_xult_freertos/production/_ext/810785262/tcpip_commands.o

.text.__multiply%210
                0x0000000000410f90      0x124
 .text.__multiply
                0x0000000000410f90      0x124 /Applications/microchip/xc32/v2.15/bin/bin/../../lib/gcc/pic32c/6.2.1/../../../../pic32c/lib/v7e-m/fpv5/hard/libc.a(lib_a-mprec.o)
                0x0000000000410f90                __multiply

.text.TCPIP_DNS_ClientTask%211
                0x00000000004110b4      0x120
 .text.TCPIP_DNS_ClientTask
                0x00000000004110b4      0x120 build/sam_e70_xult_freertos/production/_ext/810785262/dns.o
                0x00000000004110b4                TCPIP_DNS_ClientTask

.text.TCPIP_UDP_Deinitialize%212
                0x00000000004111d4      0x120
 .text.TCPIP_UDP_Deinitialize
                0x00000000004111d4      0x120 build/sam_e70_xult_freertos/production/_ext/810785262/udp.o
                0x00000000004111d4                TCPIP_UDP_Deinitialize

.text._DRV_ETHPHY_SetupPhaseDetect%213
                0x00000000004112f4      0x11c
 .text._DRV_ETHPHY_SetupPhaseDetect
                0x00000000004112f4      0x11c build/sam_e70_xult_freertos/production/_ext/1607428259/drv_ethphy.o

.text._DNS_Resolve%214
                0x0000000000411410      0x11c
 .text._DNS_Resolve
                0x0000000000411410      0x11c build/sam_e70_xult_freertos/production/_ext/810785262/dns.o

.text.USART1_InterruptHandler%215
                0x000000000041152c      0x11c
 .text.USART1_InterruptHandler
                0x000000000041152c      0x11c build/sam_e70_xult_freertos/production/_ext/901008055/plib_usart1.o
                0x000000000041152c                USART1_InterruptHandler

.text._LoadNetworkConfig%216
                0x0000000000411648      0x11a
 .text._LoadNetworkConfig
                0x0000000000411648      0x11a build/sam_e70_xult_freertos/production/_ext/810785262/tcpip_manager.o

.text._TCPIP_HEAP_Free%217
                0x0000000000411762      0x114
 .text._TCPIP_HEAP_Free
                0x0000000000411762      0x114 build/sam_e70_xult_freertos/production/_ext/810785262/tcpip_heap_internal.o

.text._Command_HeapInfo%218
                0x0000000000411878      0x110
 .text._Command_HeapInfo
                0x0000000000411878      0x110 build/sam_e70_xult_freertos/production/_ext/810785262/tcpip_commands.o

.text._UDPv4TxAckFnc%219
                0x0000000000411988      0x110
 .text._UDPv4TxAckFnc
                0x0000000000411988      0x110 build/sam_e70_xult_freertos/production/_ext/810785262/udp.o

.text.TCPIP_UDP_OptionsGet%220
                0x0000000000411a98      0x10e
 .text.TCPIP_UDP_OptionsGet
                0x0000000000411a98      0x10e build/sam_e70_xult_freertos/production/_ext/810785262/udp.o
                0x0000000000411a98                TCPIP_UDP_OptionsGet

.text.__mdiff%221
                0x0000000000411ba8      0x108
 .text.__mdiff  0x0000000000411ba8      0x108 /Applications/microchip/xc32/v2.15/bin/bin/../../lib/gcc/pic32c/6.2.1/../../../../pic32c/lib/v7e-m/fpv5/hard/libc.a(lib_a-mprec.o)
                0x0000000000411ba8                __mdiff

.text.DRV_GMAC_Tasks%222
                0x0000000000411cb0      0x104
 .text.DRV_GMAC_Tasks
                0x0000000000411cb0      0x104 build/sam_e70_xult_freertos/production/_ext/1619526243/drv_gmac.o
                0x0000000000411cb0                DRV_GMAC_Tasks

.rodata._ctype_%223
                0x0000000000411db4      0x104
 .rodata._ctype_
                0x0000000000411db4      0x104 /Applications/microchip/xc32/v2.15/bin/bin/../../lib/gcc/pic32c/6.2.1/../../../../pic32c/lib/v7e-m/fpv5/hard/libc.a(lib_a-ctype_.o)
                0x0000000000411db4                _ctype_

.text._Command_IPAddressSet%224
                0x0000000000411eb8      0x100
 .text._Command_IPAddressSet
                0x0000000000411eb8      0x100 build/sam_e70_xult_freertos/production/_ext/810785262/tcpip_commands.o

.text.xTaskIncrementTick%225
                0x0000000000411fb8      0x100
 .text.xTaskIncrementTick
                0x0000000000411fb8      0x100 build/sam_e70_xult_freertos/production/_ext/404212886/FreeRTOS_tasks.o
                0x0000000000411fb8                xTaskIncrementTick

.rodata.__hexdig%226
                0x00000000004120b8      0x100
 .rodata.__hexdig
                0x00000000004120b8      0x100 /Applications/microchip/xc32/v2.15/bin/bin/../../lib/gcc/pic32c/6.2.1/../../../../pic32c/lib/v7e-m/fpv5/hard/libc.a(lib_a-gdtoa-gethex.o)
                0x00000000004120b8                __hexdig

.text._Tcpv4TxAckFnc%227
                0x00000000004121b8       0xfc
 .text._Tcpv4TxAckFnc
                0x00000000004121b8       0xfc build/sam_e70_xult_freertos/production/_ext/810785262/tcp.o

.text.TCPIP_ARP_EntryRemoveNet%228
                0x00000000004122b4       0xfc
 .text.TCPIP_ARP_EntryRemoveNet
                0x00000000004122b4       0xfc build/sam_e70_xult_freertos/production/_ext/810785262/arp.o
                0x00000000004122b4                TCPIP_ARP_EntryRemoveNet

.text.TCPIP_Helper_StringToIPAddress%229
                0x00000000004123b0       0xfc
 .text.TCPIP_Helper_StringToIPAddress
                0x00000000004123b0       0xfc build/sam_e70_xult_freertos/production/_ext/810785262/tcpip_helpers.o
                0x00000000004123b0                TCPIP_Helper_StringToIPAddress

.text.TCPIP_UDP_Initialize%230
                0x00000000004124ac       0xfc
 .text.TCPIP_UDP_Initialize
                0x00000000004124ac       0xfc build/sam_e70_xult_freertos/production/_ext/810785262/udp.o
                0x00000000004124ac                TCPIP_UDP_Initialize

.text.__ssprint_r%231
                0x00000000004125a8       0xfc
 .text.__ssprint_r
                0x00000000004125a8       0xfc /Applications/microchip/xc32/v2.15/bin/bin/../../lib/gcc/pic32c/6.2.1/../../../../pic32c/lib/v7e-m/fpv5/hard/libc.a(lib_a-svfiprintf.o)
                0x00000000004125a8                __ssprint_r

.text.DRV_PIC32CGMAC_LibTxAckPacket%232
                0x00000000004126a4       0xfa
 .text.DRV_PIC32CGMAC_LibTxAckPacket
                0x00000000004126a4       0xfa build/sam_e70_xult_freertos/production/_ext/1619526243/drv_gmac_lib_samE7x_V7x.o
                0x00000000004126a4                DRV_PIC32CGMAC_LibTxAckPacket

.text.DRV_PIC32CGMAC_LibTxInit%233
                0x00000000004127a0       0xf8
 .text.DRV_PIC32CGMAC_LibTxInit
                0x00000000004127a0       0xf8 build/sam_e70_xult_freertos/production/_ext/1619526243/drv_gmac_lib_samE7x_V7x.o
                0x00000000004127a0                DRV_PIC32CGMAC_LibTxInit

.text._DNS_IsNameResolved%234
                0x0000000000412898       0xf8
 .text._DNS_IsNameResolved
                0x0000000000412898       0xf8 build/sam_e70_xult_freertos/production/_ext/810785262/dns.o

.text._ARPProbeAddress%235
                0x0000000000412990       0xec
 .text._ARPProbeAddress
                0x0000000000412990       0xec build/sam_e70_xult_freertos/production/_ext/810785262/arp.o

.text.TCPIP_UDP_ArrayGet%236
                0x0000000000412a7c       0xec
 .text.TCPIP_UDP_ArrayGet
                0x0000000000412a7c       0xec build/sam_e70_xult_freertos/production/_ext/810785262/udp.o
                0x0000000000412a7c                TCPIP_UDP_ArrayGet

.text.DRV_GMAC_PacketRx%237
                0x0000000000412b68       0xe8
 .text.DRV_GMAC_PacketRx
                0x0000000000412b68       0xe8 build/sam_e70_xult_freertos/production/_ext/1619526243/drv_gmac.o
                0x0000000000412b68                DRV_GMAC_PacketRx

.text.DRV_PIC32CGMAC_LibRxBuffersAppend%238
                0x0000000000412c50       0xe8
 .text.DRV_PIC32CGMAC_LibRxBuffersAppend
                0x0000000000412c50       0xe8 build/sam_e70_xult_freertos/production/_ext/1619526243/drv_gmac_lib_samE7x_V7x.o
                0x0000000000412c50                DRV_PIC32CGMAC_LibRxBuffersAppend

.text.TCPIP_TCP_Deinitialize%239
                0x0000000000412d38       0xe8
 .text.TCPIP_TCP_Deinitialize
                0x0000000000412d38       0xe8 build/sam_e70_xult_freertos/production/_ext/810785262/tcp.o
                0x0000000000412d38                TCPIP_TCP_Deinitialize

.text.TCPIP_TCP_ArrayGet%240
                0x0000000000412e20       0xe8
 .text.TCPIP_TCP_ArrayGet
                0x0000000000412e20       0xe8 build/sam_e70_xult_freertos/production/_ext/810785262/tcp.o
                0x0000000000412e20                TCPIP_TCP_ArrayGet

.text.xTaskResumeAll%241
                0x0000000000412f08       0xe8
 .text.xTaskResumeAll
                0x0000000000412f08       0xe8 build/sam_e70_xult_freertos/production/_ext/404212886/FreeRTOS_tasks.o
                0x0000000000412f08                xTaskResumeAll

.text.strchr%242
                0x0000000000412ff0       0xe8
 .text.strchr   0x0000000000412ff0       0xe8 /Applications/microchip/xc32/v2.15/bin/bin/../../lib/gcc/pic32c/6.2.1/../../../../pic32c/lib/v7e-m/fpv5/hard/libc.a(lib_a-strchr.o)
                0x0000000000412ff0                strchr

.text.DRV_GMAC_EventMaskSet%243
                0x00000000004130d8       0xe4
 .text.DRV_GMAC_EventMaskSet
                0x00000000004130d8       0xe4 build/sam_e70_xult_freertos/production/_ext/1619526243/drv_gmac.o
                0x00000000004130d8                DRV_GMAC_EventMaskSet

.text._DRV_MIIM_StartOp%244
                0x00000000004131bc       0xe4
 .text._DRV_MIIM_StartOp
                0x00000000004131bc       0xe4 build/sam_e70_xult_freertos/production/_ext/511568427/drv_miim.o

.text._DRV_MIIM_ClientDeallocate%245
                0x00000000004132a0       0xe0
 .text._DRV_MIIM_ClientDeallocate
                0x00000000004132a0       0xe0 build/sam_e70_xult_freertos/production/_ext/511568427/drv_miim.o

.text.SYS_TIME_PLIBCallback%246
                0x0000000000413380       0xe0
 .text.SYS_TIME_PLIBCallback
                0x0000000000413380       0xe0 build/sam_e70_xult_freertos/production/_ext/912870411/sys_time.o

.text._DRV_ETHPHY_SetupPhaseReset%247
                0x0000000000413460       0xdc
 .text._DRV_ETHPHY_SetupPhaseReset
                0x0000000000413460       0xdc build/sam_e70_xult_freertos/production/_ext/1607428259/drv_ethphy.o

.text.DRV_EXTPHY_MDIXConfigure%248
                0x000000000041353c       0xdc
 .text.DRV_EXTPHY_MDIXConfigure
                0x000000000041353c       0xdc build/sam_e70_xult_freertos/production/_ext/1607428259/drv_extphy_smsc8740.o

.text.TCPIP_ICMP_Task%249
                0x0000000000413618       0xdc
 .text.TCPIP_ICMP_Task
                0x0000000000413618       0xdc build/sam_e70_xult_freertos/production/_ext/810785262/icmp.o
                0x0000000000413618                TCPIP_ICMP_Task

.text%250       0x0000000000413700       0xdc
 .text          0x0000000000413700       0xdc /Applications/microchip/xc32/v2.15/bin/bin/../../lib/gcc/pic32c/6.2.1/../../../../pic32c/lib/v7e-m/fpv5/hard/libc.a(lib_a-strlen.o)
                0x0000000000413700                strlen

.text.DRV_PIC32CGMAC_LibRxInit%251
                0x00000000004137dc       0xd8
 .text.DRV_PIC32CGMAC_LibRxInit
                0x00000000004137dc       0xd8 build/sam_e70_xult_freertos/production/_ext/1619526243/drv_gmac_lib_samE7x_V7x.o
                0x00000000004137dc                DRV_PIC32CGMAC_LibRxInit

.text._DNS_GetAddresses%252
                0x00000000004138b4       0xd8
 .text._DNS_GetAddresses
                0x00000000004138b4       0xd8 build/sam_e70_xult_freertos/production/_ext/810785262/dns.o

.text._TcpCloseSocket%253
                0x000000000041398c       0xd6
 .text._TcpCloseSocket
                0x000000000041398c       0xd6 build/sam_e70_xult_freertos/production/_ext/810785262/tcp.o

.text._DRV_ETHPHY_NegResultPhase_ANAD%254
                0x0000000000413a62       0xd2
 .text._DRV_ETHPHY_NegResultPhase_ANAD
                0x0000000000413a62       0xd2 build/sam_e70_xult_freertos/production/_ext/1607428259/drv_ethphy.o

.text._GetMaxSegSizeOption%255
                0x0000000000413b34       0xcc
 .text._GetMaxSegSizeOption
                0x0000000000413b34       0xcc build/sam_e70_xult_freertos/production/_ext/810785262/tcp.o

.text.DRV_ETHPHY_Setup%256
                0x0000000000413c00       0xc8
 .text.DRV_ETHPHY_Setup
                0x0000000000413c00       0xc8 build/sam_e70_xult_freertos/production/_ext/1607428259/drv_ethphy.o
                0x0000000000413c00                DRV_ETHPHY_Setup

.text._DHCPStartOperation%257
                0x0000000000413cc8       0xc8
 .text._DHCPStartOperation
                0x0000000000413cc8       0xc8 build/sam_e70_xult_freertos/production/_ext/810785262/dhcp.o

.text.TCPIP_IPV4_SelectSourceInterface%258
                0x0000000000413d90       0xc8
 .text.TCPIP_IPV4_SelectSourceInterface
                0x0000000000413d90       0xc8 build/sam_e70_xult_freertos/production/_ext/810785262/ipv4.o
                0x0000000000413d90                TCPIP_IPV4_SelectSourceInterface

.text.TCPIP_HEAP_CreateInternal%259
                0x0000000000413e58       0xc8
 .text.TCPIP_HEAP_CreateInternal
                0x0000000000413e58       0xc8 build/sam_e70_xult_freertos/production/_ext/810785262/tcpip_heap_internal.o
                0x0000000000413e58                TCPIP_HEAP_CreateInternal

.rodata%260     0x0000000000413f20       0xc8
 .rodata        0x0000000000413f20       0xc8 build/sam_e70_xult_freertos/production/_ext/1360937237/app_commands.o

.rodata.__mprec_tens%261
                0x0000000000413fe8       0xc8
 .rodata.__mprec_tens
                0x0000000000413fe8       0xc8 /Applications/microchip/xc32/v2.15/bin/bin/../../lib/gcc/pic32c/6.2.1/../../../../pic32c/lib/v7e-m/fpv5/hard/libc.a(lib_a-mprec.o)
                0x0000000000413fe8                __mprec_tens

.text.memmove%262
                0x00000000004140b0       0xc8
 .text.memmove  0x00000000004140b0       0xc8 /Applications/microchip/xc32/v2.15/bin/bin/../../lib/gcc/pic32c/6.2.1/../../../../pic32c/lib/v7e-m/fpv5/hard/libc.a(lib_a-memmove.o)
                0x00000000004140b0                memmove

.text._DHCPProcessReceiveData%263
                0x0000000000414178       0xc4
 .text._DHCPProcessReceiveData
                0x0000000000414178       0xc4 build/sam_e70_xult_freertos/production/_ext/810785262/dhcp.o

.text.__b2d%264
                0x000000000041423c       0xc4
 .text.__b2d    0x000000000041423c       0xc4 /Applications/microchip/xc32/v2.15/bin/bin/../../lib/gcc/pic32c/6.2.1/../../../../pic32c/lib/v7e-m/fpv5/hard/libc.a(lib_a-mprec.o)
                0x000000000041423c                __b2d

.text._DRV_PHY_SMITransferDo%265
                0x0000000000414300       0xc2
 .text._DRV_PHY_SMITransferDo
                0x0000000000414300       0xc2 build/sam_e70_xult_freertos/production/_ext/1607428259/drv_ethphy.o

.rodata.tcpipCmdTbl%266
                0x00000000004143c4       0xc0
 .rodata.tcpipCmdTbl
                0x00000000004143c4       0xc0 build/sam_e70_xult_freertos/production/_ext/810785262/tcpip_commands.o

.text.DRV_EXTPHY_MIIConfigure%267
                0x0000000000414484       0xbc
 .text.DRV_EXTPHY_MIIConfigure
                0x0000000000414484       0xbc build/sam_e70_xult_freertos/production/_ext/1607428259/drv_extphy_smsc8740.o

.text.strcpy%268
                0x0000000000414540       0xbc
 .text.strcpy   0x0000000000414540       0xbc /Applications/microchip/xc32/v2.15/bin/bin/../../lib/gcc/pic32c/6.2.1/../../../../pic32c/lib/v7e-m/fpv5/hard/libc.a(lib_a-strcpy.o)
                0x0000000000414540                strcpy

.text.__d2b%269
                0x00000000004145fc       0xbc
 .text.__d2b    0x00000000004145fc       0xbc /Applications/microchip/xc32/v2.15/bin/bin/../../lib/gcc/pic32c/6.2.1/../../../../pic32c/lib/v7e-m/fpv5/hard/libc.a(lib_a-mprec.o)
                0x00000000004145fc                __d2b

.text.TCPIP_STACK_KillStack%270
                0x00000000004146b8       0xb8
 .text.TCPIP_STACK_KillStack
                0x00000000004146b8       0xb8 build/sam_e70_xult_freertos/production/_ext/810785262/tcpip_manager.o

.text.xTaskPriorityInherit%271
                0x0000000000414770       0xb8
 .text.xTaskPriorityInherit
                0x0000000000414770       0xb8 build/sam_e70_xult_freertos/production/_ext/404212886/FreeRTOS_tasks.o
                0x0000000000414770                xTaskPriorityInherit

.text.critical_factorization%272
                0x0000000000414828       0xb4
 .text.critical_factorization
                0x0000000000414828       0xb4 /Applications/microchip/xc32/v2.15/bin/bin/../../lib/gcc/pic32c/6.2.1/../../../../pic32c/lib/v7e-m/fpv5/hard/libc.a(lib_a-strstr.o)

.text.TCPIP_Helper_IPv6AddressToString%273
                0x00000000004148dc       0xb2
 .text.TCPIP_Helper_IPv6AddressToString
                0x00000000004148dc       0xb2 build/sam_e70_xult_freertos/production/_ext/810785262/tcpip_helpers.o
                0x00000000004148dc                TCPIP_Helper_IPv6AddressToString

.text.DRV_GMAC_Tasks_ISR%274
                0x0000000000414990       0xb0
 .text.DRV_GMAC_Tasks_ISR
                0x0000000000414990       0xb0 build/sam_e70_xult_freertos/production/_ext/1619526243/drv_gmac.o
                0x0000000000414990                DRV_GMAC_Tasks_ISR

.text._TcpSocketSetIdleState%275
                0x0000000000414a40       0xb0
 .text._TcpSocketSetIdleState
                0x0000000000414a40       0xb0 build/sam_e70_xult_freertos/production/_ext/810785262/tcp.o

.text.SYS_TIME_Initialize%276
                0x0000000000414af0       0xb0
 .text.SYS_TIME_Initialize
                0x0000000000414af0       0xb0 build/sam_e70_xult_freertos/production/_ext/912870411/sys_time.o
                0x0000000000414af0                SYS_TIME_Initialize

.text._TCPIP_HEAP_Malloc%277
                0x0000000000414ba0       0xac
 .text._TCPIP_HEAP_Malloc
                0x0000000000414ba0       0xac build/sam_e70_xult_freertos/production/_ext/810785262/tcpip_heap_internal.o

.text.SYS_TIME_TimerObjectCreate%278
                0x0000000000414c4c       0xac
 .text.SYS_TIME_TimerObjectCreate
                0x0000000000414c4c       0xac build/sam_e70_xult_freertos/production/_ext/912870411/sys_time.o

.text.vTaskSwitchContext%279
                0x0000000000414cf8       0xac
 .text.vTaskSwitchContext
                0x0000000000414cf8       0xac build/sam_e70_xult_freertos/production/_ext/404212886/FreeRTOS_tasks.o
                0x0000000000414cf8                vTaskSwitchContext

.text._TcpDisconnect%280
                0x0000000000414da4       0xaa
 .text._TcpDisconnect
                0x0000000000414da4       0xaa build/sam_e70_xult_freertos/production/_ext/810785262/tcp.o

.text._DHCPEnable%281
                0x0000000000414e50       0xa8
 .text._DHCPEnable
                0x0000000000414e50       0xa8 build/sam_e70_xult_freertos/production/_ext/810785262/dhcp.o

.text._Command_MACAddressSet%282
                0x0000000000414ef8       0xa8
 .text._Command_MACAddressSet
                0x0000000000414ef8       0xa8 build/sam_e70_xult_freertos/production/_ext/810785262/tcpip_commands.o

.text.TCPIP_STACK_NetUp%283
                0x0000000000414fa0       0xa8
 .text.TCPIP_STACK_NetUp
                0x0000000000414fa0       0xa8 build/sam_e70_xult_freertos/production/_ext/810785262/tcpip_manager.o
                0x0000000000414fa0                TCPIP_STACK_NetUp

.text._ARPSendIfPkt%284
                0x0000000000415048       0xa4
 .text._ARPSendIfPkt
                0x0000000000415048       0xa4 build/sam_e70_xult_freertos/production/_ext/810785262/arp.o

.text.TCPIP_ARP_EntryQuery%285
                0x00000000004150ec       0xa4
 .text.TCPIP_ARP_EntryQuery
                0x00000000004150ec       0xa4 build/sam_e70_xult_freertos/production/_ext/810785262/arp.o
                0x00000000004150ec                TCPIP_ARP_EntryQuery

.text.__lshift%286
                0x0000000000415190       0xa4
 .text.__lshift
                0x0000000000415190       0xa4 /Applications/microchip/xc32/v2.15/bin/bin/../../lib/gcc/pic32c/6.2.1/../../../../pic32c/lib/v7e-m/fpv5/hard/libc.a(lib_a-mprec.o)
                0x0000000000415190                __lshift

.text.strncmp%287
                0x0000000000415234       0xa4
 .text.strncmp  0x0000000000415234       0xa4 /Applications/microchip/xc32/v2.15/bin/bin/../../lib/gcc/pic32c/6.2.1/../../../../pic32c/lib/v7e-m/fpv5/hard/libc.a(lib_a-strncmp.o)
                0x0000000000415234                strncmp

.text.__register_exitproc%288
                0x00000000004152d8       0xa4
 .text.__register_exitproc
                0x00000000004152d8       0xa4 /Applications/microchip/xc32/v2.15/bin/bin/../../lib/gcc/pic32c/6.2.1/../../../../pic32c/lib/v7e-m/fpv5/hard/libc.a(lib_a-__atexit.o)
                0x00000000004152d8                __register_exitproc

.text._DRV_ETHPHY_SetupPhaseNegotiate_SubPhase3%289
                0x000000000041537c       0xa0
 .text._DRV_ETHPHY_SetupPhaseNegotiate_SubPhase3
                0x000000000041537c       0xa0 build/sam_e70_xult_freertos/production/_ext/1607428259/drv_ethphy.o

.text._DRV_ETHPHY_NegCompletePhaseAN_Restart%290
                0x000000000041541c       0xa0
 .text._DRV_ETHPHY_NegCompletePhaseAN_Restart
                0x000000000041541c       0xa0 build/sam_e70_xult_freertos/production/_ext/1607428259/drv_ethphy.o

.text.DRV_GMAC_PacketTx%291
                0x00000000004154bc       0xa0
 .text.DRV_GMAC_PacketTx
                0x00000000004154bc       0xa0 build/sam_e70_xult_freertos/production/_ext/1619526243/drv_gmac.o
                0x00000000004154bc                DRV_GMAC_PacketTx

.text._ARPDeleteResources%292
                0x000000000041555c       0xa0
 .text._ARPDeleteResources
                0x000000000041555c       0xa0 build/sam_e70_xult_freertos/production/_ext/810785262/arp.o

.text._UDPv4AllocateSktTxBuffer%293
                0x00000000004155fc       0xa0
 .text._UDPv4AllocateSktTxBuffer
                0x00000000004155fc       0xa0 build/sam_e70_xult_freertos/production/_ext/810785262/udp.o

.text.TCPIP_UDP_Disconnect%294
                0x000000000041569c       0xa0
 .text.TCPIP_UDP_Disconnect
                0x000000000041569c       0xa0 build/sam_e70_xult_freertos/production/_ext/810785262/udp.o
                0x000000000041569c                TCPIP_UDP_Disconnect

.text.DisplayNodeMsg%295
                0x000000000041573c       0xa0
 .text.DisplayNodeMsg
                0x000000000041573c       0xa0 build/sam_e70_xult_freertos/production/_ext/762686499/sys_command.o

.text.SYS_TIME_AddToList%296
                0x00000000004157dc       0xa0
 .text.SYS_TIME_AddToList
                0x00000000004157dc       0xa0 build/sam_e70_xult_freertos/production/_ext/912870411/sys_time.o

.text%297       0x0000000000415880       0xa0
 .text          0x0000000000415880       0xa0 /Applications/microchip/xc32/v2.15/bin/bin/../../lib/gcc/pic32c/6.2.1/../../../../pic32c/lib/v7e-m/fpv5/hard/libc.a(lib_a-memchr.o)
                0x0000000000415880                memchr

.text.__pow5mult%298
                0x0000000000415920       0xa0
 .text.__pow5mult
                0x0000000000415920       0xa0 /Applications/microchip/xc32/v2.15/bin/bin/../../lib/gcc/pic32c/6.2.1/../../../../pic32c/lib/v7e-m/fpv5/hard/libc.a(lib_a-mprec.o)
                0x0000000000415920                __pow5mult

.text._DRV_ETHPHY_SetupPhaseNegotiate_SubPhase0%299
                0x00000000004159c0       0x9e
 .text._DRV_ETHPHY_SetupPhaseNegotiate_SubPhase0
                0x00000000004159c0       0x9e build/sam_e70_xult_freertos/production/_ext/1607428259/drv_ethphy.o

.text.DRV_MIIM_Setup%300
                0x0000000000415a60       0x9c
 .text.DRV_MIIM_Setup
                0x0000000000415a60       0x9c build/sam_e70_xult_freertos/production/_ext/511568427/drv_miim.o
                0x0000000000415a60                DRV_MIIM_Setup

.text.DRV_MIIM_OperationResult%301
                0x0000000000415afc       0x9c
 .text.DRV_MIIM_OperationResult
                0x0000000000415afc       0x9c build/sam_e70_xult_freertos/production/_ext/511568427/drv_miim.o
                0x0000000000415afc                DRV_MIIM_OperationResult

.text.SYS_TIME_HwTimerCompareUpdate%302
                0x0000000000415b98       0x9c
 .text.SYS_TIME_HwTimerCompareUpdate
                0x0000000000415b98       0x9c build/sam_e70_xult_freertos/production/_ext/912870411/sys_time.o

.text.memset%303
                0x0000000000415c34       0x9c
 .text.memset   0x0000000000415c34       0x9c /Applications/microchip/xc32/v2.15/bin/bin/../../lib/gcc/pic32c/6.2.1/../../../../pic32c/lib/v7e-m/fpv5/hard/libc.a(lib_a-memset.o)
                0x0000000000415c34                memset

.text.__s2b%304
                0x0000000000415cd0       0x9c
 .text.__s2b    0x0000000000415cd0       0x9c /Applications/microchip/xc32/v2.15/bin/bin/../../lib/gcc/pic32c/6.2.1/../../../../pic32c/lib/v7e-m/fpv5/hard/libc.a(lib_a-mprec.o)
                0x0000000000415cd0                __s2b

.text._Command_PrimaryDNSAddressSet%305
                0x0000000000415d6c       0x98
 .text._Command_PrimaryDNSAddressSet
                0x0000000000415d6c       0x98 build/sam_e70_xult_freertos/production/_ext/810785262/tcpip_commands.o

.text.TCPIP_IPV4_ArpHandler%306
                0x0000000000415e04       0x98
 .text.TCPIP_IPV4_ArpHandler
                0x0000000000415e04       0x98 build/sam_e70_xult_freertos/production/_ext/810785262/ipv4.o

.text._TCPIPStackModuleRxPurge%307
                0x0000000000415e9c       0x98
 .text._TCPIPStackModuleRxPurge
                0x0000000000415e9c       0x98 build/sam_e70_xult_freertos/production/_ext/810785262/tcpip_manager.o
                0x0000000000415e9c                _TCPIPStackModuleRxPurge

.text.snprintf%308
                0x0000000000415f34       0x98
 .text.snprintf
                0x0000000000415f34       0x98 /Applications/microchip/xc32/v2.15/bin/bin/../../lib/gcc/pic32c/6.2.1/../../../../pic32c/lib/v7e-m/fpv5/hard/libc.a(lib_a-snprintf.o)
                0x0000000000415f34                snprintf
                0x0000000000415f34                __snprintf_s
                0x0000000000415f34                __snprintf_dis

.text.rshift%309
                0x0000000000415fcc       0x98
 .text.rshift   0x0000000000415fcc       0x98 /Applications/microchip/xc32/v2.15/bin/bin/../../lib/gcc/pic32c/6.2.1/../../../../pic32c/lib/v7e-m/fpv5/hard/libc.a(lib_a-gdtoa-gethex.o)

.text.TCPIP_DHCP_InfoGet%310
                0x0000000000416064       0x94
 .text.TCPIP_DHCP_InfoGet
                0x0000000000416064       0x94 build/sam_e70_xult_freertos/production/_ext/810785262/dhcp.o
                0x0000000000416064                TCPIP_DHCP_InfoGet

.text._Command_GatewayAddressSet%311
                0x00000000004160f8       0x94
 .text._Command_GatewayAddressSet
                0x00000000004160f8       0x94 build/sam_e70_xult_freertos/production/_ext/810785262/tcpip_commands.o

.text._UDPsetPacketInfo%312
                0x000000000041618c       0x94
 .text._UDPsetPacketInfo
                0x000000000041618c       0x94 build/sam_e70_xult_freertos/production/_ext/810785262/udp.o

.text.prvAddCurrentTaskToDelayedList%313
                0x0000000000416220       0x94
 .text.prvAddCurrentTaskToDelayedList
                0x0000000000416220       0x94 build/sam_e70_xult_freertos/production/_ext/404212886/FreeRTOS_tasks.o

.text._malloc_trim_r%314
                0x00000000004162b4       0x94
 .text._malloc_trim_r
                0x00000000004162b4       0x94 /Applications/microchip/xc32/v2.15/bin/bin/../../lib/gcc/pic32c/6.2.1/../../../../pic32c/lib/v7e-m/fpv5/hard/libc.a(lib_a-freer.o)
                0x00000000004162b4                _malloc_trim_r

.text.TCPIP_STACK_NetAddressSet%315
                0x0000000000416348       0x92
 .text.TCPIP_STACK_NetAddressSet
                0x0000000000416348       0x92 build/sam_e70_xult_freertos/production/_ext/810785262/tcpip_manager.o
                0x0000000000416348                TCPIP_STACK_NetAddressSet

.text.Console_UART_ResourceUnlock%316
                0x00000000004163da       0x92
 .text.Console_UART_ResourceUnlock
                0x00000000004163da       0x92 build/sam_e70_xult_freertos/production/_ext/762686499/sys_console_uart.o

.text.PIO_Initialize%317
                0x000000000041646c       0x90
 .text.PIO_Initialize
                0x000000000041646c       0x90 build/sam_e70_xult_freertos/production/_ext/45635366/plib_pio.o
                0x000000000041646c                PIO_Initialize

.text.vTaskPriorityDisinheritAfterTimeout%318
                0x00000000004164fc       0x90
 .text.vTaskPriorityDisinheritAfterTimeout
                0x00000000004164fc       0x90 build/sam_e70_xult_freertos/production/_ext/404212886/FreeRTOS_tasks.o
                0x00000000004164fc                vTaskPriorityDisinheritAfterTimeout

.text._DHCPSetLeaseTimeParams%319
                0x000000000041658c       0x8c
 .text._DHCPSetLeaseTimeParams
                0x000000000041658c       0x8c build/sam_e70_xult_freertos/production/_ext/810785262/dhcp.o

.text.TCPIP_ARP_IsResolved%320
                0x0000000000416618       0x8c
 .text.TCPIP_ARP_IsResolved
                0x0000000000416618       0x8c build/sam_e70_xult_freertos/production/_ext/810785262/arp.o
                0x0000000000416618                TCPIP_ARP_IsResolved

.text.TCPIP_STACK_NetDown%321
                0x00000000004166a4       0x8c
 .text.TCPIP_STACK_NetDown
                0x00000000004166a4       0x8c build/sam_e70_xult_freertos/production/_ext/810785262/tcpip_manager.o
                0x00000000004166a4                TCPIP_STACK_NetDown

.text.SYS_CMD_DELETE%322
                0x0000000000416730       0x8c
 .text.SYS_CMD_DELETE
                0x0000000000416730       0x8c build/sam_e70_xult_freertos/production/_ext/762686499/sys_command.o
                0x0000000000416730                SYS_CMD_DELETE

.text._DRV_ETHPHY_ResetPhaseRead%323
                0x00000000004167bc       0x88
 .text._DRV_ETHPHY_ResetPhaseRead
                0x00000000004167bc       0x88 build/sam_e70_xult_freertos/production/_ext/1607428259/drv_ethphy.o

.text._DHCPPacketFilter%324
                0x0000000000416844       0x88
 .text._DHCPPacketFilter
                0x0000000000416844       0x88 build/sam_e70_xult_freertos/production/_ext/810785262/dhcp.o

.text.TCPIP_IPV4_DeInitialize%325
                0x00000000004168cc       0x88
 .text.TCPIP_IPV4_DeInitialize
                0x00000000004168cc       0x88 build/sam_e70_xult_freertos/production/_ext/810785262/ipv4.o
                0x00000000004168cc                TCPIP_IPV4_DeInitialize

.text._OAHashFindBkt%326
                0x0000000000416954       0x88
 .text._OAHashFindBkt
                0x0000000000416954       0x88 build/sam_e70_xult_freertos/production/_ext/810785262/oahash.o

.text.MPU_Initialize%327
                0x00000000004169dc       0x88
 .text.MPU_Initialize
                0x00000000004169dc       0x88 build/sam_e70_xult_freertos/production/_ext/45638026/plib_mpu.o
                0x00000000004169dc                MPU_Initialize

.text.SYS_CMD_Initialize%328
                0x0000000000416a64       0x88
 .text.SYS_CMD_Initialize
                0x0000000000416a64       0x88 build/sam_e70_xult_freertos/production/_ext/762686499/sys_command.o
                0x0000000000416a64                SYS_CMD_Initialize

.text.TCPIP_Commands_Initialize%329
                0x0000000000416aec       0x84
 .text.TCPIP_Commands_Initialize
                0x0000000000416aec       0x84 build/sam_e70_xult_freertos/production/_ext/810785262/tcpip_commands.o
                0x0000000000416aec                TCPIP_Commands_Initialize

.text.TCPIP_IPV4_MacPacketSwitchTxToRx%330
                0x0000000000416b70       0x82
 .text.TCPIP_IPV4_MacPacketSwitchTxToRx
                0x0000000000416b70       0x82 build/sam_e70_xult_freertos/production/_ext/810785262/ipv4.o
                0x0000000000416b70                TCPIP_IPV4_MacPacketSwitchTxToRx

.text.DRV_PIC32CGMAC_LibInitTransfer%331
                0x0000000000416bf4       0x80
 .text.DRV_PIC32CGMAC_LibInitTransfer
                0x0000000000416bf4       0x80 build/sam_e70_xult_freertos/production/_ext/1619526243/drv_gmac_lib_samE7x_V7x.o
                0x0000000000416bf4                DRV_PIC32CGMAC_LibInitTransfer

.text.DRV_MIIM_Initialize%332
                0x0000000000416c74       0x80
 .text.DRV_MIIM_Initialize
                0x0000000000416c74       0x80 build/sam_e70_xult_freertos/production/_ext/511568427/drv_miim.o
                0x0000000000416c74                DRV_MIIM_Initialize

.text._DHCPClientClose%333
                0x0000000000416cf4       0x80
 .text._DHCPClientClose
                0x0000000000416cf4       0x80 build/sam_e70_xult_freertos/production/_ext/810785262/dhcp.o

.text.TCPIP_Helper_PacketChecksum%334
                0x0000000000416d74       0x80
 .text.TCPIP_Helper_PacketChecksum
                0x0000000000416d74       0x80 build/sam_e70_xult_freertos/production/_ext/810785262/tcpip_helpers.o
                0x0000000000416d74                TCPIP_Helper_PacketChecksum

.text.SendCommandPrint%335
                0x0000000000416df4       0x80
 .text.SendCommandPrint
                0x0000000000416df4       0x80 build/sam_e70_xult_freertos/production/_ext/762686499/sys_command.o

.text.SYS_CMD_PRINT%336
                0x0000000000416e74       0x80
 .text.SYS_CMD_PRINT
                0x0000000000416e74       0x80 build/sam_e70_xult_freertos/production/_ext/762686499/sys_command.o
                0x0000000000416e74                SYS_CMD_PRINT

.text.SYS_CMD_READY_TO_READ%337
                0x0000000000416ef4       0x80
 .text.SYS_CMD_READY_TO_READ
                0x0000000000416ef4       0x80 build/sam_e70_xult_freertos/production/_ext/762686499/sys_command.o
                0x0000000000416ef4                SYS_CMD_READY_TO_READ

.text.SYS_Initialize%338
                0x0000000000416f74       0x80
 .text.SYS_Initialize
                0x0000000000416f74       0x80 build/sam_e70_xult_freertos/production/_ext/1552905064/initialization.o
                0x0000000000416f74                SYS_Initialize

.text.__pic32c_data_initialization%339
                0x0000000000416ff4       0x80
 .text.__pic32c_data_initialization
                0x0000000000416ff4       0x80 /Applications/microchip/xc32/v2.15/bin/bin/../../lib/gcc/pic32c/6.2.1/../../../../pic32c/lib/v7e-m/fpv5/hard/libpic32c.a(data_init.o)
                0x0000000000416ff4                __pic32c_data_initialization

.text.__multadd%340
                0x0000000000417074       0x80
 .text.__multadd
                0x0000000000417074       0x80 /Applications/microchip/xc32/v2.15/bin/bin/../../lib/gcc/pic32c/6.2.1/../../../../pic32c/lib/v7e-m/fpv5/hard/libc.a(lib_a-mprec.o)
                0x0000000000417074                __multadd

.text.prvUnlockQueue%341
                0x00000000004170f4       0x7e
 .text.prvUnlockQueue
                0x00000000004170f4       0x7e build/sam_e70_xult_freertos/production/_ext/404212886/queue.o

.text._DRV_ETHPHY_SetupPhaseIdle%342
                0x0000000000417174       0x7c
 .text._DRV_ETHPHY_SetupPhaseIdle
                0x0000000000417174       0x7c build/sam_e70_xult_freertos/production/_ext/1607428259/drv_ethphy.o

.rodata.DRV_ETHPHY_OBJECT_BASE_Default%343
                0x00000000004171f0       0x7c
 .rodata.DRV_ETHPHY_OBJECT_BASE_Default
                0x00000000004171f0       0x7c build/sam_e70_xult_freertos/production/_ext/1607428259/drv_ethphy.o
                0x00000000004171f0                DRV_ETHPHY_OBJECT_BASE_Default

.text.DRV_MIIM_Open%344
                0x000000000041726c       0x7c
 .text.DRV_MIIM_Open
                0x000000000041726c       0x7c build/sam_e70_xult_freertos/production/_ext/511568427/drv_miim.o
                0x000000000041726c                DRV_MIIM_Open

.text._Command_DefaultInterfaceSet%345
                0x00000000004172e8       0x7c
 .text._Command_DefaultInterfaceSet
                0x00000000004172e8       0x7c build/sam_e70_xult_freertos/production/_ext/810785262/tcpip_commands.o

.text.SYS_Tasks%346
                0x0000000000417364       0x7c
 .text.SYS_Tasks
                0x0000000000417364       0x7c build/sam_e70_xult_freertos/production/_ext/1552905064/tasks.o
                0x0000000000417364                SYS_Tasks

.text.xTaskPriorityDisinherit%347
                0x00000000004173e0       0x7c
 .text.xTaskPriorityDisinherit
                0x00000000004173e0       0x7c build/sam_e70_xult_freertos/production/_ext/404212886/FreeRTOS_tasks.o
                0x00000000004173e0                xTaskPriorityDisinherit

.text.frexp%348
                0x0000000000417460       0x7c
 .text.frexp    0x0000000000417460       0x7c /Applications/microchip/xc32/v2.15/bin/bin/../../lib/gcc/pic32c/6.2.1/../../../../pic32c/lib/v7e-m/fpv5/hard/libc.a(lib_a-s_frexp.o)
                0x0000000000417460                frexp

.text.TCPIP_Helper_StringToMACAddress%349
                0x00000000004174dc       0x7a
 .text.TCPIP_Helper_StringToMACAddress
                0x00000000004174dc       0x7a build/sam_e70_xult_freertos/production/_ext/810785262/tcpip_helpers.o
                0x00000000004174dc                TCPIP_Helper_StringToMACAddress

.text._DRV_ETHPHY_NegCompletePhaseRead2%350
                0x0000000000417558       0x78
 .text._DRV_ETHPHY_NegCompletePhaseRead2
                0x0000000000417558       0x78 build/sam_e70_xult_freertos/production/_ext/1607428259/drv_ethphy.o

.text._DNS_ValidateIf%351
                0x00000000004175d0       0x78
 .text._DNS_ValidateIf
                0x00000000004175d0       0x78 build/sam_e70_xult_freertos/production/_ext/810785262/dns.o

.text._DHCPCleanup%352
                0x0000000000417648       0x78
 .text._DHCPCleanup
                0x0000000000417648       0x78 build/sam_e70_xult_freertos/production/_ext/810785262/dhcp.o

.text.CLK_Initialize%353
                0x00000000004176c0       0x78
 .text.CLK_Initialize
                0x00000000004176c0       0x78 build/sam_e70_xult_freertos/production/_ext/45647770/plib_clk.o
                0x00000000004176c0                CLK_Initialize

.text.Console_UART_ResourceLock%354
                0x0000000000417738       0x78
 .text.Console_UART_ResourceLock
                0x0000000000417738       0x78 build/sam_e70_xult_freertos/production/_ext/762686499/sys_console_uart.o

.text.SYS_DEBUG_Print%355
                0x00000000004177b0       0x78
 .text.SYS_DEBUG_Print
                0x00000000004177b0       0x78 build/sam_e70_xult_freertos/production/_ext/762686499/sys_debug.o
                0x00000000004177b0                SYS_DEBUG_Print

.text.xTaskRemoveFromEventList%356
                0x0000000000417828       0x78
 .text.xTaskRemoveFromEventList
                0x0000000000417828       0x78 build/sam_e70_xult_freertos/production/_ext/404212886/FreeRTOS_tasks.o
                0x0000000000417828                xTaskRemoveFromEventList

.text._DRV_GMAC_LinkStateNegResult%357
                0x00000000004178a0       0x76
 .text._DRV_GMAC_LinkStateNegResult
                0x00000000004178a0       0x76 build/sam_e70_xult_freertos/production/_ext/1619526243/drv_gmac.o

.text._DRV_ETHPHY_NegResultPhase_BMSTAT%358
                0x0000000000417916       0x74
 .text._DRV_ETHPHY_NegResultPhase_BMSTAT
                0x0000000000417916       0x74 build/sam_e70_xult_freertos/production/_ext/1607428259/drv_ethphy.o

.text.TCPIP_DHCP_ConnectionHandler%359
                0x000000000041798c       0x74
 .text.TCPIP_DHCP_ConnectionHandler
                0x000000000041798c       0x74 build/sam_e70_xult_freertos/production/_ext/810785262/dhcp.o
                0x000000000041798c                TCPIP_DHCP_ConnectionHandler

.text._ARPUpdateEntry%360
                0x0000000000417a00       0x74
 .text._ARPUpdateEntry
                0x0000000000417a00       0x74 build/sam_e70_xult_freertos/production/_ext/810785262/arp.o

.text.TCPIP_ARP_EntryRemove%361
                0x0000000000417a74       0x74
 .text.TCPIP_ARP_EntryRemove
                0x0000000000417a74       0x74 build/sam_e70_xult_freertos/production/_ext/810785262/arp.o
                0x0000000000417a74                TCPIP_ARP_EntryRemove

.text._Command_BIOSNameSet%362
                0x0000000000417ae8       0x74
 .text._Command_BIOSNameSet
                0x0000000000417ae8       0x74 build/sam_e70_xult_freertos/production/_ext/810785262/tcpip_commands.o

.text.TCPIP_STACK_BringNetDown%363
                0x0000000000417b5c       0x74
 .text.TCPIP_STACK_BringNetDown
                0x0000000000417b5c       0x74 build/sam_e70_xult_freertos/production/_ext/810785262/tcpip_manager.o

.text._TCPIP_PKT_PacketAlloc%364
                0x0000000000417bd0       0x74
 .text._TCPIP_PKT_PacketAlloc
                0x0000000000417bd0       0x74 build/sam_e70_xult_freertos/production/_ext/810785262/tcpip_packet.o
                0x0000000000417bd0                _TCPIP_PKT_PacketAlloc

.text.Console_UART_Read%365
                0x0000000000417c44       0x74
 .text.Console_UART_Read
                0x0000000000417c44       0x74 build/sam_e70_xult_freertos/production/_ext/762686499/sys_console_uart.o
                0x0000000000417c44                Console_UART_Read

.text.Console_UART_Write%366
                0x0000000000417cb8       0x74
 .text.Console_UART_Write
                0x0000000000417cb8       0x74 build/sam_e70_xult_freertos/production/_ext/762686499/sys_console_uart.o
                0x0000000000417cb8                Console_UART_Write

.text._vsnprintf_r%367
                0x0000000000417d2c       0x74
 .text._vsnprintf_r
                0x0000000000417d2c       0x74 /Applications/microchip/xc32/v2.15/bin/bin/../../lib/gcc/pic32c/6.2.1/../../../../pic32c/lib/v7e-m/fpv5/hard/libc.a(lib_a-vsnprintf.o)
                0x0000000000417d2c                _vsnprintf_r

.text._TCPIP_StackSyncFunction%368
                0x0000000000417da0       0x72
 .text._TCPIP_StackSyncFunction
                0x0000000000417da0       0x72 build/sam_e70_xult_freertos/production/_ext/810785262/tcpip_manager.o

.text.TCPIP_PKT_DataSegmentGet%369
                0x0000000000417e12       0x72
 .text.TCPIP_PKT_DataSegmentGet
                0x0000000000417e12       0x72 build/sam_e70_xult_freertos/production/_ext/810785262/tcpip_packet.o
                0x0000000000417e12                TCPIP_PKT_DataSegmentGet

.text.prvCopyDataToQueue%370
                0x0000000000417e84       0x72
 .text.prvCopyDataToQueue
                0x0000000000417e84       0x72 build/sam_e70_xult_freertos/production/_ext/404212886/queue.o

.text.DRV_ETHPHY_Open%371
                0x0000000000417ef8       0x70
 .text.DRV_ETHPHY_Open
                0x0000000000417ef8       0x70 build/sam_e70_xult_freertos/production/_ext/1607428259/drv_ethphy.o
                0x0000000000417ef8                DRV_ETHPHY_Open

.text._DRV_ETHPHY_ResetPhaseWrite%372
                0x0000000000417f68       0x70
 .text._DRV_ETHPHY_ResetPhaseWrite
                0x0000000000417f68       0x70 build/sam_e70_xult_freertos/production/_ext/1607428259/drv_ethphy.o

.text.DRV_GMAC_LibDescriptorsPoolAdd%373
                0x0000000000417fd8       0x70
 .text.DRV_GMAC_LibDescriptorsPoolAdd
                0x0000000000417fd8       0x70 build/sam_e70_xult_freertos/production/_ext/1619526243/drv_gmac_lib_samE7x_V7x.o
                0x0000000000417fd8                DRV_GMAC_LibDescriptorsPoolAdd

.text.TCPIP_IPV4_Initialize%374
                0x0000000000418048       0x70
 .text.TCPIP_IPV4_Initialize
                0x0000000000418048       0x70 build/sam_e70_xult_freertos/production/_ext/810785262/ipv4.o
                0x0000000000418048                TCPIP_IPV4_Initialize

.text.Console_UART_Initialize%375
                0x00000000004180b8       0x70
 .text.Console_UART_Initialize
                0x00000000004180b8       0x70 build/sam_e70_xult_freertos/production/_ext/762686499/sys_console_uart.o
                0x00000000004180b8                Console_UART_Initialize

.text.SYS_CMD_ADDGRP%376
                0x0000000000418128       0x70
 .text.SYS_CMD_ADDGRP
                0x0000000000418128       0x70 build/sam_e70_xult_freertos/production/_ext/762686499/sys_command.o
                0x0000000000418128                SYS_CMD_ADDGRP

.text.xQueueGenericReset%377
                0x0000000000418198       0x70
 .text.xQueueGenericReset
                0x0000000000418198       0x70 build/sam_e70_xult_freertos/production/_ext/404212886/queue.o
                0x0000000000418198                xQueueGenericReset

.text.prvIdleTask%378
                0x0000000000418208       0x70
 .text.prvIdleTask
                0x0000000000418208       0x70 build/sam_e70_xult_freertos/production/_ext/404212886/FreeRTOS_tasks.o

.text%379       0x0000000000418278       0x6c
 .text          0x0000000000418278       0x6c /Applications/microchip/xc32/v2.15/bin/bin/../../lib/gcc/pic32c/6.2.1/v7e-m/fpv5/hard/crtbegin.o

.text.TCPIP_DNS_Disable%380
                0x00000000004182e4       0x6c
 .text.TCPIP_DNS_Disable
                0x00000000004182e4       0x6c build/sam_e70_xult_freertos/production/_ext/810785262/dns.o
                0x00000000004182e4                TCPIP_DNS_Disable

.text._TcpCleanup%381
                0x0000000000418350       0x6c
 .text._TcpCleanup
                0x0000000000418350       0x6c build/sam_e70_xult_freertos/production/_ext/810785262/tcp.o

.text._MacTxPendingPackets%382
                0x00000000004183bc       0x6a
 .text._MacTxPendingPackets
                0x00000000004183bc       0x6a build/sam_e70_xult_freertos/production/_ext/1619526243/drv_gmac.o

.text._DNS_AddSelectionIf%383
                0x0000000000418426       0x6a
 .text._DNS_AddSelectionIf
                0x0000000000418426       0x6a build/sam_e70_xult_freertos/production/_ext/810785262/dns.o

.text.TCPIP_Helper_PacketCopy%384
                0x0000000000418490       0x6a
 .text.TCPIP_Helper_PacketCopy
                0x0000000000418490       0x6a build/sam_e70_xult_freertos/production/_ext/810785262/tcpip_helpers.o
                0x0000000000418490                TCPIP_Helper_PacketCopy

.text._DRV_GMAC_LinkStateWaitLinkUp%385
                0x00000000004184fc       0x68
 .text._DRV_GMAC_LinkStateWaitLinkUp
                0x00000000004184fc       0x68 build/sam_e70_xult_freertos/production/_ext/1619526243/drv_gmac.o

.text.DRV_PIC32CGMAC_LibMACOpen%386
                0x0000000000418564       0x68
 .text.DRV_PIC32CGMAC_LibMACOpen
                0x0000000000418564       0x68 build/sam_e70_xult_freertos/production/_ext/1619526243/drv_gmac_lib_samE7x_V7x.o
                0x0000000000418564                DRV_PIC32CGMAC_LibMACOpen

.text._TcpSwapHeader%387
                0x00000000004185cc       0x68
 .text._TcpSwapHeader
                0x00000000004185cc       0x68 build/sam_e70_xult_freertos/production/_ext/810785262/tcp.o

.text._TcpClientSocketConnect%388
                0x0000000000418634       0x68
 .text._TcpClientSocketConnect
                0x0000000000418634       0x68 build/sam_e70_xult_freertos/production/_ext/810785262/tcp.o

.text.TCPIP_ARP_CacheEntriesNoGet%389
                0x000000000041869c       0x68
 .text.TCPIP_ARP_CacheEntriesNoGet
                0x000000000041869c       0x68 build/sam_e70_xult_freertos/production/_ext/810785262/arp.o
                0x000000000041869c                TCPIP_ARP_CacheEntriesNoGet

.text.TCPIP_OAHASH_EntryLookup%390
                0x0000000000418704       0x68
 .text.TCPIP_OAHASH_EntryLookup
                0x0000000000418704       0x68 build/sam_e70_xult_freertos/production/_ext/810785262/oahash.o
                0x0000000000418704                TCPIP_OAHASH_EntryLookup

.text.TCPIP_OAHASH_EntryLookupOrInsert%391
                0x000000000041876c       0x68
 .text.TCPIP_OAHASH_EntryLookupOrInsert
                0x000000000041876c       0x68 build/sam_e70_xult_freertos/production/_ext/810785262/oahash.o
                0x000000000041876c                TCPIP_OAHASH_EntryLookupOrInsert

.text._TCPIPStackInsertRxPacket%392
                0x00000000004187d4       0x68
 .text._TCPIPStackInsertRxPacket
                0x00000000004187d4       0x68 build/sam_e70_xult_freertos/production/_ext/810785262/tcpip_manager.o
                0x00000000004187d4                _TCPIPStackInsertRxPacket

.rodata%393     0x000000000041883c       0x68
 .rodata        0x000000000041883c       0x68 build/sam_e70_xult_freertos/production/_ext/1552905064/initialization.o

.text.vTaskStartScheduler%394
                0x00000000004188a4       0x68
 .text.vTaskStartScheduler
                0x00000000004188a4       0x68 build/sam_e70_xult_freertos/production/_ext/404212886/FreeRTOS_tasks.o
                0x00000000004188a4                vTaskStartScheduler

.text.TCPIP_Helper_CalcIPChecksum%395
                0x000000000041890c       0x66
 .text.TCPIP_Helper_CalcIPChecksum
                0x000000000041890c       0x66 build/sam_e70_xult_freertos/production/_ext/810785262/tcpip_helpers.o
                0x000000000041890c                TCPIP_Helper_CalcIPChecksum

.text._DRV_ETHPHY_SetupPhaseNegotiate_SubPhase6%396
                0x0000000000418972       0x64
 .text._DRV_ETHPHY_SetupPhaseNegotiate_SubPhase6
                0x0000000000418972       0x64 build/sam_e70_xult_freertos/production/_ext/1607428259/drv_ethphy.o

.text.TCPIP_DHCP_Disable%397
                0x00000000004189d8       0x64
 .text.TCPIP_DHCP_Disable
                0x00000000004189d8       0x64 build/sam_e70_xult_freertos/production/_ext/810785262/dhcp.o
                0x00000000004189d8                TCPIP_DHCP_Disable

.text.TCPIP_IPV4_MacPacketTransmit%398
                0x0000000000418a3c       0x64
 .text.TCPIP_IPV4_MacPacketTransmit
                0x0000000000418a3c       0x64 build/sam_e70_xult_freertos/production/_ext/810785262/ipv4.o
                0x0000000000418a3c                TCPIP_IPV4_MacPacketTransmit

.text.SYS_CMDIO_ADD%399
                0x0000000000418aa0       0x64
 .text.SYS_CMDIO_ADD
                0x0000000000418aa0       0x64 build/sam_e70_xult_freertos/production/_ext/762686499/sys_command.o
                0x0000000000418aa0                SYS_CMDIO_ADD

.text.xPortPendSVHandler%400
                0x0000000000418b10       0x64
 .text.xPortPendSVHandler
                0x0000000000418b10       0x64 build/sam_e70_xult_freertos/production/_ext/977623654/port.o
                0x0000000000418b10                xPortPendSVHandler

.text.strncpy%401
                0x0000000000418b74       0x64
 .text.strncpy  0x0000000000418b74       0x64 /Applications/microchip/xc32/v2.15/bin/bin/../../lib/gcc/pic32c/6.2.1/../../../../pic32c/lib/v7e-m/fpv5/hard/libc.a(lib_a-strncpy.o)
                0x0000000000418b74                strncpy

.text.__strtok_r%402
                0x0000000000418bd8       0x64
 .text.__strtok_r
                0x0000000000418bd8       0x64 /Applications/microchip/xc32/v2.15/bin/bin/../../lib/gcc/pic32c/6.2.1/../../../../pic32c/lib/v7e-m/fpv5/hard/libc.a(lib_a-strtok_r.o)
                0x0000000000418bd8                __strtok_r

.text.TCPIP_ARP_EntryGet%403
                0x0000000000418c3c       0x62
 .text.TCPIP_ARP_EntryGet
                0x0000000000418c3c       0x62 build/sam_e70_xult_freertos/production/_ext/810785262/arp.o
                0x0000000000418c3c                TCPIP_ARP_EntryGet

.text.Console_UART_PLIBReadHandler%404
                0x0000000000418c9e       0x62
 .text.Console_UART_PLIBReadHandler
                0x0000000000418c9e       0x62 build/sam_e70_xult_freertos/production/_ext/762686499/sys_console_uart.o

.text.TCPIP_DNS_ClientDeinitialize%405
                0x0000000000418d00       0x60
 .text.TCPIP_DNS_ClientDeinitialize
                0x0000000000418d00       0x60 build/sam_e70_xult_freertos/production/_ext/810785262/dns.o
                0x0000000000418d00                TCPIP_DNS_ClientDeinitialize

.text.TCPIP_DNS_GetIPAddressesNumber%406
                0x0000000000418d60       0x60
 .text.TCPIP_DNS_GetIPAddressesNumber
                0x0000000000418d60       0x60 build/sam_e70_xult_freertos/production/_ext/810785262/dns.o
                0x0000000000418d60                TCPIP_DNS_GetIPAddressesNumber

.rodata.TCPIP_STACK_MODULE_ENTRY_TBL%407
                0x0000000000418dc0       0x60
 .rodata.TCPIP_STACK_MODULE_ENTRY_TBL
                0x0000000000418dc0       0x60 build/sam_e70_xult_freertos/production/_ext/810785262/tcpip_manager.o

.text.TCPIP_UDP_SocketInfoGet%408
                0x0000000000418e20       0x60
 .text.TCPIP_UDP_SocketInfoGet
                0x0000000000418e20       0x60 build/sam_e70_xult_freertos/production/_ext/810785262/udp.o
                0x0000000000418e20                TCPIP_UDP_SocketInfoGet

.text._calloc_r%409
                0x0000000000418e80       0x60
 .text._calloc_r
                0x0000000000418e80       0x60 /Applications/microchip/xc32/v2.15/bin/bin/../../lib/gcc/pic32c/6.2.1/../../../../pic32c/lib/v7e-m/fpv5/hard/libc.a(lib_a-callocr.o)
                0x0000000000418e80                _calloc_r

.text.memcmp%410
                0x0000000000418ee0       0x60
 .text.memcmp   0x0000000000418ee0       0x60 /Applications/microchip/xc32/v2.15/bin/bin/../../lib/gcc/pic32c/6.2.1/../../../../pic32c/lib/v7e-m/fpv5/hard/libc.a(lib_a-memcmp.o)
                0x0000000000418ee0                memcmp

.text.__lo0bits%411
                0x0000000000418f40       0x60
 .text.__lo0bits
                0x0000000000418f40       0x60 /Applications/microchip/xc32/v2.15/bin/bin/../../lib/gcc/pic32c/6.2.1/../../../../pic32c/lib/v7e-m/fpv5/hard/libc.a(lib_a-mprec.o)
                0x0000000000418f40                __lo0bits

.text.__ratio%412
                0x0000000000418fa0       0x60
 .text.__ratio  0x0000000000418fa0       0x60 /Applications/microchip/xc32/v2.15/bin/bin/../../lib/gcc/pic32c/6.2.1/../../../../pic32c/lib/v7e-m/fpv5/hard/libc.a(lib_a-mprec.o)
                0x0000000000418fa0                __ratio

.text.__any_on%413
                0x0000000000419000       0x60
 .text.__any_on
                0x0000000000419000       0x60 /Applications/microchip/xc32/v2.15/bin/bin/../../lib/gcc/pic32c/6.2.1/../../../../pic32c/lib/v7e-m/fpv5/hard/libc.a(lib_a-mprec.o)
                0x0000000000419000                __any_on

.text.DRV_ETHPHY_Initialize%414
                0x0000000000419060       0x5c
 .text.DRV_ETHPHY_Initialize
                0x0000000000419060       0x5c build/sam_e70_xult_freertos/production/_ext/1607428259/drv_ethphy.o
                0x0000000000419060                DRV_ETHPHY_Initialize

.text._TCPIPStackIpAddFromAnyNet%415
                0x00000000004190bc       0x5c
 .text._TCPIPStackIpAddFromAnyNet
                0x00000000004190bc       0x5c build/sam_e70_xult_freertos/production/_ext/810785262/tcpip_manager.o
                0x00000000004190bc                _TCPIPStackIpAddFromAnyNet

.text.strncat%416
                0x0000000000419118       0x5c
 .text.strncat  0x0000000000419118       0x5c /Applications/microchip/xc32/v2.15/bin/bin/../../lib/gcc/pic32c/6.2.1/../../../../pic32c/lib/v7e-m/fpv5/hard/libc.a(lib_a-strncat.o)
                0x0000000000419118                strncat

.text.DRV_GMAC_StatisticsGet%417
                0x0000000000419174       0x5a
 .text.DRV_GMAC_StatisticsGet
                0x0000000000419174       0x5a build/sam_e70_xult_freertos/production/_ext/1619526243/drv_gmac.o
                0x0000000000419174                DRV_GMAC_StatisticsGet

.text._DHCPOptionProcessDns%418
                0x00000000004191ce       0x5a
 .text._DHCPOptionProcessDns
                0x00000000004191ce       0x5a build/sam_e70_xult_freertos/production/_ext/810785262/dhcp.o

.text.TCPIP_UDP_BcastIPV4AddressSet%419
                0x0000000000419228       0x5a
 .text.TCPIP_UDP_BcastIPV4AddressSet
                0x0000000000419228       0x5a build/sam_e70_xult_freertos/production/_ext/810785262/udp.o
                0x0000000000419228                TCPIP_UDP_BcastIPV4AddressSet

.text.DRV_ETHPHY_VendorSMIReadStart%420
                0x0000000000419282       0x58
 .text.DRV_ETHPHY_VendorSMIReadStart
                0x0000000000419282       0x58 build/sam_e70_xult_freertos/production/_ext/1607428259/drv_ethphy.o
                0x0000000000419282                DRV_ETHPHY_VendorSMIReadStart

.text.DRV_ETHPHY_VendorSMIWriteStart%421
                0x00000000004192da       0x58
 .text.DRV_ETHPHY_VendorSMIWriteStart
                0x00000000004192da       0x58 build/sam_e70_xult_freertos/production/_ext/1607428259/drv_ethphy.o
                0x00000000004192da                DRV_ETHPHY_VendorSMIWriteStart

.rodata.DRV_GMAC_Object%422
                0x0000000000419334       0x58
 .rodata.DRV_GMAC_Object
                0x0000000000419334       0x58 build/sam_e70_xult_freertos/production/_ext/1619526243/drv_gmac.o
                0x0000000000419334                DRV_GMAC_Object

.text.DRV_PIC32CGMAC_LibInit%423
                0x000000000041938c       0x58
 .text.DRV_PIC32CGMAC_LibInit
                0x000000000041938c       0x58 build/sam_e70_xult_freertos/production/_ext/1619526243/drv_gmac_lib_samE7x_V7x.o
                0x000000000041938c                DRV_PIC32CGMAC_LibInit

.text._DRV_MIIM_ReleaseOpDcpt%424
                0x00000000004193e4       0x58
 .text._DRV_MIIM_ReleaseOpDcpt
                0x00000000004193e4       0x58 build/sam_e70_xult_freertos/production/_ext/511568427/drv_miim.o

.text._DNS_Enable%425
                0x000000000041943c       0x58
 .text._DNS_Enable
                0x000000000041943c       0x58 build/sam_e70_xult_freertos/production/_ext/810785262/dns.o

.text._DNS_CleanCacheEntry%426
                0x0000000000419494       0x58
 .text._DNS_CleanCacheEntry
                0x0000000000419494       0x58 build/sam_e70_xult_freertos/production/_ext/810785262/dns.o

.text.TCPIP_STACK_StringToMACId%427
                0x00000000004194ec       0x58
 .text.TCPIP_STACK_StringToMACId
                0x00000000004194ec       0x58 build/sam_e70_xult_freertos/production/_ext/810785262/tcpip_manager.o
                0x00000000004194ec                TCPIP_STACK_StringToMACId

.text._TCPIPStackAnyNetLinked%428
                0x0000000000419544       0x58
 .text._TCPIPStackAnyNetLinked
                0x0000000000419544       0x58 build/sam_e70_xult_freertos/production/_ext/810785262/tcpip_manager.o
                0x0000000000419544                _TCPIPStackAnyNetLinked

.text._TCPIPStackModuleSignalRequest%429
                0x000000000041959c       0x58
 .text._TCPIPStackModuleSignalRequest
                0x000000000041959c       0x58 build/sam_e70_xult_freertos/production/_ext/810785262/tcpip_manager.o
                0x000000000041959c                _TCPIPStackModuleSignalRequest

.text.SYS_TIME_TimerStart%430
                0x00000000004195f4       0x58
 .text.SYS_TIME_TimerStart
                0x00000000004195f4       0x58 build/sam_e70_xult_freertos/production/_ext/912870411/sys_time.o
                0x00000000004195f4                SYS_TIME_TimerStart

.text.xTaskCheckForTimeOut%431
                0x000000000041964c       0x58
 .text.xTaskCheckForTimeOut
                0x000000000041964c       0x58 build/sam_e70_xult_freertos/production/_ext/404212886/FreeRTOS_tasks.o
                0x000000000041964c                xTaskCheckForTimeOut

.text.OSAL_SEM_Create%432
                0x00000000004196a4       0x58
 .text.OSAL_SEM_Create
                0x00000000004196a4       0x58 build/sam_e70_xult_freertos/production/_ext/281930714/osal_freertos.o
                0x00000000004196a4                OSAL_SEM_Create

.text._DRV_ETHPHY_LinkStatPhaseRead%433
                0x00000000004196fc       0x56
 .text._DRV_ETHPHY_LinkStatPhaseRead
                0x00000000004196fc       0x56 build/sam_e70_xult_freertos/production/_ext/1607428259/drv_ethphy.o

.text.TCPIP_ARP_Probe%434
                0x0000000000419752       0x56
 .text.TCPIP_ARP_Probe
                0x0000000000419752       0x56 build/sam_e70_xult_freertos/production/_ext/810785262/arp.o
                0x0000000000419752                TCPIP_ARP_Probe

.text._DRV_ETHPHY_NegCompletePhaseAN_Complete%435
                0x00000000004197a8       0x54
 .text._DRV_ETHPHY_NegCompletePhaseAN_Complete
                0x00000000004197a8       0x54 build/sam_e70_xult_freertos/production/_ext/1607428259/drv_ethphy.o

.text.DRV_GMAC_EventAcknowledge%436
                0x00000000004197fc       0x54
 .text.DRV_GMAC_EventAcknowledge
                0x00000000004197fc       0x54 build/sam_e70_xult_freertos/production/_ext/1619526243/drv_gmac.o
                0x00000000004197fc                DRV_GMAC_EventAcknowledge

.text._DNS_DeleteHash%437
                0x0000000000419850       0x54
 .text._DNS_DeleteHash
                0x0000000000419850       0x54 build/sam_e70_xult_freertos/production/_ext/810785262/dns.o

.text.TCPIP_DNS_RemoveAll%438
                0x00000000004198a4       0x54
 .text.TCPIP_DNS_RemoveAll
                0x00000000004198a4       0x54 build/sam_e70_xult_freertos/production/_ext/810785262/dns.o
                0x00000000004198a4                TCPIP_DNS_RemoveAll

.text._DHCPOptionWriteSrvIdent%439
                0x00000000004198f8       0x54
 .text._DHCPOptionWriteSrvIdent
                0x00000000004198f8       0x54 build/sam_e70_xult_freertos/production/_ext/810785262/dhcp.o

.text._ARPNotifyClients%440
                0x000000000041994c       0x54
 .text._ARPNotifyClients
                0x000000000041994c       0x54 build/sam_e70_xult_freertos/production/_ext/810785262/arp.o

.rodata%441     0x00000000004199a0       0x54
 .rodata        0x00000000004199a0       0x54 build/sam_e70_xult_freertos/production/_ext/810785262/ipv4.o

.text.SYS_TIME_RemoveFromList%442
                0x00000000004199f4       0x54
 .text.SYS_TIME_RemoveFromList
                0x00000000004199f4       0x54 build/sam_e70_xult_freertos/production/_ext/912870411/sys_time.o

.rodata.tcpipMACPIC32CINTInitData%443
                0x0000000000419a48       0x54
 .rodata.tcpipMACPIC32CINTInitData
                0x0000000000419a48       0x54 build/sam_e70_xult_freertos/production/_ext/1552905064/initialization.o
                0x0000000000419a48                tcpipMACPIC32CINTInitData

.text.__ulp%444
                0x0000000000419a9c       0x54
 .text.__ulp    0x0000000000419a9c       0x54 /Applications/microchip/xc32/v2.15/bin/bin/../../lib/gcc/pic32c/6.2.1/../../../../pic32c/lib/v7e-m/fpv5/hard/libc.a(lib_a-mprec.o)
                0x0000000000419a9c                __ulp

.text._XtlEventsTcp2Eth%445
                0x0000000000419af0       0x52
 .text._XtlEventsTcp2Eth
                0x0000000000419af0       0x52 build/sam_e70_xult_freertos/production/_ext/1619526243/drv_gmac.o

.text._TcpAbort%446
                0x0000000000419b42       0x52
 .text._TcpAbort
                0x0000000000419b42       0x52 build/sam_e70_xult_freertos/production/_ext/810785262/tcp.o

.text._DRV_MIIM_GetClientAndLock%447
                0x0000000000419b94       0x50
 .text._DRV_MIIM_GetClientAndLock
                0x0000000000419b94       0x50 build/sam_e70_xult_freertos/production/_ext/511568427/drv_miim.o

.text.TCPIP_DNS_OAHASH_DeleteEntry%448
                0x0000000000419be4       0x50
 .text.TCPIP_DNS_OAHASH_DeleteEntry
                0x0000000000419be4       0x50 build/sam_e70_xult_freertos/production/_ext/810785262/dns.o

.rodata%449     0x0000000000419c34       0x50
 .rodata        0x0000000000419c34       0x50 build/sam_e70_xult_freertos/production/_ext/810785262/tcp.o

.text._DHCPOptionWriteIPRequest%450
                0x0000000000419c84       0x50
 .text._DHCPOptionWriteIPRequest
                0x0000000000419c84       0x50 build/sam_e70_xult_freertos/production/_ext/810785262/dhcp.o

.text.TCPIP_Helper_IPAddressToString%451
                0x0000000000419cd4       0x50
 .text.TCPIP_Helper_IPAddressToString
                0x0000000000419cd4       0x50 build/sam_e70_xult_freertos/production/_ext/810785262/tcpip_helpers.o
                0x0000000000419cd4                TCPIP_Helper_IPAddressToString

.text.SYS_CONSOLE_Initialize%452
                0x0000000000419d24       0x50
 .text.SYS_CONSOLE_Initialize
                0x0000000000419d24       0x50 build/sam_e70_xult_freertos/production/_ext/762686499/sys_console.o
                0x0000000000419d24                SYS_CONSOLE_Initialize

.text.SYS_CONSOLE_Status%453
                0x0000000000419d74       0x50
 .text.SYS_CONSOLE_Status
                0x0000000000419d74       0x50 build/sam_e70_xult_freertos/production/_ext/762686499/sys_console.o
                0x0000000000419d74                SYS_CONSOLE_Status

.text.SYS_TIME_CallbackRegisterMS%454
                0x0000000000419dc4       0x50
 .text.SYS_TIME_CallbackRegisterMS
                0x0000000000419dc4       0x50 build/sam_e70_xult_freertos/production/_ext/912870411/sys_time.o
                0x0000000000419dc4                SYS_TIME_CallbackRegisterMS

.text.__libc_init_array%455
                0x0000000000419e14       0x50
 .text.__libc_init_array
                0x0000000000419e14       0x50 /Applications/microchip/xc32/v2.15/bin/bin/../../lib/gcc/pic32c/6.2.1/../../../../pic32c/lib/v7e-m/fpv5/hard/libc.a(lib_a-init.o)
                0x0000000000419e14                __libc_init_array

.text.TCPIP_Helper_FormatNetBIOSName%456
                0x0000000000419e64       0x4e
 .text.TCPIP_Helper_FormatNetBIOSName
                0x0000000000419e64       0x4e build/sam_e70_xult_freertos/production/_ext/810785262/tcpip_helpers.o
                0x0000000000419e64                TCPIP_Helper_FormatNetBIOSName

.text._DRV_GMAC_LinkStateGetLink%457
                0x0000000000419eb2       0x4c
 .text._DRV_GMAC_LinkStateGetLink
                0x0000000000419eb2       0x4c build/sam_e70_xult_freertos/production/_ext/1619526243/drv_gmac.o

.text.DRV_MIIM_OperationAbort%458
                0x0000000000419efe       0x4c
 .text.DRV_MIIM_OperationAbort
                0x0000000000419efe       0x4c build/sam_e70_xult_freertos/production/_ext/511568427/drv_miim.o
                0x0000000000419efe                DRV_MIIM_OperationAbort

.text.TCPIP_IPV4_Cleanup%459
                0x0000000000419f4c       0x4c
 .text.TCPIP_IPV4_Cleanup
                0x0000000000419f4c       0x4c build/sam_e70_xult_freertos/production/_ext/810785262/ipv4.o

.text._TCPIP_MacEventCB%460
                0x0000000000419f98       0x4c
 .text._TCPIP_MacEventCB
                0x0000000000419f98       0x4c build/sam_e70_xult_freertos/production/_ext/810785262/tcpip_manager.o

.text._UDPClose%461
                0x0000000000419fe4       0x4c
 .text._UDPClose
                0x0000000000419fe4       0x4c build/sam_e70_xult_freertos/production/_ext/810785262/udp.o

.text.TCPIP_UDP_PutIsReady%462
                0x000000000041a030       0x4c
 .text.TCPIP_UDP_PutIsReady
                0x000000000041a030       0x4c build/sam_e70_xult_freertos/production/_ext/810785262/udp.o
                0x000000000041a030                TCPIP_UDP_PutIsReady

.text.Console_UART_PLIBWriteHandler%463
                0x000000000041a07c       0x4c
 .text.Console_UART_PLIBWriteHandler
                0x000000000041a07c       0x4c build/sam_e70_xult_freertos/production/_ext/762686499/sys_console_uart.o

.text.sprintf%464
                0x000000000041a0c8       0x4c
 .text.sprintf  0x000000000041a0c8       0x4c /Applications/microchip/xc32/v2.15/bin/bin/../../lib/gcc/pic32c/6.2.1/../../../../pic32c/lib/v7e-m/fpv5/hard/libc.a(lib_a-sprintf.o)
                0x000000000041a0c8                __sprintf_di
                0x000000000041a0c8                __sprintf_s
                0x000000000041a0c8                sprintf
                0x000000000041a0c8                __sprintf_oxX

.text._Balloc%465
                0x000000000041a114       0x4c
 .text._Balloc  0x000000000041a114       0x4c /Applications/microchip/xc32/v2.15/bin/bin/../../lib/gcc/pic32c/6.2.1/../../../../pic32c/lib/v7e-m/fpv5/hard/libc.a(lib_a-mprec.o)
                0x000000000041a114                _Balloc

.text.TCPIP_UDP_DestinationIPAddressSet%466
                0x000000000041a160       0x4a
 .text.TCPIP_UDP_DestinationIPAddressSet
                0x000000000041a160       0x4a build/sam_e70_xult_freertos/production/_ext/810785262/udp.o
                0x000000000041a160                TCPIP_UDP_DestinationIPAddressSet

.text._DRV_ETHPHY_SetupPhaseNegotiate_SubPhase1%467
                0x000000000041a1ac       0x48
 .text._DRV_ETHPHY_SetupPhaseNegotiate_SubPhase1
                0x000000000041a1ac       0x48 build/sam_e70_xult_freertos/production/_ext/1607428259/drv_ethphy.o

.text.DRV_ETHPHY_VendorSMIReadResultGet%468
                0x000000000041a1f4       0x48
 .text.DRV_ETHPHY_VendorSMIReadResultGet
                0x000000000041a1f4       0x48 build/sam_e70_xult_freertos/production/_ext/1607428259/drv_ethphy.o
                0x000000000041a1f4                DRV_ETHPHY_VendorSMIReadResultGet

.text.DRV_GMAC_RegisterStatisticsGet%469
                0x000000000041a23c       0x48
 .text.DRV_GMAC_RegisterStatisticsGet
                0x000000000041a23c       0x48 build/sam_e70_xult_freertos/production/_ext/1619526243/drv_gmac.o
                0x000000000041a23c                DRV_GMAC_RegisterStatisticsGet

.text._TCPSendWinIncUpdate%470
                0x000000000041a284       0x48
 .text._TCPSendWinIncUpdate
                0x000000000041a284       0x48 build/sam_e70_xult_freertos/production/_ext/810785262/tcp.o

.text.TCPIP_DHCP_IsEnabled%471
                0x000000000041a2cc       0x48
 .text.TCPIP_DHCP_IsEnabled
                0x000000000041a2cc       0x48 build/sam_e70_xult_freertos/production/_ext/810785262/dhcp.o
                0x000000000041a2cc                TCPIP_DHCP_IsEnabled

.rodata._DHCPOptProcTbl%472
                0x000000000041a314       0x48
 .rodata._DHCPOptProcTbl
                0x000000000041a314       0x48 build/sam_e70_xult_freertos/production/_ext/810785262/dhcp.o

.text.TCPIP_ARP_Deinitialize%473
                0x000000000041a35c       0x48
 .text.TCPIP_ARP_Deinitialize
                0x000000000041a35c       0x48 build/sam_e70_xult_freertos/production/_ext/810785262/arp.o
                0x000000000041a35c                TCPIP_ARP_Deinitialize

.text.TCPIP_Helper_MACAddressToString%474
                0x000000000041a3a4       0x48
 .text.TCPIP_Helper_MACAddressToString
                0x000000000041a3a4       0x48 build/sam_e70_xult_freertos/production/_ext/810785262/tcpip_helpers.o
                0x000000000041a3a4                TCPIP_Helper_MACAddressToString

.text.TCPIP_STACK_MACIdToNet%475
                0x000000000041a3ec       0x48
 .text.TCPIP_STACK_MACIdToNet
                0x000000000041a3ec       0x48 build/sam_e70_xult_freertos/production/_ext/810785262/tcpip_manager.o
                0x000000000041a3ec                TCPIP_STACK_MACIdToNet

.text._TCPIPStackSignalHandlerRegister%476
                0x000000000041a434       0x48
 .text._TCPIPStackSignalHandlerRegister
                0x000000000041a434       0x48 build/sam_e70_xult_freertos/production/_ext/810785262/tcpip_manager.o
                0x000000000041a434                _TCPIPStackSignalHandlerRegister

.text.NVIC_Initialize%477
                0x000000000041a47c       0x48
 .text.NVIC_Initialize
                0x000000000041a47c       0x48 build/sam_e70_xult_freertos/production/_ext/1414743522/plib_nvic.o
                0x000000000041a47c                NVIC_Initialize

.text.USART1_Write%478
                0x000000000041a4c4       0x48
 .text.USART1_Write
                0x000000000041a4c4       0x48 build/sam_e70_xult_freertos/production/_ext/901008055/plib_usart1.o
                0x000000000041a4c4                USART1_Write

.text.CommandCleanup%479
                0x000000000041a50c       0x48
 .text.CommandCleanup
                0x000000000041a50c       0x48 build/sam_e70_xult_freertos/production/_ext/762686499/sys_command.o

.rodata.TCPIP_STACK_MODULE_CONFIG_TBL%480
                0x000000000041a554       0x48
 .rodata.TCPIP_STACK_MODULE_CONFIG_TBL
                0x000000000041a554       0x48 build/sam_e70_xult_freertos/production/_ext/1552905064/initialization.o
                0x000000000041a554                TCPIP_STACK_MODULE_CONFIG_TBL

.text.xPortStartScheduler%481
                0x000000000041a59c       0x48
 .text.xPortStartScheduler
                0x000000000041a59c       0x48 build/sam_e70_xult_freertos/production/_ext/977623654/port.o
                0x000000000041a59c                xPortStartScheduler

.text.__copybits%482
                0x000000000041a5e4       0x48
 .text.__copybits
                0x000000000041a5e4       0x48 /Applications/microchip/xc32/v2.15/bin/bin/../../lib/gcc/pic32c/6.2.1/../../../../pic32c/lib/v7e-m/fpv5/hard/libc.a(lib_a-mprec.o)
                0x000000000041a5e4                __copybits

.text._TCPIP_HEAP_Delete%483
                0x000000000041a62c       0x46
 .text._TCPIP_HEAP_Delete
                0x000000000041a62c       0x46 build/sam_e70_xult_freertos/production/_ext/810785262/tcpip_heap_internal.o

.text.TCPIP_STACK_AddressServiceEvent%484
                0x000000000041a672       0x46
 .text.TCPIP_STACK_AddressServiceEvent
                0x000000000041a672       0x46 build/sam_e70_xult_freertos/production/_ext/810785262/tcpip_manager.o
                0x000000000041a672                TCPIP_STACK_AddressServiceEvent

.text.TCPIP_UDP_ArrayPut%485
                0x000000000041a6b8       0x46
 .text.TCPIP_UDP_ArrayPut
                0x000000000041a6b8       0x46 build/sam_e70_xult_freertos/production/_ext/810785262/udp.o
                0x000000000041a6b8                TCPIP_UDP_ArrayPut

.text.DRV_GMAC_RxFilterHashTableEntrySet%486
                0x000000000041a6fe       0x44
 .text.DRV_GMAC_RxFilterHashTableEntrySet
                0x000000000041a6fe       0x44 build/sam_e70_xult_freertos/production/_ext/1619526243/drv_gmac.o
                0x000000000041a6fe                DRV_GMAC_RxFilterHashTableEntrySet

.text.Helper_SingleListNodeRemove%487
                0x000000000041a742       0x44
 .text.Helper_SingleListNodeRemove
                0x000000000041a742       0x44 build/sam_e70_xult_freertos/production/_ext/511568427/drv_miim.o
                0x000000000041a742                Helper_SingleListNodeRemove

.text.hexatob%488
                0x000000000041a786       0x44
 .text.hexatob  0x000000000041a786       0x44 build/sam_e70_xult_freertos/production/_ext/810785262/helpers.o
                0x000000000041a786                hexatob

.text.TCPIP_ICMP_Initialize%489
                0x000000000041a7cc       0x44
 .text.TCPIP_ICMP_Initialize
                0x000000000041a7cc       0x44 build/sam_e70_xult_freertos/production/_ext/810785262/icmp.o
                0x000000000041a7cc                TCPIP_ICMP_Initialize

.text._DHCPSetTimeout%490
                0x000000000041a810       0x44
 .text._DHCPSetTimeout
                0x000000000041a810       0x44 build/sam_e70_xult_freertos/production/_ext/810785262/dhcp.o

.text._TCPIP_HEAP_MaxSize%491
                0x000000000041a854       0x44
 .text._TCPIP_HEAP_MaxSize
                0x000000000041a854       0x44 build/sam_e70_xult_freertos/production/_ext/810785262/tcpip_heap_internal.o

.text.TCPIP_Helper_SingleListNodeRemove%492
                0x000000000041a898       0x44
 .text.TCPIP_Helper_SingleListNodeRemove
                0x000000000041a898       0x44 build/sam_e70_xult_freertos/production/_ext/810785262/tcpip_helpers.o
                0x000000000041a898                TCPIP_Helper_SingleListNodeRemove

.text.TCPIP_STACK_NetByAddress%493
                0x000000000041a8dc       0x44
 .text.TCPIP_STACK_NetByAddress
                0x000000000041a8dc       0x44 build/sam_e70_xult_freertos/production/_ext/810785262/tcpip_manager.o
                0x000000000041a8dc                TCPIP_STACK_NetByAddress

.text._TCPIPStackModuleRxInsert%494
                0x000000000041a920       0x44
 .text._TCPIPStackModuleRxInsert
                0x000000000041a920       0x44 build/sam_e70_xult_freertos/production/_ext/810785262/tcpip_manager.o
                0x000000000041a920                _TCPIPStackModuleRxInsert

.text._UDPSetNewRxPacket%495
                0x000000000041a964       0x44
 .text._UDPSetNewRxPacket
                0x000000000041a964       0x44 build/sam_e70_xult_freertos/production/_ext/810785262/udp.o

.rodata%496     0x000000000041a9a8       0x44
 .rodata        0x000000000041a9a8       0x44 build/sam_e70_xult_freertos/production/_ext/810785262/udp.o

.text.SYS_INT_SourceDisable%497
                0x000000000041a9ec       0x44
 .text.SYS_INT_SourceDisable
                0x000000000041a9ec       0x44 build/sam_e70_xult_freertos/production/_ext/1775855163/sys_int.o
                0x000000000041a9ec                SYS_INT_SourceDisable

.text._APP_Commands_requestWeather%498
                0x000000000041aa30       0x44
 .text._APP_Commands_requestWeather
                0x000000000041aa30       0x44 build/sam_e70_xult_freertos/production/_ext/1360937237/app_commands.o

.text.APP_Commands_Init%499
                0x000000000041aa74       0x44
 .text.APP_Commands_Init
                0x000000000041aa74       0x44 build/sam_e70_xult_freertos/production/_ext/1360937237/app_commands.o
                0x000000000041aa74                APP_Commands_Init

.rodata%500     0x000000000041aab8       0x44
 .rodata        0x000000000041aab8       0x44 /Applications/microchip/xc32/v2.15/bin/bin/../../lib/gcc/pic32c/6.2.1/../../../../pic32c/lib/v7e-m/fpv5/hard/libc.a(lib_a-svfprintf.o)

.text._DRV_GMAC_LinkStateNegComplete%501
                0x000000000041aafc       0x42
 .text._DRV_GMAC_LinkStateNegComplete
                0x000000000041aafc       0x42 build/sam_e70_xult_freertos/production/_ext/1619526243/drv_gmac.o

.text._TcpSocketSetSourceInterface%502
                0x000000000041ab3e       0x42
 .text._TcpSocketSetSourceInterface
                0x000000000041ab3e       0x42 build/sam_e70_xult_freertos/production/_ext/810785262/tcp.o

.text._DHCPOptionClientId%503
                0x000000000041ab80       0x42
 .text._DHCPOptionClientId
                0x000000000041ab80       0x42 build/sam_e70_xult_freertos/production/_ext/810785262/dhcp.o

.text._DRV_ETHPHY_NegRestartPhaseRead%504
                0x000000000041abc2       0x40
 .text._DRV_ETHPHY_NegRestartPhaseRead
                0x000000000041abc2       0x40 build/sam_e70_xult_freertos/production/_ext/1607428259/drv_ethphy.o

.text._DRV_ETHPHY_SetupPhaseNegotiate_SubPhase5%505
                0x000000000041ac02       0x40
 .text._DRV_ETHPHY_SetupPhaseNegotiate_SubPhase5
                0x000000000041ac02       0x40 build/sam_e70_xult_freertos/production/_ext/1607428259/drv_ethphy.o

.rodata.DRV_MIIM_OBJECT_BASE_Default%506
                0x000000000041ac44       0x40
 .rodata.DRV_MIIM_OBJECT_BASE_Default
                0x000000000041ac44       0x40 build/sam_e70_xult_freertos/production/_ext/511568427/drv_miim.o
                0x000000000041ac44                DRV_MIIM_OBJECT_BASE_Default

.text.TCPIP_DNS_RemoveEntry%507
                0x000000000041ac84       0x40
 .text.TCPIP_DNS_RemoveEntry
                0x000000000041ac84       0x40 build/sam_e70_xult_freertos/production/_ext/810785262/dns.o
                0x000000000041ac84                TCPIP_DNS_RemoveEntry

.rodata%508     0x000000000041acc4       0x40
 .rodata        0x000000000041acc4       0x40 build/sam_e70_xult_freertos/production/_ext/810785262/dns.o

.text._TCP_PortIsAvailable%509
                0x000000000041ad04       0x40
 .text._TCP_PortIsAvailable
                0x000000000041ad04       0x40 build/sam_e70_xult_freertos/production/_ext/810785262/tcp.o

.text._DHCPSetRunFail%510
                0x000000000041ad44       0x40
 .text._DHCPSetRunFail
                0x000000000041ad44       0x40 build/sam_e70_xult_freertos/production/_ext/810785262/dhcp.o

.text.TCPIP_DHCP_Deinitialize%511
                0x000000000041ad84       0x40
 .text.TCPIP_DHCP_Deinitialize
                0x000000000041ad84       0x40 build/sam_e70_xult_freertos/production/_ext/810785262/dhcp.o
                0x000000000041ad84                TCPIP_DHCP_Deinitialize

.rodata%512     0x000000000041adc4       0x40
 .rodata        0x000000000041adc4       0x40 build/sam_e70_xult_freertos/production/_ext/810785262/tcpip_helpers.o

.text.TCPIP_STACK_NetAliasNameGet%513
                0x000000000041ae04       0x40
 .text.TCPIP_STACK_NetAliasNameGet
                0x000000000041ae04       0x40 build/sam_e70_xult_freertos/production/_ext/810785262/tcpip_manager.o
                0x000000000041ae04                TCPIP_STACK_NetAliasNameGet

.text.TCPIP_STACK_NetHandleGet%514
                0x000000000041ae44       0x40
 .text.TCPIP_STACK_NetHandleGet
                0x000000000041ae44       0x40 build/sam_e70_xult_freertos/production/_ext/810785262/tcpip_manager.o
                0x000000000041ae44                TCPIP_STACK_NetHandleGet

.text._UDPIsAvailablePort%515
                0x000000000041ae84       0x40
 .text._UDPIsAvailablePort
                0x000000000041ae84       0x40 build/sam_e70_xult_freertos/production/_ext/810785262/udp.o

.text.TCPIP_UDP_SocketNetSet%516
                0x000000000041aec4       0x40
 .text.TCPIP_UDP_SocketNetSet
                0x000000000041aec4       0x40 build/sam_e70_xult_freertos/production/_ext/810785262/udp.o
                0x000000000041aec4                TCPIP_UDP_SocketNetSet

.text.TCPIP_UDP_SourceIPAddressSet%517
                0x000000000041af04       0x40
 .text.TCPIP_UDP_SourceIPAddressSet
                0x000000000041af04       0x40 build/sam_e70_xult_freertos/production/_ext/810785262/udp.o
                0x000000000041af04                TCPIP_UDP_SourceIPAddressSet

.text.SYS_TIME_TimerAdd%518
                0x000000000041af44       0x40
 .text.SYS_TIME_TimerAdd
                0x000000000041af44       0x40 build/sam_e70_xult_freertos/production/_ext/912870411/sys_time.o

.rodata%519     0x000000000041af84       0x40
 .rodata        0x000000000041af84       0x40 build/sam_e70_xult_freertos/production/_ext/1552905064/tasks.o

.text.rand%520  0x000000000041afc4       0x40
 .text.rand     0x000000000041afc4       0x40 /Applications/microchip/xc32/v2.15/bin/bin/../../lib/gcc/pic32c/6.2.1/../../../../pic32c/lib/v7e-m/fpv5/hard/libc.a(lib_a-rand.o)
                0x000000000041afc4                rand

.text.__hi0bits%521
                0x000000000041b004       0x40
 .text.__hi0bits
                0x000000000041b004       0x40 /Applications/microchip/xc32/v2.15/bin/bin/../../lib/gcc/pic32c/6.2.1/../../../../pic32c/lib/v7e-m/fpv5/hard/libc.a(lib_a-mprec.o)
                0x000000000041b004                __hi0bits

.text._DNSDiscardName%522
                0x000000000041b044       0x3e
 .text._DNSDiscardName
                0x000000000041b044       0x3e build/sam_e70_xult_freertos/production/_ext/810785262/dns.o

.text._TCPSetHalfFlushFlag%523
                0x000000000041b082       0x3e
 .text._TCPSetHalfFlushFlag
                0x000000000041b082       0x3e build/sam_e70_xult_freertos/production/_ext/810785262/tcp.o

.text._DHCPOptionProcessSubNet%524
                0x000000000041b0c0       0x3e
 .text._DHCPOptionProcessSubNet
                0x000000000041b0c0       0x3e build/sam_e70_xult_freertos/production/_ext/810785262/dhcp.o

.text.TCPIP_UDP_TxOffsetSet%525
                0x000000000041b0fe       0x3e
 .text.TCPIP_UDP_TxOffsetSet
                0x000000000041b0fe       0x3e build/sam_e70_xult_freertos/production/_ext/810785262/udp.o
                0x000000000041b0fe                TCPIP_UDP_TxOffsetSet

.text._DRV_ETHPHY_SetupPhaseNegotiate_SubPhase2%526
                0x000000000041b13c       0x3c
 .text._DRV_ETHPHY_SetupPhaseNegotiate_SubPhase2
                0x000000000041b13c       0x3c build/sam_e70_xult_freertos/production/_ext/1607428259/drv_ethphy.o

.text._DRV_ETHPHY_NegCompletePhaseRead1%527
                0x000000000041b178       0x3c
 .text._DRV_ETHPHY_NegCompletePhaseRead1
                0x000000000041b178       0x3c build/sam_e70_xult_freertos/production/_ext/1607428259/drv_ethphy.o

.text.DRV_GMAC_Open%528
                0x000000000041b1b4       0x3c
 .text.DRV_GMAC_Open
                0x000000000041b1b4       0x3c build/sam_e70_xult_freertos/production/_ext/1619526243/drv_gmac.o
                0x000000000041b1b4                DRV_GMAC_Open

.text.DRV_GMAC_Process%529
                0x000000000041b1f0       0x3c
 .text.DRV_GMAC_Process
                0x000000000041b1f0       0x3c build/sam_e70_xult_freertos/production/_ext/1619526243/drv_gmac.o
                0x000000000041b1f0                DRV_GMAC_Process

.text._DRV_MIIM_GetOpDcpt%530
                0x000000000041b22c       0x3c
 .text._DRV_MIIM_GetOpDcpt
                0x000000000041b22c       0x3c build/sam_e70_xult_freertos/production/_ext/511568427/drv_miim.o

.text._TcpSocketKill%531
                0x000000000041b268       0x3c
 .text._TcpSocketKill
                0x000000000041b268       0x3c build/sam_e70_xult_freertos/production/_ext/810785262/tcp.o

.text._TCP_EphemeralPortAllocate%532
                0x000000000041b2a4       0x3c
 .text._TCP_EphemeralPortAllocate
                0x000000000041b2a4       0x3c build/sam_e70_xult_freertos/production/_ext/810785262/tcp.o

.text.TCPIP_TCP_Close%533
                0x000000000041b2e0       0x3c
 .text.TCPIP_TCP_Close
                0x000000000041b2e0       0x3c build/sam_e70_xult_freertos/production/_ext/810785262/tcp.o
                0x000000000041b2e0                TCPIP_TCP_Close

.text._DHCPOptionProcessRouter%534
                0x000000000041b31c       0x3c
 .text._DHCPOptionProcessRouter
                0x000000000041b31c       0x3c build/sam_e70_xult_freertos/production/_ext/810785262/dhcp.o

.text._DHCPNotifyClients%535
                0x000000000041b358       0x3c
 .text._DHCPNotifyClients
                0x000000000041b358       0x3c build/sam_e70_xult_freertos/production/_ext/810785262/dhcp.o

.text._TCPIPStackModuleSignalGet%536
                0x000000000041b394       0x3c
 .text._TCPIPStackModuleSignalGet
                0x000000000041b394       0x3c build/sam_e70_xult_freertos/production/_ext/810785262/tcpip_manager.o
                0x000000000041b394                _TCPIPStackModuleSignalGet

.text._TCPIP_PKT_PacketFree%537
                0x000000000041b3d0       0x3c
 .text._TCPIP_PKT_PacketFree
                0x000000000041b3d0       0x3c build/sam_e70_xult_freertos/production/_ext/810785262/tcpip_packet.o
                0x000000000041b3d0                _TCPIP_PKT_PacketFree

.text._UDPAllocateEphemeralPort%538
                0x000000000041b40c       0x3c
 .text._UDPAllocateEphemeralPort
                0x000000000041b40c       0x3c build/sam_e70_xult_freertos/production/_ext/810785262/udp.o

.text.TCPIP_UDP_OpenClientSkt%539
                0x000000000041b448       0x3c
 .text.TCPIP_UDP_OpenClientSkt
                0x000000000041b448       0x3c build/sam_e70_xult_freertos/production/_ext/810785262/udp.o
                0x000000000041b448                TCPIP_UDP_OpenClientSkt

.text.USART1_Initialize%540
                0x000000000041b484       0x3c
 .text.USART1_Initialize
                0x000000000041b484       0x3c build/sam_e70_xult_freertos/production/_ext/901008055/plib_usart1.o
                0x000000000041b484                USART1_Initialize

.text.USART1_Read%541
                0x000000000041b4c0       0x3c
 .text.USART1_Read
                0x000000000041b4c0       0x3c build/sam_e70_xult_freertos/production/_ext/901008055/plib_usart1.o
                0x000000000041b4c0                USART1_Read

.text.CommandQuit%542
                0x000000000041b4fc       0x3c
 .text.CommandQuit
                0x000000000041b4fc       0x3c build/sam_e70_xult_freertos/production/_ext/762686499/sys_command.o

.text.SYS_TIME_GetTimerObject%543
                0x000000000041b538       0x3c
 .text.SYS_TIME_GetTimerObject
                0x000000000041b538       0x3c build/sam_e70_xult_freertos/production/_ext/912870411/sys_time.o

.text.SYS_TIME_ResourceUnlock%544
                0x000000000041b574       0x3c
 .text.SYS_TIME_ResourceUnlock
                0x000000000041b574       0x3c build/sam_e70_xult_freertos/production/_ext/912870411/sys_time.o

.text.SYS_TIME_Counter64Get%545
                0x000000000041b5b0       0x3c
 .text.SYS_TIME_Counter64Get
                0x000000000041b5b0       0x3c build/sam_e70_xult_freertos/production/_ext/912870411/sys_time.o
                0x000000000041b5b0                SYS_TIME_Counter64Get

.text.SYS_TIME_MSToCount%546
                0x000000000041b5f0       0x3c
 .text.SYS_TIME_MSToCount
                0x000000000041b5f0       0x3c build/sam_e70_xult_freertos/production/_ext/912870411/sys_time.o
                0x000000000041b5f0                SYS_TIME_MSToCount

.text.SYS_TIME_TimerDestroy%547
                0x000000000041b62c       0x3c
 .text.SYS_TIME_TimerDestroy
                0x000000000041b62c       0x3c build/sam_e70_xult_freertos/production/_ext/912870411/sys_time.o
                0x000000000041b62c                SYS_TIME_TimerDestroy

.text.APP_Initialize%548
                0x000000000041b668       0x3c
 .text.APP_Initialize
                0x000000000041b668       0x3c build/sam_e70_xult_freertos/production/_ext/1360937237/app.o
                0x000000000041b668                APP_Initialize

.text.DRV_MIIM_RegisterCallback%549
                0x000000000041b6a4       0x3a
 .text.DRV_MIIM_RegisterCallback
                0x000000000041b6a4       0x3a build/sam_e70_xult_freertos/production/_ext/511568427/drv_miim.o
                0x000000000041b6a4                DRV_MIIM_RegisterCallback

.text.DRV_MIIM_Deinitialize%550
                0x000000000041b6de       0x3a
 .text.DRV_MIIM_Deinitialize
                0x000000000041b6de       0x3a build/sam_e70_xult_freertos/production/_ext/511568427/drv_miim.o
                0x000000000041b6de                DRV_MIIM_Deinitialize

.text._DHCPOptionProcessMsgType%551
                0x000000000041b718       0x3a
 .text._DHCPOptionProcessMsgType
                0x000000000041b718       0x3a build/sam_e70_xult_freertos/production/_ext/810785262/dhcp.o

.text.DRV_ETHPHY_LinkStatusGet%552
                0x000000000041b752       0x38
 .text.DRV_ETHPHY_LinkStatusGet
                0x000000000041b752       0x38 build/sam_e70_xult_freertos/production/_ext/1607428259/drv_ethphy.o
                0x000000000041b752                DRV_ETHPHY_LinkStatusGet

.text._DRV_PHY_NegCompleteSetOperResult%553
                0x000000000041b78a       0x38
 .text._DRV_PHY_NegCompleteSetOperResult
                0x000000000041b78a       0x38 build/sam_e70_xult_freertos/production/_ext/1607428259/drv_ethphy.o

.text._DRV_ETHPHY_LinkStatPhaseRefresh%554
                0x000000000041b7c2       0x38
 .text._DRV_ETHPHY_LinkStatPhaseRefresh
                0x000000000041b7c2       0x38 build/sam_e70_xult_freertos/production/_ext/1607428259/drv_ethphy.o

.text.DRV_PIC32CGMAC_LibGetMacAddr%555
                0x000000000041b7fc       0x38
 .text.DRV_PIC32CGMAC_LibGetMacAddr
                0x000000000041b7fc       0x38 build/sam_e70_xult_freertos/production/_ext/1619526243/drv_gmac_lib_samE7x_V7x.o
                0x000000000041b7fc                DRV_PIC32CGMAC_LibGetMacAddr

.text.TCPIP_DNS_ClientInfoGet%556
                0x000000000041b834       0x38
 .text.TCPIP_DNS_ClientInfoGet
                0x000000000041b834       0x38 build/sam_e70_xult_freertos/production/_ext/810785262/dns.o
                0x000000000041b834                TCPIP_DNS_ClientInfoGet

.text._TCPSetSourceAddress%557
                0x000000000041b86c       0x38
 .text._TCPSetSourceAddress
                0x000000000041b86c       0x38 build/sam_e70_xult_freertos/production/_ext/810785262/tcp.o

.text.TCPIP_DHCP_IsActive%558
                0x000000000041b8a4       0x38
 .text.TCPIP_DHCP_IsActive
                0x000000000041b8a4       0x38 build/sam_e70_xult_freertos/production/_ext/810785262/dhcp.o
                0x000000000041b8a4                TCPIP_DHCP_IsActive

.text.TCPIP_PKT_PacketMACFormat%559
                0x000000000041b8dc       0x38
 .text.TCPIP_PKT_PacketMACFormat
                0x000000000041b8dc       0x38 build/sam_e70_xult_freertos/production/_ext/810785262/tcpip_packet.o
                0x000000000041b8dc                TCPIP_PKT_PacketMACFormat

.text.SYS_CONSOLE_Read%560
                0x000000000041b914       0x38
 .text.SYS_CONSOLE_Read
                0x000000000041b914       0x38 build/sam_e70_xult_freertos/production/_ext/762686499/sys_console.o
                0x000000000041b914                SYS_CONSOLE_Read

.text.SYS_TIME_ResourceLock%561
                0x000000000041b94c       0x38
 .text.SYS_TIME_ResourceLock
                0x000000000041b94c       0x38 build/sam_e70_xult_freertos/production/_ext/912870411/sys_time.o

.rodata.TCPIP_HOSTS_CONFIGURATION%562
                0x000000000041b984       0x38
 .rodata.TCPIP_HOSTS_CONFIGURATION
                0x000000000041b984       0x38 build/sam_e70_xult_freertos/production/_ext/1552905064/initialization.o
                0x000000000041b984                TCPIP_HOSTS_CONFIGURATION

.text.__mcmp%563
                0x000000000041b9bc       0x38
 .text.__mcmp   0x000000000041b9bc       0x38 /Applications/microchip/xc32/v2.15/bin/bin/../../lib/gcc/pic32c/6.2.1/../../../../pic32c/lib/v7e-m/fpv5/hard/libc.a(lib_a-mprec.o)
                0x000000000041b9bc                __mcmp

.text.DRV_ETHPHY_NegotiationResultGet%564
                0x000000000041b9f4       0x36
 .text.DRV_ETHPHY_NegotiationResultGet
                0x000000000041b9f4       0x36 build/sam_e70_xult_freertos/production/_ext/1607428259/drv_ethphy.o
                0x000000000041b9f4                DRV_ETHPHY_NegotiationResultGet

.text._TCPIPStackSetConfigAddress%565
                0x000000000041ba2a       0x36
 .text._TCPIPStackSetConfigAddress
                0x000000000041ba2a       0x36 build/sam_e70_xult_freertos/production/_ext/810785262/tcpip_manager.o
                0x000000000041ba2a                _TCPIPStackSetConfigAddress

.text.TCPIP_UDP_RxOffsetSet%566
                0x000000000041ba60       0x36
 .text.TCPIP_UDP_RxOffsetSet
                0x000000000041ba60       0x36 build/sam_e70_xult_freertos/production/_ext/810785262/udp.o
                0x000000000041ba60                TCPIP_UDP_RxOffsetSet

.text.Console_UART_PopQueue%567
                0x000000000041ba96       0x36
 .text.Console_UART_PopQueue
                0x000000000041ba96       0x36 build/sam_e70_xult_freertos/production/_ext/762686499/sys_console_uart.o

.text.TCPIP_DNS_OAHASH_KeyCopy%568
                0x000000000041bacc       0x34
 .text.TCPIP_DNS_OAHASH_KeyCopy
                0x000000000041bacc       0x34 build/sam_e70_xult_freertos/production/_ext/810785262/dns.o

.rodata%569     0x000000000041bb00       0x34
 .rodata        0x000000000041bb00       0x34 build/sam_e70_xult_freertos/production/_ext/810785262/dhcp.o

.text._ARPSetEntry%570
                0x000000000041bb34       0x34
 .text._ARPSetEntry
                0x000000000041bb34       0x34 build/sam_e70_xult_freertos/production/_ext/810785262/arp.o

.text.TCPIP_ARP_HashEntryDelete%571
                0x000000000041bb68       0x34
 .text.TCPIP_ARP_HashEntryDelete
                0x000000000041bb68       0x34 build/sam_e70_xult_freertos/production/_ext/810785262/arp.o
                0x000000000041bb68                TCPIP_ARP_HashEntryDelete

.text.TCPIP_ARP_HandlerRegister%572
                0x000000000041bb9c       0x34
 .text.TCPIP_ARP_HandlerRegister
                0x000000000041bb9c       0x34 build/sam_e70_xult_freertos/production/_ext/810785262/arp.o
                0x000000000041bb9c                TCPIP_ARP_HandlerRegister

.text.TCPIP_Helper_StringToPowerMode%573
                0x000000000041bbd0       0x34
 .text.TCPIP_Helper_StringToPowerMode
                0x000000000041bbd0       0x34 build/sam_e70_xult_freertos/production/_ext/810785262/tcpip_helpers.o
                0x000000000041bbd0                TCPIP_Helper_StringToPowerMode

.text._TCPIP_PKT_PacketAcknowledge%574
                0x000000000041bc04       0x34
 .text._TCPIP_PKT_PacketAcknowledge
                0x000000000041bc04       0x34 build/sam_e70_xult_freertos/production/_ext/810785262/tcpip_packet.o
                0x000000000041bc04                _TCPIP_PKT_PacketAcknowledge

.text.vListInsert%575
                0x000000000041bc38       0x34
 .text.vListInsert
                0x000000000041bc38       0x34 build/sam_e70_xult_freertos/production/_ext/404212886/list.o
                0x000000000041bc38                vListInsert

.text.vTaskDelay%576
                0x000000000041bc6c       0x34
 .text.vTaskDelay
                0x000000000041bc6c       0x34 build/sam_e70_xult_freertos/production/_ext/404212886/FreeRTOS_tasks.o
                0x000000000041bc6c                vTaskDelay

.text._APP_PumpDNS%577
                0x000000000041bca0       0x34
 .text._APP_PumpDNS
                0x000000000041bca0       0x34 build/sam_e70_xult_freertos/production/_ext/1360937237/app.o
                0x000000000041bca0                _APP_PumpDNS

.text.sulp%578  0x000000000041bcd4       0x34
 .text.sulp     0x000000000041bcd4       0x34 /Applications/microchip/xc32/v2.15/bin/bin/../../lib/gcc/pic32c/6.2.1/../../../../pic32c/lib/v7e-m/fpv5/hard/libc.a(lib_a-strtod.o)

.text.__libc_fini_array%579
                0x000000000041bd08       0x34
 .text.__libc_fini_array
                0x000000000041bd08       0x34 /Applications/microchip/xc32/v2.15/bin/bin/../../lib/gcc/pic32c/6.2.1/../../../../pic32c/lib/v7e-m/fpv5/hard/libc.a(lib_a-fini.o)
                0x000000000041bd08                __libc_fini_array

.text._MacPacketAck%580
                0x000000000041bd3c       0x32
 .text._MacPacketAck
                0x000000000041bd3c       0x32 build/sam_e70_xult_freertos/production/_ext/1619526243/drv_gmac_lib_samE7x_V7x.o

.text._DNS_NetIsValid%581
                0x000000000041bd6e       0x32
 .text._DNS_NetIsValid
                0x000000000041bd6e       0x32 build/sam_e70_xult_freertos/production/_ext/810785262/dns.o

.text.TCPIP_STACK_NetBiosNameSet%582
                0x000000000041bda0       0x32
 .text.TCPIP_STACK_NetBiosNameSet
                0x000000000041bda0       0x32 build/sam_e70_xult_freertos/production/_ext/810785262/tcpip_manager.o
                0x000000000041bda0                TCPIP_STACK_NetBiosNameSet

.text.DRV_GMAC_ParametersGet%583
                0x000000000041bdd2       0x30
 .text.DRV_GMAC_ParametersGet
                0x000000000041bdd2       0x30 build/sam_e70_xult_freertos/production/_ext/1619526243/drv_gmac.o
                0x000000000041bdd2                DRV_GMAC_ParametersGet

.text.DRV_PIC32CGMAC_LibSetMacAddr%584
                0x000000000041be04       0x30
 .text.DRV_PIC32CGMAC_LibSetMacAddr
                0x000000000041be04       0x30 build/sam_e70_xult_freertos/production/_ext/1619526243/drv_gmac_lib_samE7x_V7x.o
                0x000000000041be04                DRV_PIC32CGMAC_LibSetMacAddr

.text._TCPSocketTxFreeSize%585
                0x000000000041be34       0x30
 .text._TCPSocketTxFreeSize
                0x000000000041be34       0x30 build/sam_e70_xult_freertos/production/_ext/810785262/tcp.o

.text.TCPIP_IPV4_CheckPktTx%586
                0x000000000041be64       0x30
 .text.TCPIP_IPV4_CheckPktTx
                0x000000000041be64       0x30 build/sam_e70_xult_freertos/production/_ext/810785262/ipv4.o

.text.IPv4RegisterFilter%587
                0x000000000041be94       0x30
 .text.IPv4RegisterFilter
                0x000000000041be94       0x30 build/sam_e70_xult_freertos/production/_ext/810785262/ipv4.o
                0x000000000041be94                IPv4RegisterFilter

.text.fnv_32_hash%588
                0x000000000041bec4       0x30
 .text.fnv_32_hash
                0x000000000041bec4       0x30 build/sam_e70_xult_freertos/production/_ext/810785262/hash_fnv.o
                0x000000000041bec4                fnv_32_hash

.text.TCPIP_OAHASH_EntriesRemoveAll%589
                0x000000000041bef4       0x30
 .text.TCPIP_OAHASH_EntriesRemoveAll
                0x000000000041bef4       0x30 build/sam_e70_xult_freertos/production/_ext/810785262/oahash.o
                0x000000000041bef4                TCPIP_OAHASH_EntriesRemoveAll

.text.TCPIP_Helper_ProtectedSingleListDeinitialize%590
                0x000000000041bf24       0x30
 .text.TCPIP_Helper_ProtectedSingleListDeinitialize
                0x000000000041bf24       0x30 build/sam_e70_xult_freertos/production/_ext/810785262/tcpip_helpers.o
                0x000000000041bf24                TCPIP_Helper_ProtectedSingleListDeinitialize

.text.TCPIP_Helper_ProtectedSingleListNodeRemove%591
                0x000000000041bf54       0x30
 .text.TCPIP_Helper_ProtectedSingleListNodeRemove
                0x000000000041bf54       0x30 build/sam_e70_xult_freertos/production/_ext/810785262/tcpip_helpers.o
                0x000000000041bf54                TCPIP_Helper_ProtectedSingleListNodeRemove

.text.TCPIP_PKT_Initialize%592
                0x000000000041bf84       0x30
 .text.TCPIP_PKT_Initialize
                0x000000000041bf84       0x30 build/sam_e70_xult_freertos/production/_ext/810785262/tcpip_packet.o
                0x000000000041bf84                TCPIP_PKT_Initialize

.text.TCPIP_UDP_Close%593
                0x000000000041bfb4       0x30
 .text.TCPIP_UDP_Close
                0x000000000041bfb4       0x30 build/sam_e70_xult_freertos/production/_ext/810785262/udp.o
                0x000000000041bfb4                TCPIP_UDP_Close

.text.USART1_ErrorGet%594
                0x000000000041bfe4       0x30
 .text.USART1_ErrorGet
                0x000000000041bfe4       0x30 build/sam_e70_xult_freertos/production/_ext/901008055/plib_usart1.o
                0x000000000041bfe4                USART1_ErrorGet

.text.SYS_TIME_UpdateTimerList%595
                0x000000000041c014       0x30
 .text.SYS_TIME_UpdateTimerList
                0x000000000041c014       0x30 build/sam_e70_xult_freertos/production/_ext/912870411/sys_time.o

.text.xPortSysTickHandler%596
                0x000000000041c044       0x30
 .text.xPortSysTickHandler
                0x000000000041c044       0x30 build/sam_e70_xult_freertos/production/_ext/977623654/port.o
                0x000000000041c044                xPortSysTickHandler

.text.xQueueGenericCreate%597
                0x000000000041c074       0x30
 .text.xQueueGenericCreate
                0x000000000041c074       0x30 build/sam_e70_xult_freertos/production/_ext/404212886/queue.o
                0x000000000041c074                xQueueGenericCreate

.text%598       0x000000000041c0a4       0x30
 .text          0x000000000041c0a4       0x30 /Applications/microchip/xc32/v2.15/bin/bin/../../lib/gcc/pic32c/6.2.1/v7e-m/fpv5/hard/libgcc.a(_aeabi_uldivmod.o)
                0x000000000041c0a4                __aeabi_uldivmod

.text.__match%599
                0x000000000041c0d4       0x30
 .text.__match  0x000000000041c0d4       0x30 /Applications/microchip/xc32/v2.15/bin/bin/../../lib/gcc/pic32c/6.2.1/../../../../pic32c/lib/v7e-m/fpv5/hard/libc.a(lib_a-gdtoa-hexnan.o)
                0x000000000041c0d4                __match

.text.DRV_ETHPHY_Reset%600
                0x000000000041c104       0x2e
 .text.DRV_ETHPHY_Reset
                0x000000000041c104       0x2e build/sam_e70_xult_freertos/production/_ext/1607428259/drv_ethphy.o
                0x000000000041c104                DRV_ETHPHY_Reset

.text.DRV_ETHPHY_NegotiationIsComplete%601
                0x000000000041c132       0x2e
 .text.DRV_ETHPHY_NegotiationIsComplete
                0x000000000041c132       0x2e build/sam_e70_xult_freertos/production/_ext/1607428259/drv_ethphy.o
                0x000000000041c132                DRV_ETHPHY_NegotiationIsComplete

.text.DRV_MIIM_DeregisterCallback%602
                0x000000000041c160       0x2e
 .text.DRV_MIIM_DeregisterCallback
                0x000000000041c160       0x2e build/sam_e70_xult_freertos/production/_ext/511568427/drv_miim.o
                0x000000000041c160                DRV_MIIM_DeregisterCallback

.text._DHCPOptionProcessLease%603
                0x000000000041c18e       0x2e
 .text._DHCPOptionProcessLease
                0x000000000041c18e       0x2e build/sam_e70_xult_freertos/production/_ext/810785262/dhcp.o

.text._DHCPOptionProcessRenewT%604
                0x000000000041c1bc       0x2e
 .text._DHCPOptionProcessRenewT
                0x000000000041c1bc       0x2e build/sam_e70_xult_freertos/production/_ext/810785262/dhcp.o

.text._DHCPOptionProcessRebindT%605
                0x000000000041c1ea       0x2e
 .text._DHCPOptionProcessRebindT
                0x000000000041c1ea       0x2e build/sam_e70_xult_freertos/production/_ext/810785262/dhcp.o

.text._ARPRemoveEntry%606
                0x000000000041c218       0x2e
 .text._ARPRemoveEntry
                0x000000000041c218       0x2e build/sam_e70_xult_freertos/production/_ext/810785262/arp.o

.text.TCPIP_STACK_DNSServiceCanStart%607
                0x000000000041c246       0x2e
 .text.TCPIP_STACK_DNSServiceCanStart
                0x000000000041c246       0x2e build/sam_e70_xult_freertos/production/_ext/810785262/tcpip_manager.o
                0x000000000041c246                TCPIP_STACK_DNSServiceCanStart

.text._TxSktGetLockedV4Pkt%608
                0x000000000041c274       0x2e
 .text._TxSktGetLockedV4Pkt
                0x000000000041c274       0x2e build/sam_e70_xult_freertos/production/_ext/810785262/udp.o

.text._DRV_ETHPHY_ClientOpSetup%609
                0x000000000041c2a4       0x2c
 .text._DRV_ETHPHY_ClientOpSetup
                0x000000000041c2a4       0x2c build/sam_e70_xult_freertos/production/_ext/1607428259/drv_ethphy.o

.text.DRV_ETHPHY_RestartNegotiation%610
                0x000000000041c2d0       0x2c
 .text.DRV_ETHPHY_RestartNegotiation
                0x000000000041c2d0       0x2c build/sam_e70_xult_freertos/production/_ext/1607428259/drv_ethphy.o
                0x000000000041c2d0                DRV_ETHPHY_RestartNegotiation

.text._DRV_ETHPHY_ClientOpReset%611
                0x000000000041c2fc       0x2c
 .text._DRV_ETHPHY_ClientOpReset
                0x000000000041c2fc       0x2c build/sam_e70_xult_freertos/production/_ext/1607428259/drv_ethphy.o

.text._DRV_ETHPHY_ClientOpLinkStat%612
                0x000000000041c328       0x2c
 .text._DRV_ETHPHY_ClientOpLinkStat
                0x000000000041c328       0x2c build/sam_e70_xult_freertos/production/_ext/1607428259/drv_ethphy.o

.text._DRV_ETHPHY_ClientOpNegResult%613
                0x000000000041c354       0x2c
 .text._DRV_ETHPHY_ClientOpNegResult
                0x000000000041c354       0x2c build/sam_e70_xult_freertos/production/_ext/1607428259/drv_ethphy.o

.text._DRV_ETHPHY_ClientOpNegComplete%614
                0x000000000041c380       0x2c
 .text._DRV_ETHPHY_ClientOpNegComplete
                0x000000000041c380       0x2c build/sam_e70_xult_freertos/production/_ext/1607428259/drv_ethphy.o

.text._DRV_ETHPHY_ClientOpNegRestart%615
                0x000000000041c3ac       0x2c
 .text._DRV_ETHPHY_ClientOpNegRestart
                0x000000000041c3ac       0x2c build/sam_e70_xult_freertos/production/_ext/1607428259/drv_ethphy.o

.text._DRV_ETHPHY_SetupPhaseNegotiate%616
                0x000000000041c3d8       0x2c
 .text._DRV_ETHPHY_SetupPhaseNegotiate
                0x000000000041c3d8       0x2c build/sam_e70_xult_freertos/production/_ext/1607428259/drv_ethphy.o

.text._DRV_GMAC_LinkStateDown%617
                0x000000000041c404       0x2c
 .text._DRV_GMAC_LinkStateDown
                0x000000000041c404       0x2c build/sam_e70_xult_freertos/production/_ext/1619526243/drv_gmac.o

.text._DNSClientCleanup%618
                0x000000000041c430       0x2c
 .text._DNSClientCleanup
                0x000000000041c430       0x2c build/sam_e70_xult_freertos/production/_ext/810785262/dns.o

.text.TCPIP_Helper_ProtectedSingleListHeadRemove%619
                0x000000000041c45c       0x2c
 .text.TCPIP_Helper_ProtectedSingleListHeadRemove
                0x000000000041c45c       0x2c build/sam_e70_xult_freertos/production/_ext/810785262/tcpip_helpers.o
                0x000000000041c45c                TCPIP_Helper_ProtectedSingleListHeadRemove

.text.TCPIP_STACK_InitializeDataGet%620
                0x000000000041c488       0x2c
 .text.TCPIP_STACK_InitializeDataGet
                0x000000000041c488       0x2c build/sam_e70_xult_freertos/production/_ext/810785262/tcpip_manager.o
                0x000000000041c488                TCPIP_STACK_InitializeDataGet

.text.TCPIP_STACK_AddressServiceDefaultSet%621
                0x000000000041c4b4       0x2c
 .text.TCPIP_STACK_AddressServiceDefaultSet
                0x000000000041c4b4       0x2c build/sam_e70_xult_freertos/production/_ext/810785262/tcpip_manager.o
                0x000000000041c4b4                TCPIP_STACK_AddressServiceDefaultSet

.text.TCPIP_STACK_IsBcastAddress%622
                0x000000000041c4e0       0x2c
 .text.TCPIP_STACK_IsBcastAddress
                0x000000000041c4e0       0x2c build/sam_e70_xult_freertos/production/_ext/810785262/tcpip_manager.o
                0x000000000041c4e0                TCPIP_STACK_IsBcastAddress

.text._TCPIPStackModuleRxExtract%623
                0x000000000041c50c       0x2c
 .text._TCPIPStackModuleRxExtract
                0x000000000041c50c       0x2c build/sam_e70_xult_freertos/production/_ext/810785262/tcpip_manager.o
                0x000000000041c50c                _TCPIPStackModuleRxExtract

.text.SYS_CONSOLE_Write%624
                0x000000000041c538       0x2c
 .text.SYS_CONSOLE_Write
                0x000000000041c538       0x2c build/sam_e70_xult_freertos/production/_ext/762686499/sys_console.o
                0x000000000041c538                SYS_CONSOLE_Write

.text.TCPIP_STACK_Init%625
                0x000000000041c564       0x2c
 .text.TCPIP_STACK_Init
                0x000000000041c564       0x2c build/sam_e70_xult_freertos/production/_ext/1552905064/initialization.o
                0x000000000041c564                TCPIP_STACK_Init

.text.pxPortInitialiseStack%626
                0x000000000041c590       0x2c
 .text.pxPortInitialiseStack
                0x000000000041c590       0x2c build/sam_e70_xult_freertos/production/_ext/977623654/port.o
                0x000000000041c590                pxPortInitialiseStack

.text.prvResetNextTaskUnblockTime%627
                0x000000000041c5bc       0x2c
 .text.prvResetNextTaskUnblockTime
                0x000000000041c5bc       0x2c build/sam_e70_xult_freertos/production/_ext/404212886/FreeRTOS_tasks.o

.text.__ascii_mbtowc%628
                0x000000000041c5e8       0x2c
 .text.__ascii_mbtowc
                0x000000000041c5e8       0x2c /Applications/microchip/xc32/v2.15/bin/bin/../../lib/gcc/pic32c/6.2.1/../../../../pic32c/lib/v7e-m/fpv5/hard/libc.a(lib_a-mbtowc_r.o)
                0x000000000041c5e8                __ascii_mbtowc

.text.strtol%629
                0x000000000041c614       0x2c
 .text.strtol   0x000000000041c614       0x2c /Applications/microchip/xc32/v2.15/bin/bin/../../lib/gcc/pic32c/6.2.1/../../../../pic32c/lib/v7e-m/fpv5/hard/libc.a(lib_a-strtol.o)
                0x000000000041c614                strtol

.text._sbrk%630
                0x000000000041c640       0x2c
 .text._sbrk    0x000000000041c640       0x2c /Applications/microchip/xc32/v2.15/bin/bin/../../lib/gcc/pic32c/6.2.1/../../../../pic32c/lib/v7e-m/fpv5/hard/libpic32c.a(sbrk.o)
                0x000000000041c640                _sbrk

.text._DRV_GMAC_LinkStateStartLink%631
                0x000000000041c66c       0x2a
 .text._DRV_GMAC_LinkStateStartLink
                0x000000000041c66c       0x2a build/sam_e70_xult_freertos/production/_ext/1619526243/drv_gmac.o

.text._DRV_MIIM_GetObjectAndLock%632
                0x000000000041c696       0x2a
 .text._DRV_MIIM_GetObjectAndLock
                0x000000000041c696       0x2a build/sam_e70_xult_freertos/production/_ext/511568427/drv_miim.o

.text.TCPIP_Helper_ProtectedSingleListTailAdd%633
                0x000000000041c6c0       0x2a
 .text.TCPIP_Helper_ProtectedSingleListTailAdd
                0x000000000041c6c0       0x2a build/sam_e70_xult_freertos/production/_ext/810785262/tcpip_helpers.o
                0x000000000041c6c0                TCPIP_Helper_ProtectedSingleListTailAdd

.text.TCPIP_Helper_ProtectedSingleListRemoveAll%634
                0x000000000041c6ea       0x2a
 .text.TCPIP_Helper_ProtectedSingleListRemoveAll
                0x000000000041c6ea       0x2a build/sam_e70_xult_freertos/production/_ext/810785262/tcpip_helpers.o
                0x000000000041c6ea                TCPIP_Helper_ProtectedSingleListRemoveAll

.text._DRV_ETHPHY_ClientOpSmiRead%635
                0x000000000041c714       0x28
 .text._DRV_ETHPHY_ClientOpSmiRead
                0x000000000041c714       0x28 build/sam_e70_xult_freertos/production/_ext/1607428259/drv_ethphy.o

.rodata._DRV_PHY_ClientOpTbl%636
                0x000000000041c73c       0x28
 .rodata._DRV_PHY_ClientOpTbl
                0x000000000041c73c       0x28 build/sam_e70_xult_freertos/production/_ext/1607428259/drv_ethphy.o

.text.DRV_GMAC_ConfigGet%637
                0x000000000041c764       0x28
 .text.DRV_GMAC_ConfigGet
                0x000000000041c764       0x28 build/sam_e70_xult_freertos/production/_ext/1619526243/drv_gmac.o
                0x000000000041c764                DRV_GMAC_ConfigGet

.text.DRV_GMAC_LinkCheck%638
                0x000000000041c78c       0x28
 .text.DRV_GMAC_LinkCheck
                0x000000000041c78c       0x28 build/sam_e70_xult_freertos/production/_ext/1619526243/drv_gmac.o
                0x000000000041c78c                DRV_GMAC_LinkCheck

.text.DRV_MIIM_Status%639
                0x000000000041c7b4       0x28
 .text.DRV_MIIM_Status
                0x000000000041c7b4       0x28 build/sam_e70_xult_freertos/production/_ext/511568427/drv_miim.o
                0x000000000041c7b4                DRV_MIIM_Status

.text._DNSGetData%640
                0x000000000041c7dc       0x28
 .text._DNSGetData
                0x000000000041c7dc       0x28 build/sam_e70_xult_freertos/production/_ext/810785262/dns.o

.text.TCPIP_ICMP_Deinitialize%641
                0x000000000041c804       0x28
 .text.TCPIP_ICMP_Deinitialize
                0x000000000041c804       0x28 build/sam_e70_xult_freertos/production/_ext/810785262/icmp.o
                0x000000000041c804                TCPIP_ICMP_Deinitialize

.text._TcpSocketChk%642
                0x000000000041c82c       0x28
 .text._TcpSocketChk
                0x000000000041c82c       0x28 build/sam_e70_xult_freertos/production/_ext/810785262/tcp.o

.text._TcpFlush%643
                0x000000000041c854       0x28
 .text._TcpFlush
                0x000000000041c854       0x28 build/sam_e70_xult_freertos/production/_ext/810785262/tcp.o

.text._DHCPOptionWriteParamRequest%644
                0x000000000041c87c       0x28
 .text._DHCPOptionWriteParamRequest
                0x000000000041c87c       0x28 build/sam_e70_xult_freertos/production/_ext/810785262/dhcp.o

.text._TCPIP_STACK_TickHandler%645
                0x000000000041c8a4       0x28
 .text._TCPIP_STACK_TickHandler
                0x000000000041c8a4       0x28 build/sam_e70_xult_freertos/production/_ext/810785262/tcpip_manager.o

.text._TCPIPSignalEntrySetNotify%646
                0x000000000041c8cc       0x28
 .text._TCPIPSignalEntrySetNotify
                0x000000000041c8cc       0x28 build/sam_e70_xult_freertos/production/_ext/810785262/tcpip_manager.o

.text.TCPIP_STACK_NetMACStatisticsGet%647
                0x000000000041c8f4       0x28
 .text.TCPIP_STACK_NetMACStatisticsGet
                0x000000000041c8f4       0x28 build/sam_e70_xult_freertos/production/_ext/810785262/tcpip_manager.o
                0x000000000041c8f4                TCPIP_STACK_NetMACStatisticsGet

.text.TCPIP_STACK_NetMACRegisterStatisticsGet%648
                0x000000000041c91c       0x28
 .text.TCPIP_STACK_NetMACRegisterStatisticsGet
                0x000000000041c91c       0x28 build/sam_e70_xult_freertos/production/_ext/810785262/tcpip_manager.o
                0x000000000041c91c                TCPIP_STACK_NetMACRegisterStatisticsGet

.text.TCPIP_STACK_NetIsBcastAddress%649
                0x000000000041c944       0x28
 .text.TCPIP_STACK_NetIsBcastAddress
                0x000000000041c944       0x28 build/sam_e70_xult_freertos/production/_ext/810785262/tcpip_manager.o
                0x000000000041c944                TCPIP_STACK_NetIsBcastAddress

.text._TCPIPStackSignalHandlerSetParams%650
                0x000000000041c96c       0x28
 .text._TCPIPStackSignalHandlerSetParams
                0x000000000041c96c       0x28 build/sam_e70_xult_freertos/production/_ext/810785262/tcpip_manager.o
                0x000000000041c96c                _TCPIPStackSignalHandlerSetParams

.text._TCPIP_PKT_SocketAlloc%651
                0x000000000041c994       0x28
 .text._TCPIP_PKT_SocketAlloc
                0x000000000041c994       0x28 build/sam_e70_xult_freertos/production/_ext/810785262/tcpip_packet.o
                0x000000000041c994                _TCPIP_PKT_SocketAlloc

.text._UDPSocketDcpt%652
                0x000000000041c9bc       0x28
 .text._UDPSocketDcpt
                0x000000000041c9bc       0x28 build/sam_e70_xult_freertos/production/_ext/810785262/udp.o

.text._UDPFreeTxResources%653
                0x000000000041c9e4       0x28
 .text._UDPFreeTxResources
                0x000000000041c9e4       0x28 build/sam_e70_xult_freertos/production/_ext/810785262/udp.o

.text._UDPUpdatePacketLock%654
                0x000000000041ca0c       0x28
 .text._UDPUpdatePacketLock
                0x000000000041ca0c       0x28 build/sam_e70_xult_freertos/production/_ext/810785262/udp.o

.text.TCPIP_UDP_GetIsReady%655
                0x000000000041ca34       0x28
 .text.TCPIP_UDP_GetIsReady
                0x000000000041ca34       0x28 build/sam_e70_xult_freertos/production/_ext/810785262/udp.o
                0x000000000041ca34                TCPIP_UDP_GetIsReady

.text.TCPIP_UDP_SignalHandlerRegister%656
                0x000000000041ca5c       0x28
 .text.TCPIP_UDP_SignalHandlerRegister
                0x000000000041ca5c       0x28 build/sam_e70_xult_freertos/production/_ext/810785262/udp.o
                0x000000000041ca5c                TCPIP_UDP_SignalHandlerRegister

.text.TC0_CH0_TimerInitialize%657
                0x000000000041ca84       0x28
 .text.TC0_CH0_TimerInitialize
                0x000000000041ca84       0x28 build/sam_e70_xult_freertos/production/_ext/1245453995/plib_tc0.o
                0x000000000041ca84                TC0_CH0_TimerInitialize

.text.SYS_CONSOLE_Flush%658
                0x000000000041caac       0x28
 .text.SYS_CONSOLE_Flush
                0x000000000041caac       0x28 build/sam_e70_xult_freertos/production/_ext/762686499/sys_console.o
                0x000000000041caac                SYS_CONSOLE_Flush

.text.Console_UART_Status%659
                0x000000000041cad4       0x28
 .text.Console_UART_Status
                0x000000000041cad4       0x28 build/sam_e70_xult_freertos/production/_ext/762686499/sys_console_uart.o
                0x000000000041cad4                Console_UART_Status

.text.ReadCommandCharacter%660
                0x000000000041cafc       0x28
 .text.ReadCommandCharacter
                0x000000000041cafc       0x28 build/sam_e70_xult_freertos/production/_ext/762686499/sys_command.o

.text.SendCommandCharacter%661
                0x000000000041cb24       0x28
 .text.SendCommandCharacter
                0x000000000041cb24       0x28 build/sam_e70_xult_freertos/production/_ext/762686499/sys_command.o

.rodata.tcpipARPInitData%662
                0x000000000041cb4c       0x28
 .rodata.tcpipARPInitData
                0x000000000041cb4c       0x28 build/sam_e70_xult_freertos/production/_ext/1552905064/initialization.o
                0x000000000041cb4c                tcpipARPInitData

.text.prvPortStartFirstTask%663
                0x000000000041cb74       0x28
 .text.prvPortStartFirstTask
                0x000000000041cb74       0x28 build/sam_e70_xult_freertos/production/_ext/977623654/port.o

.text.vPortSetupTimerInterrupt%664
                0x000000000041cb9c       0x28
 .text.vPortSetupTimerInterrupt
                0x000000000041cb9c       0x28 build/sam_e70_xult_freertos/production/_ext/977623654/port.o
                0x000000000041cb9c                vPortSetupTimerInterrupt

.text.uxListRemove%665
                0x000000000041cbc4       0x28
 .text.uxListRemove
                0x000000000041cbc4       0x28 build/sam_e70_xult_freertos/production/_ext/404212886/list.o
                0x000000000041cbc4                uxListRemove

.rodata.tinytens%666
                0x000000000041cbf0       0x28
 .rodata.tinytens
                0x000000000041cbf0       0x28 /Applications/microchip/xc32/v2.15/bin/bin/../../lib/gcc/pic32c/6.2.1/../../../../pic32c/lib/v7e-m/fpv5/hard/libc.a(lib_a-strtod.o)

.rodata.__mprec_bigtens%667
                0x000000000041cc18       0x28
 .rodata.__mprec_bigtens
                0x000000000041cc18       0x28 /Applications/microchip/xc32/v2.15/bin/bin/../../lib/gcc/pic32c/6.2.1/../../../../pic32c/lib/v7e-m/fpv5/hard/libc.a(lib_a-mprec.o)
                0x000000000041cc18                __mprec_bigtens

.text.TCPIP_STACK_DNSServiceSelect%668
                0x000000000041cc40       0x26
 .text.TCPIP_STACK_DNSServiceSelect
                0x000000000041cc40       0x26 build/sam_e70_xult_freertos/production/_ext/810785262/tcpip_manager.o
                0x000000000041cc40                TCPIP_STACK_DNSServiceSelect

.text.TCPIP_STACK_AddressServiceSelect%669
                0x000000000041cc66       0x26
 .text.TCPIP_STACK_AddressServiceSelect
                0x000000000041cc66       0x26 build/sam_e70_xult_freertos/production/_ext/810785262/tcpip_manager.o
                0x000000000041cc66                TCPIP_STACK_AddressServiceSelect

.text._UDPFreeRxQueue%670
                0x000000000041cc8c       0x26
 .text._UDPFreeRxQueue
                0x000000000041cc8c       0x26 build/sam_e70_xult_freertos/production/_ext/810785262/udp.o

.text.DRV_ETHPHY_HWConfigFlagsGet%671
                0x000000000041ccb4       0x24
 .text.DRV_ETHPHY_HWConfigFlagsGet
                0x000000000041ccb4       0x24 build/sam_e70_xult_freertos/production/_ext/1607428259/drv_ethphy.o
                0x000000000041ccb4                DRV_ETHPHY_HWConfigFlagsGet

.text._DRV_ETHPHY_NegResultPhase_ANLPAD%672
                0x000000000041ccd8       0x24
 .text._DRV_ETHPHY_NegResultPhase_ANLPAD
                0x000000000041ccd8       0x24 build/sam_e70_xult_freertos/production/_ext/1607428259/drv_ethphy.o

.text._DRV_ETHPHY_NegResultPhase_ANEXP%673
                0x000000000041ccfc       0x24
 .text._DRV_ETHPHY_NegResultPhase_ANEXP
                0x000000000041ccfc       0x24 build/sam_e70_xult_freertos/production/_ext/1607428259/drv_ethphy.o

.rodata%674     0x000000000041cd20       0x24
 .rodata        0x000000000041cd20       0x24 build/sam_e70_xult_freertos/production/_ext/1619526243/drv_gmac.o

.text.DRV_PIC32CGMAC_LibClose%675
                0x000000000041cd44       0x24
 .text.DRV_PIC32CGMAC_LibClose
                0x000000000041cd44       0x24 build/sam_e70_xult_freertos/production/_ext/1619526243/drv_gmac_lib_samE7x_V7x.o
                0x000000000041cd44                DRV_PIC32CGMAC_LibClose

.text._DHCPOptionProcessSrvIdent%676
                0x000000000041cd68       0x24
 .text._DHCPOptionProcessSrvIdent
                0x000000000041cd68       0x24 build/sam_e70_xult_freertos/production/_ext/810785262/dhcp.o

.text._DHCPOptionWriteMsgType%677
                0x000000000041cd8c       0x24
 .text._DHCPOptionWriteMsgType
                0x000000000041cd8c       0x24 build/sam_e70_xult_freertos/production/_ext/810785262/dhcp.o

.text.TCPIP_DHCP_Request%678
                0x000000000041cdb0       0x24
 .text.TCPIP_DHCP_Request
                0x000000000041cdb0       0x24 build/sam_e70_xult_freertos/production/_ext/810785262/dhcp.o
                0x000000000041cdb0                TCPIP_DHCP_Request

.text._ARPAllocateTxPacket%679
                0x000000000041cdd4       0x24
 .text._ARPAllocateTxPacket
                0x000000000041cdd4       0x24 build/sam_e70_xult_freertos/production/_ext/810785262/arp.o

.text._ARPRemoveCacheEntries%680
                0x000000000041cdf8       0x24
 .text._ARPRemoveCacheEntries
                0x000000000041cdf8       0x24 build/sam_e70_xult_freertos/production/_ext/810785262/arp.o

.text.TCPIP_ARP_HandlerDeRegister%681
                0x000000000041ce1c       0x24
 .text.TCPIP_ARP_HandlerDeRegister
                0x000000000041ce1c       0x24 build/sam_e70_xult_freertos/production/_ext/810785262/arp.o
                0x000000000041ce1c                TCPIP_ARP_HandlerDeRegister

.text.TCPIP_Commands_Deinitialize%682
                0x000000000041ce40       0x24
 .text.TCPIP_Commands_Deinitialize
                0x000000000041ce40       0x24 build/sam_e70_xult_freertos/production/_ext/810785262/tcpip_commands.o
                0x000000000041ce40                TCPIP_Commands_Deinitialize

.text.Ipv4DeRegisterFilter%683
                0x000000000041ce64       0x24
 .text.Ipv4DeRegisterFilter
                0x000000000041ce64       0x24 build/sam_e70_xult_freertos/production/_ext/810785262/ipv4.o
                0x000000000041ce64                Ipv4DeRegisterFilter

.rodata._tcpip_heap_object%684
                0x000000000041ce88       0x24
 .rodata._tcpip_heap_object
                0x000000000041ce88       0x24 build/sam_e70_xult_freertos/production/_ext/810785262/tcpip_heap_internal.o

.text.TCPIP_OAHASH_Initialize%685
                0x000000000041ceac       0x24
 .text.TCPIP_OAHASH_Initialize
                0x000000000041ceac       0x24 build/sam_e70_xult_freertos/production/_ext/810785262/oahash.o
                0x000000000041ceac                TCPIP_OAHASH_Initialize

.text.TCPIP_STACK_IPAddToNet%686
                0x000000000041ced0       0x24
 .text.TCPIP_STACK_IPAddToNet
                0x000000000041ced0       0x24 build/sam_e70_xult_freertos/production/_ext/810785262/tcpip_manager.o
                0x000000000041ced0                TCPIP_STACK_IPAddToNet

.text._TCPIPStackHandleToNetLinked%687
                0x000000000041cef4       0x24
 .text._TCPIPStackHandleToNetLinked
                0x000000000041cef4       0x24 build/sam_e70_xult_freertos/production/_ext/810785262/tcpip_manager.o
                0x000000000041cef4                _TCPIPStackHandleToNetLinked

.text.TC0_CH0_InterruptHandler%688
                0x000000000041cf18       0x24
 .text.TC0_CH0_InterruptHandler
                0x000000000041cf18       0x24 build/sam_e70_xult_freertos/production/_ext/1245453995/plib_tc0.o
                0x000000000041cf18                TC0_CH0_InterruptHandler

.text.Console_UART_Flush%689
                0x000000000041cf3c       0x24
 .text.Console_UART_Flush
                0x000000000041cf3c       0x24 build/sam_e70_xult_freertos/production/_ext/762686499/sys_console_uart.o
                0x000000000041cf3c                Console_UART_Flush

.text.SYS_CMDIO_GET_HANDLE%690
                0x000000000041cf60       0x24
 .text.SYS_CMDIO_GET_HANDLE
                0x000000000041cf60       0x24 build/sam_e70_xult_freertos/production/_ext/762686499/sys_command.o
                0x000000000041cf60                SYS_CMDIO_GET_HANDLE

.rodata._builtinCmdTbl%691
                0x000000000041cf84       0x24
 .rodata._builtinCmdTbl
                0x000000000041cf84       0x24 build/sam_e70_xult_freertos/production/_ext/762686499/sys_command.o

.text.prvTaskExitError%692
                0x000000000041cfa8       0x24
 .text.prvTaskExitError
                0x000000000041cfa8       0x24 build/sam_e70_xult_freertos/production/_ext/977623654/port.o

.text.vPortSVCHandler%693
                0x000000000041cfd0       0x24
 .text.vPortSVCHandler
                0x000000000041cfd0       0x24 build/sam_e70_xult_freertos/production/_ext/977623654/port.o
                0x000000000041cfd0                vPortSVCHandler

.text.vPortEnterCritical%694
                0x000000000041cff4       0x24
 .text.vPortEnterCritical
                0x000000000041cff4       0x24 build/sam_e70_xult_freertos/production/_ext/977623654/port.o
                0x000000000041cff4                vPortEnterCritical

.text.xQueueCreateMutex%695
                0x000000000041d018       0x24
 .text.xQueueCreateMutex
                0x000000000041d018       0x24 build/sam_e70_xult_freertos/production/_ext/404212886/queue.o
                0x000000000041d018                xQueueCreateMutex

.text._sbrk_r%696
                0x000000000041d03c       0x24
 .text._sbrk_r  0x000000000041d03c       0x24 /Applications/microchip/xc32/v2.15/bin/bin/../../lib/gcc/pic32c/6.2.1/../../../../pic32c/lib/v7e-m/fpv5/hard/libc.a(lib_a-sbrkr.o)
                0x000000000041d03c                _sbrk_r

.text.strtod%697
                0x000000000041d060       0x24
 .text.strtod   0x000000000041d060       0x24 /Applications/microchip/xc32/v2.15/bin/bin/../../lib/gcc/pic32c/6.2.1/../../../../pic32c/lib/v7e-m/fpv5/hard/libc.a(lib_a-strtod.o)
                0x000000000041d060                strtod

.text.DRV_ETHPHY_Reinitialize%698
                0x000000000041d084       0x22
 .text.DRV_ETHPHY_Reinitialize
                0x000000000041d084       0x22 build/sam_e70_xult_freertos/production/_ext/1607428259/drv_ethphy.o
                0x000000000041d084                DRV_ETHPHY_Reinitialize

.text.TCPIP_TCP_IsConnected%699
                0x000000000041d0a6       0x22
 .text.TCPIP_TCP_IsConnected
                0x000000000041d0a6       0x22 build/sam_e70_xult_freertos/production/_ext/810785262/tcp.o
                0x000000000041d0a6                TCPIP_TCP_IsConnected

.text._TCPIP_HEAP_LastError%700
                0x000000000041d0c8       0x22
 .text._TCPIP_HEAP_LastError
                0x000000000041d0c8       0x22 build/sam_e70_xult_freertos/production/_ext/810785262/tcpip_heap_internal.o

.text.TCPIP_Helper_ProtectedSingleListInitialize%701
                0x000000000041d0ea       0x22
 .text.TCPIP_Helper_ProtectedSingleListInitialize
                0x000000000041d0ea       0x22 build/sam_e70_xult_freertos/production/_ext/810785262/tcpip_helpers.o
                0x000000000041d0ea                TCPIP_Helper_ProtectedSingleListInitialize

.text.TCPIP_STACK_NetAddressDnsPrimarySet%702
                0x000000000041d10c       0x22
 .text.TCPIP_STACK_NetAddressDnsPrimarySet
                0x000000000041d10c       0x22 build/sam_e70_xult_freertos/production/_ext/810785262/tcpip_manager.o
                0x000000000041d10c                TCPIP_STACK_NetAddressDnsPrimarySet

.text.TCPIP_STACK_NetAddressMacSet%703
                0x000000000041d12e       0x22
 .text.TCPIP_STACK_NetAddressMacSet
                0x000000000041d12e       0x22 build/sam_e70_xult_freertos/production/_ext/810785262/tcpip_manager.o
                0x000000000041d12e                TCPIP_STACK_NetAddressMacSet

.text.TCPIP_UDP_Discard%704
                0x000000000041d150       0x22
 .text.TCPIP_UDP_Discard
                0x000000000041d150       0x22 build/sam_e70_xult_freertos/production/_ext/810785262/udp.o
                0x000000000041d150                TCPIP_UDP_Discard

.text.DRV_ETHPHY_Tasks%705
                0x000000000041d174       0x20
 .text.DRV_ETHPHY_Tasks
                0x000000000041d174       0x20 build/sam_e70_xult_freertos/production/_ext/1607428259/drv_ethphy.o
                0x000000000041d174                DRV_ETHPHY_Tasks

.text.DRV_ETHPHY_Close%706
                0x000000000041d194       0x20
 .text.DRV_ETHPHY_Close
                0x000000000041d194       0x20 build/sam_e70_xult_freertos/production/_ext/1607428259/drv_ethphy.o
                0x000000000041d194                DRV_ETHPHY_Close

.text._DRV_ETHPHY_ClientOpSmiWrite%707
                0x000000000041d1b4       0x20
 .text._DRV_ETHPHY_ClientOpSmiWrite
                0x000000000041d1b4       0x20 build/sam_e70_xult_freertos/production/_ext/1607428259/drv_ethphy.o

.text._DRV_ETHPHY_NegRestartPhaseWrite%708
                0x000000000041d1d4       0x20
 .text._DRV_ETHPHY_NegRestartPhaseWrite
                0x000000000041d1d4       0x20 build/sam_e70_xult_freertos/production/_ext/1607428259/drv_ethphy.o

.text._DRV_ETHPHY_SetupPhaseNegotiate_SubPhase4%709
                0x000000000041d1f4       0x20
 .text._DRV_ETHPHY_SetupPhaseNegotiate_SubPhase4
                0x000000000041d1f4       0x20 build/sam_e70_xult_freertos/production/_ext/1607428259/drv_ethphy.o

.text.DRV_PIC32CGMAC_LibTransferEnable%710
                0x000000000041d214       0x20
 .text.DRV_PIC32CGMAC_LibTransferEnable
                0x000000000041d214       0x20 build/sam_e70_xult_freertos/production/_ext/1619526243/drv_gmac_lib_samE7x_V7x.o
                0x000000000041d214                DRV_PIC32CGMAC_LibTransferEnable

.text.DRV_PIC32CGMAC_SingleListHeadRemove%711
                0x000000000041d234       0x20
 .text.DRV_PIC32CGMAC_SingleListHeadRemove
                0x000000000041d234       0x20 build/sam_e70_xult_freertos/production/_ext/1619526243/drv_gmac_lib_samE7x_V7x.o
                0x000000000041d234                DRV_PIC32CGMAC_SingleListHeadRemove

.text.Helper_SingleListHeadRemove%712
                0x000000000041d254       0x20
 .text.Helper_SingleListHeadRemove
                0x000000000041d254       0x20 build/sam_e70_xult_freertos/production/_ext/511568427/drv_miim.o
                0x000000000041d254                Helper_SingleListHeadRemove

.text.TCPIP_DNS_OAHASH_KeyHash%713
                0x000000000041d274       0x20
 .text.TCPIP_DNS_OAHASH_KeyHash
                0x000000000041d274       0x20 build/sam_e70_xult_freertos/production/_ext/810785262/dns.o

.text.TCPIP_DHCP_Enable%714
                0x000000000041d294       0x20
 .text.TCPIP_DHCP_Enable
                0x000000000041d294       0x20 build/sam_e70_xult_freertos/production/_ext/810785262/dhcp.o
                0x000000000041d294                TCPIP_DHCP_Enable

.text.TCPIP_DHCP_Renew%715
                0x000000000041d2b4       0x20
 .text.TCPIP_DHCP_Renew
                0x000000000041d2b4       0x20 build/sam_e70_xult_freertos/production/_ext/810785262/dhcp.o
                0x000000000041d2b4                TCPIP_DHCP_Renew

.text._SwapARPPacket%716
                0x000000000041d2d4       0x20
 .text._SwapARPPacket
                0x000000000041d2d4       0x20 build/sam_e70_xult_freertos/production/_ext/810785262/arp.o

.text.TCPIP_Helper_SingleListHeadRemove%717
                0x000000000041d2f4       0x20
 .text.TCPIP_Helper_SingleListHeadRemove
                0x000000000041d2f4       0x20 build/sam_e70_xult_freertos/production/_ext/810785262/tcpip_helpers.o
                0x000000000041d2f4                TCPIP_Helper_SingleListHeadRemove

.text.TCPIP_Helper_ProtectedSingleListLock%718
                0x000000000041d314       0x20
 .text.TCPIP_Helper_ProtectedSingleListLock
                0x000000000041d314       0x20 build/sam_e70_xult_freertos/production/_ext/810785262/tcpip_helpers.o
                0x000000000041d314                TCPIP_Helper_ProtectedSingleListLock

.rodata.TCPIP_MAC_POWER_TBL%719
                0x000000000041d334       0x20
 .rodata.TCPIP_MAC_POWER_TBL
                0x000000000041d334       0x20 build/sam_e70_xult_freertos/production/_ext/810785262/tcpip_helpers.o

.text.TCPIP_STACK_NetDefaultSet%720
                0x000000000041d354       0x20
 .text.TCPIP_STACK_NetDefaultSet
                0x000000000041d354       0x20 build/sam_e70_xult_freertos/production/_ext/810785262/tcpip_manager.o
                0x000000000041d354                TCPIP_STACK_NetDefaultSet

.text.TCPIP_STACK_IndexToNet%721
                0x000000000041d374       0x20
 .text.TCPIP_STACK_IndexToNet
                0x000000000041d374       0x20 build/sam_e70_xult_freertos/production/_ext/810785262/tcpip_manager.o
                0x000000000041d374                TCPIP_STACK_IndexToNet

.text.TCPIP_STACK_Deinitialize%722
                0x000000000041d394       0x20
 .text.TCPIP_STACK_Deinitialize
                0x000000000041d394       0x20 build/sam_e70_xult_freertos/production/_ext/810785262/tcpip_manager.o
                0x000000000041d394                TCPIP_STACK_Deinitialize

.text.TCPIP_Notification_Remove%723
                0x000000000041d3b4       0x20
 .text.TCPIP_Notification_Remove
                0x000000000041d3b4       0x20 build/sam_e70_xult_freertos/production/_ext/810785262/tcpip_notify.o
                0x000000000041d3b4                TCPIP_Notification_Remove

.rodata%724     0x000000000041d3d4       0x20
 .rodata        0x000000000041d3d4       0x20 build/sam_e70_xult_freertos/production/_ext/810785262/tcpip_packet.o

.text.TCPIP_UDP_DestinationPortSet%725
                0x000000000041d3f4       0x20
 .text.TCPIP_UDP_DestinationPortSet
                0x000000000041d3f4       0x20 build/sam_e70_xult_freertos/production/_ext/810785262/udp.o
                0x000000000041d3f4                TCPIP_UDP_DestinationPortSet

.rodata.sysConsoleUARTDevDesc%726
                0x000000000041d414       0x20
 .rodata.sysConsoleUARTDevDesc
                0x000000000041d414       0x20 build/sam_e70_xult_freertos/production/_ext/762686499/sys_console_uart.o
                0x000000000041d414                sysConsoleUARTDevDesc

.text.SYS_DEBUG_Initialize%727
                0x000000000041d434       0x20
 .text.SYS_DEBUG_Initialize
                0x000000000041d434       0x20 build/sam_e70_xult_freertos/production/_ext/762686499/sys_debug.o
                0x000000000041d434                SYS_DEBUG_Initialize

.text.SYS_INT_SourceRestore%728
                0x000000000041d454       0x20
 .text.SYS_INT_SourceRestore
                0x000000000041d454       0x20 build/sam_e70_xult_freertos/production/_ext/1775855163/sys_int.o
                0x000000000041d454                SYS_INT_SourceRestore

.text.SYS_TIME_GetElapsedCount%729
                0x000000000041d474       0x20
 .text.SYS_TIME_GetElapsedCount
                0x000000000041d474       0x20 build/sam_e70_xult_freertos/production/_ext/912870411/sys_time.o

.rodata.tcpipPhyInitData%730
                0x000000000041d494       0x20
 .rodata.tcpipPhyInitData
                0x000000000041d494       0x20 build/sam_e70_xult_freertos/production/_ext/1552905064/initialization.o
                0x000000000041d494                tcpipPhyInitData

.text.pvPortMalloc%731
                0x000000000041d4b4       0x20
 .text.pvPortMalloc
                0x000000000041d4b4       0x20 build/sam_e70_xult_freertos/production/_ext/1665200909/heap_3.o
                0x000000000041d4b4                pvPortMalloc

.text.vsnprintf%732
                0x000000000041d4d4       0x20
 .text.vsnprintf
                0x000000000041d4d4       0x20 /Applications/microchip/xc32/v2.15/bin/bin/../../lib/gcc/pic32c/6.2.1/../../../../pic32c/lib/v7e-m/fpv5/hard/libc.a(lib_a-vsnprintf.o)
                0x000000000041d4d4                vsnprintf

.text.DRV_ETHPHY_ClientOperationAbort%733
                0x000000000041d4f4       0x1e
 .text.DRV_ETHPHY_ClientOperationAbort
                0x000000000041d4f4       0x1e build/sam_e70_xult_freertos/production/_ext/1607428259/drv_ethphy.o
                0x000000000041d4f4                DRV_ETHPHY_ClientOperationAbort

.text._TCPIsGetReady%734
                0x000000000041d512       0x1e
 .text._TCPIsGetReady
                0x000000000041d512       0x1e build/sam_e70_xult_freertos/production/_ext/810785262/tcp.o

.text.TCPIP_STACK_NetAddressBcast%735
                0x000000000041d530       0x1e
 .text.TCPIP_STACK_NetAddressBcast
                0x000000000041d530       0x1e build/sam_e70_xult_freertos/production/_ext/810785262/tcpip_manager.o
                0x000000000041d530                TCPIP_STACK_NetAddressBcast

.text.TCPIP_STACK_NetworkIsLinked%736
                0x000000000041d54e       0x1e
 .text.TCPIP_STACK_NetworkIsLinked
                0x000000000041d54e       0x1e build/sam_e70_xult_freertos/production/_ext/810785262/tcpip_manager.o
                0x000000000041d54e                TCPIP_STACK_NetworkIsLinked

.text.TCPIP_PKT_PayloadLen%737
                0x000000000041d56c       0x1e
 .text.TCPIP_PKT_PayloadLen
                0x000000000041d56c       0x1e build/sam_e70_xult_freertos/production/_ext/810785262/tcpip_packet.o
                0x000000000041d56c                TCPIP_PKT_PayloadLen

.text.OSAL_SEM_Pend%738
                0x000000000041d58a       0x1e
 .text.OSAL_SEM_Pend
                0x000000000041d58a       0x1e build/sam_e70_xult_freertos/production/_ext/281930714/osal_freertos.o
                0x000000000041d58a                OSAL_SEM_Pend

.text.OSAL_MUTEX_Lock%739
                0x000000000041d5a8       0x1e
 .text.OSAL_MUTEX_Lock
                0x000000000041d5a8       0x1e build/sam_e70_xult_freertos/production/_ext/281930714/osal_freertos.o
                0x000000000041d5a8                OSAL_MUTEX_Lock

.rodata._DRV_PHY_SetupPhaseNegotiateSubPhaseTbl%740
                0x000000000040b1e4       0x1c
 .rodata._DRV_PHY_SetupPhaseNegotiateSubPhaseTbl
                0x000000000040b1e4       0x1c build/sam_e70_xult_freertos/production/_ext/1607428259/drv_ethphy.o

.text.TCPIP_DNS_IsResolved%741
                0x000000000041d5c6       0x1c
 .text.TCPIP_DNS_IsResolved
                0x000000000041d5c6       0x1c build/sam_e70_xult_freertos/production/_ext/810785262/dns.o
                0x000000000041d5c6                TCPIP_DNS_IsResolved

.rodata._DHCPOptWriteTbl%742
                0x000000000041d5e4       0x1c
 .rodata._DHCPOptWriteTbl
                0x000000000041d5e4       0x1c build/sam_e70_xult_freertos/production/_ext/810785262/dhcp.o

.text._ARPTxAckFnc%743
                0x000000000041d600       0x1c
 .text._ARPTxAckFnc
                0x000000000041d600       0x1c build/sam_e70_xult_freertos/production/_ext/810785262/arp.o

.text.TCPIP_IPV4_MaxDatagramDataSizeGet%744
                0x000000000041d61c       0x1c
 .text.TCPIP_IPV4_MaxDatagramDataSizeGet
                0x000000000041d61c       0x1c build/sam_e70_xult_freertos/production/_ext/810785262/ipv4.o
                0x000000000041d61c                TCPIP_IPV4_MaxDatagramDataSizeGet

.rodata.__func__.14104%745
                0x000000000041d638       0x1c
 .rodata.__func__.14104
                0x000000000041d638       0x1c build/sam_e70_xult_freertos/production/_ext/810785262/ipv4.o

.text._TCPIP_HEAP_FreeSize%746
                0x000000000041d654       0x1c
 .text._TCPIP_HEAP_FreeSize
                0x000000000041d654       0x1c build/sam_e70_xult_freertos/production/_ext/810785262/tcpip_heap_internal.o

.text._TCPIP_HEAP_Calloc%747
                0x000000000041d670       0x1c
 .text._TCPIP_HEAP_Calloc
                0x000000000041d670       0x1c build/sam_e70_xult_freertos/production/_ext/810785262/tcpip_heap_internal.o

.text.TCPIP_Helper_SingleListAppend%748
                0x000000000041d68c       0x1c
 .text.TCPIP_Helper_SingleListAppend
                0x000000000041d68c       0x1c build/sam_e70_xult_freertos/production/_ext/810785262/tcpip_helpers.o
                0x000000000041d68c                TCPIP_Helper_SingleListAppend

.text.TCPIP_Helper_ProtectedSingleListUnlock%749
                0x000000000041d6a8       0x1c
 .text.TCPIP_Helper_ProtectedSingleListUnlock
                0x000000000041d6a8       0x1c build/sam_e70_xult_freertos/production/_ext/810785262/tcpip_helpers.o
                0x000000000041d6a8                TCPIP_Helper_ProtectedSingleListUnlock

.text._TCPIPSignalEntryNotify%750
                0x000000000041d6c4       0x1c
 .text._TCPIPSignalEntryNotify
                0x000000000041d6c4       0x1c build/sam_e70_xult_freertos/production/_ext/810785262/tcpip_manager.o

.text.TCPIP_STACK_Status%751
                0x000000000041d6e0       0x1c
 .text.TCPIP_STACK_Status
                0x000000000041d6e0       0x1c build/sam_e70_xult_freertos/production/_ext/810785262/tcpip_manager.o
                0x000000000041d6e0                TCPIP_STACK_Status

.text.TCPIP_STACK_NetAddressGatewaySet%752
                0x000000000041d6fc       0x1c
 .text.TCPIP_STACK_NetAddressGatewaySet
                0x000000000041d6fc       0x1c build/sam_e70_xult_freertos/production/_ext/810785262/tcpip_manager.o
                0x000000000041d6fc                TCPIP_STACK_NetAddressGatewaySet

.text.TCPIP_STACK_NetIsUp%753
                0x000000000041d718       0x1c
 .text.TCPIP_STACK_NetIsUp
                0x000000000041d718       0x1c build/sam_e70_xult_freertos/production/_ext/810785262/tcpip_manager.o
                0x000000000041d718                TCPIP_STACK_NetIsUp

.text.TCPIP_STACK_NetAddress%754
                0x000000000041d734       0x1c
 .text.TCPIP_STACK_NetAddress
                0x000000000041d734       0x1c build/sam_e70_xult_freertos/production/_ext/810785262/tcpip_manager.o
                0x000000000041d734                TCPIP_STACK_NetAddress

.text.TCPIP_STACK_NetMask%755
                0x000000000041d750       0x1c
 .text.TCPIP_STACK_NetMask
                0x000000000041d750       0x1c build/sam_e70_xult_freertos/production/_ext/810785262/tcpip_manager.o
                0x000000000041d750                TCPIP_STACK_NetMask

.text.TCPIP_STACK_NetIsLinked%756
                0x000000000041d76c       0x1c
 .text.TCPIP_STACK_NetIsLinked
                0x000000000041d76c       0x1c build/sam_e70_xult_freertos/production/_ext/810785262/tcpip_manager.o
                0x000000000041d76c                TCPIP_STACK_NetIsLinked

.text.TCPIP_STACK_NetAddressMac%757
                0x000000000041d788       0x1c
 .text.TCPIP_STACK_NetAddressMac
                0x000000000041d788       0x1c build/sam_e70_xult_freertos/production/_ext/810785262/tcpip_manager.o
                0x000000000041d788                TCPIP_STACK_NetAddressMac

.text.TCPIP_Notification_Add%758
                0x000000000041d7a4       0x1c
 .text.TCPIP_Notification_Add
                0x000000000041d7a4       0x1c build/sam_e70_xult_freertos/production/_ext/810785262/tcpip_notify.o
                0x000000000041d7a4                TCPIP_Notification_Add

.text.TCPIP_Notification_RemoveAll%759
                0x000000000041d7c0       0x1c
 .text.TCPIP_Notification_RemoveAll
                0x000000000041d7c0       0x1c build/sam_e70_xult_freertos/production/_ext/810785262/tcpip_notify.o
                0x000000000041d7c0                TCPIP_Notification_RemoveAll

.text.TCPIP_UDP_TxPointerGet%760
                0x000000000041d7dc       0x1c
 .text.TCPIP_UDP_TxPointerGet
                0x000000000041d7dc       0x1c build/sam_e70_xult_freertos/production/_ext/810785262/udp.o
                0x000000000041d7dc                TCPIP_UDP_TxPointerGet

.text.SYS_TIME_Counter64Update%761
                0x000000000041d7f8       0x1c
 .text.SYS_TIME_Counter64Update
                0x000000000041d7f8       0x1c build/sam_e70_xult_freertos/production/_ext/912870411/sys_time.o

.text.SYS_TMR_CallbackPeriodic%762
                0x000000000041d814       0x1c
 .text.SYS_TMR_CallbackPeriodic
                0x000000000041d814       0x1c build/sam_e70_xult_freertos/production/_ext/231871610/sys_time_h2_adapter.o
                0x000000000041d814                SYS_TMR_CallbackPeriodic

.rodata.sysTimePlibAPI%763
                0x000000000041d830       0x1c
 .rodata.sysTimePlibAPI
                0x000000000041d830       0x1c build/sam_e70_xult_freertos/production/_ext/1552905064/initialization.o
                0x000000000041d830                sysTimePlibAPI

.text.vTaskPlaceOnEventList%764
                0x000000000041d84c       0x1c
 .text.vTaskPlaceOnEventList
                0x000000000041d84c       0x1c build/sam_e70_xult_freertos/production/_ext/404212886/FreeRTOS_tasks.o
                0x000000000041d84c                vTaskPlaceOnEventList

.text.pvTaskIncrementMutexHeldCount%765
                0x000000000041d868       0x1c
 .text.pvTaskIncrementMutexHeldCount
                0x000000000041d868       0x1c build/sam_e70_xult_freertos/production/_ext/404212886/FreeRTOS_tasks.o
                0x000000000041d868                pvTaskIncrementMutexHeldCount

.text.__locale_ctype_ptr%766
                0x000000000041d884       0x1c
 .text.__locale_ctype_ptr
                0x000000000041d884       0x1c /Applications/microchip/xc32/v2.15/bin/bin/../../lib/gcc/pic32c/6.2.1/../../../../pic32c/lib/v7e-m/fpv5/hard/libc.a(lib_a-locale.o)
                0x000000000041d884                __locale_ctype_ptr

.text.__ascii_wctomb%767
                0x000000000041d8a0       0x1c
 .text.__ascii_wctomb
                0x000000000041d8a0       0x1c /Applications/microchip/xc32/v2.15/bin/bin/../../lib/gcc/pic32c/6.2.1/../../../../pic32c/lib/v7e-m/fpv5/hard/libc.a(lib_a-wctomb_r.o)
                0x000000000041d8a0                __ascii_wctomb

.text._localeconv_r%768
                0x000000000041d8bc       0x1c
 .text._localeconv_r
                0x000000000041d8bc       0x1c /Applications/microchip/xc32/v2.15/bin/bin/../../lib/gcc/pic32c/6.2.1/../../../../pic32c/lib/v7e-m/fpv5/hard/libc.a(lib_a-localeconv.o)
                0x000000000041d8bc                _localeconv_r

.text._DRV_ETHPHY_NegCompletePhaseResultNoWait%769
                0x000000000041d8d8       0x1a
 .text._DRV_ETHPHY_NegCompletePhaseResultNoWait
                0x000000000041d8d8       0x1a build/sam_e70_xult_freertos/production/_ext/1607428259/drv_ethphy.o

.text.DRV_PIC32CGMAC_SingleListTailAdd%770
                0x000000000041d8f2       0x1a
 .text.DRV_PIC32CGMAC_SingleListTailAdd
                0x000000000041d8f2       0x1a build/sam_e70_xult_freertos/production/_ext/1619526243/drv_gmac_lib_samE7x_V7x.o
                0x000000000041d8f2                DRV_PIC32CGMAC_SingleListTailAdd

.text.Helper_SingleListTailAdd%771
                0x000000000041d90c       0x1a
 .text.Helper_SingleListTailAdd
                0x000000000041d90c       0x1a build/sam_e70_xult_freertos/production/_ext/511568427/drv_miim.o
                0x000000000041d90c                Helper_SingleListTailAdd

.text.DRV_MIIM_Read%772
                0x000000000041d926       0x1a
 .text.DRV_MIIM_Read
                0x000000000041d926       0x1a build/sam_e70_xult_freertos/production/_ext/511568427/drv_miim.o
                0x000000000041d926                DRV_MIIM_Read

.text.DRV_MIIM_Write%773
                0x000000000041d940       0x1a
 .text.DRV_MIIM_Write
                0x000000000041d940       0x1a build/sam_e70_xult_freertos/production/_ext/511568427/drv_miim.o
                0x000000000041d940                DRV_MIIM_Write

.text.DRV_MIIM_Scan%774
                0x000000000041d95a       0x1a
 .text.DRV_MIIM_Scan
                0x000000000041d95a       0x1a build/sam_e70_xult_freertos/production/_ext/511568427/drv_miim.o
                0x000000000041d95a                DRV_MIIM_Scan

.text.TCPIP_TCP_ClientOpen%775
                0x000000000041d974       0x1a
 .text.TCPIP_TCP_ClientOpen
                0x000000000041d974       0x1a build/sam_e70_xult_freertos/production/_ext/810785262/tcp.o
                0x000000000041d974                TCPIP_TCP_ClientOpen

.text.TCPIP_TCP_PutIsReady%776
                0x000000000041d98e       0x1a
 .text.TCPIP_TCP_PutIsReady
                0x000000000041d98e       0x1a build/sam_e70_xult_freertos/production/_ext/810785262/tcp.o
                0x000000000041d98e                TCPIP_TCP_PutIsReady

.text.TCPIP_Helper_SingleListTailAdd%777
                0x000000000041d9a8       0x1a
 .text.TCPIP_Helper_SingleListTailAdd
                0x000000000041d9a8       0x1a build/sam_e70_xult_freertos/production/_ext/810785262/tcpip_helpers.o
                0x000000000041d9a8                TCPIP_Helper_SingleListTailAdd

.text.TCPIP_STACK_NetIsReady%778
                0x000000000041d9c2       0x1a
 .text.TCPIP_STACK_NetIsReady
                0x000000000041d9c2       0x1a build/sam_e70_xult_freertos/production/_ext/810785262/tcpip_manager.o
                0x000000000041d9c2                TCPIP_STACK_NetIsReady

.text._UDPTxPktValid%779
                0x000000000041d9dc       0x1a
 .text._UDPTxPktValid
                0x000000000041d9dc       0x1a build/sam_e70_xult_freertos/production/_ext/810785262/udp.o

.text.BSP_Initialize%780
                0x000000000041d9f8       0x18
 .text.BSP_Initialize
                0x000000000041d9f8       0x18 build/sam_e70_xult_freertos/production/_ext/683629640/bsp.o
                0x000000000041d9f8                BSP_Initialize

.text.DRV_ETHPHY_PhyAddressGet%781
                0x000000000041da10       0x18
 .text.DRV_ETHPHY_PhyAddressGet
                0x000000000041da10       0x18 build/sam_e70_xult_freertos/production/_ext/1607428259/drv_ethphy.o
                0x000000000041da10                DRV_ETHPHY_PhyAddressGet

.text._DRV_PHY_SMIReadStart%782
                0x000000000041da28       0x18
 .text._DRV_PHY_SMIReadStart
                0x000000000041da28       0x18 build/sam_e70_xult_freertos/production/_ext/1607428259/drv_ethphy.o

.text._DRV_PHY_SMIWriteStart%783
                0x000000000041da40       0x18
 .text._DRV_PHY_SMIWriteStart
                0x000000000041da40       0x18 build/sam_e70_xult_freertos/production/_ext/1607428259/drv_ethphy.o

.text._DRV_ETHPHY_ResetPhaseIdle%784
                0x000000000041da58       0x18
 .text._DRV_ETHPHY_ResetPhaseIdle
                0x000000000041da58       0x18 build/sam_e70_xult_freertos/production/_ext/1607428259/drv_ethphy.o

.rodata._DRV_PHY_NegCompletePhasesTbl%785
                0x000000000041da70       0x18
 .rodata._DRV_PHY_NegCompletePhasesTbl
                0x000000000041da70       0x18 build/sam_e70_xult_freertos/production/_ext/1607428259/drv_ethphy.o

.text.DRV_PIC32CGMAC_SingleListHeadAdd%786
                0x000000000041da88       0x18
 .text.DRV_PIC32CGMAC_SingleListHeadAdd
                0x000000000041da88       0x18 build/sam_e70_xult_freertos/production/_ext/1619526243/drv_gmac_lib_samE7x_V7x.o
                0x000000000041da88                DRV_PIC32CGMAC_SingleListHeadAdd

.text.DRV_MIIM_Close%787
                0x000000000041daa0       0x18
 .text.DRV_MIIM_Close
                0x000000000041daa0       0x18 build/sam_e70_xult_freertos/production/_ext/511568427/drv_miim.o
                0x000000000041daa0                DRV_MIIM_Close

.rodata.__func__.14139%788
                0x000000000041dab8       0x18
 .rodata.__func__.14139
                0x000000000041dab8       0x18 build/sam_e70_xult_freertos/production/_ext/810785262/dns.o

.rodata.__func__.14157%789
                0x000000000041dad0       0x18
 .rodata.__func__.14157
                0x000000000041dad0       0x18 build/sam_e70_xult_freertos/production/_ext/810785262/dns.o

.rodata.__func__.14408%790
                0x000000000041dae8       0x18
 .rodata.__func__.14408
                0x000000000041dae8       0x18 build/sam_e70_xult_freertos/production/_ext/810785262/dns.o

.text.TCPIP_ICMP_Cleanup%791
                0x000000000041db00       0x18
 .text.TCPIP_ICMP_Cleanup
                0x000000000041db00       0x18 build/sam_e70_xult_freertos/production/_ext/810785262/icmp.o

.text.TCPIP_ARP_HashKeyHash%792
                0x000000000041db18       0x18
 .text.TCPIP_ARP_HashKeyHash
                0x000000000041db18       0x18 build/sam_e70_xult_freertos/production/_ext/810785262/arp.o
                0x000000000041db18                TCPIP_ARP_HashKeyHash

.text.TCPIP_HEAP_Create%793
                0x000000000041db30       0x18
 .text.TCPIP_HEAP_Create
                0x000000000041db30       0x18 build/sam_e70_xult_freertos/production/_ext/810785262/tcpip_heap_alloc.o
                0x000000000041db30                TCPIP_HEAP_Create

.text.TCPIP_OAHASH_EntryRemove%794
                0x000000000041db48       0x18
 .text.TCPIP_OAHASH_EntryRemove
                0x000000000041db48       0x18 build/sam_e70_xult_freertos/production/_ext/810785262/oahash.o
                0x000000000041db48                TCPIP_OAHASH_EntryRemove

.text.TCPIP_STACK_NetAddressGateway%795
                0x000000000041db60       0x18
 .text.TCPIP_STACK_NetAddressGateway
                0x000000000041db60       0x18 build/sam_e70_xult_freertos/production/_ext/810785262/tcpip_manager.o
                0x000000000041db60                TCPIP_STACK_NetAddressGateway

.text.TCPIP_STACK_NetAddressDnsPrimary%796
                0x000000000041db78       0x18
 .text.TCPIP_STACK_NetAddressDnsPrimary
                0x000000000041db78       0x18 build/sam_e70_xult_freertos/production/_ext/810785262/tcpip_manager.o
                0x000000000041db78                TCPIP_STACK_NetAddressDnsPrimary

.text.TCPIP_STACK_NetAddressGet%797
                0x000000000041db90       0x18
 .text.TCPIP_STACK_NetAddressGet
                0x000000000041db90       0x18 build/sam_e70_xult_freertos/production/_ext/810785262/tcpip_manager.o
                0x000000000041db90                TCPIP_STACK_NetAddressGet

.text.TCPIP_STACK_NetMaskGet%798
                0x000000000041dba8       0x18
 .text.TCPIP_STACK_NetMaskGet
                0x000000000041dba8       0x18 build/sam_e70_xult_freertos/production/_ext/810785262/tcpip_manager.o
                0x000000000041dba8                TCPIP_STACK_NetMaskGet

.text.TCPIP_STACK_NetMACAddressGet%799
                0x000000000041dbc0       0x18
 .text.TCPIP_STACK_NetMACAddressGet
                0x000000000041dbc0       0x18 build/sam_e70_xult_freertos/production/_ext/810785262/tcpip_manager.o
                0x000000000041dbc0                TCPIP_STACK_NetMACAddressGet

.text.TCPIP_STACK_HeapHandleGet%800
                0x000000000041dbd8       0x18
 .text.TCPIP_STACK_HeapHandleGet
                0x000000000041dbd8       0x18 build/sam_e70_xult_freertos/production/_ext/810785262/tcpip_manager.o
                0x000000000041dbd8                TCPIP_STACK_HeapHandleGet

.rodata.TCPIP_FRAME_PROCESS_TBL%801
                0x000000000041dbf0       0x18
 .rodata.TCPIP_FRAME_PROCESS_TBL
                0x000000000041dbf0       0x18 build/sam_e70_xult_freertos/production/_ext/810785262/tcpip_manager.o

.text.Console_UART_RegisterCallback%802
                0x000000000041dc08       0x18
 .text.Console_UART_RegisterCallback
                0x000000000041dc08       0x18 build/sam_e70_xult_freertos/production/_ext/762686499/sys_console_uart.o
                0x000000000041dc08                Console_UART_RegisterCallback

.text.CommandReset%803
                0x000000000041dc20       0x18
 .text.CommandReset
                0x000000000041dc20       0x18 build/sam_e70_xult_freertos/production/_ext/762686499/sys_command.o

.text.SendCommandMessage%804
                0x000000000041dc38       0x18
 .text.SendCommandMessage
                0x000000000041dc38       0x18 build/sam_e70_xult_freertos/production/_ext/762686499/sys_command.o

.rodata.sysConsoleApi%805
                0x000000000041dc50       0x18
 .rodata.sysConsoleApi
                0x000000000041dc50       0x18 build/sam_e70_xult_freertos/production/_ext/762686499/sys_command.o
                0x000000000041dc50                sysConsoleApi

.text._TCPIP_STACK_Task%806
                0x000000000041dc68       0x18
 .text._TCPIP_STACK_Task
                0x000000000041dc68       0x18 build/sam_e70_xult_freertos/production/_ext/1552905064/tasks.o
                0x000000000041dc68                _TCPIP_STACK_Task

.text._DRV_MIIM_Task%807
                0x000000000041dc80       0x18
 .text._DRV_MIIM_Task
                0x000000000041dc80       0x18 build/sam_e70_xult_freertos/production/_ext/1552905064/tasks.o
                0x000000000041dc80                _DRV_MIIM_Task

.rodata.sysConsole0UARTInitData%808
                0x000000000041dc98       0x18
 .rodata.sysConsole0UARTInitData
                0x000000000041dc98       0x18 build/sam_e70_xult_freertos/production/_ext/1552905064/initialization.o
                0x000000000041dc98                sysConsole0UARTInitData

.rodata.tcpipDNSClientInitData%809
                0x000000000041dcb0       0x18
 .rodata.tcpipDNSClientInitData
                0x000000000041dcb0       0x18 build/sam_e70_xult_freertos/production/_ext/1552905064/initialization.o
                0x000000000041dcb0                tcpipDNSClientInitData

.text.vPortFree%810
                0x000000000041dcc8       0x18
 .text.vPortFree
                0x000000000041dcc8       0x18 build/sam_e70_xult_freertos/production/_ext/1665200909/heap_3.o
                0x000000000041dcc8                vPortFree

.text.vListInsertEnd%811
                0x000000000041dce0       0x18
 .text.vListInsertEnd
                0x000000000041dce0       0x18 build/sam_e70_xult_freertos/production/_ext/404212886/list.o
                0x000000000041dce0                vListInsertEnd

.text.vTaskInternalSetTimeOutState%812
                0x000000000041dcf8       0x18
 .text.vTaskInternalSetTimeOutState
                0x000000000041dcf8       0x18 build/sam_e70_xult_freertos/production/_ext/404212886/FreeRTOS_tasks.o
                0x000000000041dcf8                vTaskInternalSetTimeOutState

.text.OSAL_CRIT_Enter%813
                0x000000000041dd10       0x18
 .text.OSAL_CRIT_Enter
                0x000000000041dd10       0x18 build/sam_e70_xult_freertos/production/_ext/281930714/osal_freertos.o
                0x000000000041dd10                OSAL_CRIT_Enter

.text.OSAL_SEM_Post%814
                0x000000000041dd28       0x18
 .text.OSAL_SEM_Post
                0x000000000041dd28       0x18 build/sam_e70_xult_freertos/production/_ext/281930714/osal_freertos.o
                0x000000000041dd28                OSAL_SEM_Post

.text.OSAL_MUTEX_Create%815
                0x000000000041dd40       0x18
 .text.OSAL_MUTEX_Create
                0x000000000041dd40       0x18 build/sam_e70_xult_freertos/production/_ext/281930714/osal_freertos.o
                0x000000000041dd40                OSAL_MUTEX_Create

.text.OSAL_MUTEX_Unlock%816
                0x000000000041dd58       0x18
 .text.OSAL_MUTEX_Unlock
                0x000000000041dd58       0x18 build/sam_e70_xult_freertos/production/_ext/281930714/osal_freertos.o
                0x000000000041dd58                OSAL_MUTEX_Unlock

.rodata.appCmdTbl%817
                0x000000000041dd70       0x18
 .rodata.appCmdTbl
                0x000000000041dd70       0x18 build/sam_e70_xult_freertos/production/_ext/1360937237/app_commands.o

.text.DRV_ETHPHY_VendorDataGet%818
                0x000000000041dd88       0x16
 .text.DRV_ETHPHY_VendorDataGet
                0x000000000041dd88       0x16 build/sam_e70_xult_freertos/production/_ext/1607428259/drv_ethphy.o
                0x000000000041dd88                DRV_ETHPHY_VendorDataGet

.text.DRV_MIIM_ClientStatus%819
                0x000000000041dd9e       0x16
 .text.DRV_MIIM_ClientStatus
                0x000000000041dd9e       0x16 build/sam_e70_xult_freertos/production/_ext/511568427/drv_miim.o
                0x000000000041dd9e                DRV_MIIM_ClientStatus

.text._DNSSocketRxSignalHandler%820
                0x000000000041ddb4       0x16
 .text._DNSSocketRxSignalHandler
                0x000000000041ddb4       0x16 build/sam_e70_xult_freertos/production/_ext/810785262/dns.o

.text._TCP_TxPktValid%821
                0x000000000041ddca       0x16
 .text._TCP_TxPktValid
                0x000000000041ddca       0x16 build/sam_e70_xult_freertos/production/_ext/810785262/tcp.o

.text._DHCPSocketRxSignalHandler%822
                0x000000000041dde0       0x16
 .text._DHCPSocketRxSignalHandler
                0x000000000041dde0       0x16 build/sam_e70_xult_freertos/production/_ext/810785262/dhcp.o

.text._TCPIP_HEAP_Size%823
                0x000000000041ddf6       0x16
 .text._TCPIP_HEAP_Size
                0x000000000041ddf6       0x16 build/sam_e70_xult_freertos/production/_ext/810785262/tcpip_heap_internal.o

.text._TCPIP_HEAP_HighWatermark%824
                0x000000000041de0c       0x16
 .text._TCPIP_HEAP_HighWatermark
                0x000000000041de0c       0x16 build/sam_e70_xult_freertos/production/_ext/810785262/tcpip_heap_internal.o

.text.TCPIP_STACK_AddressServiceCanStart%825
                0x000000000041de22       0x16
 .text.TCPIP_STACK_AddressServiceCanStart
                0x000000000041de22       0x16 build/sam_e70_xult_freertos/production/_ext/810785262/tcpip_manager.o
                0x000000000041de22                TCPIP_STACK_AddressServiceCanStart

.text._TCPIPStackPacketTx%826
                0x000000000041de38       0x16
 .text._TCPIPStackPacketTx
                0x000000000041de38       0x16 build/sam_e70_xult_freertos/production/_ext/810785262/tcpip_manager.o
                0x000000000041de38                _TCPIPStackPacketTx

.text.vApplicationStackOverflowHook%827
                0x000000000041de4e       0x16
 .text.vApplicationStackOverflowHook
                0x000000000041de4e       0x16 build/sam_e70_xult_freertos/production/_ext/1552905064/freertos_hooks.o
                0x000000000041de4e                vApplicationStackOverflowHook

.text.vApplicationMallocFailedHook%828
                0x000000000041de64       0x16
 .text.vApplicationMallocFailedHook
                0x000000000041de64       0x16 build/sam_e70_xult_freertos/production/_ext/1552905064/freertos_hooks.o
                0x000000000041de64                vApplicationMallocFailedHook

.text.vListInitialise%829
                0x000000000041de7a       0x16
 .text.vListInitialise
                0x000000000041de7a       0x16 build/sam_e70_xult_freertos/production/_ext/404212886/list.o
                0x000000000041de7a                vListInitialise

.text.prvIsQueueEmpty%830
                0x000000000041de90       0x16
 .text.prvIsQueueEmpty
                0x000000000041de90       0x16 build/sam_e70_xult_freertos/production/_ext/404212886/queue.o

.text.xQueueCreateCountingSemaphore%831
                0x000000000041dea6       0x16
 .text.xQueueCreateCountingSemaphore
                0x000000000041dea6       0x16 build/sam_e70_xult_freertos/production/_ext/404212886/queue.o
                0x000000000041dea6                xQueueCreateCountingSemaphore

.text.OSAL_CRIT_Leave%832
                0x000000000041debc       0x16
 .text.OSAL_CRIT_Leave
                0x000000000041debc       0x16 build/sam_e70_xult_freertos/production/_ext/281930714/osal_freertos.o
                0x000000000041debc                OSAL_CRIT_Leave

.text._DRV_ETHPHY_NegRestartPhaseIdle%833
                0x000000000041ded2       0x14
 .text._DRV_ETHPHY_NegRestartPhaseIdle
                0x000000000041ded2       0x14 build/sam_e70_xult_freertos/production/_ext/1607428259/drv_ethphy.o

.text._DRV_ETHPHY_NegResultPhaseIdle%834
                0x000000000041dee6       0x14
 .text._DRV_ETHPHY_NegResultPhaseIdle
                0x000000000041dee6       0x14 build/sam_e70_xult_freertos/production/_ext/1607428259/drv_ethphy.o

.text._DRV_ETHPHY_NegCompletePhaseIdle%835
                0x000000000041defa       0x14
 .text._DRV_ETHPHY_NegCompletePhaseIdle
                0x000000000041defa       0x14 build/sam_e70_xult_freertos/production/_ext/1607428259/drv_ethphy.o

.text._DRV_ETHPHY_LinkStatPhaseIdle%836
                0x000000000041df0e       0x14
 .text._DRV_ETHPHY_LinkStatPhaseIdle
                0x000000000041df0e       0x14 build/sam_e70_xult_freertos/production/_ext/1607428259/drv_ethphy.o

.rodata._DRV_PHY_NegResultPhasesTbl%837
                0x000000000041df24       0x14
 .rodata._DRV_PHY_NegResultPhasesTbl
                0x000000000041df24       0x14 build/sam_e70_xult_freertos/production/_ext/1607428259/drv_ethphy.o

.rodata._DRV_GMAC_LinkStateTbl%838
                0x000000000041df38       0x14
 .rodata._DRV_GMAC_LinkStateTbl
                0x000000000041df38       0x14 build/sam_e70_xult_freertos/production/_ext/1619526243/drv_gmac.o

.text._DHCPOptionWriteEnd%839
                0x000000000041df4c       0x14
 .text._DHCPOptionWriteEnd
                0x000000000041df4c       0x14 build/sam_e70_xult_freertos/production/_ext/810785262/dhcp.o

.text.TCPIP_OAHASH_EntryGet%840
                0x000000000041df60       0x14
 .text.TCPIP_OAHASH_EntryGet
                0x000000000041df60       0x14 build/sam_e70_xult_freertos/production/_ext/810785262/oahash.o
                0x000000000041df60                TCPIP_OAHASH_EntryGet

.rodata.sysConsole0UARTInterruptSources%841
                0x000000000041df74       0x14
 .rodata.sysConsole0UARTInterruptSources
                0x000000000041df74       0x14 build/sam_e70_xult_freertos/production/_ext/1552905064/initialization.o
                0x000000000041df74                sysConsole0UARTInterruptSources

.rodata.sysConsole0UARTPlibAPI%842
                0x000000000041df88       0x14
 .rodata.sysConsole0UARTPlibAPI
                0x000000000041df88       0x14 build/sam_e70_xult_freertos/production/_ext/1552905064/initialization.o
                0x000000000041df88                sysConsole0UARTPlibAPI

.text.vPortEnableVFP%843
                0x000000000041df9c       0x14
 .text.vPortEnableVFP
                0x000000000041df9c       0x14 build/sam_e70_xult_freertos/production/_ext/977623654/port.o

.text.vPortExitCritical%844
                0x000000000041dfb0       0x14
 .text.vPortExitCritical
                0x000000000041dfb0       0x14 build/sam_e70_xult_freertos/production/_ext/977623654/port.o
                0x000000000041dfb0                vPortExitCritical

.rodata%845     0x000000000041dfc4       0x14
 .rodata        0x000000000041dfc4       0x14 /Applications/microchip/xc32/v2.15/bin/bin/../../lib/gcc/pic32c/6.2.1/../../../../pic32c/lib/v7e-m/fpv5/hard/libc.a(lib_a-locale.o)

.rodata.fpi.7265%846
                0x000000000041dfd8       0x14
 .rodata.fpi.7265
                0x000000000041dfd8       0x14 /Applications/microchip/xc32/v2.15/bin/bin/../../lib/gcc/pic32c/6.2.1/../../../../pic32c/lib/v7e-m/fpv5/hard/libc.a(lib_a-strtod.o)

.rodata.fpinan.7301%847
                0x000000000041dfec       0x14
 .rodata.fpinan.7301
                0x000000000041dfec       0x14 /Applications/microchip/xc32/v2.15/bin/bin/../../lib/gcc/pic32c/6.2.1/../../../../pic32c/lib/v7e-m/fpv5/hard/libc.a(lib_a-strtod.o)

.text.register_fini%848
                0x000000000041e000       0x14
 .text.register_fini
                0x000000000041e000       0x14 /Applications/microchip/xc32/v2.15/bin/bin/../../lib/gcc/pic32c/6.2.1/../../../../pic32c/lib/v7e-m/fpv5/hard/libc.a(lib_a-__call_atexit.o)

.rodata%849     0x000000000041e014       0x14
 .rodata        0x000000000041e014       0x14 /Applications/microchip/xc32/v2.15/bin/bin/../../lib/gcc/pic32c/6.2.1/../../../../pic32c/lib/v7e-m/fpv5/hard/libc.a(lib_a-dtoa.o)

.text._Bfree%850
                0x000000000041e028       0x14
 .text._Bfree   0x000000000041e028       0x14 /Applications/microchip/xc32/v2.15/bin/bin/../../lib/gcc/pic32c/6.2.1/../../../../pic32c/lib/v7e-m/fpv5/hard/libc.a(lib_a-mprec.o)
                0x000000000041e028                _Bfree

.text.__i2b%851
                0x000000000041e03c       0x14
 .text.__i2b    0x000000000041e03c       0x14 /Applications/microchip/xc32/v2.15/bin/bin/../../lib/gcc/pic32c/6.2.1/../../../../pic32c/lib/v7e-m/fpv5/hard/libc.a(lib_a-mprec.o)
                0x000000000041e03c                __i2b

.text.DRV_GMAC_Status%852
                0x000000000041e050       0x12
 .text.DRV_GMAC_Status
                0x000000000041e050       0x12 build/sam_e70_xult_freertos/production/_ext/1619526243/drv_gmac.o
                0x000000000041e050                DRV_GMAC_Status

.text.DRV_GMAC_Close%853
                0x000000000041e062       0x12
 .text.DRV_GMAC_Close
                0x000000000041e062       0x12 build/sam_e70_xult_freertos/production/_ext/1619526243/drv_gmac.o
                0x000000000041e062                DRV_GMAC_Close

.text.DRV_GMAC_Deinitialize%854
                0x000000000041e074       0x12
 .text.DRV_GMAC_Deinitialize
                0x000000000041e074       0x12 build/sam_e70_xult_freertos/production/_ext/1619526243/drv_gmac.o
                0x000000000041e074                DRV_GMAC_Deinitialize

.text.TCPIP_TCP_GetIsReady%855
                0x000000000041e086       0x12
 .text.TCPIP_TCP_GetIsReady
                0x000000000041e086       0x12 build/sam_e70_xult_freertos/production/_ext/810785262/tcp.o
                0x000000000041e086                TCPIP_TCP_GetIsReady

.text.TCPIP_STACK_NetNameGet%856
                0x000000000041e098       0x12
 .text.TCPIP_STACK_NetNameGet
                0x000000000041e098       0x12 build/sam_e70_xult_freertos/production/_ext/810785262/tcpip_manager.o
                0x000000000041e098                TCPIP_STACK_NetNameGet

.text.IsCommandReady%857
                0x000000000041e0aa       0x12
 .text.IsCommandReady
                0x000000000041e0aa       0x12 build/sam_e70_xult_freertos/production/_ext/762686499/sys_command.o

.text.SYS_INT_Disable%858
                0x000000000041e0bc       0x12
 .text.SYS_INT_Disable
                0x000000000041e0bc       0x12 build/sam_e70_xult_freertos/production/_ext/1775855163/sys_int.o
                0x000000000041e0bc                SYS_INT_Disable

.text.SYS_INT_Restore%859
                0x000000000041e0ce       0x12
 .text.SYS_INT_Restore
                0x000000000041e0ce       0x12 build/sam_e70_xult_freertos/production/_ext/1775855163/sys_int.o
                0x000000000041e0ce                SYS_INT_Restore

.text.OSAL_SEM_Delete%860
                0x000000000041e0e0       0x12
 .text.OSAL_SEM_Delete
                0x000000000041e0e0       0x12 build/sam_e70_xult_freertos/production/_ext/281930714/osal_freertos.o
                0x000000000041e0e0                OSAL_SEM_Delete

.rodata._DRV_PHY_SetupPhasesTbl%861
                0x000000000041e0f4       0x10
 .rodata._DRV_PHY_SetupPhasesTbl
                0x000000000041e0f4       0x10 build/sam_e70_xult_freertos/production/_ext/1607428259/drv_ethphy.o

.rodata.DRV_ETHPHY_OBJECT_SMSC_LAN8740%862
                0x000000000041e104       0x10
 .rodata.DRV_ETHPHY_OBJECT_SMSC_LAN8740
                0x000000000041e104       0x10 build/sam_e70_xult_freertos/production/_ext/1607428259/drv_extphy_smsc8740.o
                0x000000000041e104                DRV_ETHPHY_OBJECT_SMSC_LAN8740

.text.TCPIP_DNS_GetIPv4Addresses%863
                0x000000000041e114       0x10
 .text.TCPIP_DNS_GetIPv4Addresses
                0x000000000041e114       0x10 build/sam_e70_xult_freertos/production/_ext/810785262/dns.o
                0x000000000041e114                TCPIP_DNS_GetIPv4Addresses

.text.TCPIP_DNS_GetIPv6Addresses%864
                0x000000000041e124       0x10
 .text.TCPIP_DNS_GetIPv6Addresses
                0x000000000041e124       0x10 build/sam_e70_xult_freertos/production/_ext/810785262/dns.o
                0x000000000041e124                TCPIP_DNS_GetIPv6Addresses

.text.TCPIP_Notification_Deinitialize%865
                0x000000000041e134       0x10
 .text.TCPIP_Notification_Deinitialize
                0x000000000041e134       0x10 build/sam_e70_xult_freertos/production/_ext/810785262/tcpip_notify.o
                0x000000000041e134                TCPIP_Notification_Deinitialize

.text.sy_time_h2_adapter_callback%866
                0x000000000041e144       0x10
 .text.sy_time_h2_adapter_callback
                0x000000000041e144       0x10 build/sam_e70_xult_freertos/production/_ext/231871610/sys_time_h2_adapter.o
                0x000000000041e144                sy_time_h2_adapter_callback

.text._APP_Tasks%867
                0x000000000041e154       0x10
 .text._APP_Tasks
                0x000000000041e154       0x10 build/sam_e70_xult_freertos/production/_ext/1552905064/tasks.o
                0x000000000041e154                _APP_Tasks

.text._SYS_CMD_Tasks%868
                0x000000000041e164       0x10
 .text._SYS_CMD_Tasks
                0x000000000041e164       0x10 build/sam_e70_xult_freertos/production/_ext/1552905064/tasks.o
                0x000000000041e164                _SYS_CMD_Tasks

.rodata.tcpipDHCPInitData%869
                0x000000000041e174       0x10
 .rodata.tcpipDHCPInitData
                0x000000000041e174       0x10 build/sam_e70_xult_freertos/production/_ext/1552905064/initialization.o
                0x000000000041e174                tcpipDHCPInitData

.text.vTaskSuspendAll%870
                0x000000000041e184       0x10
 .text.vTaskSuspendAll
                0x000000000041e184       0x10 build/sam_e70_xult_freertos/production/_ext/404212886/FreeRTOS_tasks.o
                0x000000000041e184                vTaskSuspendAll

.text.calloc%871
                0x000000000041e194       0x10
 .text.calloc   0x000000000041e194       0x10 /Applications/microchip/xc32/v2.15/bin/bin/../../lib/gcc/pic32c/6.2.1/../../../../pic32c/lib/v7e-m/fpv5/hard/libc.a(lib_a-calloc.o)
                0x000000000041e194                calloc

.text.malloc%872
                0x000000000041e1a4       0x10
 .text.malloc   0x000000000041e1a4       0x10 /Applications/microchip/xc32/v2.15/bin/bin/../../lib/gcc/pic32c/6.2.1/../../../../pic32c/lib/v7e-m/fpv5/hard/libc.a(lib_a-malloc.o)
                0x000000000041e1a4                malloc

.text.free%873  0x000000000041e1b4       0x10
 .text.free     0x000000000041e1b4       0x10 /Applications/microchip/xc32/v2.15/bin/bin/../../lib/gcc/pic32c/6.2.1/../../../../pic32c/lib/v7e-m/fpv5/hard/libc.a(lib_a-malloc.o)
                0x000000000041e1b4                free

.rodata%874     0x000000000041e1c4       0x10
 .rodata        0x000000000041e1c4       0x10 /Applications/microchip/xc32/v2.15/bin/bin/../../lib/gcc/pic32c/6.2.1/../../../../pic32c/lib/v7e-m/fpv5/hard/libc.a(lib_a-strtod.o)

.text.strtok%875
                0x000000000041e1d4       0x10
 .text.strtok   0x000000000041e1d4       0x10 /Applications/microchip/xc32/v2.15/bin/bin/../../lib/gcc/pic32c/6.2.1/../../../../pic32c/lib/v7e-m/fpv5/hard/libc.a(lib_a-strtok.o)
                0x000000000041e1d4                strtok

.rodata.blanks.8352%876
                0x000000000041e1e4       0x10
 .rodata.blanks.8352
                0x000000000041e1e4       0x10 /Applications/microchip/xc32/v2.15/bin/bin/../../lib/gcc/pic32c/6.2.1/../../../../pic32c/lib/v7e-m/fpv5/hard/libc.a(lib_a-svfprintf.o)

.rodata.zeroes.8353%877
                0x000000000041e1f4       0x10
 .rodata.zeroes.8353
                0x000000000041e1f4       0x10 /Applications/microchip/xc32/v2.15/bin/bin/../../lib/gcc/pic32c/6.2.1/../../../../pic32c/lib/v7e-m/fpv5/hard/libc.a(lib_a-svfprintf.o)

.text.DRV_ETHPHY_Status%878
                0x000000000041e204        0xe
 .text.DRV_ETHPHY_Status
                0x000000000041e204        0xe build/sam_e70_xult_freertos/production/_ext/1607428259/drv_ethphy.o
                0x000000000041e204                DRV_ETHPHY_Status

.text.DRV_ETHPHY_ClientStatus%879
                0x000000000041e212        0xe
 .text.DRV_ETHPHY_ClientStatus
                0x000000000041e212        0xe build/sam_e70_xult_freertos/production/_ext/1607428259/drv_ethphy.o
                0x000000000041e212                DRV_ETHPHY_ClientStatus

.text.DRV_ETHPHY_ClientOperationResult%880
                0x000000000041e220        0xe
 .text.DRV_ETHPHY_ClientOperationResult
                0x000000000041e220        0xe build/sam_e70_xult_freertos/production/_ext/1607428259/drv_ethphy.o
                0x000000000041e220                DRV_ETHPHY_ClientOperationResult

.text.DRV_ETHPHY_VendorDataSet%881
                0x000000000041e22e        0xe
 .text.DRV_ETHPHY_VendorDataSet
                0x000000000041e22e        0xe build/sam_e70_xult_freertos/production/_ext/1607428259/drv_ethphy.o
                0x000000000041e22e                DRV_ETHPHY_VendorDataSet

.text.btohexa_low%882
                0x000000000041e23c        0xe
 .text.btohexa_low
                0x000000000041e23c        0xe build/sam_e70_xult_freertos/production/_ext/810785262/helpers.o
                0x000000000041e23c                btohexa_low

.text.TCPIP_Helper_ChecksumFold%883
                0x000000000041e24a        0xe
 .text.TCPIP_Helper_ChecksumFold
                0x000000000041e24a        0xe build/sam_e70_xult_freertos/production/_ext/810785262/tcpip_helpers.o
                0x000000000041e24a                TCPIP_Helper_ChecksumFold

.text.TCPIP_STACK_NetIndexGet%884
                0x000000000041e258        0xe
 .text.TCPIP_STACK_NetIndexGet
                0x000000000041e258        0xe build/sam_e70_xult_freertos/production/_ext/810785262/tcpip_manager.o
                0x000000000041e258                TCPIP_STACK_NetIndexGet

.text.TCPIP_STACK_NetIxGet%885
                0x000000000041e266        0xe
 .text.TCPIP_STACK_NetIxGet
                0x000000000041e266        0xe build/sam_e70_xult_freertos/production/_ext/810785262/tcpip_manager.o
                0x000000000041e266                TCPIP_STACK_NetIxGet

.text._TCPIPStackSignalHandlerDeregister%886
                0x000000000041e274        0xe
 .text._TCPIPStackSignalHandlerDeregister
                0x000000000041e274        0xe build/sam_e70_xult_freertos/production/_ext/810785262/tcpip_manager.o
                0x000000000041e274                _TCPIPStackSignalHandlerDeregister

.text.main%887  0x000000000041e282        0xe
 .text.main     0x000000000041e282        0xe build/sam_e70_xult_freertos/production/_ext/1360937237/main.o
                0x000000000041e282                main

.text.DRV_ETHPHY_Deinitialize%888
                0x00000000004136f4        0xc
 .text.DRV_ETHPHY_Deinitialize
                0x00000000004136f4        0xc build/sam_e70_xult_freertos/production/_ext/1607428259/drv_ethphy.o
                0x00000000004136f4                DRV_ETHPHY_Deinitialize

.rodata._DRV_PHY_LinkStatPhasesTbl%889
                0x0000000000418b04        0xc
 .rodata._DRV_PHY_LinkStatPhasesTbl
                0x0000000000418b04        0xc build/sam_e70_xult_freertos/production/_ext/1607428259/drv_ethphy.o

.rodata._DRV_PHY_NegRestartPhasesTbl%890
                0x000000000041e290        0xc
 .rodata._DRV_PHY_NegRestartPhasesTbl
                0x000000000041e290        0xc build/sam_e70_xult_freertos/production/_ext/1607428259/drv_ethphy.o

.rodata._DRV_PHY_ResetPhasesTbl%891
                0x000000000041e29c        0xc
 .rodata._DRV_PHY_ResetPhasesTbl
                0x000000000041e29c        0xc build/sam_e70_xult_freertos/production/_ext/1607428259/drv_ethphy.o

.text._DRV_GMAC_GetTxOctetLow%892
                0x000000000041e2a8        0xc
 .text._DRV_GMAC_GetTxOctetLow
                0x000000000041e2a8        0xc build/sam_e70_xult_freertos/production/_ext/1619526243/drv_gmac.o

.text._DRV_GMAC_GetTxOctetHigh%893
                0x000000000041e2b4        0xc
 .text._DRV_GMAC_GetTxOctetHigh
                0x000000000041e2b4        0xc build/sam_e70_xult_freertos/production/_ext/1619526243/drv_gmac.o

.text._DRV_GMAC_GetTxFrameCount%894
                0x000000000041e2c0        0xc
 .text._DRV_GMAC_GetTxFrameCount
                0x000000000041e2c0        0xc build/sam_e70_xult_freertos/production/_ext/1619526243/drv_gmac.o

.text._DRV_GMAC_GetTxBCastFrameCount%895
                0x000000000041e2cc        0xc
 .text._DRV_GMAC_GetTxBCastFrameCount
                0x000000000041e2cc        0xc build/sam_e70_xult_freertos/production/_ext/1619526243/drv_gmac.o

.text._DRV_GMAC_GetTxMCastFrameCount%896
                0x000000000041e2d8        0xc
 .text._DRV_GMAC_GetTxMCastFrameCount
                0x000000000041e2d8        0xc build/sam_e70_xult_freertos/production/_ext/1619526243/drv_gmac.o

.text._DRV_GMAC_GetTxPauseFrameCount%897
                0x000000000041e2e4        0xc
 .text._DRV_GMAC_GetTxPauseFrameCount
                0x000000000041e2e4        0xc build/sam_e70_xult_freertos/production/_ext/1619526243/drv_gmac.o

.text._DRV_GMAC_GetTx64ByteFrameCount%898
                0x000000000041e2f0        0xc
 .text._DRV_GMAC_GetTx64ByteFrameCount
                0x000000000041e2f0        0xc build/sam_e70_xult_freertos/production/_ext/1619526243/drv_gmac.o

.text._DRV_GMAC_GetTx127ByteFrameCount%899
                0x000000000041e2fc        0xc
 .text._DRV_GMAC_GetTx127ByteFrameCount
                0x000000000041e2fc        0xc build/sam_e70_xult_freertos/production/_ext/1619526243/drv_gmac.o

.text._DRV_GMAC_GetTx255ByteFrameCount%900
                0x000000000041e308        0xc
 .text._DRV_GMAC_GetTx255ByteFrameCount
                0x000000000041e308        0xc build/sam_e70_xult_freertos/production/_ext/1619526243/drv_gmac.o

.text._DRV_GMAC_GetTx511ByteFrameCount%901
                0x000000000041e314        0xc
 .text._DRV_GMAC_GetTx511ByteFrameCount
                0x000000000041e314        0xc build/sam_e70_xult_freertos/production/_ext/1619526243/drv_gmac.o

.text._DRV_GMAC_GetTx1023ByteFrameCount%902
                0x000000000041e320        0xc
 .text._DRV_GMAC_GetTx1023ByteFrameCount
                0x000000000041e320        0xc build/sam_e70_xult_freertos/production/_ext/1619526243/drv_gmac.o

.text._DRV_GMAC_GetTx1518ByteFrameCount%903
                0x000000000041e32c        0xc
 .text._DRV_GMAC_GetTx1518ByteFrameCount
                0x000000000041e32c        0xc build/sam_e70_xult_freertos/production/_ext/1619526243/drv_gmac.o

.text._DRV_GMAC_GetTxGT1518ByteFrameCount%904
                0x000000000041e338        0xc
 .text._DRV_GMAC_GetTxGT1518ByteFrameCount
                0x000000000041e338        0xc build/sam_e70_xult_freertos/production/_ext/1619526243/drv_gmac.o

.text._DRV_GMAC_GetTxUnderRunFrameCount%905
                0x000000000041e344        0xc
 .text._DRV_GMAC_GetTxUnderRunFrameCount
                0x000000000041e344        0xc build/sam_e70_xult_freertos/production/_ext/1619526243/drv_gmac.o

.text._DRV_GMAC_GetTxSingleCollFrameCount%906
                0x000000000041e350        0xc
 .text._DRV_GMAC_GetTxSingleCollFrameCount
                0x000000000041e350        0xc build/sam_e70_xult_freertos/production/_ext/1619526243/drv_gmac.o

.text._DRV_GMAC_GetTxMultiCollFrameCount%907
                0x000000000041e35c        0xc
 .text._DRV_GMAC_GetTxMultiCollFrameCount
                0x000000000041e35c        0xc build/sam_e70_xult_freertos/production/_ext/1619526243/drv_gmac.o

.text._DRV_GMAC_GetTxExcessCollFrameCount%908
                0x000000000041e368        0xc
 .text._DRV_GMAC_GetTxExcessCollFrameCount
                0x000000000041e368        0xc build/sam_e70_xult_freertos/production/_ext/1619526243/drv_gmac.o

.text._DRV_GMAC_GetTxLateCollFrameCount%909
                0x000000000041e374        0xc
 .text._DRV_GMAC_GetTxLateCollFrameCount
                0x000000000041e374        0xc build/sam_e70_xult_freertos/production/_ext/1619526243/drv_gmac.o

.text._DRV_GMAC_GetTxDeferFrameCount%910
                0x000000000041e380        0xc
 .text._DRV_GMAC_GetTxDeferFrameCount
                0x000000000041e380        0xc build/sam_e70_xult_freertos/production/_ext/1619526243/drv_gmac.o

.text._DRV_GMAC_GetTxCSErrorFrameCount%911
                0x000000000041e38c        0xc
 .text._DRV_GMAC_GetTxCSErrorFrameCount
                0x000000000041e38c        0xc build/sam_e70_xult_freertos/production/_ext/1619526243/drv_gmac.o

.text._DRV_GMAC_GetRxOctetLow%912
                0x000000000041e398        0xc
 .text._DRV_GMAC_GetRxOctetLow
                0x000000000041e398        0xc build/sam_e70_xult_freertos/production/_ext/1619526243/drv_gmac.o

.text._DRV_GMAC_GetRxOctetHigh%913
                0x000000000041e3a4        0xc
 .text._DRV_GMAC_GetRxOctetHigh
                0x000000000041e3a4        0xc build/sam_e70_xult_freertos/production/_ext/1619526243/drv_gmac.o

.text._DRV_GMAC_GetRxFrameCount%914
                0x000000000041e3b0        0xc
 .text._DRV_GMAC_GetRxFrameCount
                0x000000000041e3b0        0xc build/sam_e70_xult_freertos/production/_ext/1619526243/drv_gmac.o

.text._DRV_GMAC_GetRxBCastFrameCount%915
                0x000000000041e3bc        0xc
 .text._DRV_GMAC_GetRxBCastFrameCount
                0x000000000041e3bc        0xc build/sam_e70_xult_freertos/production/_ext/1619526243/drv_gmac.o

.text._DRV_GMAC_GetRxMCastFrameCount%916
                0x000000000041e3c8        0xc
 .text._DRV_GMAC_GetRxMCastFrameCount
                0x000000000041e3c8        0xc build/sam_e70_xult_freertos/production/_ext/1619526243/drv_gmac.o

.text._DRV_GMAC_GetRxPauseFrameCount%917
                0x000000000041e3d4        0xc
 .text._DRV_GMAC_GetRxPauseFrameCount
                0x000000000041e3d4        0xc build/sam_e70_xult_freertos/production/_ext/1619526243/drv_gmac.o

.text._DRV_GMAC_GetRx64ByteFrameCount%918
                0x000000000041e3e0        0xc
 .text._DRV_GMAC_GetRx64ByteFrameCount
                0x000000000041e3e0        0xc build/sam_e70_xult_freertos/production/_ext/1619526243/drv_gmac.o

.text._DRV_GMAC_GetRx127ByteFrameCount%919
                0x000000000041e3ec        0xc
 .text._DRV_GMAC_GetRx127ByteFrameCount
                0x000000000041e3ec        0xc build/sam_e70_xult_freertos/production/_ext/1619526243/drv_gmac.o

.text._DRV_GMAC_GetRx255ByteFrameCount%920
                0x000000000041e3f8        0xc
 .text._DRV_GMAC_GetRx255ByteFrameCount
                0x000000000041e3f8        0xc build/sam_e70_xult_freertos/production/_ext/1619526243/drv_gmac.o

.text._DRV_GMAC_GetRx511ByteFrameCount%921
                0x000000000041e404        0xc
 .text._DRV_GMAC_GetRx511ByteFrameCount
                0x000000000041e404        0xc build/sam_e70_xult_freertos/production/_ext/1619526243/drv_gmac.o

.text._DRV_GMAC_GetRx1023ByteFrameCount%922
                0x000000000041e410        0xc
 .text._DRV_GMAC_GetRx1023ByteFrameCount
                0x000000000041e410        0xc build/sam_e70_xult_freertos/production/_ext/1619526243/drv_gmac.o

.text._DRV_GMAC_GetRx1518ByteFrameCount%923
                0x000000000041e41c        0xc
 .text._DRV_GMAC_GetRx1518ByteFrameCount
                0x000000000041e41c        0xc build/sam_e70_xult_freertos/production/_ext/1619526243/drv_gmac.o

.text._DRV_GMAC_GetRxGT1518ByteFrameCount%924
                0x000000000041e428        0xc
 .text._DRV_GMAC_GetRxGT1518ByteFrameCount
                0x000000000041e428        0xc build/sam_e70_xult_freertos/production/_ext/1619526243/drv_gmac.o

.text._DRV_GMAC_GetRxUnderSizeFrameCount%925
                0x000000000041e434        0xc
 .text._DRV_GMAC_GetRxUnderSizeFrameCount
                0x000000000041e434        0xc build/sam_e70_xult_freertos/production/_ext/1619526243/drv_gmac.o

.text._DRV_GMAC_GetRxOverSizeFrameCount%926
                0x000000000041e440        0xc
 .text._DRV_GMAC_GetRxOverSizeFrameCount
                0x000000000041e440        0xc build/sam_e70_xult_freertos/production/_ext/1619526243/drv_gmac.o

.text._DRV_GMAC_GetRxJabberFrameCount%927
                0x000000000041e44c        0xc
 .text._DRV_GMAC_GetRxJabberFrameCount
                0x000000000041e44c        0xc build/sam_e70_xult_freertos/production/_ext/1619526243/drv_gmac.o

.text._DRV_GMAC_GetRxFCSErrorFrameCount%928
                0x000000000041e458        0xc
 .text._DRV_GMAC_GetRxFCSErrorFrameCount
                0x000000000041e458        0xc build/sam_e70_xult_freertos/production/_ext/1619526243/drv_gmac.o

.text._DRV_GMAC_GetRxLFErrorFrameCount%929
                0x000000000041e464        0xc
 .text._DRV_GMAC_GetRxLFErrorFrameCount
                0x000000000041e464        0xc build/sam_e70_xult_freertos/production/_ext/1619526243/drv_gmac.o

.text._DRV_GMAC_GetRxSymErrorFrameCount%930
                0x000000000041e470        0xc
 .text._DRV_GMAC_GetRxSymErrorFrameCount
                0x000000000041e470        0xc build/sam_e70_xult_freertos/production/_ext/1619526243/drv_gmac.o

.text._DRV_GMAC_GetRxAlignErrorFrameCount%931
                0x000000000041e47c        0xc
 .text._DRV_GMAC_GetRxAlignErrorFrameCount
                0x000000000041e47c        0xc build/sam_e70_xult_freertos/production/_ext/1619526243/drv_gmac.o

.text._DRV_GMAC_GetRxResErrorFrameCount%932
                0x000000000041e488        0xc
 .text._DRV_GMAC_GetRxResErrorFrameCount
                0x000000000041e488        0xc build/sam_e70_xult_freertos/production/_ext/1619526243/drv_gmac.o

.text._DRV_GMAC_GetRxOverRunFrameCount%933
                0x000000000041e494        0xc
 .text._DRV_GMAC_GetRxOverRunFrameCount
                0x000000000041e494        0xc build/sam_e70_xult_freertos/production/_ext/1619526243/drv_gmac.o

.text._DRV_GMAC_GetRxIPHdrCSErrorFrameCount%934
                0x000000000041e4a0        0xc
 .text._DRV_GMAC_GetRxIPHdrCSErrorFrameCount
                0x000000000041e4a0        0xc build/sam_e70_xult_freertos/production/_ext/1619526243/drv_gmac.o

.text._DRV_GMAC_GetRxTCPCSErrorFrameCount%935
                0x000000000041e4ac        0xc
 .text._DRV_GMAC_GetRxTCPCSErrorFrameCount
                0x000000000041e4ac        0xc build/sam_e70_xult_freertos/production/_ext/1619526243/drv_gmac.o

.text._DRV_GMAC_GetRxUDPCSErrorFrameCount%936
                0x000000000041e4b8        0xc
 .text._DRV_GMAC_GetRxUDPCSErrorFrameCount
                0x000000000041e4b8        0xc build/sam_e70_xult_freertos/production/_ext/1619526243/drv_gmac.o

.text.btohexa_high%937
                0x000000000041e4c4        0xc
 .text.btohexa_high
                0x000000000041e4c4        0xc build/sam_e70_xult_freertos/production/_ext/810785262/helpers.o
                0x000000000041e4c4                btohexa_high

.text.TCPIP_DNS_OAHASH_KeyCompare%938
                0x000000000041e4d0        0xc
 .text.TCPIP_DNS_OAHASH_KeyCompare
                0x000000000041e4d0        0xc build/sam_e70_xult_freertos/production/_ext/810785262/dns.o

.text.TCPIP_DNS_Enable%939
                0x000000000041e4dc        0xc
 .text.TCPIP_DNS_Enable
                0x000000000041e4dc        0xc build/sam_e70_xult_freertos/production/_ext/810785262/dns.o
                0x000000000041e4dc                TCPIP_DNS_Enable

.text.TCPIP_ARP_HashKeyCompare%940
                0x000000000041e4e8        0xc
 .text.TCPIP_ARP_HashKeyCompare
                0x000000000041e4e8        0xc build/sam_e70_xult_freertos/production/_ext/810785262/arp.o
                0x000000000041e4e8                TCPIP_ARP_HashKeyCompare

.text.TCPIP_STACK_NetDefaultGet%941
                0x000000000041e4f4        0xc
 .text.TCPIP_STACK_NetDefaultGet
                0x000000000041e4f4        0xc build/sam_e70_xult_freertos/production/_ext/810785262/tcpip_manager.o
                0x000000000041e4f4                TCPIP_STACK_NetDefaultGet

.text.TCPIP_STACK_NumberOfNetworksGet%942
                0x000000000041e500        0xc
 .text.TCPIP_STACK_NumberOfNetworksGet
                0x000000000041e500        0xc build/sam_e70_xult_freertos/production/_ext/810785262/tcpip_manager.o
                0x000000000041e500                TCPIP_STACK_NumberOfNetworksGet

.rodata.TCPIP_STACK_IF_ALIAS_NAME_TBL%943
                0x000000000041e50c        0xc
 .rodata.TCPIP_STACK_IF_ALIAS_NAME_TBL
                0x000000000041e50c        0xc build/sam_e70_xult_freertos/production/_ext/810785262/tcpip_manager.o

.text.TCPIP_PKT_Deinitialize%944
                0x000000000041e518        0xc
 .text.TCPIP_PKT_Deinitialize
                0x000000000041e518        0xc build/sam_e70_xult_freertos/production/_ext/810785262/tcpip_packet.o
                0x000000000041e518                TCPIP_PKT_Deinitialize

.text.TC0_CH0_TimerStart%945
                0x000000000041e524        0xc
 .text.TC0_CH0_TimerStart
                0x000000000041e524        0xc build/sam_e70_xult_freertos/production/_ext/1245453995/plib_tc0.o
                0x000000000041e524                TC0_CH0_TimerStart

.text.TC0_CH0_TimerStop%946
                0x000000000041e530        0xc
 .text.TC0_CH0_TimerStop
                0x000000000041e530        0xc build/sam_e70_xult_freertos/production/_ext/1245453995/plib_tc0.o
                0x000000000041e530                TC0_CH0_TimerStop

.text.TC0_CH0_TimerPeriodSet%947
                0x000000000041e53c        0xc
 .text.TC0_CH0_TimerPeriodSet
                0x000000000041e53c        0xc build/sam_e70_xult_freertos/production/_ext/1245453995/plib_tc0.o
                0x000000000041e53c                TC0_CH0_TimerPeriodSet

.text.TC0_CH0_TimerCompareSet%948
                0x000000000041e548        0xc
 .text.TC0_CH0_TimerCompareSet
                0x000000000041e548        0xc build/sam_e70_xult_freertos/production/_ext/1245453995/plib_tc0.o
                0x000000000041e548                TC0_CH0_TimerCompareSet

.text.TC0_CH0_TimerCounterGet%949
                0x000000000041e554        0xc
 .text.TC0_CH0_TimerCounterGet
                0x000000000041e554        0xc build/sam_e70_xult_freertos/production/_ext/1245453995/plib_tc0.o
                0x000000000041e554                TC0_CH0_TimerCounterGet

.text.TC0_CH0_TimerCallbackRegister%950
                0x000000000041e560        0xc
 .text.TC0_CH0_TimerCallbackRegister
                0x000000000041e560        0xc build/sam_e70_xult_freertos/production/_ext/1245453995/plib_tc0.o
                0x000000000041e560                TC0_CH0_TimerCallbackRegister

.text.USART1_WriteCallbackRegister%951
                0x000000000041e56c        0xc
 .text.USART1_WriteCallbackRegister
                0x000000000041e56c        0xc build/sam_e70_xult_freertos/production/_ext/901008055/plib_usart1.o
                0x000000000041e56c                USART1_WriteCallbackRegister

.text.USART1_ReadCallbackRegister%952
                0x000000000041e578        0xc
 .text.USART1_ReadCallbackRegister
                0x000000000041e578        0xc build/sam_e70_xult_freertos/production/_ext/901008055/plib_usart1.o
                0x000000000041e578                USART1_ReadCallbackRegister

.text.SYS_DEBUG_ErrorLevelGet%953
                0x000000000041e584        0xc
 .text.SYS_DEBUG_ErrorLevelGet
                0x000000000041e584        0xc build/sam_e70_xult_freertos/production/_ext/762686499/sys_debug.o
                0x000000000041e584                SYS_DEBUG_ErrorLevelGet

.text.SYS_CMD_MESSAGE%954
                0x000000000041e590        0xc
 .text.SYS_CMD_MESSAGE
                0x000000000041e590        0xc build/sam_e70_xult_freertos/production/_ext/762686499/sys_command.o
                0x000000000041e590                SYS_CMD_MESSAGE

.text.SYS_TIME_FrequencyGet%955
                0x000000000041e59c        0xc
 .text.SYS_TIME_FrequencyGet
                0x000000000041e59c        0xc build/sam_e70_xult_freertos/production/_ext/912870411/sys_time.o
                0x000000000041e59c                SYS_TIME_FrequencyGet

.rodata.sysConsole0Init%956
                0x000000000041e5a8        0xc
 .rodata.sysConsole0Init
                0x000000000041e5a8        0xc build/sam_e70_xult_freertos/production/_ext/1552905064/initialization.o
                0x000000000041e5a8                sysConsole0Init

.text.vTaskMissedYield%957
                0x000000000041e5b4        0xc
 .text.vTaskMissedYield
                0x000000000041e5b4        0xc build/sam_e70_xult_freertos/production/_ext/404212886/FreeRTOS_tasks.o
                0x000000000041e5b4                vTaskMissedYield

.text.atexit%958
                0x000000000041e5c0        0xc
 .text.atexit   0x000000000041e5c0        0xc /Applications/microchip/xc32/v2.15/bin/bin/../../lib/gcc/pic32c/6.2.1/../../../../pic32c/lib/v7e-m/fpv5/hard/libc.a(lib_a-atexit.o)
                0x000000000041e5c0                atexit

.rodata.p05.7179%959
                0x000000000041e5cc        0xc
 .rodata.p05.7179
                0x000000000041e5cc        0xc /Applications/microchip/xc32/v2.15/bin/bin/../../lib/gcc/pic32c/6.2.1/../../../../pic32c/lib/v7e-m/fpv5/hard/libc.a(lib_a-mprec.o)

.text.GMAC_InterruptHandler%960
                0x000000000041e5d8        0xa
 .text.GMAC_InterruptHandler
                0x000000000041e5d8        0xa build/sam_e70_xult_freertos/production/_ext/1619526243/drv_gmac.o
                0x000000000041e5d8                GMAC_InterruptHandler

.text.TCPIP_DNS_Resolve%961
                0x000000000041e5e2        0xa
 .text.TCPIP_DNS_Resolve
                0x000000000041e5e2        0xa build/sam_e70_xult_freertos/production/_ext/810785262/dns.o
                0x000000000041e5e2                TCPIP_DNS_Resolve

.text._Command_ZcllOnOff%962
                0x000000000041e5ec        0xa
 .text._Command_ZcllOnOff
                0x000000000041e5ec        0xa build/sam_e70_xult_freertos/production/_ext/810785262/tcpip_commands.o

.text._Command_DHCPSOnOff%963
                0x000000000041e5f6        0xa
 .text._Command_DHCPSOnOff
                0x000000000041e5f6        0xa build/sam_e70_xult_freertos/production/_ext/810785262/tcpip_commands.o

.text.TCPIP_Helper_SingleListInitialize%964
                0x000000000041e600        0xa
 .text.TCPIP_Helper_SingleListInitialize
                0x000000000041e600        0xa build/sam_e70_xult_freertos/production/_ext/810785262/tcpip_helpers.o
                0x000000000041e600                TCPIP_Helper_SingleListInitialize

.text.TCPIP_STACK_NetBIOSName%965
                0x000000000041e60a        0xa
 .text.TCPIP_STACK_NetBIOSName
                0x000000000041e60a        0xa build/sam_e70_xult_freertos/production/_ext/810785262/tcpip_manager.o
                0x000000000041e60a                TCPIP_STACK_NetBIOSName

.text._TCPIPStackAddressServiceIsRunning%966
                0x000000000041e614        0xa
 .text._TCPIPStackAddressServiceIsRunning
                0x000000000041e614        0xa build/sam_e70_xult_freertos/production/_ext/810785262/tcpip_manager.o
                0x000000000041e614                _TCPIPStackAddressServiceIsRunning

.text.TCPIP_UDP_ClientOpen%967
                0x000000000041e61e        0xa
 .text.TCPIP_UDP_ClientOpen
                0x000000000041e61e        0xa build/sam_e70_xult_freertos/production/_ext/810785262/udp.o
                0x000000000041e61e                TCPIP_UDP_ClientOpen

.text._DRV_ETHPHY_ClientOpSmiScan%968
                0x000000000041e628        0x8
 .text._DRV_ETHPHY_ClientOpSmiScan
                0x000000000041e628        0x8 build/sam_e70_xult_freertos/production/_ext/1607428259/drv_ethphy.o

.text.DRV_EXTPHY_SMIClockGet%969
                0x000000000041e630        0x8
 .text.DRV_EXTPHY_SMIClockGet
                0x000000000041e630        0x8 build/sam_e70_xult_freertos/production/_ext/1607428259/drv_extphy_smsc8740.o

.text.DRV_GMAC_EventPendingGet%970
                0x000000000041e638        0x8
 .text.DRV_GMAC_EventPendingGet
                0x000000000041e638        0x8 build/sam_e70_xult_freertos/production/_ext/1619526243/drv_gmac.o
                0x000000000041e638                DRV_GMAC_EventPendingGet

.text.TCPIP_HEAP_MallocOutline%971
                0x000000000041e640        0x8
 .text.TCPIP_HEAP_MallocOutline
                0x000000000041e640        0x8 build/sam_e70_xult_freertos/production/_ext/810785262/tcpip_heap_alloc.o
                0x000000000041e640                TCPIP_HEAP_MallocOutline

.text.TCPIP_HEAP_CallocOutline%972
                0x000000000041e648        0x8
 .text.TCPIP_HEAP_CallocOutline
                0x000000000041e648        0x8 build/sam_e70_xult_freertos/production/_ext/810785262/tcpip_heap_alloc.o
                0x000000000041e648                TCPIP_HEAP_CallocOutline

.text.TCPIP_HEAP_FreeOutline%973
                0x000000000041e650        0x8
 .text.TCPIP_HEAP_FreeOutline
                0x000000000041e650        0x8 build/sam_e70_xult_freertos/production/_ext/810785262/tcpip_heap_alloc.o
                0x000000000041e650                TCPIP_HEAP_FreeOutline

.text.TCPIP_STACK_GatewayAddressSet%974
                0x000000000041e658        0x8
 .text.TCPIP_STACK_GatewayAddressSet
                0x000000000041e658        0x8 build/sam_e70_xult_freertos/production/_ext/810785262/tcpip_manager.o
                0x000000000041e658                TCPIP_STACK_GatewayAddressSet

.text.TCPIP_STACK_PrimaryDNSAddressSet%975
                0x000000000041e660        0x8
 .text.TCPIP_STACK_PrimaryDNSAddressSet
                0x000000000041e660        0x8 build/sam_e70_xult_freertos/production/_ext/810785262/tcpip_manager.o
                0x000000000041e660                TCPIP_STACK_PrimaryDNSAddressSet

.text.TCPIP_STACK_SecondaryDNSAddressSet%976
                0x000000000041e668        0x8
 .text.TCPIP_STACK_SecondaryDNSAddressSet
                0x000000000041e668        0x8 build/sam_e70_xult_freertos/production/_ext/810785262/tcpip_manager.o
                0x000000000041e668                TCPIP_STACK_SecondaryDNSAddressSet

.text.TCPIP_STACK_NetGetType%977
                0x000000000041e670        0x8
 .text.TCPIP_STACK_NetGetType
                0x000000000041e670        0x8 build/sam_e70_xult_freertos/production/_ext/810785262/tcpip_manager.o
                0x000000000041e670                TCPIP_STACK_NetGetType

.text.TCPIP_Notification_Initialize%978
                0x000000000041e678        0x8
 .text.TCPIP_Notification_Initialize
                0x000000000041e678        0x8 build/sam_e70_xult_freertos/production/_ext/810785262/tcpip_notify.o
                0x000000000041e678                TCPIP_Notification_Initialize

.text.TCPIP_UDP_TxPutIsReady%979
                0x000000000041e680        0x8
 .text.TCPIP_UDP_TxPutIsReady
                0x000000000041e680        0x8 build/sam_e70_xult_freertos/production/_ext/810785262/udp.o
                0x000000000041e680                TCPIP_UDP_TxPutIsReady

.text.TC0_CH0_TimerFrequencyGet%980
                0x000000000041e688        0x8
 .text.TC0_CH0_TimerFrequencyGet
                0x000000000041e688        0x8 build/sam_e70_xult_freertos/production/_ext/1245453995/plib_tc0.o
                0x000000000041e688                TC0_CH0_TimerFrequencyGet

.rodata.drvMiimInitData%981
                0x000000000041e690        0x8
 .rodata.drvMiimInitData
                0x000000000041e690        0x8 build/sam_e70_xult_freertos/production/_ext/1552905064/initialization.o

.rodata.sysTimeInitData%982
                0x000000000041e698        0x8
 .rodata.sysTimeInitData
                0x000000000041e698        0x8 build/sam_e70_xult_freertos/production/_ext/1552905064/initialization.o
                0x000000000041e698                sysTimeInitData

.rodata.tcpipTCPInitData%983
                0x000000000041e6a0        0x8
 .rodata.tcpipTCPInitData
                0x000000000041e6a0        0x8 build/sam_e70_xult_freertos/production/_ext/1552905064/initialization.o
                0x000000000041e6a0                tcpipTCPInitData

.rodata.tcpipUDPInitData%984
                0x000000000041e6a8        0x8
 .rodata.tcpipUDPInitData
                0x000000000041e6a8        0x8 build/sam_e70_xult_freertos/production/_ext/1552905064/initialization.o
                0x000000000041e6a8                tcpipUDPInitData

.text.vQueueDelete%985
                0x000000000041e6b0        0x8
 .text.vQueueDelete
                0x000000000041e6b0        0x8 build/sam_e70_xult_freertos/production/_ext/404212886/queue.o
                0x000000000041e6b0                vQueueDelete

.rodata%986     0x000000000041e6b8        0x8
 .rodata        0x000000000041e6b8        0x8 build/sam_e70_xult_freertos/production/_ext/404212886/FreeRTOS_tasks.o

.text.atof%987  0x000000000041e6c0        0x8
 .text.atof     0x000000000041e6c0        0x8 /Applications/microchip/xc32/v2.15/bin/bin/../../lib/gcc/pic32c/6.2.1/../../../../pic32c/lib/v7e-m/fpv5/hard/libc.a(lib_a-atof.o)
                0x000000000041e6c0                atof

.text.atoi%988  0x000000000041e6c8        0x8
 .text.atoi     0x000000000041e6c8        0x8 /Applications/microchip/xc32/v2.15/bin/bin/../../lib/gcc/pic32c/6.2.1/../../../../pic32c/lib/v7e-m/fpv5/hard/libc.a(lib_a-atoi.o)
                0x000000000041e6c8                atoi

.text.__locale_ctype_ptr_l%989
                0x000000000041e6d0        0x8
 .text.__locale_ctype_ptr_l
                0x000000000041e6d0        0x8 /Applications/microchip/xc32/v2.15/bin/bin/../../lib/gcc/pic32c/6.2.1/../../../../pic32c/lib/v7e-m/fpv5/hard/libc.a(lib_a-locale.o)
                0x000000000041e6d0                __locale_ctype_ptr_l

.text.DRV_ETHPHY_SMIRead%990
                0x000000000041e6d8        0x6
 .text.DRV_ETHPHY_SMIRead
                0x000000000041e6d8        0x6 build/sam_e70_xult_freertos/production/_ext/1607428259/drv_ethphy.o
                0x000000000041e6d8                DRV_ETHPHY_SMIRead

.text.DRV_ETHPHY_SMIWrite%991
                0x000000000041e6de        0x6
 .text.DRV_ETHPHY_SMIWrite
                0x000000000041e6de        0x6 build/sam_e70_xult_freertos/production/_ext/1607428259/drv_ethphy.o
                0x000000000041e6de                DRV_ETHPHY_SMIWrite

.text.DRV_ETHPHY_SMIScanStart%992
                0x000000000041e6e4        0x6
 .text.DRV_ETHPHY_SMIScanStart
                0x000000000041e6e4        0x6 build/sam_e70_xult_freertos/production/_ext/1607428259/drv_ethphy.o
                0x000000000041e6e4                DRV_ETHPHY_SMIScanStart

.text.DRV_ETHPHY_SMIScanStop%993
                0x000000000041e6ea        0x6
 .text.DRV_ETHPHY_SMIScanStop
                0x000000000041e6ea        0x6 build/sam_e70_xult_freertos/production/_ext/1607428259/drv_ethphy.o
                0x000000000041e6ea                DRV_ETHPHY_SMIScanStop

.text.DRV_ETHPHY_SMIScanStatusGet%994
                0x000000000041e6f0        0x6
 .text.DRV_ETHPHY_SMIScanStatusGet
                0x000000000041e6f0        0x6 build/sam_e70_xult_freertos/production/_ext/1607428259/drv_ethphy.o
                0x000000000041e6f0                DRV_ETHPHY_SMIScanStatusGet

.text.DRV_ETHPHY_SMIScanDataGet%995
                0x000000000041e6f6        0x6
 .text.DRV_ETHPHY_SMIScanDataGet
                0x000000000041e6f6        0x6 build/sam_e70_xult_freertos/production/_ext/1607428259/drv_ethphy.o
                0x000000000041e6f6                DRV_ETHPHY_SMIScanDataGet

.text.DRV_ETHPHY_SMIStatus%996
                0x000000000041e6fc        0x6
 .text.DRV_ETHPHY_SMIStatus
                0x000000000041e6fc        0x6 build/sam_e70_xult_freertos/production/_ext/1607428259/drv_ethphy.o
                0x000000000041e6fc                DRV_ETHPHY_SMIStatus

.text.DRV_ETHPHY_SMIClockSet%997
                0x000000000041e702        0x6
 .text.DRV_ETHPHY_SMIClockSet
                0x000000000041e702        0x6 build/sam_e70_xult_freertos/production/_ext/1607428259/drv_ethphy.o
                0x000000000041e702                DRV_ETHPHY_SMIClockSet

.text.TCPIP_ARP_HashKeyCopy%998
                0x000000000041e708        0x6
 .text.TCPIP_ARP_HashKeyCopy
                0x000000000041e708        0x6 build/sam_e70_xult_freertos/production/_ext/810785262/arp.o
                0x000000000041e708                TCPIP_ARP_HashKeyCopy

.text.vListInitialiseItem%999
                0x000000000041e70e        0x6
 .text.vListInitialiseItem
                0x000000000041e70e        0x6 build/sam_e70_xult_freertos/production/_ext/404212886/list.o
                0x000000000041e70e                vListInitialiseItem

.text.DRV_GMAC_PowerMode%1000
                0x0000000000400194        0x4
 .text.DRV_GMAC_PowerMode
                0x0000000000400194        0x4 build/sam_e70_xult_freertos/production/_ext/1619526243/drv_gmac.o
                0x0000000000400194                DRV_GMAC_PowerMode

.text._DHCPOptionProcessEnd%1001
                0x000000000040537c        0x4
 .text._DHCPOptionProcessEnd
                0x000000000040537c        0x4 build/sam_e70_xult_freertos/production/_ext/810785262/dhcp.o

.rodata._DHCPRequestParamsTbl%1002
                0x000000000040a22c        0x4
 .rodata._DHCPRequestParamsTbl
                0x000000000040a22c        0x4 build/sam_e70_xult_freertos/production/_ext/810785262/dhcp.o

.rodata.dhcpMagicCookie%1003
                0x000000000041587c        0x4
 .rodata.dhcpMagicCookie
                0x000000000041587c        0x4 build/sam_e70_xult_freertos/production/_ext/810785262/dhcp.o

.text.TCPIP_IPV4_IsFragmentationEnabled%1004
                0x000000000041745c        0x4
 .text.TCPIP_IPV4_IsFragmentationEnabled
                0x000000000041745c        0x4 build/sam_e70_xult_freertos/production/_ext/810785262/ipv4.o
                0x000000000041745c                TCPIP_IPV4_IsFragmentationEnabled

.text.GetCommandCharacter%1005
                0x000000000041b5ec        0x4
 .text.GetCommandCharacter
                0x000000000041b5ec        0x4 build/sam_e70_xult_freertos/production/_ext/762686499/sys_command.o

.rodata._seqDownArrow%1006
                0x000000000041cbec        0x4
 .rodata._seqDownArrow
                0x000000000041cbec        0x4 build/sam_e70_xult_freertos/production/_ext/762686499/sys_command.o

.rodata._seqLeftArrow%1007
                0x000000000041cfcc        0x4
 .rodata._seqLeftArrow
                0x000000000041cfcc        0x4 build/sam_e70_xult_freertos/production/_ext/762686499/sys_command.o

.rodata._seqRightArrow%1008
                0x000000000041e714        0x4
 .rodata._seqRightArrow
                0x000000000041e714        0x4 build/sam_e70_xult_freertos/production/_ext/762686499/sys_command.o

.rodata._seqUpArrow%1009
                0x000000000041e718        0x4
 .rodata._seqUpArrow
                0x000000000041e718        0x4 build/sam_e70_xult_freertos/production/_ext/762686499/sys_command.o

.rodata.debugInit%1010
                0x000000000041e71c        0x4
 .rodata.debugInit
                0x000000000041e71c        0x4 build/sam_e70_xult_freertos/production/_ext/1552905064/initialization.o
                0x000000000041e71c                debugInit

.rodata.sysCmdInit%1011
                0x000000000041e720        0x4
 .rodata.sysCmdInit
                0x000000000041e720        0x4 build/sam_e70_xult_freertos/production/_ext/1552905064/initialization.o
                0x000000000041e720                sysCmdInit

.text%1012      0x000000000041e724        0x4
 .text          0x000000000041e724        0x4 /Applications/microchip/xc32/v2.15/bin/bin/../../lib/gcc/pic32c/6.2.1/v7e-m/fpv5/hard/libgcc.a(_dvmd_tls.o)
                0x000000000041e724                __aeabi_ldiv0
                0x000000000041e724                __aeabi_idiv0

.rodata._global_impure_ptr%1013
                0x000000000041e728        0x4
 .rodata._global_impure_ptr
                0x000000000041e728        0x4 /Applications/microchip/xc32/v2.15/bin/bin/../../lib/gcc/pic32c/6.2.1/../../../../pic32c/lib/v7e-m/fpv5/hard/libc.a(lib_a-impure.o)
                0x000000000041e728                _global_impure_ptr

.text.__malloc_lock%1014
                0x000000000041e72c        0x4
 .text.__malloc_lock
                0x000000000041e72c        0x4 /Applications/microchip/xc32/v2.15/bin/bin/../../lib/gcc/pic32c/6.2.1/../../../../pic32c/lib/v7e-m/fpv5/hard/libc.a(lib_a-mlock.o)
                0x000000000041e72c                __malloc_lock

.text.__malloc_unlock%1015
                0x000000000041e730        0x4
 .text.__malloc_unlock
                0x000000000041e730        0x4 /Applications/microchip/xc32/v2.15/bin/bin/../../lib/gcc/pic32c/6.2.1/../../../../pic32c/lib/v7e-m/fpv5/hard/libc.a(lib_a-mlock.o)
                0x000000000041e730                __malloc_unlock

.text.__localeconv_l%1016
                0x000000000041e734        0x4
 .text.__localeconv_l
                0x000000000041e734        0x4 /Applications/microchip/xc32/v2.15/bin/bin/../../lib/gcc/pic32c/6.2.1/../../../../pic32c/lib/v7e-m/fpv5/hard/libc.a(lib_a-localeconv.o)
                0x000000000041e734                __localeconv_l

.text._DRV_ETHPHY_ClientOpNone%1017
                0x000000000040d52e        0x2
 .text._DRV_ETHPHY_ClientOpNone
                0x000000000040d52e        0x2 build/sam_e70_xult_freertos/production/_ext/1607428259/drv_ethphy.o

.text.DRV_GMAC_Reinitialize%1018
                0x00000000004109ca        0x2
 .text.DRV_GMAC_Reinitialize
                0x00000000004109ca        0x2 build/sam_e70_xult_freertos/production/_ext/1619526243/drv_gmac.o
                0x00000000004109ca                DRV_GMAC_Reinitialize

.text.DRV_MIIM_Reinitialize%1019
                0x0000000000411876        0x2
 .text.DRV_MIIM_Reinitialize
                0x0000000000411876        0x2 build/sam_e70_xult_freertos/production/_ext/511568427/drv_miim.o
                0x0000000000411876                DRV_MIIM_Reinitialize

.text._TCPIP_HEAP_BufferMapNonCached%1020
                0x0000000000411ba6        0x2
 .text._TCPIP_HEAP_BufferMapNonCached
                0x0000000000411ba6        0x2 build/sam_e70_xult_freertos/production/_ext/810785262/tcpip_heap_alloc.o
                0x0000000000411ba6                _TCPIP_HEAP_BufferMapNonCached

.text.Console_UART_Tasks%1021
                0x000000000041279e        0x2
 .text.Console_UART_Tasks
                0x000000000041279e        0x2 build/sam_e70_xult_freertos/production/_ext/762686499/sys_console_uart.o
                0x000000000041279e                Console_UART_Tasks

.text.Dummy_Handler%1022
                0x00000000004143c2        0x2
 .text.Dummy_Handler
                0x00000000004143c2        0x2 build/sam_e70_xult_freertos/production/_ext/1552905064/interrupts.o
                0x00000000004143c2                SPI0_Handler
                0x00000000004143c2                TC0_CH2_Handler
                0x00000000004143c2                TC3_CH1_Handler
                0x00000000004143c2                UART3_Handler
                0x00000000004143c2                UART2_Handler
                0x00000000004143c2                TRNG_Handler
                0x00000000004143c2                AFEC1_Handler
                0x00000000004143c2                TC0_CH1_Handler
                0x00000000004143c2                QSPI_Handler
                0x00000000004143c2                ISI_Handler
                0x00000000004143c2                MCAN0_INT0_Handler
                0x00000000004143c2                RSWDT_Handler
                0x00000000004143c2                USART0_Handler
                0x00000000004143c2                TC1_CH2_Handler
                0x00000000004143c2                RTT_Handler
                0x00000000004143c2                USBHS_Handler
                0x00000000004143c2                IXC_Handler
                0x00000000004143c2                CCF_Handler
                0x00000000004143c2                PIOB_Handler
                0x00000000004143c2                RTC_Handler
                0x00000000004143c2                WDT_Handler
                0x00000000004143c2                MCAN1_INT1_Handler
                0x00000000004143c2                HSMCI_Handler
                0x00000000004143c2                UART1_Handler
                0x00000000004143c2                Dummy_Handler
                0x00000000004143c2                TWIHS1_Handler
                0x00000000004143c2                TC3_CH2_Handler
                0x00000000004143c2                XDMAC_Handler
                0x00000000004143c2                UART4_Handler
                0x00000000004143c2                TC2_CH0_Handler
                0x00000000004143c2                PWM1_Handler
                0x00000000004143c2                PWM0_Handler
                0x00000000004143c2                PIOA_Handler
                0x00000000004143c2                AFEC0_Handler
                0x00000000004143c2                CCW_Handler
                0x00000000004143c2                TC3_CH0_Handler
                0x00000000004143c2                SSC_Handler
                0x00000000004143c2                TC1_CH0_Handler
                0x00000000004143c2                ACC_Handler
                0x00000000004143c2                PMC_Handler
                0x00000000004143c2                TC2_CH2_Handler
                0x00000000004143c2                MCAN0_INT1_Handler
                0x00000000004143c2                GMAC_Q5_Handler
                0x00000000004143c2                SUPC_Handler
                0x00000000004143c2                TC2_CH1_Handler
                0x00000000004143c2                MCAN1_INT0_Handler
                0x00000000004143c2                EFC_Handler
                0x00000000004143c2                GMAC_Q1_Handler
                0x00000000004143c2                USART2_Handler
                0x00000000004143c2                SDRAMC_Handler
                0x00000000004143c2                GMAC_Q2_Handler
                0x00000000004143c2                PIOE_Handler
                0x00000000004143c2                SPI1_Handler
                0x00000000004143c2                TC1_CH1_Handler
                0x00000000004143c2                GMAC_Q3_Handler
                0x00000000004143c2                PIOD_Handler
                0x00000000004143c2                TWIHS2_Handler
                0x00000000004143c2                I2SC0_Handler
                0x00000000004143c2                UART0_Handler
                0x00000000004143c2                I2SC1_Handler
                0x00000000004143c2                PIOC_Handler
                0x00000000004143c2                GMAC_Q4_Handler
                0x00000000004143c2                FPU_Handler
                0x00000000004143c2                RSTC_Handler
                0x00000000004143c2                ICM_Handler
                0x00000000004143c2                AES_Handler
                0x00000000004143c2                TWIHS0_Handler
                0x00000000004143c2                DACC_Handler

.text.NonMaskableInt_Handler%1023
                0x000000000041498e        0x2
 .text.NonMaskableInt_Handler
                0x000000000041498e        0x2 build/sam_e70_xult_freertos/production/_ext/1552905064/exceptions.o
                0x000000000041498e                NonMaskableInt_Handler

.text.HardFault_Handler%1024
                0x0000000000414e4e        0x2
 .text.HardFault_Handler
                0x0000000000414e4e        0x2 build/sam_e70_xult_freertos/production/_ext/1552905064/exceptions.o
                0x0000000000414e4e                HardFault_Handler

.text.DebugMonitor_Handler%1025
                0x0000000000415a5e        0x2
 .text.DebugMonitor_Handler
                0x0000000000415a5e        0x2 build/sam_e70_xult_freertos/production/_ext/1552905064/exceptions.o
                0x0000000000415a5e                DebugMonitor_Handler

.text.MemoryManagement_Handler%1026
                0x0000000000416bf2        0x2
 .text.MemoryManagement_Handler
                0x0000000000416bf2        0x2 build/sam_e70_xult_freertos/production/_ext/1552905064/exceptions.o
                0x0000000000416bf2                MemoryManagement_Handler

.text.BusFault_Handler%1027
                0x0000000000417172        0x2
 .text.BusFault_Handler
                0x0000000000417172        0x2 build/sam_e70_xult_freertos/production/_ext/1552905064/exceptions.o
                0x0000000000417172                BusFault_Handler

.text.UsageFault_Handler%1028
                0x0000000000417556        0x2
 .text.UsageFault_Handler
                0x0000000000417556        0x2 build/sam_e70_xult_freertos/production/_ext/1552905064/exceptions.o
                0x0000000000417556                UsageFault_Handler
