Archive member included to satisfy reference by file (symbol)

/Applications/microchip/xc32/v2.15/bin/bin/../../lib/gcc/pic32c/6.2.1/../../../../pic32c/lib/v7e-m/fpv5/hard/libpic32c.a(data_init.o)
                              build/sam_e70_xult_freertos/production/_ext/1552905064/startup_xc32.o (__pic32c_data_initialization)
/Applications/microchip/xc32/v2.15/bin/bin/../../lib/gcc/pic32c/6.2.1/v7e-m/fpv5/hard/libgcc.a(_aeabi_uldivmod.o)
                              build/sam_e70_xult_freertos/production/_ext/810785262/dns.o (__aeabi_uldivmod)
/Applications/microchip/xc32/v2.15/bin/bin/../../lib/gcc/pic32c/6.2.1/v7e-m/fpv5/hard/libgcc.a(_udivmoddi4.o)
                              /Applications/microchip/xc32/v2.15/bin/bin/../../lib/gcc/pic32c/6.2.1/v7e-m/fpv5/hard/libgcc.a(_aeabi_uldivmod.o) (__udivmoddi4)
/Applications/microchip/xc32/v2.15/bin/bin/../../lib/gcc/pic32c/6.2.1/v7e-m/fpv5/hard/libgcc.a(_dvmd_tls.o)
                              /Applications/microchip/xc32/v2.15/bin/bin/../../lib/gcc/pic32c/6.2.1/v7e-m/fpv5/hard/libgcc.a(_aeabi_uldivmod.o) (__aeabi_ldiv0)
/Applications/microchip/xc32/v2.15/bin/bin/../../lib/gcc/pic32c/6.2.1/../../../../pic32c/lib/v7e-m/fpv5/hard/libc.a(lib_a-atof.o)
                              build/sam_e70_xult_freertos/production/_ext/1360937237/app.o (atof)
/Applications/microchip/xc32/v2.15/bin/bin/../../lib/gcc/pic32c/6.2.1/../../../../pic32c/lib/v7e-m/fpv5/hard/libc.a(lib_a-atoi.o)
                              build/sam_e70_xult_freertos/production/_ext/810785262/tcpip_commands.o (atoi)
/Applications/microchip/xc32/v2.15/bin/bin/../../lib/gcc/pic32c/6.2.1/../../../../pic32c/lib/v7e-m/fpv5/hard/libc.a(lib_a-calloc.o)
                              build/sam_e70_xult_freertos/production/_ext/1552905064/initialization.o (calloc)
/Applications/microchip/xc32/v2.15/bin/bin/../../lib/gcc/pic32c/6.2.1/../../../../pic32c/lib/v7e-m/fpv5/hard/libc.a(lib_a-callocr.o)
                              /Applications/microchip/xc32/v2.15/bin/bin/../../lib/gcc/pic32c/6.2.1/../../../../pic32c/lib/v7e-m/fpv5/hard/libc.a(lib_a-calloc.o) (_calloc_r)
/Applications/microchip/xc32/v2.15/bin/bin/../../lib/gcc/pic32c/6.2.1/../../../../pic32c/lib/v7e-m/fpv5/hard/libc.a(lib_a-exit.o)
                              /Applications/microchip/xc32/v2.15/bin/bin/../../lib/gcc/pic32c/6.2.1/../../../../pic32c/lib/v7e-m/fpv5/hard/crt0.o (exit)
/Applications/microchip/xc32/v2.15/bin/bin/../../lib/gcc/pic32c/6.2.1/../../../../pic32c/lib/v7e-m/fpv5/hard/libc.a(lib_a-impure.o)
                              /Applications/microchip/xc32/v2.15/bin/bin/../../lib/gcc/pic32c/6.2.1/../../../../pic32c/lib/v7e-m/fpv5/hard/libc.a(lib_a-exit.o) (_global_impure_ptr)
/Applications/microchip/xc32/v2.15/bin/bin/../../lib/gcc/pic32c/6.2.1/../../../../pic32c/lib/v7e-m/fpv5/hard/libc.a(lib_a-init.o)
                              /Applications/microchip/xc32/v2.15/bin/bin/../../lib/gcc/pic32c/6.2.1/../../../../pic32c/lib/v7e-m/fpv5/hard/crt0.o (__libc_init_array)
/Applications/microchip/xc32/v2.15/bin/bin/../../lib/gcc/pic32c/6.2.1/../../../../pic32c/lib/v7e-m/fpv5/hard/libc.a(lib_a-locale.o)
                              build/sam_e70_xult_freertos/production/_ext/810785262/dhcp.o (__locale_ctype_ptr)
/Applications/microchip/xc32/v2.15/bin/bin/../../lib/gcc/pic32c/6.2.1/../../../../pic32c/lib/v7e-m/fpv5/hard/libc.a(lib_a-malloc.o)
                              build/sam_e70_xult_freertos/production/_ext/1552905064/initialization.o (malloc)
/Applications/microchip/xc32/v2.15/bin/bin/../../lib/gcc/pic32c/6.2.1/../../../../pic32c/lib/v7e-m/fpv5/hard/libc.a(lib_a-mallocr.o)
                              /Applications/microchip/xc32/v2.15/bin/bin/../../lib/gcc/pic32c/6.2.1/../../../../pic32c/lib/v7e-m/fpv5/hard/libc.a(lib_a-callocr.o) (_malloc_r)
/Applications/microchip/xc32/v2.15/bin/bin/../../lib/gcc/pic32c/6.2.1/../../../../pic32c/lib/v7e-m/fpv5/hard/libc.a(lib_a-mbtowc_r.o)
                              /Applications/microchip/xc32/v2.15/bin/bin/../../lib/gcc/pic32c/6.2.1/../../../../pic32c/lib/v7e-m/fpv5/hard/libc.a(lib_a-locale.o) (__ascii_mbtowc)
/Applications/microchip/xc32/v2.15/bin/bin/../../lib/gcc/pic32c/6.2.1/../../../../pic32c/lib/v7e-m/fpv5/hard/libc.a(lib_a-memcmp.o)
                              build/sam_e70_xult_freertos/production/_ext/810785262/dhcp.o (memcmp)
/Applications/microchip/xc32/v2.15/bin/bin/../../lib/gcc/pic32c/6.2.1/../../../../pic32c/lib/v7e-m/fpv5/hard/libc.a(lib_a-memcpy.o)
                              build/sam_e70_xult_freertos/production/_ext/810785262/dns.o (memcpy)
/Applications/microchip/xc32/v2.15/bin/bin/../../lib/gcc/pic32c/6.2.1/../../../../pic32c/lib/v7e-m/fpv5/hard/libc.a(lib_a-memset.o)
                              /Applications/microchip/xc32/v2.15/bin/bin/../../lib/gcc/pic32c/6.2.1/../../../../pic32c/lib/v7e-m/fpv5/hard/crt0.o (memset)
/Applications/microchip/xc32/v2.15/bin/bin/../../lib/gcc/pic32c/6.2.1/../../../../pic32c/lib/v7e-m/fpv5/hard/libc.a(lib_a-mlock.o)
                              /Applications/microchip/xc32/v2.15/bin/bin/../../lib/gcc/pic32c/6.2.1/../../../../pic32c/lib/v7e-m/fpv5/hard/libc.a(lib_a-mallocr.o) (__malloc_lock)
/Applications/microchip/xc32/v2.15/bin/bin/../../lib/gcc/pic32c/6.2.1/../../../../pic32c/lib/v7e-m/fpv5/hard/libc.a(lib_a-rand.o)
                              build/sam_e70_xult_freertos/production/_ext/810785262/dns.o (rand)
/Applications/microchip/xc32/v2.15/bin/bin/../../lib/gcc/pic32c/6.2.1/../../../../pic32c/lib/v7e-m/fpv5/hard/libc.a(lib_a-sbrkr.o)
                              /Applications/microchip/xc32/v2.15/bin/bin/../../lib/gcc/pic32c/6.2.1/../../../../pic32c/lib/v7e-m/fpv5/hard/libc.a(lib_a-mallocr.o) (_sbrk_r)
/Applications/microchip/xc32/v2.15/bin/bin/../../lib/gcc/pic32c/6.2.1/../../../../pic32c/lib/v7e-m/fpv5/hard/libc.a(lib_a-snprintf.o)
                              build/sam_e70_xult_freertos/production/_ext/1360937237/app.o (snprintf)
/Applications/microchip/xc32/v2.15/bin/bin/../../lib/gcc/pic32c/6.2.1/../../../../pic32c/lib/v7e-m/fpv5/hard/libc.a(lib_a-sprintf.o)
                              (sprintf)
/Applications/microchip/xc32/v2.15/bin/bin/../../lib/gcc/pic32c/6.2.1/../../../../pic32c/lib/v7e-m/fpv5/hard/libc.a(lib_a-strcmp.o)
                              build/sam_e70_xult_freertos/production/_ext/810785262/dns.o (strcmp)
/Applications/microchip/xc32/v2.15/bin/bin/../../lib/gcc/pic32c/6.2.1/../../../../pic32c/lib/v7e-m/fpv5/hard/libc.a(lib_a-strcpy.o)
                              build/sam_e70_xult_freertos/production/_ext/810785262/tcpip_commands.o (strcpy)
/Applications/microchip/xc32/v2.15/bin/bin/../../lib/gcc/pic32c/6.2.1/../../../../pic32c/lib/v7e-m/fpv5/hard/libc.a(lib_a-strlen.o)
                              build/sam_e70_xult_freertos/production/_ext/810785262/dns.o (strlen)
/Applications/microchip/xc32/v2.15/bin/bin/../../lib/gcc/pic32c/6.2.1/../../../../pic32c/lib/v7e-m/fpv5/hard/libc.a(lib_a-strncat.o)
                              build/sam_e70_xult_freertos/production/_ext/1360937237/app.o (strncat)
/Applications/microchip/xc32/v2.15/bin/bin/../../lib/gcc/pic32c/6.2.1/../../../../pic32c/lib/v7e-m/fpv5/hard/libc.a(lib_a-strncpy.o)
                              build/sam_e70_xult_freertos/production/_ext/1360937237/app_commands.o (strncpy)
/Applications/microchip/xc32/v2.15/bin/bin/../../lib/gcc/pic32c/6.2.1/../../../../pic32c/lib/v7e-m/fpv5/hard/libc.a(lib_a-strstr.o)
                              build/sam_e70_xult_freertos/production/_ext/1360937237/app.o (strstr)
/Applications/microchip/xc32/v2.15/bin/bin/../../lib/gcc/pic32c/6.2.1/../../../../pic32c/lib/v7e-m/fpv5/hard/libc.a(lib_a-strtod.o)
                              /Applications/microchip/xc32/v2.15/bin/bin/../../lib/gcc/pic32c/6.2.1/../../../../pic32c/lib/v7e-m/fpv5/hard/libc.a(lib_a-atof.o) (strtod)
/Applications/microchip/xc32/v2.15/bin/bin/../../lib/gcc/pic32c/6.2.1/../../../../pic32c/lib/v7e-m/fpv5/hard/libc.a(lib_a-strtok.o)
                              build/sam_e70_xult_freertos/production/_ext/1360937237/app.o (strtok)
/Applications/microchip/xc32/v2.15/bin/bin/../../lib/gcc/pic32c/6.2.1/../../../../pic32c/lib/v7e-m/fpv5/hard/libc.a(lib_a-strtok_r.o)
                              /Applications/microchip/xc32/v2.15/bin/bin/../../lib/gcc/pic32c/6.2.1/../../../../pic32c/lib/v7e-m/fpv5/hard/libc.a(lib_a-strtok.o) (__strtok_r)
/Applications/microchip/xc32/v2.15/bin/bin/../../lib/gcc/pic32c/6.2.1/../../../../pic32c/lib/v7e-m/fpv5/hard/libc.a(lib_a-strtol.o)
                              /Applications/microchip/xc32/v2.15/bin/bin/../../lib/gcc/pic32c/6.2.1/../../../../pic32c/lib/v7e-m/fpv5/hard/libc.a(lib_a-atoi.o) (_strtol_r)
/Applications/microchip/xc32/v2.15/bin/bin/../../lib/gcc/pic32c/6.2.1/../../../../pic32c/lib/v7e-m/fpv5/hard/libc.a(lib_a-svfprintf.o)
                              /Applications/microchip/xc32/v2.15/bin/bin/../../lib/gcc/pic32c/6.2.1/../../../../pic32c/lib/v7e-m/fpv5/hard/libc.a(lib_a-snprintf.o) (_svfprintf_r)
/Applications/microchip/xc32/v2.15/bin/bin/../../lib/gcc/pic32c/6.2.1/../../../../pic32c/lib/v7e-m/fpv5/hard/libc.a(lib_a-vsnprintf.o)
                              build/sam_e70_xult_freertos/production/_ext/762686499/sys_debug.o (vsnprintf)
/Applications/microchip/xc32/v2.15/bin/bin/../../lib/gcc/pic32c/6.2.1/../../../../pic32c/lib/v7e-m/fpv5/hard/libc.a(lib_a-wctomb_r.o)
                              /Applications/microchip/xc32/v2.15/bin/bin/../../lib/gcc/pic32c/6.2.1/../../../../pic32c/lib/v7e-m/fpv5/hard/libc.a(lib_a-locale.o) (__ascii_wctomb)
/Applications/microchip/xc32/v2.15/bin/bin/../../lib/gcc/pic32c/6.2.1/../../../../pic32c/lib/v7e-m/fpv5/hard/libc.a(lib_a-__call_atexit.o)
                              /Applications/microchip/xc32/v2.15/bin/bin/../../lib/gcc/pic32c/6.2.1/../../../../pic32c/lib/v7e-m/fpv5/hard/libc.a(lib_a-exit.o) (__call_exitprocs)
/Applications/microchip/xc32/v2.15/bin/bin/../../lib/gcc/pic32c/6.2.1/../../../../pic32c/lib/v7e-m/fpv5/hard/libc.a(lib_a-atexit.o)
                              /Applications/microchip/xc32/v2.15/bin/bin/../../lib/gcc/pic32c/6.2.1/../../../../pic32c/lib/v7e-m/fpv5/hard/libc.a(lib_a-__call_atexit.o) (atexit)
/Applications/microchip/xc32/v2.15/bin/bin/../../lib/gcc/pic32c/6.2.1/../../../../pic32c/lib/v7e-m/fpv5/hard/libc.a(lib_a-ctype_.o)
                              /Applications/microchip/xc32/v2.15/bin/bin/../../lib/gcc/pic32c/6.2.1/../../../../pic32c/lib/v7e-m/fpv5/hard/libc.a(lib_a-locale.o) (_ctype_)
/Applications/microchip/xc32/v2.15/bin/bin/../../lib/gcc/pic32c/6.2.1/../../../../pic32c/lib/v7e-m/fpv5/hard/libc.a(lib_a-dtoa.o)
                              /Applications/microchip/xc32/v2.15/bin/bin/../../lib/gcc/pic32c/6.2.1/../../../../pic32c/lib/v7e-m/fpv5/hard/libc.a(lib_a-svfprintf.o) (_dtoa_r)
/Applications/microchip/xc32/v2.15/bin/bin/../../lib/gcc/pic32c/6.2.1/../../../../pic32c/lib/v7e-m/fpv5/hard/libc.a(lib_a-fini.o)
                              /Applications/microchip/xc32/v2.15/bin/bin/../../lib/gcc/pic32c/6.2.1/../../../../pic32c/lib/v7e-m/fpv5/hard/libc.a(lib_a-__call_atexit.o) (__libc_fini_array)
/Applications/microchip/xc32/v2.15/bin/bin/../../lib/gcc/pic32c/6.2.1/../../../../pic32c/lib/v7e-m/fpv5/hard/libc.a(lib_a-freer.o)
                              /Applications/microchip/xc32/v2.15/bin/bin/../../lib/gcc/pic32c/6.2.1/../../../../pic32c/lib/v7e-m/fpv5/hard/libc.a(lib_a-malloc.o) (_free_r)
/Applications/microchip/xc32/v2.15/bin/bin/../../lib/gcc/pic32c/6.2.1/../../../../pic32c/lib/v7e-m/fpv5/hard/libc.a(lib_a-gdtoa-gethex.o)
                              /Applications/microchip/xc32/v2.15/bin/bin/../../lib/gcc/pic32c/6.2.1/../../../../pic32c/lib/v7e-m/fpv5/hard/libc.a(lib_a-strtod.o) (__gethex)
/Applications/microchip/xc32/v2.15/bin/bin/../../lib/gcc/pic32c/6.2.1/../../../../pic32c/lib/v7e-m/fpv5/hard/libc.a(lib_a-gdtoa-hexnan.o)
                              /Applications/microchip/xc32/v2.15/bin/bin/../../lib/gcc/pic32c/6.2.1/../../../../pic32c/lib/v7e-m/fpv5/hard/libc.a(lib_a-strtod.o) (__match)
/Applications/microchip/xc32/v2.15/bin/bin/../../lib/gcc/pic32c/6.2.1/../../../../pic32c/lib/v7e-m/fpv5/hard/libc.a(lib_a-localeconv.o)
                              /Applications/microchip/xc32/v2.15/bin/bin/../../lib/gcc/pic32c/6.2.1/../../../../pic32c/lib/v7e-m/fpv5/hard/libc.a(lib_a-strtod.o) (__localeconv_l)
/Applications/microchip/xc32/v2.15/bin/bin/../../lib/gcc/pic32c/6.2.1/../../../../pic32c/lib/v7e-m/fpv5/hard/libc.a(lib_a-memchr.o)
                              /Applications/microchip/xc32/v2.15/bin/bin/../../lib/gcc/pic32c/6.2.1/../../../../pic32c/lib/v7e-m/fpv5/hard/libc.a(lib_a-strstr.o) (memchr)
/Applications/microchip/xc32/v2.15/bin/bin/../../lib/gcc/pic32c/6.2.1/../../../../pic32c/lib/v7e-m/fpv5/hard/libc.a(lib_a-mprec.o)
                              /Applications/microchip/xc32/v2.15/bin/bin/../../lib/gcc/pic32c/6.2.1/../../../../pic32c/lib/v7e-m/fpv5/hard/libc.a(lib_a-strtod.o) (_Balloc)
/Applications/microchip/xc32/v2.15/bin/bin/../../lib/gcc/pic32c/6.2.1/../../../../pic32c/lib/v7e-m/fpv5/hard/libc.a(lib_a-reent.o)
                              /Applications/microchip/xc32/v2.15/bin/bin/../../lib/gcc/pic32c/6.2.1/../../../../pic32c/lib/v7e-m/fpv5/hard/libc.a(lib_a-sbrkr.o) (errno)
/Applications/microchip/xc32/v2.15/bin/bin/../../lib/gcc/pic32c/6.2.1/../../../../pic32c/lib/v7e-m/fpv5/hard/libc.a(lib_a-s_frexp.o)
                              /Applications/microchip/xc32/v2.15/bin/bin/../../lib/gcc/pic32c/6.2.1/../../../../pic32c/lib/v7e-m/fpv5/hard/libc.a(lib_a-svfprintf.o) (frexp)
/Applications/microchip/xc32/v2.15/bin/bin/../../lib/gcc/pic32c/6.2.1/../../../../pic32c/lib/v7e-m/fpv5/hard/libc.a(lib_a-sf_nan.o)
                              /Applications/microchip/xc32/v2.15/bin/bin/../../lib/gcc/pic32c/6.2.1/../../../../pic32c/lib/v7e-m/fpv5/hard/libc.a(lib_a-strtod.o) (nanf)
/Applications/microchip/xc32/v2.15/bin/bin/../../lib/gcc/pic32c/6.2.1/../../../../pic32c/lib/v7e-m/fpv5/hard/libc.a(lib_a-strchr.o)
                              /Applications/microchip/xc32/v2.15/bin/bin/../../lib/gcc/pic32c/6.2.1/../../../../pic32c/lib/v7e-m/fpv5/hard/libc.a(lib_a-strstr.o) (strchr)
/Applications/microchip/xc32/v2.15/bin/bin/../../lib/gcc/pic32c/6.2.1/../../../../pic32c/lib/v7e-m/fpv5/hard/libc.a(lib_a-strncmp.o)
                              /Applications/microchip/xc32/v2.15/bin/bin/../../lib/gcc/pic32c/6.2.1/../../../../pic32c/lib/v7e-m/fpv5/hard/libc.a(lib_a-strtod.o) (strncmp)
/Applications/microchip/xc32/v2.15/bin/bin/../../lib/gcc/pic32c/6.2.1/../../../../pic32c/lib/v7e-m/fpv5/hard/libc.a(lib_a-svfiprintf.o)
                              /Applications/microchip/xc32/v2.15/bin/bin/../../lib/gcc/pic32c/6.2.1/../../../../pic32c/lib/v7e-m/fpv5/hard/libc.a(lib_a-svfprintf.o) (__ssprint_r)
/Applications/microchip/xc32/v2.15/bin/bin/../../lib/gcc/pic32c/6.2.1/../../../../pic32c/lib/v7e-m/fpv5/hard/libc.a(lib_a-__atexit.o)
                              /Applications/microchip/xc32/v2.15/bin/bin/../../lib/gcc/pic32c/6.2.1/../../../../pic32c/lib/v7e-m/fpv5/hard/libc.a(lib_a-atexit.o) (__register_exitproc)
/Applications/microchip/xc32/v2.15/bin/bin/../../lib/gcc/pic32c/6.2.1/../../../../pic32c/lib/v7e-m/fpv5/hard/libc.a(lib_a-memmove.o)
                              /Applications/microchip/xc32/v2.15/bin/bin/../../lib/gcc/pic32c/6.2.1/../../../../pic32c/lib/v7e-m/fpv5/hard/libc.a(lib_a-svfiprintf.o) (memmove)
/Applications/microchip/xc32/v2.15/bin/bin/../../lib/gcc/pic32c/6.2.1/../../../../pic32c/lib/v7e-m/fpv5/hard/libc.a(lib_a-reallocr.o)
                              /Applications/microchip/xc32/v2.15/bin/bin/../../lib/gcc/pic32c/6.2.1/../../../../pic32c/lib/v7e-m/fpv5/hard/libc.a(lib_a-svfiprintf.o) (_realloc_r)
/Applications/microchip/xc32/v2.15/bin/bin/../../lib/gcc/pic32c/6.2.1/../../../../pic32c/lib/v7e-m/fpv5/hard/libpic32c.a(sbrk.o)
                              /Applications/microchip/xc32/v2.15/bin/bin/../../lib/gcc/pic32c/6.2.1/../../../../pic32c/lib/v7e-m/fpv5/hard/libc.a(lib_a-sbrkr.o) (_sbrk)

Allocating common symbols
Common symbol       size              file

TC0_CH0_CallbackObj
                    0x8               build/sam_e70_xult_freertos/production/_ext/1245453995/plib_tc0.o
errno               0x4               /Applications/microchip/xc32/v2.15/bin/bin/../../lib/gcc/pic32c/6.2.1/../../../../pic32c/lib/v7e-m/fpv5/hard/libc.a(lib_a-reent.o)
APP_URL_Buffer      0xff              build/sam_e70_xult_freertos/production/_ext/1360937237/app_commands.o
macAddr             0x6               build/sam_e70_xult_freertos/production/_ext/1360937237/app.o
appData             0x10              build/sam_e70_xult_freertos/production/_ext/1360937237/app.o
jsonBuffer          0x400             build/sam_e70_xult_freertos/production/_ext/1360937237/app.o
xAPP_Tasks          0x4               build/sam_e70_xult_freertos/production/_ext/1552905064/tasks.o
sysObj              0x14              build/sam_e70_xult_freertos/production/_ext/1552905064/initialization.o
sysDebugInstance    0x8               build/sam_e70_xult_freertos/production/_ext/762686499/sys_debug.o
gblErrLvl           0x1               build/sam_e70_xult_freertos/production/_ext/762686499/sys_debug.o
usart1Obj           0x30              build/sam_e70_xult_freertos/production/_ext/901008055/plib_usart1.o
macAddrString       0x12              build/sam_e70_xult_freertos/production/_ext/1360937237/app.o
cityBuffer          0x80              build/sam_e70_xult_freertos/production/_ext/1360937237/app.o

Microchip PIC32 Memory-Usage Report

ROM Program-Memory Usage
section                    address  length [bytes]      (dec)  Description
-------                 ----------  -------------------------  -----------
.vectors                  0x400000          0x168         360   
.text                     0x400168           0x24          36  App's exec code 
.ARM.exidx                0x40018c            0x8           8   
.text._DHCPOptionProces   0x400194            0x4           4   
.text._svfprintf_r        0x400198         0x18f0        6384   
.rodata                   0x401a88         0x1684        5764  Read-only const 
.dinit                    0x40310c         0x1410        5136   
.text.TCPIP_TCP_Task      0x40451c          0xf24        3876   
.text._strtod_l           0x405440          0xe48        3656   
.text._dtoa_r             0x406288          0xc4c        3148   
.rodata.macPIC32CHwRegD   0x406ed4          0x708        1800   
.text.TCPIP_STACK_Task    0x4075dc          0x634        1588   
.text._TcpSend            0x407c10          0x5cc        1484   
.text._Command_DNS_Serv   0x4081dc          0x56c        1388   
.text._malloc_r           0x408748          0x550        1360   
.text.__gethex            0x408c98          0x518        1304   
.text.TCPIP_DHCP_Task     0x4091b0          0x4e4        1252   
.rodata._DHCPRequestPar   0x409694            0x4           4   
.text.APP_Tasks           0x409698          0x498        1176   
.rodata                   0x409b30          0x48c        1164  Read-only const 
.text.TCPIP_STACK_Initi   0x409fbc          0x424        1060   
.text.DRV_PIC32CGMAC_Li   0x40a3e0          0x3c0         960   
.text._realloc_r          0x40a7a0          0x34c         844   
.rodata                   0x40aaec          0x338         824  Read-only const 
.text.SYS_CMD_Tasks       0x40ae24          0x314         788   
.text.TCPIP_Helper_Stri   0x40b138          0x2e8         744   
.text                     0x40b420          0x2dc         732  App's exec code 
.rodata.dhcpMagicCookie   0x40b6fc            0x4           4   
.text                     0x40b700          0x2dc         732  App's exec code 
.text.DRV_GMAC_Initiali   0x40b9dc          0x2d4         724   
.text.TCPIP_ARP_Task      0x40bcb0          0x2b8         696   
.text.DRV_PIC32CGMAC_Li   0x40bf68          0x294         660   
.text._CommandArp         0x40c1fc          0x260         608   
.text.TCPIP_UDP_Task      0x40c45c          0x24c         588   
.text._TCP_Open           0x40c6a8          0x238         568   
.text.TCPIP_UDP_Flush     0x40c8e0          0x22c         556   
.text._CommandDhcpOptio   0x40cb0c          0x220         544   
.text._DNS_Send_Query     0x40cd2c          0x218         536   
.text.TCPIP_DNS_ClientI   0x40cf44          0x218         536   
.rodata                   0x40d15c          0x218         536  Read-only const 
.text.strstr              0x40d374          0x218         536   
.text.TCPIP_UDP_Options   0x40d58c          0x212         530   
.text._TCPIP_HEAP_Buffe   0x40d79e            0x2           2   
.text._Command_NetInfo    0x40d7a0          0x20c         524   
.text.TCPIP_COMMAND_Tas   0x40d9ac          0x20c         524   
.text.two_way_long_need   0x40dbb8          0x1fc         508   
.text._DNS_ProcessPacke   0x40ddb4          0x1ec         492   
.text.TCPIP_STACK_Bring   0x40dfa0          0x1e8         488   
.text.xTaskCreate         0x40e188          0x1e8         488   
.text._DHCPReceive        0x40e370          0x1e0         480   
.text.TCPIP_ARP_Initial   0x40e550          0x1e0         480   
.text.TCPIP_IPV4_Packet   0x40e730          0x1d8         472   
.text.DRV_MIIM_Tasks      0x40e908          0x1cc         460   
.text._free_r             0x40ead4          0x1cc         460   
.text._DHCPSend           0x40eca0          0x1b8         440   
.text.ParseCmdBuffer      0x40ee58          0x1b8         440   
.text.TCPIP_IPV4_Task     0x40f010          0x1b4         436   
.text.TCPIP_DHCP_Initia   0x40f1c4          0x1ac         428   
.text._Command_MacInfo    0x40f370          0x198         408   
.text.TCPIP_TCP_ArrayPu   0x40f508          0x194         404   
.text.CommandHelp         0x40f69c          0x190         400   
.text._DHCPOptionHostNa   0x40f82c          0x18c         396   
.text.__hexnan            0x40f9b8          0x184         388   
.text.TCPIP_IPV4_Packet   0x40fb3c          0x178         376   
.text.DRV_PIC32CGMAC_Li   0x40fcb4          0x178         376   
.text.Reset_Handler       0x40fe2c          0x178         376   
.text.TWIHS0_InterruptH   0x40ffa4          0x174         372   
.text._UDPOpen            0x410118          0x16c         364   
.text.xQueueSemaphoreTa   0x410284          0x15c         348   
.text.TCPIP_DNS_EntryQu   0x4103e0          0x158         344   
.text._MACDeinit          0x410538          0x14c         332   
.text.TCPIP_TCP_Initial   0x410684          0x144         324   
.text._MacTxDiscardQueu   0x4107c8          0x144         324   
.text.TCPIP_UDP_Bind      0x41090c          0x13c         316   
.text                     0x410a48          0x134         308  App's exec code 
.text._Command_StackOnO   0x410b7c          0x130         304   
.text._DNS_RESPONSE_Has   0x410cac          0x12e         302   
.text.DRV_GMAC_Reinitia   0x410dda            0x2           2   
.text._Command_NetworkO   0x410ddc          0x128         296   
.text.xQueueGenericSend   0x410f04          0x128         296   
.text._strtol_l.isra.0    0x41102c          0x128         296   
.text.quorem              0x411154          0x128         296   
.text._Command_AddressS   0x41127c          0x124         292   
.text.__multiply          0x4113a0          0x124         292   
.text.TCPIP_DNS_ClientT   0x4114c4          0x120         288   
.text.TCPIP_UDP_Deiniti   0x4115e4          0x120         288   
.text._DNS_Resolve        0x411704          0x11c         284   
.text.USART1_InterruptH   0x411820          0x11c         284   
.text._DRV_ETHPHY_Setup   0x41193c          0x11c         284   
.text._LoadNetworkConfi   0x411a58          0x11a         282   
.text._TCPIP_HEAP_Free    0x411b72          0x114         276   
.text.Dummy_Handler       0x411c86            0x2           2   
.text._Command_HeapInfo   0x411c88          0x110         272   
.text._UDPv4TxAckFnc      0x411d98          0x110         272   
.text.TCPIP_UDP_Options   0x411ea8          0x10e         270   
.text.NonMaskableInt_Ha   0x411fb6            0x2           2   
.text.__mdiff             0x411fb8          0x108         264   
.text.DRV_GMAC_Tasks      0x4120c0          0x104         260   
.rodata._ctype_           0x4121c4          0x104         260   
.text._Command_IPAddres   0x4122c8          0x100         256   
.text.xTaskIncrementTic   0x4123c8          0x100         256   
.rodata.__hexdig          0x4124c8          0x100         256   
.text._Tcpv4TxAckFnc      0x4125c8           0xfc         252   
.text.TCPIP_ARP_EntryRe   0x4126c4           0xfc         252   
.text.TCPIP_Helper_Stri   0x4127c0           0xfc         252   
.text.TCPIP_UDP_Initial   0x4128bc           0xfc         252   
.text.__ssprint_r         0x4129b8           0xfc         252   
.text.DRV_PIC32CGMAC_Li   0x412ab4           0xfa         250   
.text.HardFault_Handler   0x412bae            0x2           2   
.text._DNS_IsNameResolv   0x412bb0           0xf8         248   
.text.DRV_PIC32CGMAC_Li   0x412ca8           0xf8         248   
.text._ARPProbeAddress    0x412da0           0xec         236   
.text.TCPIP_UDP_ArrayGe   0x412e8c           0xec         236   
.text.TCPIP_TCP_Deiniti   0x412f78           0xe8         232   
.text.TCPIP_TCP_ArrayGe   0x413060           0xe8         232   
.text.DRV_GMAC_PacketRx   0x413148           0xe8         232   
.text.DRV_PIC32CGMAC_Li   0x413230           0xe8         232   
.text.xTaskResumeAll      0x413318           0xe8         232   
.text.strchr              0x413400           0xe8         232   
.text.DRV_GMAC_EventMas   0x4134e8           0xe4         228   
.text._DRV_MIIM_StartOp   0x4135cc           0xe4         228   
.text.SYS_TIME_PLIBCall   0x4136b0           0xe0         224   
.text._DRV_MIIM_ClientD   0x413790           0xe0         224   
.text.TCPIP_ICMP_Task     0x413870           0xdc         220   
.text._DRV_ETHPHY_Setup   0x41394c           0xdc         220   
.text.DRV_EXTPHY_MDIXCo   0x413a28           0xdc         220   
.text._TcpSocketKill      0x413b04           0x3c          60   
.text                     0x413b40           0xdc         220  App's exec code 
.text._DNS_GetAddresses   0x413c1c           0xd8         216   
.text.DRV_PIC32CGMAC_Li   0x413cf4           0xd8         216   
.text._TcpCloseSocket     0x413dcc           0xd6         214   
.text._DRV_ETHPHY_NegRe   0x413ea2           0xd2         210   
.text._GetMaxSegSizeOpt   0x413f74           0xcc         204   
.text._Command_DefaultI   0x414040           0xcc         204   
.rodata                   0x41410c           0xc8         200  Read-only const 
.text._DHCPStartOperati   0x4141d4           0xc8         200   
.text.TCPIP_IPV4_Select   0x41429c           0xc8         200   
.text.TCPIP_HEAP_Create   0x414364           0xc8         200   
.text.DRV_ETHPHY_Setup    0x41442c           0xc8         200   
.text.TCPIP_IPV4_IsFrag   0x4144f4            0x4           4   
.rodata.__mprec_tens      0x4144f8           0xc8         200   
.text.memmove             0x4145c0           0xc8         200   
.text._DHCPProcessRecei   0x414688           0xc4         196   
.text.__b2d               0x41474c           0xc4         196   
.text._DRV_PHY_SMITrans   0x414810           0xc2         194   
.text.DebugMonitor_Hand   0x4148d2            0x2           2   
.rodata.tcpipCmdTbl       0x4148d4           0xc0         192   
.text.DRV_EXTPHY_MIICon   0x414994           0xbc         188   
.text.strcpy              0x414a50           0xbc         188   
.text.__d2b               0x414b0c           0xbc         188   
.text.TCPIP_STACK_KillS   0x414bc8           0xb8         184   
.text.xTaskPriorityInhe   0x414c80           0xb8         184   
.text.critical_factoriz   0x414d38           0xb4         180   
.text.TCPIP_Helper_IPv6   0x414dec           0xb2         178   
.text._TcpSocketSetIdle   0x414e9e           0xb0         176   
.text.MemoryManagement_   0x414f4e            0x2           2   
.text.SYS_TIME_Initiali   0x414f50           0xb0         176   
.text.DRV_GMAC_Tasks_IS   0x415000           0xb0         176   
.text.SYS_TIME_TimerObj   0x4150b0           0xac         172   
.text._TCPIP_HEAP_Mallo   0x41515c           0xac         172   
.text.vTaskSwitchContex   0x415208           0xac         172   
.text._TcpDisconnect      0x4152b4           0xaa         170   
.text.BusFault_Handler    0x41535e            0x2           2   
.text._DHCPEnable         0x415360           0xa8         168   
.text._Command_MACAddre   0x415408           0xa8         168   
.text.TCPIP_STACK_NetUp   0x4154b0           0xa8         168   
.text._ARPSendIfPkt       0x415558           0xa4         164   
.text.TCPIP_ARP_EntryQu   0x4155fc           0xa4         164   
.text.__lshift            0x4156a0           0xa4         164   
.text.strncmp             0x415744           0xa4         164   
.text.__register_exitpr   0x4157e8           0xa4         164   
.text._ARPDeleteResourc   0x41588c           0xa0         160   
.text.SYS_TIME_AddToLis   0x41592c           0xa0         160   
.text.DRV_GMAC_PacketTx   0x4159cc           0xa0         160   
.text._UDPv4AllocateSkt   0x415a6c           0xa0         160   
.text.TCPIP_UDP_Disconn   0x415b0c           0xa0         160   
.text._DRV_ETHPHY_Setup   0x415bac           0xa0         160   
.text._DRV_ETHPHY_NegCo   0x415c4c           0xa0         160   
.text.DisplayNodeMsg      0x415cec           0xa0         160   
.text.DRV_GMAC_PowerMod   0x415d8c            0x4           4   
.text                     0x415d90           0xa0         160  App's exec code 
.text.__pow5mult          0x415e30           0xa0         160   
.text._DRV_ETHPHY_Setup   0x415ed0           0x9e         158   
.text.UsageFault_Handle   0x415f6e            0x2           2   
.text.SYS_TIME_HwTimerC   0x415f70           0x9c         156   
.text.DRV_MIIM_Setup      0x41600c           0x9c         156   
.text.DRV_MIIM_Operatio   0x4160a8           0x9c         156   
.text.memset              0x416144           0x9c         156   
.text.__s2b               0x4161e0           0x9c         156   
.text._Command_PrimaryD   0x41627c           0x98         152   
.text.TCPIP_IPV4_ArpHan   0x416314           0x98         152   
.text._TCPIPStackModule   0x4163ac           0x98         152   
.text.snprintf            0x416444           0x98         152   
.text.rshift              0x4164dc           0x98         152   
.text.TCPIP_DHCP_InfoGe   0x416574           0x94         148   
.text._Command_GatewayA   0x416608           0x94         148   
.text._UDPsetPacketInfo   0x41669c           0x94         148   
.text.prvAddCurrentTask   0x416730           0x94         148   
.text._malloc_trim_r      0x4167c4           0x94         148   
.text.TCPIP_STACK_NetAd   0x416858           0x92         146   
.text.Console_UART_Reso   0x4168ea           0x92         146   
.text.TWIHS0_InitiateTr   0x41697c           0x90         144   
.text.PIO_Initialize      0x416a0c           0x90         144   
.text.vTaskPriorityDisi   0x416a9c           0x90         144   
.text._DHCPSetLeaseTime   0x416b2c           0x8c         140   
.text.TCPIP_ARP_IsResol   0x416bb8           0x8c         140   
.text.SYS_CMD_DELETE      0x416c44           0x8c         140   
.text._DHCPPacketFilter   0x416cd0           0x88         136   
.text.TCPIP_IPV4_DeInit   0x416d58           0x88         136   
.text._OAHashFindBkt      0x416de0           0x88         136   
.text.MPU_Initialize      0x416e68           0x88         136   
.text._DRV_ETHPHY_Reset   0x416ef0           0x88         136   
.text.SYS_CMD_Initializ   0x416f78           0x88         136   
.text.TCPIP_Commands_In   0x417000           0x84         132   
.text.TCPIP_IPV4_MacPac   0x417084           0x82         130   
.text.DRV_MIIM_Reinitia   0x417106            0x2           2   
.text._DHCPClientClose    0x417108           0x80         128   
.text.TCPIP_Helper_Pack   0x417188           0x80         128   
.text.DRV_PIC32CGMAC_Li   0x417208           0x80         128   
.text.DRV_MIIM_Initiali   0x417288           0x80         128   
.text.SendCommandPrint    0x417308           0x80         128   
.text.SYS_CMD_PRINT       0x417388           0x80         128   
.text.SYS_CMD_READY_TO_   0x417408           0x80         128   
.text.__pic32c_data_ini   0x417488           0x80         128   
.text.__multadd           0x417508           0x80         128   
.text.prvUnlockQueue      0x417588           0x7e         126   
.text._DRV_ETHPHY_Clien   0x417606            0x2           2   
.text.SYS_Tasks           0x417608           0x7c         124   
.text.SYS_Initialize      0x417684           0x7c         124   
.text.DRV_MIIM_Open       0x417700           0x7c         124   
.text._DRV_ETHPHY_Setup   0x41777c           0x7c         124   
.rodata.DRV_ETHPHY_OBJE   0x4177f8           0x7c         124   
.text.xTaskPriorityDisi   0x417874           0x7c         124   
.text.frexp               0x4178f0           0x7c         124   
.text.TCPIP_Helper_Stri   0x41796c           0x7a         122   
.text._DNS_ValidateIf     0x4179e6           0x78         120   
.text.Console_UART_Task   0x417a5e            0x2           2   
.text._DHCPCleanup        0x417a60           0x78         120   
.text.CLK_Initialize      0x417ad8           0x78         120   
.text._DRV_ETHPHY_NegCo   0x417b50           0x78         120   
.text.Console_UART_Reso   0x417bc8           0x78         120   
.text.SYS_DEBUG_Print     0x417c40           0x78         120   
.text.xTaskRemoveFromEv   0x417cb8           0x78         120   
.text._DRV_GMAC_LinkSta   0x417d30           0x76         118   
.text.TCPIP_DHCP_Connec   0x417da8           0x74         116   
.text._ARPUpdateEntry     0x417e1c           0x74         116   
.text.TCPIP_ARP_EntryRe   0x417e90           0x74         116   
.text._Command_BIOSName   0x417f04           0x74         116   
.text.TCPIP_STACK_Bring   0x417f78           0x74         116   
.text._TCPIP_PKT_Packet   0x417fec           0x74         116   
.text._DRV_ETHPHY_NegRe   0x418060           0x74         116   
.text.Console_UART_Read   0x4180d4           0x74         116   
.text.Console_UART_Writ   0x418148           0x74         116   
.text._vsnprintf_r        0x4181bc           0x74         116   
.text._TCPIP_StackSyncF   0x418230           0x72         114   
.text.TCPIP_PKT_DataSeg   0x4182a2           0x72         114   
.text.prvCopyDataToQueu   0x418314           0x72         114   
.text.TCPIP_IPV4_Initia   0x418388           0x70         112   
.text.DRV_GMAC_LibDescr   0x4183f8           0x70         112   
.text.DRV_ETHPHY_Open     0x418468           0x70         112   
.text._DRV_ETHPHY_Reset   0x4184d8           0x70         112   
.text.Console_UART_Init   0x418548           0x70         112   
.text.SYS_CMD_ADDGRP      0x4185b8           0x70         112   
.text.xQueueGenericRese   0x418628           0x70         112   
.text.prvIdleTask         0x418698           0x70         112   
.text                     0x418708           0x6c         108  App's exec code 
.text.TCPIP_DNS_Disable   0x418774           0x6c         108   
.text._TcpCleanup         0x4187e0           0x6c         108   
.text._DNS_AddSelection   0x41884c           0x6a         106   
.text.TCPIP_Helper_Pack   0x4188b6           0x6a         106   
.text._MacTxPendingPack   0x418920           0x6a         106   
.text._TcpSwapHeader      0x41898a           0x68         104   
.text._TcpClientSocketC   0x4189f4           0x68         104   
.text.TCPIP_ARP_CacheEn   0x418a5c           0x68         104   
.text.TCPIP_OAHASH_Entr   0x418ac4           0x68         104   
.text.TCPIP_OAHASH_Entr   0x418b2c           0x68         104   
.text._TCPIPStackInsert   0x418b94           0x68         104   
.text._DRV_GMAC_LinkSta   0x418bfc           0x68         104   
.text.DRV_PIC32CGMAC_Li   0x418c64           0x68         104   
.rodata                   0x418ccc           0x68         104  Read-only const 
.text.vTaskStartSchedul   0x418d34           0x68         104   
.text.TCPIP_Helper_Calc   0x418d9c           0x66         102   
.text.TCPIP_DHCP_Disabl   0x418e04           0x64         100   
.text.TCPIP_IPV4_MacPac   0x418e68           0x64         100   
.text._DRV_ETHPHY_Setup   0x418ecc           0x64         100   
.text.SYS_CMDIO_ADD       0x418f30           0x64         100   
.text.TCPIP_DNS_OAHASH_   0x418f94            0xc          12   
.text.xPortPendSVHandle   0x418fa0           0x64         100   
.text.strncpy             0x419004           0x64         100   
.text.__strtok_r          0x419068           0x64         100   
.text.TCPIP_ARP_EntryGe   0x4190cc           0x62          98   
.text.Console_UART_PLIB   0x41912e           0x62          98   
.text.TCPIP_DNS_ClientD   0x419190           0x60          96   
.text.TCPIP_DNS_GetIPAd   0x4191f0           0x60          96   
.text._TCPIP_SelectDefa   0x419250           0x60          96   
.rodata.TCPIP_STACK_MOD   0x4192b0           0x60          96   
.text.TCPIP_UDP_SocketI   0x419310           0x60          96   
.text._calloc_r           0x419370           0x60          96   
.text.memcmp              0x4193d0           0x60          96   
.text.__lo0bits           0x419430           0x60          96   
.text.__ratio             0x419490           0x60          96   
.text.__any_on            0x4194f0           0x60          96   
.text._TCPIPStackIpAddF   0x419550           0x5c          92   
.text.DRV_ETHPHY_Initia   0x4195ac           0x5c          92   
.text.strncat             0x419608           0x5c          92   
.text._DHCPOptionProces   0x419664           0x5a          90   
.text.DRV_GMAC_Statisti   0x4196be           0x5a          90   
.text.TCPIP_UDP_BcastIP   0x419718           0x5a          90   
.text._DNS_Enable         0x419774           0x58          88   
.text._DNS_CleanCacheEn   0x4197cc           0x58          88   
.text.SYS_TIME_TimerSta   0x419824           0x58          88   
.text.TCPIP_STACK_Strin   0x41987c           0x58          88   
.text._TCPIPStackAnyNet   0x4198d4           0x58          88   
.text._TCPIPStackModule   0x41992c           0x58          88   
.text.OSAL_SEM_Create     0x419984           0x58          88   
.rodata.DRV_GMAC_Object   0x4199dc           0x58          88   
.text.DRV_PIC32CGMAC_Li   0x419a34           0x58          88   
.text._DRV_MIIM_Release   0x419a8c           0x58          88   
.text.DRV_ETHPHY_Vendor   0x419ae4           0x58          88   
.text.DRV_ETHPHY_Vendor   0x419b3c           0x58          88   
.text.xTaskCheckForTime   0x419b94           0x58          88   
.text.TCPIP_ARP_Probe     0x419bec           0x56          86   
.text._DRV_ETHPHY_LinkS   0x419c42           0x56          86   
.text._DNS_DeleteHash     0x419c98           0x54          84   
.text.TCPIP_DNS_RemoveA   0x419cec           0x54          84   
.text._DHCPOptionWriteS   0x419d40           0x54          84   
.text._ARPNotifyClients   0x419d94           0x54          84   
.text.SYS_TIME_RemoveFr   0x419de8           0x54          84   
.rodata                   0x419e3c           0x54          84  Read-only const 
.text.DRV_GMAC_EventAck   0x419e90           0x54          84   
.rodata.tcpipMACPIC32CI   0x419ee4           0x54          84   
.text.NVIC_Initialize     0x419f38           0x54          84   
.text._DRV_ETHPHY_NegCo   0x419f8c           0x54          84   
.text.__ulp               0x419fe0           0x54          84   
.text._TcpAbort           0x41a034           0x52          82   
.text._XtlEventsTcp2Eth   0x41a086           0x52          82   
.text.TCPIP_DNS_OAHASH_   0x41a0d8           0x50          80   
.rodata                   0x41a128           0x50          80  Read-only const 
.text._DHCPOptionWriteI   0x41a178           0x50          80   
.text.SYS_TIME_Callback   0x41a1c8           0x50          80   
.text.TCPIP_Helper_IPAd   0x41a218           0x50          80   
.text._DRV_MIIM_GetClie   0x41a268           0x50          80   
.text.SYS_CONSOLE_Initi   0x41a2b8           0x50          80   
.text.SYS_CONSOLE_Statu   0x41a308           0x50          80   
.text.__libc_init_array   0x41a358           0x50          80   
.text.TCPIP_Helper_Form   0x41a3a8           0x4e          78   
.text.TCPIP_IPV4_Cleanu   0x41a3f8           0x4c          76   
.text._TCPIP_MacEventCB   0x41a444           0x4c          76   
.text._DRV_GMAC_LinkSta   0x41a490           0x4c          76   
.text._UDPClose           0x41a4dc           0x4c          76   
.text.TCPIP_UDP_PutIsRe   0x41a528           0x4c          76   
.text.DRV_MIIM_Operatio   0x41a574           0x4c          76   
.text.Console_UART_PLIB   0x41a5c0           0x4c          76   
.text.sprintf             0x41a60c           0x4c          76   
.text._Balloc             0x41a658           0x4c          76   
.text.TCPIP_UDP_Destina   0x41a6a4           0x4a          74   
.text._TCPSendWinIncUpd   0x41a6ee           0x48          72   
.text.TCPIP_DHCP_IsEnab   0x41a738           0x48          72   
.rodata._DHCPOptProcTbl   0x41a780           0x48          72   
.text.TCPIP_ARP_Deiniti   0x41a7c8           0x48          72   
.text.USART1_Write        0x41a810           0x48          72   
.text.TCPIP_Helper_MACA   0x41a858           0x48          72   
.text.TCPIP_STACK_MACId   0x41a8a0           0x48          72   
.text._TCPIPStackSignal   0x41a8e8           0x48          72   
.text.DRV_GMAC_Register   0x41a930           0x48          72   
.rodata.TCPIP_STACK_MOD   0x41a978           0x48          72   
.text._DRV_ETHPHY_Setup   0x41a9c0           0x48          72   
.text.DRV_ETHPHY_Vendor   0x41aa08           0x48          72   
.text.CommandCleanup      0x41aa50           0x48          72   
.text.xPortStartSchedul   0x41aa98           0x48          72   
.text.__copybits          0x41aae0           0x48          72   
.text._TCPIP_HEAP_Delet   0x41ab28           0x46          70   
.text.TCPIP_STACK_Addre   0x41ab6e           0x46          70   
.text.TCPIP_UDP_ArrayPu   0x41abb4           0x46          70   
.text._APP_Commands_req   0x41abfc           0x44          68   
.text.APP_Commands_Init   0x41ac40           0x44          68   
.text.TCPIP_ICMP_Initia   0x41ac84           0x44          68   
.text._DHCPSetTimeout     0x41acc8           0x44          68   
.text._TCPIP_HEAP_MaxSi   0x41ad0c           0x44          68   
.text.hexatob             0x41ad50           0x44          68   
.text.TCPIP_Helper_Sing   0x41ad94           0x44          68   
.text.TCPIP_STACK_NetBy   0x41add8           0x44          68   
.text._TCPIPStackModule   0x41ae1c           0x44          68   
.text.SYS_INT_SourceDis   0x41ae60           0x44          68   
.text.DRV_GMAC_RxFilter   0x41aea4           0x44          68   
.text._UDPSetNewRxPacke   0x41aee8           0x44          68   
.rodata                   0x41af2c           0x44          68  Read-only const 
.text.Helper_SingleList   0x41af70           0x44          68   
.rodata                   0x41afb4           0x44          68  Read-only const 
.text._TcpSocketSetSour   0x41aff8           0x42          66   
.text._DHCPOptionClient   0x41b03a           0x42          66   
.text._DRV_GMAC_LinkSta   0x41b07c           0x42          66   
.text.TCPIP_DNS_RemoveE   0x41b0c0           0x40          64   
.rodata                   0x41b100           0x40          64  Read-only const 
.text._TCP_PortIsAvaila   0x41b140           0x40          64   
.text._DHCPSetRunFail     0x41b180           0x40          64   
.text.TCPIP_DHCP_Deinit   0x41b1c0           0x40          64   
.text.SYS_TIME_TimerAdd   0x41b200           0x40          64   
.rodata                   0x41b240           0x40          64  Read-only const 
.text.TCPIP_STACK_NetAl   0x41b280           0x40          64   
.text.TCPIP_STACK_NetHa   0x41b2c0           0x40          64   
.rodata                   0x41b300           0x40          64  Read-only const 
.text._UDPIsAvailablePo   0x41b340           0x40          64   
.text.TCPIP_UDP_SocketN   0x41b380           0x40          64   
.text.TCPIP_UDP_SourceI   0x41b3c0           0x40          64   
.rodata.DRV_MIIM_OBJECT   0x41b400           0x40          64   
.text._DRV_ETHPHY_NegRe   0x41b440           0x40          64   
.text._DRV_ETHPHY_Setup   0x41b480           0x40          64   
.text.rand                0x41b4c0           0x40          64   
.text.__hi0bits           0x41b500           0x40          64   
.text._DNSDiscardName     0x41b540           0x3e          62   
.text._TCPSetHalfFlushF   0x41b57e           0x3e          62   
.text._DHCPOptionProces   0x41b5bc           0x3e          62   
.text.TCPIP_UDP_TxOffse   0x41b5fa           0x3e          62   
.text._TCP_EphemeralPor   0x41b638           0x3c          60   
.text.TCPIP_TCP_Close     0x41b674           0x3c          60   
.text._DHCPOptionProces   0x41b6b0           0x3c          60   
.text._DHCPNotifyClient   0x41b6ec           0x3c          60   
.text.SYS_TIME_GetTimer   0x41b728           0x3c          60   
.text.SYS_TIME_Resource   0x41b764           0x3c          60   
.text.SYS_TIME_Counter6   0x41b7a0           0x3c          60   
.rodata.debugInit         0x41b7dc            0x4           4   
.text.SYS_TIME_MSToCoun   0x41b7e0           0x3c          60   
.text.SYS_TIME_TimerDes   0x41b81c           0x3c          60   
.text.TWIHS0_Initialize   0x41b858           0x3c          60   
.text.USART1_Initialize   0x41b894           0x3c          60   
.text.USART1_Read         0x41b8d0           0x3c          60   
.text._TCPIPStackModule   0x41b90c           0x3c          60   
.text._TCPIP_PKT_Packet   0x41b948           0x3c          60   
.text.APP_Initialize      0x41b984           0x3c          60   
.text.DRV_GMAC_Open       0x41b9c0           0x3c          60   
.text.DRV_GMAC_Process    0x41b9fc           0x3c          60   
.text._UDPAllocateEphem   0x41ba38           0x3c          60   
.text.TCPIP_UDP_OpenCli   0x41ba74           0x3c          60   
.text._DRV_MIIM_GetOpDc   0x41bab0           0x3c          60   
.text._DRV_ETHPHY_Setup   0x41baec           0x3c          60   
.text._DRV_ETHPHY_NegCo   0x41bb28           0x3c          60   
.text.CommandQuit         0x41bb64           0x3c          60   
.text._DHCPOptionProces   0x41bba0           0x3a          58   
.text.DRV_MIIM_Register   0x41bbda           0x3a          58   
.text.DRV_MIIM_Deinitia   0x41bc14           0x3a          58   
.text.TCPIP_DNS_ClientI   0x41bc50           0x38          56   
.text._TCPSetSourceAddr   0x41bc88           0x38          56   
.text.TCPIP_DHCP_IsActi   0x41bcc0           0x38          56   
.text.SYS_TIME_Resource   0x41bcf8           0x38          56   
.text.TCPIP_PKT_PacketM   0x41bd30           0x38          56   
.text.DRV_PIC32CGMAC_Li   0x41bd68           0x38          56   
.text.DRV_ETHPHY_LinkSt   0x41bda0           0x38          56   
.text._DRV_PHY_NegCompl   0x41bdd8           0x38          56   
.text._DRV_ETHPHY_LinkS   0x41be10           0x38          56   
.text.SYS_CONSOLE_Read    0x41be48           0x38          56   
.text.__mcmp              0x41be80           0x38          56   
.text._TCPIPStackSetCon   0x41beb8           0x36          54   
.text.TCPIP_UDP_RxOffse   0x41beee           0x36          54   
.text.DRV_ETHPHY_Negoti   0x41bf24           0x36          54   
.text.Console_UART_PopQ   0x41bf5a           0x36          54   
.text.TCPIP_DNS_OAHASH_   0x41bf90           0x34          52   
.rodata                   0x41bfc4           0x34          52  Read-only const 
.text._ARPSetEntry        0x41bff8           0x34          52   
.text.TCPIP_ARP_HashEnt   0x41c02c           0x34          52   
.text.TCPIP_ARP_Handler   0x41c060           0x34          52   
.text.TWIHS0_InitiateRe   0x41c094           0x34          52   
.text.TCPIP_Helper_Stri   0x41c0c8           0x34          52   
.text.TCPIP_STACK_NetDo   0x41c0fc           0x34          52   
.text._TCPIP_PKT_Packet   0x41c130           0x34          52   
.text._APP_PumpDNS        0x41c164           0x34          52   
.text.vListInsert         0x41c198           0x34          52   
.text.vTaskDelay          0x41c1cc           0x34          52   
.text.sulp                0x41c200           0x34          52   
.text.__libc_fini_array   0x41c234           0x34          52   
.text._DNS_NetIsValid     0x41c268           0x32          50   
.text.TCPIP_STACK_NetBi   0x41c29a           0x32          50   
.text._MacPacketAck       0x41c2cc           0x32          50   
.text._TCPSocketTxFreeS   0x41c2fe           0x30          48   
.text.SYS_TIME_UpdateTi   0x41c330           0x30          48   
.text.TCPIP_IPV4_CheckP   0x41c360           0x30          48   
.text.IPv4RegisterFilte   0x41c390           0x30          48   
.text.USART1_ErrorGet     0x41c3c0           0x30          48   
.text.fnv_32_hash         0x41c3f0           0x30          48   
.text.TCPIP_OAHASH_Entr   0x41c420           0x30          48   
.text.TCPIP_Helper_Prot   0x41c450           0x30          48   
.text.TCPIP_Helper_Prot   0x41c480           0x30          48   
.text.TCPIP_PKT_Initial   0x41c4b0           0x30          48   
.text.DRV_GMAC_Paramete   0x41c4e0           0x30          48   
.text.DRV_PIC32CGMAC_Li   0x41c510           0x30          48   
.text.TCPIP_UDP_Close     0x41c540           0x30          48   
.text.xQueueGenericCrea   0x41c570           0x30          48   
.text.xPortSysTickHandl   0x41c5a0           0x30          48   
.text                     0x41c5d0           0x30          48  App's exec code 
.text.__match             0x41c600           0x30          48   
.text._DHCPOptionProces   0x41c630           0x2e          46   
.text._DHCPOptionProces   0x41c65e           0x2e          46   
.text._DHCPOptionProces   0x41c68c           0x2e          46   
.text._ARPRemoveEntry     0x41c6ba           0x2e          46   
.text.TCPIP_STACK_DNSSe   0x41c6e8           0x2e          46   
.text._TxSktGetLockedV4   0x41c716           0x2e          46   
.text.DRV_MIIM_Deregist   0x41c744           0x2e          46   
.text.DRV_ETHPHY_Reset    0x41c772           0x2e          46   
.text.DRV_ETHPHY_Negoti   0x41c7a0           0x2e          46   
.text._DNSClientCleanup   0x41c7ce           0x2c          44   
.text.TWIHS0_Read         0x41c7fc           0x2c          44   
.text.TCPIP_Helper_Prot   0x41c828           0x2c          44   
.text.TCPIP_STACK_Initi   0x41c854           0x2c          44   
.text.TCPIP_STACK_Addre   0x41c880           0x2c          44   
.text.TCPIP_STACK_IsBca   0x41c8ac           0x2c          44   
.text._TCPIPStackModule   0x41c8d8           0x2c          44   
.text._DRV_GMAC_LinkSta   0x41c904           0x2c          44   
.text.TCPIP_STACK_Init    0x41c930           0x2c          44   
.text._DRV_ETHPHY_Clien   0x41c95c           0x2c          44   
.text.DRV_ETHPHY_Restar   0x41c988           0x2c          44   
.text._DRV_ETHPHY_Clien   0x41c9b4           0x2c          44   
.text._DRV_ETHPHY_Clien   0x41c9e0           0x2c          44   
.text._DRV_ETHPHY_Clien   0x41ca0c           0x2c          44   
.text._DRV_ETHPHY_Clien   0x41ca38           0x2c          44   
.text._DRV_ETHPHY_Clien   0x41ca64           0x2c          44   
.text._DRV_ETHPHY_Setup   0x41ca90           0x2c          44   
.text.SYS_CONSOLE_Write   0x41cabc           0x2c          44   
.text.prvResetNextTaskU   0x41cae8           0x2c          44   
.text.pxPortInitialiseS   0x41cb14           0x2c          44   
.text.__ascii_mbtowc      0x41cb40           0x2c          44   
.text.strtol              0x41cb6c           0x2c          44   
.text._sbrk               0x41cb98           0x2c          44   
.text.TCPIP_Helper_Prot   0x41cbc4           0x2a          42   
.text.TCPIP_Helper_Prot   0x41cbee           0x2a          42   
.text._DRV_GMAC_LinkSta   0x41cc18           0x2a          42   
.text._DRV_MIIM_GetObje   0x41cc42           0x2a          42   
.text._DNSGetData         0x41cc6c           0x28          40   
.text.TCPIP_ICMP_Deinit   0x41cc94           0x28          40   
.text._TcpSocketChk       0x41ccbc           0x28          40   
.text._TcpFlush           0x41cce4           0x28          40   
.text._DHCPOptionWriteP   0x41cd0c           0x28          40   
.text.TC0_CH0_TimerInit   0x41cd34           0x28          40   
.text._TCPIP_STACK_Tick   0x41cd5c           0x28          40   
.text._TCPIPSignalEntry   0x41cd84           0x28          40   
.text.TCPIP_STACK_NetMA   0x41cdac           0x28          40   
.text.TCPIP_STACK_NetMA   0x41cdd4           0x28          40   
.text.TCPIP_STACK_NetIs   0x41cdfc           0x28          40   
.text._TCPIPStackSignal   0x41ce24           0x28          40   
.text._TCPIP_PKT_Socket   0x41ce4c           0x28          40   
.text.DRV_GMAC_ConfigGe   0x41ce74           0x28          40   
.text.DRV_GMAC_LinkChec   0x41ce9c           0x28          40   
.rodata.tcpipARPInitDat   0x41cec4           0x28          40   
.text._UDPSocketDcpt      0x41ceec           0x28          40   
.text._UDPFreeTxResourc   0x41cf14           0x28          40   
.text._UDPUpdatePacketL   0x41cf3c           0x28          40   
.text.TCPIP_UDP_GetIsRe   0x41cf64           0x28          40   
.text.TCPIP_UDP_SignalH   0x41cf8c           0x28          40   
.text.DRV_MIIM_Status     0x41cfb4           0x28          40   
.text._DRV_ETHPHY_Clien   0x41cfdc           0x28          40   
.rodata._DRV_PHY_Client   0x41d004           0x28          40   
.text.SYS_CONSOLE_Flush   0x41d02c           0x28          40   
.text.Console_UART_Stat   0x41d054           0x28          40   
.text.ReadCommandCharac   0x41d07c           0x28          40   
.text.SendCommandCharac   0x41d0a4           0x28          40   
.text.uxListRemove        0x41d0cc           0x28          40   
.text.prvPortStartFirst   0x41d0f4           0x28          40   
.text.vPortSetupTimerIn   0x41d11c           0x28          40   
.rodata.sysCmdInit        0x41d144            0x4           4   
.rodata.tinytens          0x41d148           0x28          40   
.rodata.__mprec_bigtens   0x41d170           0x28          40   
.text.TCPIP_STACK_DNSSe   0x41d198           0x26          38   
.text.TCPIP_STACK_Addre   0x41d1be           0x26          38   
.text._UDPFreeRxQueue     0x41d1e4           0x26          38   
.text._DHCPOptionProces   0x41d20a           0x24          36   
.text._DHCPOptionWriteM   0x41d22e           0x24          36   
.text.TCPIP_DHCP_Reques   0x41d252           0x24          36   
.text._ARPAllocateTxPac   0x41d278           0x24          36   
.text._ARPRemoveCacheEn   0x41d29c           0x24          36   
.text.TCPIP_ARP_Handler   0x41d2c0           0x24          36   
.text.TC0_CH0_Interrupt   0x41d2e4           0x24          36   
.text.TCPIP_Commands_De   0x41d308           0x24          36   
.text.Ipv4DeRegisterFil   0x41d32c           0x24          36   
.rodata._tcpip_heap_obj   0x41d350           0x24          36   
.text.TCPIP_OAHASH_Init   0x41d374           0x24          36   
.text.TCPIP_STACK_IPAdd   0x41d398           0x24          36   
.text._TCPIPStackHandle   0x41d3bc           0x24          36   
.rodata                   0x41d3e0           0x24          36  Read-only const 
.text.DRV_PIC32CGMAC_Li   0x41d404           0x24          36   
.text.DRV_ETHPHY_HWConf   0x41d428           0x24          36   
.text._DRV_ETHPHY_NegRe   0x41d44c           0x24          36   
.text._DRV_ETHPHY_NegRe   0x41d470           0x24          36   
.text.Console_UART_Flus   0x41d494           0x24          36   
.text.SYS_CMDIO_GET_HAN   0x41d4b8           0x24          36   
.rodata._builtinCmdTbl    0x41d4dc           0x24          36   
.text.xQueueCreateMutex   0x41d500           0x24          36   
.text.prvTaskExitError    0x41d524           0x24          36   
.text.TC0_CH0_TimerFreq   0x41d548            0x8           8   
.text.vPortSVCHandler     0x41d550           0x24          36   
.text.vPortEnterCritica   0x41d574           0x24          36   
.text._sbrk_r             0x41d598           0x24          36   
.text.strtod              0x41d5bc           0x24          36   
.text.TCPIP_TCP_IsConne   0x41d5e0           0x22          34   
.text._TCPIP_HEAP_LastE   0x41d602           0x22          34   
.text.TCPIP_Helper_Prot   0x41d624           0x22          34   
.text.TCPIP_STACK_NetAd   0x41d646           0x22          34   
.text.TCPIP_STACK_NetAd   0x41d668           0x22          34   
.text.TCPIP_UDP_Discard   0x41d68a           0x22          34   
.text.DRV_ETHPHY_Reinit   0x41d6ac           0x22          34   
.text.TCPIP_DNS_OAHASH_   0x41d6ce           0x20          32   
.text.TCPIP_DHCP_Enable   0x41d6ee           0x20          32   
.text.TCPIP_DHCP_Renew    0x41d70e           0x20          32   
.text._SwapARPPacket      0x41d72e           0x20          32   
.text.SYS_TIME_GetElaps   0x41d750           0x20          32   
.text.TCPIP_Helper_Sing   0x41d770           0x20          32   
.text.TCPIP_Helper_Prot   0x41d790           0x20          32   
.rodata.TCPIP_MAC_POWER   0x41d7b0           0x20          32   
.text.TCPIP_STACK_NetDe   0x41d7d0           0x20          32   
.text.TCPIP_STACK_Index   0x41d7f0           0x20          32   
.text.TCPIP_STACK_Deini   0x41d810           0x20          32   
.text.TCPIP_Notificatio   0x41d830           0x20          32   
.rodata                   0x41d850           0x20          32  Read-only const 
.text.SYS_INT_SourceRes   0x41d870           0x20          32   
.text.DRV_PIC32CGMAC_Li   0x41d890           0x20          32   
.text.DRV_PIC32CGMAC_Si   0x41d8b0           0x20          32   
.rodata.tcpipPhyInitDat   0x41d8d0           0x20          32   
.text.TCPIP_UDP_Destina   0x41d8f0           0x20          32   
.text.Helper_SingleList   0x41d910           0x20          32   
.text.DRV_ETHPHY_Tasks    0x41d930           0x20          32   
.text.DRV_ETHPHY_Close    0x41d950           0x20          32   
.text._DRV_ETHPHY_Clien   0x41d970           0x20          32   
.text._DRV_ETHPHY_NegRe   0x41d990           0x20          32   
.text._DRV_ETHPHY_Setup   0x41d9b0           0x20          32   
.rodata.sysConsoleUARTD   0x41d9d0           0x20          32   
.text.SYS_DEBUG_Initial   0x41d9f0           0x20          32   
.text.pvPortMalloc        0x41da10           0x20          32   
.text.vsnprintf           0x41da30           0x20          32   
.text._TCPIsGetReady      0x41da50           0x1e          30   
.text.TCPIP_STACK_NetAd   0x41da6e           0x1e          30   
.text.TCPIP_STACK_Netwo   0x41da8c           0x1e          30   
.text.TCPIP_PKT_Payload   0x41daaa           0x1e          30   
.text.OSAL_SEM_Pend       0x41dac8           0x1e          30   
.text.OSAL_MUTEX_Lock     0x41dae6           0x1e          30   
.text.DRV_ETHPHY_Client   0x41db04           0x1e          30   
.text.TCPIP_DNS_IsResol   0x41db22           0x1c          28   
.rodata._DHCPOptWriteTb   0x41db40           0x1c          28   
.text._ARPTxAckFnc        0x41db5c           0x1c          28   
.text.SYS_TIME_Counter6   0x41db78           0x1c          28   
.text.TCPIP_IPV4_MaxDat   0x41db94           0x1c          28   
.rodata.__func__.14091    0x41dbb0           0x1c          28   
.text._TCPIP_HEAP_FreeS   0x41dbcc           0x1c          28   
.text._TCPIP_HEAP_Callo   0x41dbe8           0x1c          28   
.text.TCPIP_Helper_Sing   0x41dc04           0x1c          28   
.text.TCPIP_Helper_Prot   0x41dc20           0x1c          28   
.text._TCPIPSignalEntry   0x41dc3c           0x1c          28   
.text.TCPIP_STACK_Statu   0x41dc58           0x1c          28   
.text.TCPIP_STACK_NetAd   0x41dc74           0x1c          28   
.text.TCPIP_STACK_NetIs   0x41dc90           0x1c          28   
.text.TCPIP_STACK_NetAd   0x41dcac           0x1c          28   
.text.TCPIP_STACK_NetMa   0x41dcc8           0x1c          28   
.text.TCPIP_STACK_NetIs   0x41dce4           0x1c          28   
.text.TCPIP_STACK_NetAd   0x41dd00           0x1c          28   
.text.TCPIP_Notificatio   0x41dd1c           0x1c          28   
.text.TCPIP_Notificatio   0x41dd38           0x1c          28   
.text.SYS_TMR_CallbackP   0x41dd54           0x1c          28   
.rodata.sysTimePlibAPI    0x41dd70           0x1c          28   
.text.TCPIP_UDP_TxPoint   0x41dd8c           0x1c          28   
.rodata._DRV_PHY_SetupP   0x41dda8           0x1c          28   
.text.vTaskPlaceOnEvent   0x41ddc4           0x1c          28   
.text.pvTaskIncrementMu   0x41dde0           0x1c          28   
.text.__locale_ctype_pt   0x41ddfc           0x1c          28   
.text.__ascii_wctomb      0x41de18           0x1c          28   
.text._localeconv_r       0x41de34           0x1c          28   
.text.TCPIP_TCP_ClientO   0x41de50           0x1a          26   
.text.TCPIP_TCP_PutIsRe   0x41de6a           0x1a          26   
.text.TCPIP_Helper_Sing   0x41de84           0x1a          26   
.text.TCPIP_STACK_NetIs   0x41de9e           0x1a          26   
.text.AT24_MacAddr_Read   0x41deb8           0x1a          26   
.text.DRV_PIC32CGMAC_Si   0x41ded2           0x1a          26   
.text._UDPTxPktValid      0x41deec           0x1a          26   
.text.Helper_SingleList   0x41df06           0x1a          26   
.text.DRV_MIIM_Read       0x41df20           0x1a          26   
.text.DRV_MIIM_Write      0x41df3a           0x1a          26   
.text.DRV_MIIM_Scan       0x41df54           0x1a          26   
.text._DRV_ETHPHY_NegCo   0x41df6e           0x1a          26   
.rodata.appCmdTbl         0x41df88           0x18          24   
.rodata.__func__.14126    0x41dfa0           0x18          24   
.rodata.__func__.14144    0x41dfb8           0x18          24   
.rodata.__func__.14395    0x41dfd0           0x18          24   
.text.TCPIP_ICMP_Cleanu   0x41dfe8           0x18          24   
.text.TCPIP_ARP_HashKey   0x41e000           0x18          24   
.text.TCPIP_HEAP_Create   0x41e018           0x18          24   
.text.TCPIP_OAHASH_Entr   0x41e030           0x18          24   
.text.TCPIP_STACK_NetAd   0x41e048           0x18          24   
.text.TCPIP_STACK_NetAd   0x41e060           0x18          24   
.text.TCPIP_STACK_NetAd   0x41e078           0x18          24   
.text.TCPIP_STACK_NetMa   0x41e090           0x18          24   
.text.TCPIP_STACK_NetMA   0x41e0a8           0x18          24   
.text.TCPIP_STACK_HeapH   0x41e0c0           0x18          24   
.rodata.TCPIP_FRAME_PRO   0x41e0d8           0x18          24   
.text.OSAL_CRIT_Enter     0x41e0f0           0x18          24   
.text.OSAL_SEM_Post       0x41e108           0x18          24   
.text.OSAL_MUTEX_Create   0x41e120           0x18          24   
.text.OSAL_MUTEX_Unlock   0x41e138           0x18          24   
.text._TCPIP_STACK_Task   0x41e150           0x18          24   
.text._DRV_MIIM_Task      0x41e168           0x18          24   
.text.DRV_PIC32CGMAC_Si   0x41e180           0x18          24   
.rodata.sysConsole0UART   0x41e198           0x18          24   
.rodata.tcpipDNSClientI   0x41e1b0           0x18          24   
.text.DRV_MIIM_Close      0x41e1c8           0x18          24   
.text.DRV_ETHPHY_PhyAdd   0x41e1e0           0x18          24   
.text._DRV_PHY_SMIReadS   0x41e1f8           0x18          24   
.text._DRV_PHY_SMIWrite   0x41e210           0x18          24   
.text._DRV_ETHPHY_Reset   0x41e228           0x18          24   
.rodata._DRV_PHY_NegCom   0x41e240           0x18          24   
.text.Console_UART_Regi   0x41e258           0x18          24   
.text.CommandReset        0x41e270           0x18          24   
.text.SendCommandMessag   0x41e288           0x18          24   
.rodata.sysConsoleApi     0x41e2a0           0x18          24   
.text.vListInsertEnd      0x41e2b8           0x18          24   
.text.vTaskInternalSetT   0x41e2d0           0x18          24   
.text.vPortFree           0x41e2e8           0x18          24   
.text._DNSSocketRxSigna   0x41e300           0x16          22   
.text._TCP_TxPktValid     0x41e316           0x16          22   
.text._DHCPSocketRxSign   0x41e32c           0x16          22   
.text._TCPIP_HEAP_Size    0x41e342           0x16          22   
.text._TCPIP_HEAP_HighW   0x41e358           0x16          22   
.text.TCPIP_STACK_Addre   0x41e36e           0x16          22   
.text._TCPIPStackPacket   0x41e384           0x16          22   
.text.OSAL_CRIT_Leave     0x41e39a           0x16          22   
.text.DRV_MIIM_ClientSt   0x41e3b0           0x16          22   
.text.DRV_ETHPHY_Vendor   0x41e3c6           0x16          22   
.text.vApplicationStack   0x41e3dc           0x16          22   
.text.vApplicationMallo   0x41e3f2           0x16          22   
.text.vListInitialise     0x41e408           0x16          22   
.text.prvIsQueueEmpty     0x41e41e           0x16          22   
.text.xQueueCreateCount   0x41e434           0x16          22   
.text._DHCPOptionWriteE   0x41e44a           0x14          20   
.text.TCPIP_OAHASH_Entr   0x41e45e           0x14          20   
.rodata._DRV_GMAC_LinkS   0x41e474           0x14          20   
.rodata.sysConsole0UART   0x41e488           0x14          20   
.rodata.sysConsole0UART   0x41e49c           0x14          20   
.text._DRV_ETHPHY_NegRe   0x41e4b0           0x14          20   
.text._DRV_ETHPHY_NegRe   0x41e4c4           0x14          20   
.text._DRV_ETHPHY_NegCo   0x41e4d8           0x14          20   
.text._DRV_ETHPHY_LinkS   0x41e4ec           0x14          20   
.rodata._DRV_PHY_NegRes   0x41e500           0x14          20   
.text.vPortEnableVFP      0x41e514           0x14          20   
.text.vPortExitCritical   0x41e528           0x14          20   
.rodata                   0x41e53c           0x14          20  Read-only const 
.rodata.fpi.7265          0x41e550           0x14          20   
.rodata.fpinan.7301       0x41e564           0x14          20   
.text.register_fini       0x41e578           0x14          20   
.rodata                   0x41e58c           0x14          20  Read-only const 
.text._Bfree              0x41e5a0           0x14          20   
.text.__i2b               0x41e5b4           0x14          20   
.text.TCPIP_TCP_GetIsRe   0x41e5c8           0x12          18   
.text.TCPIP_STACK_NetNa   0x41e5da           0x12          18   
.text.SYS_INT_Disable     0x41e5ec           0x12          18   
.text.SYS_INT_Restore     0x41e5fe           0x12          18   
.text.OSAL_SEM_Delete     0x41e610           0x12          18   
.text.DRV_GMAC_Status     0x41e622           0x12          18   
.text.DRV_GMAC_Close      0x41e634           0x12          18   
.text.DRV_GMAC_Deinitia   0x41e646           0x12          18   
.text.IsCommandReady      0x41e658           0x12          18   
.text.TCPIP_DNS_GetIPv4   0x41e66a           0x10          16   
.text.TCPIP_DNS_GetIPv6   0x41e67a           0x10          16   
.text.BSP_Initialize      0x41e68c           0x10          16   
.text.TWIHS0_CallbackRe   0x41e69c           0x10          16   
.text.TWIHS0_ErrorGet     0x41e6ac           0x10          16   
.text.TCPIP_Notificatio   0x41e6bc           0x10          16   
.text.sy_time_h2_adapte   0x41e6cc           0x10          16   
.text._APP_Tasks          0x41e6dc           0x10          16   
.text._SYS_CMD_Tasks      0x41e6ec           0x10          16   
.rodata.tcpipDHCPInitDa   0x41e6fc           0x10          16   
.rodata._DRV_PHY_SetupP   0x41e70c           0x10          16   
.rodata.DRV_ETHPHY_OBJE   0x41e71c           0x10          16   
.text.vTaskSuspendAll     0x41e72c           0x10          16   
.text.calloc              0x41e73c           0x10          16   
.text.malloc              0x41e74c           0x10          16   
.text.free                0x41e75c           0x10          16   
.rodata                   0x41e76c           0x10          16  Read-only const 
.text.strtok              0x41e77c           0x10          16   
.rodata.blanks.8352       0x41e78c           0x10          16   
.rodata.zeroes.8353       0x41e79c           0x10          16   
.text.btohexa_low         0x41e7ac            0xe          14   
.text.TCPIP_Helper_Chec   0x41e7ba            0xe          14   
.text.TCPIP_STACK_NetIn   0x41e7c8            0xe          14   
.text.TCPIP_STACK_NetIx   0x41e7d6            0xe          14   
.text._TCPIPStackSignal   0x41e7e4            0xe          14   
.text.main                0x41e7f2            0xe          14   
.text.DRV_ETHPHY_Status   0x41e800            0xe          14   
.text.DRV_ETHPHY_Client   0x41e80e            0xe          14   
.text.DRV_ETHPHY_Client   0x41e81c            0xe          14   
.text.DRV_ETHPHY_Vendor   0x41e82a            0xe          14   
.text.TCPIP_DNS_Enable    0x41e838            0xc          12   
.text.TCPIP_ARP_HashKey   0x41e844            0xc          12   
.text.TC0_CH0_TimerStar   0x41e850            0xc          12   
.text.TC0_CH0_TimerStop   0x41e85c            0xc          12   
.text.TC0_CH0_TimerPeri   0x41e868            0xc          12   
.text.TC0_CH0_TimerComp   0x41e874            0xc          12   
.text.TC0_CH0_TimerCoun   0x41e880            0xc          12   
.text.TC0_CH0_TimerCall   0x41e88c            0xc          12   
.text.SYS_TIME_Frequenc   0x41e898            0xc          12   
.text.USART1_WriteCallb   0x41e8a4            0xc          12   
.text.USART1_ReadCallba   0x41e8b0            0xc          12   
.text.btohexa_high        0x41e8bc            0xc          12   
.text.TCPIP_STACK_NetDe   0x41e8c8            0xc          12   
.text.TCPIP_STACK_Numbe   0x41e8d4            0xc          12   
.rodata.TCPIP_STACK_IF_   0x41e8e0            0xc          12   
.text.TCPIP_PKT_Deiniti   0x41e8ec            0xc          12   
.text._DRV_GMAC_GetTxOc   0x41e8f8            0xc          12   
.text._DRV_GMAC_GetTxOc   0x41e904            0xc          12   
.text._DRV_GMAC_GetTxFr   0x41e910            0xc          12   
.text._DRV_GMAC_GetTxBC   0x41e91c            0xc          12   
.text._DRV_GMAC_GetTxMC   0x41e928            0xc          12   
.text._DRV_GMAC_GetTxPa   0x41e934            0xc          12   
.text._DRV_GMAC_GetTx64   0x41e940            0xc          12   
.text._DRV_GMAC_GetTx12   0x41e94c            0xc          12   
.text._DRV_GMAC_GetTx25   0x41e958            0xc          12   
.text._DRV_GMAC_GetTx51   0x41e964            0xc          12   
.text._DRV_GMAC_GetTx10   0x41e970            0xc          12   
.text._DRV_GMAC_GetTx15   0x41e97c            0xc          12   
.text._DRV_GMAC_GetTxGT   0x41e988            0xc          12   
.text._DRV_GMAC_GetTxUn   0x41e994            0xc          12   
.text._DRV_GMAC_GetTxSi   0x41e9a0            0xc          12   
.text._DRV_GMAC_GetTxMu   0x41e9ac            0xc          12   
.text._DRV_GMAC_GetTxEx   0x41e9b8            0xc          12   
.text._DRV_GMAC_GetTxLa   0x41e9c4            0xc          12   
.text._DRV_GMAC_GetTxDe   0x41e9d0            0xc          12   
.text._DRV_GMAC_GetTxCS   0x41e9dc            0xc          12   
.text._DRV_GMAC_GetRxOc   0x41e9e8            0xc          12   
.text._DRV_GMAC_GetRxOc   0x41e9f4            0xc          12   
.text._DRV_GMAC_GetRxFr   0x41ea00            0xc          12   
.text._DRV_GMAC_GetRxBC   0x41ea0c            0xc          12   
.text._DRV_GMAC_GetRxMC   0x41ea18            0xc          12   
.text._DRV_GMAC_GetRxPa   0x41ea24            0xc          12   
.text._DRV_GMAC_GetRx64   0x41ea30            0xc          12   
.text._DRV_GMAC_GetRx12   0x41ea3c            0xc          12   
.text._DRV_GMAC_GetRx25   0x41ea48            0xc          12   
.text._DRV_GMAC_GetRx51   0x41ea54            0xc          12   
.text._DRV_GMAC_GetRx10   0x41ea60            0xc          12   
.text._DRV_GMAC_GetRx15   0x41ea6c            0xc          12   
.text._DRV_GMAC_GetRxGT   0x41ea78            0xc          12   
.text._DRV_GMAC_GetRxUn   0x41ea84            0xc          12   
.text._DRV_GMAC_GetRxOv   0x41ea90            0xc          12   
.text._DRV_GMAC_GetRxJa   0x41ea9c            0xc          12   
.text._DRV_GMAC_GetRxFC   0x41eaa8            0xc          12   
.text._DRV_GMAC_GetRxLF   0x41eab4            0xc          12   
.text._DRV_GMAC_GetRxSy   0x41eac0            0xc          12   
.text._DRV_GMAC_GetRxAl   0x41eacc            0xc          12   
.text._DRV_GMAC_GetRxRe   0x41ead8            0xc          12   
.text._DRV_GMAC_GetRxOv   0x41eae4            0xc          12   
.text._DRV_GMAC_GetRxIP   0x41eaf0            0xc          12   
.text._DRV_GMAC_GetRxTC   0x41eafc            0xc          12   
.text._DRV_GMAC_GetRxUD   0x41eb08            0xc          12   
.rodata.sysConsole0Init   0x41eb14            0xc          12   
.text.DRV_ETHPHY_Deinit   0x41eb20            0xc          12   
.rodata._DRV_PHY_LinkSt   0x41eb2c            0xc          12   
.rodata._DRV_PHY_NegRes   0x41eb38            0xc          12   
.rodata._DRV_PHY_ResetP   0x41eb44            0xc          12   
.text.SYS_DEBUG_ErrorLe   0x41eb50            0xc          12   
.text.SYS_CMD_MESSAGE     0x41eb5c            0xc          12   
.text.vTaskMissedYield    0x41eb68            0xc          12   
.text.atexit              0x41eb74            0xc          12   
.rodata.p05.7179          0x41eb80            0xc          12   
.text.TCPIP_DNS_Resolve   0x41eb8c            0xa          10   
.text._Command_ZcllOnOf   0x41eb96            0xa          10   
.text._Command_DHCPSOnO   0x41eba0            0xa          10   
.text.TCPIP_Helper_Sing   0x41ebaa            0xa          10   
.text.TCPIP_STACK_NetBI   0x41ebb4            0xa          10   
.text._TCPIPStackAddres   0x41ebbe            0xa          10   
.text.GMAC_InterruptHan   0x41ebc8            0xa          10   
.text.TCPIP_UDP_ClientO   0x41ebd2            0xa          10   
.text.TCPIP_HEAP_Malloc   0x41ebdc            0x8           8   
.text.TCPIP_HEAP_Calloc   0x41ebe4            0x8           8   
.text.TCPIP_HEAP_FreeOu   0x41ebec            0x8           8   
.text.TCPIP_STACK_Gatew   0x41ebf4            0x8           8   
.text.TCPIP_STACK_Prima   0x41ebfc            0x8           8   
.text.TCPIP_STACK_Secon   0x41ec04            0x8           8   
.text.TCPIP_STACK_NetGe   0x41ec0c            0x8           8   
.text.TCPIP_Notificatio   0x41ec14            0x8           8   
.text.DRV_GMAC_EventPen   0x41ec1c            0x8           8   
.rodata.drvMiimInitData   0x41ec24            0x8           8   
.rodata.sysTimeInitData   0x41ec2c            0x8           8   
.rodata.tcpipTCPInitDat   0x41ec34            0x8           8   
.rodata.tcpipUDPInitDat   0x41ec3c            0x8           8   
.text.TCPIP_UDP_TxPutIs   0x41ec44            0x8           8   
.text._DRV_ETHPHY_Clien   0x41ec4c            0x8           8   
.text.DRV_EXTPHY_SMIClo   0x41ec54            0x8           8   
.text.vQueueDelete        0x41ec5c            0x8           8   
.rodata                   0x41ec64            0x8           8  Read-only const 
.text.atof                0x41ec6c            0x8           8   
.text.atoi                0x41ec74            0x8           8   
.text.__locale_ctype_pt   0x41ec7c            0x8           8   
.text.TCPIP_ARP_HashKey   0x41ec84            0x6           6   
.text.DRV_ETHPHY_SMIRea   0x41ec8a            0x6           6   
.text.DRV_ETHPHY_SMIWri   0x41ec90            0x6           6   
.text.DRV_ETHPHY_SMISca   0x41ec96            0x6           6   
.text.DRV_ETHPHY_SMISca   0x41ec9c            0x6           6   
.text.DRV_ETHPHY_SMISca   0x41eca2            0x6           6   
.text.DRV_ETHPHY_SMISca   0x41eca8            0x6           6   
.text.DRV_ETHPHY_SMISta   0x41ecae            0x6           6   
.text.DRV_ETHPHY_SMIClo   0x41ecb4            0x6           6   
.text.vListInitialiseIt   0x41ecba            0x6           6   
.text.GetCommandCharact   0x41ecc0            0x4           4   
.rodata._seqDownArrow     0x41ecc4            0x4           4   
.rodata._seqLeftArrow     0x41ecc8            0x4           4   
.rodata._seqRightArrow    0x41eccc            0x4           4   
.rodata._seqUpArrow       0x41ecd0            0x4           4   
.text                     0x41ecd4            0x4           4  App's exec code 
.rodata._global_impure_   0x41ecd8            0x4           4   
.text.__malloc_lock       0x41ecdc            0x4           4   
.text.__malloc_unlock     0x41ece0            0x4           4   
.text.__localeconv_l      0x41ece4            0x4           4   
      Total ROM used  :     0x1ecc6      126150  6.0% of 0x200000
        --------------------------------------------------------------------------
         Total Program Memory used  :     0x1ecc6      126150  6.0% of 0x200000
        --------------------------------------------------------------------------


RAM Data-Memory Usage
section                    address  length [bytes]      (dec)  Description
-------                 ----------  -------------------------  -----------
.bss                    0x20400000          0x60c        1548  Uninitialized data 
.data.__malloc_av_      0x2040060c          0x408        1032   
.data._gmac_drv_dcpt    0x20400a14          0x304         772   
.bss.TCPIP_STACK_MODULE 0x20400d18          0x250         592   
.bss.sysConsole0UARTWrQ 0x20400f68          0x208         520   
.data.__global_locale   0x20401170          0x16c         364   
.bss.tmpBuf             0x204012dc           0xc8         200   
.bss.timers             0x204013a4           0xa0         160   
.bss.gDrvMIIMObj        0x20401444           0x94         148   
.bss.TCPIP_MODULES_QUEU 0x204014d8           0x90         144   
.bss.saveCmd.7379       0x20401568           0x81         129   
.data.dnsType           0x204015e9            0x1           1   
.bss.tcpDefTxSize       0x204015ea            0x2           2   
.bss._usrCmdTbl         0x204015ec           0x80         128   
.bss.readBuff           0x2040166c           0x80         128   
.bss.gDrvETHPHYObj      0x204016ec           0x64         100   
.bss.gConsoleUartData   0x20401750           0x64         100   
.bss.pxReadyTasksLists  0x204017b4           0x64         100   
.bss.sysConsole0UARTRdQ 0x20401818           0x58          88   
.bss.arpMod             0x20401870           0x48          72   
.bss.gSystemCounterObj  0x204018b8           0x38          56   
.data.TCPIP_HOSTS_CONFI 0x204018f0           0x38          56   
.bss.gDnsDcpt           0x20401928           0x28          40   
.bss.twihs0Obj          0x20401950           0x28          40   
.bss.__malloc_current_m 0x20401978           0x28          40   
.bss.dnslookupTargetHos 0x204019a0           0x1f          31   
.bss.tcpipCmdStat       0x204019bf            0x1           1   
.bss                    0x204019c0           0x1c          28  Uninitialized data 
.bss._cmdAppData        0x204019dc           0x18          24   
.bss.dhcpRegisteredUser 0x204019f4           0x14          20   
.bss.cmdTcpipInitData   0x20401a08           0x14          20   
.bss.ipv4ArpQueue       0x20401a1c           0x14          20   
.bss.ipv4PacketFilters  0x20401a30           0x14          20   
.bss.tcpip_init_data    0x20401a44           0x14          20   
.data.tcpipHeapConfig   0x20401a58           0x14          20   
.bss.xDelayedTaskList1  0x20401a6c           0x14          20   
.bss.xDelayedTaskList2  0x20401a80           0x14          20   
.bss.xPendingReadyList  0x20401a94           0x14          20   
.bss.xSuspendedTaskList 0x20401aa8           0x14          20   
.bss.xTasksWaitingTermi 0x20401abc           0x14          20   
.bss.tcpip_heap_config  0x20401ad0           0x10          16   
.bss.consoleDeviceInsta 0x20401ae0            0xc          12   
.bss.cmdIODevList       0x20401aec            0xc          12   
.data.dwLastIP.13438    0x20401af8            0x8           8   
.bss._cmdList           0x20401b00            0x8           8   
.data.arpBcastAdd       0x20401b08            0x6           6   
.bss.tcpDefRxSize       0x20401b0e            0x2           2   
.bss._DNSStayAssertLoop 0x20401b10            0x4           4   
.bss._DNSStayCondLoop   0x20401b14            0x4           4   
.bss.dnsInitCount       0x20401b18            0x4           4   
.bss.pgDnsDcpt          0x20401b1c            0x4           4   
.bss.icmpInitCount      0x20401b20            0x4           4   
.bss.signalHandle       0x20401b24            0x4           4   
.bss.TCBStubs           0x20401b28            0x4           4   
.bss.TcpSockets         0x20401b2c            0x4           4   
.bss.tcpHeapH           0x20401b30            0x4           4   
.bss.tcpInitCount       0x20401b34            0x4           4   
.bss.tcpLockCount       0x20401b38            0x4           4   
.bss.tcpSemaphore       0x20401b3c            0x4           4   
.bss.tcpSignalHandle    0x20401b40            0x4           4   
.bss.DHCPClients        0x20401b44            0x4           4   
.bss.dhcpFilterHandle   0x20401b48            0x4           4   
.bss.dhcpInitCount      0x20401b4c            0x4           4   
.bss.dhcpInterfaces     0x20401b50            0x4           4   
.bss.dhcpMemH           0x20401b54            0x4           4   
.bss.dhcpSecondCount    0x20401b58            0x4           4   
.bss.dhcpSignalHandle   0x20401b5c            0x4           4   
.bss.dnsLookUpStartTick 0x20401b60            0x4           4   
.bss.dnsLookupCmdIoPara 0x20401b64            0x4           4   
.bss.initialNetIfs      0x20401b68            0x4           4   
.bss.pCmdTcpipInitData  0x20401b6c            0x4           4   
.bss.pTcpipCmdDevice    0x20401b70            0x4           4   
.bss.tcpipCmdSignalHand 0x20401b74            0x4           4   
.bss._IPv4StayAssertLoo 0x20401b78            0x4           4   
.bss.ipv4ArpHandle      0x20401b7c            0x4           4   
.bss.ipv4MemH           0x20401b80            0x4           4   
.bss.signalHandle       0x20401b84            0x4           4   
.bss.newTcpipErrorEvent 0x20401b88            0x4           4   
.bss.newTcpipStackEvent 0x20401b8c            0x4           4   
.bss.newTcpipTickAvlbl  0x20401b90            0x4           4   
.bss.stackAsyncSignalCo 0x20401b94            0x4           4   
.bss.stackTaskRate      0x20401b98            0x4           4   
.bss.tcpipDefIf         0x20401b9c            0x4           4   
.bss.tcpipNetIf         0x20401ba0            0x4           4   
.bss.totTcpipEventsCnt  0x20401ba4            0x4           4   
.data.tcpip_stack_tickH 0x20401ba8            0x4           4   
.bss.pktMemH            0x20401bac            0x4           4   
.bss.systemAdaptObj     0x20401bb0            0x4           4   
.bss.startTick.13443    0x20401bb4            0x4           4   
.data.blink.13444       0x20401bb8            0x4           4   
.bss._hEventMac         0x20401bbc            0x4           4   
.bss.cmd.13430          0x20401bc0            0x4           4   
.bss.UDPSocketDcpt      0x20401bc4            0x4           4   
.bss.nUdpSockets        0x20401bc8            0x4           4   
.bss.signalHandle       0x20401bcc            0x4           4   
.bss.udpInitCount       0x20401bd0            0x4           4   
.bss.udpMemH            0x20401bd4            0x4           4   
.bss.userSem            0x20401bd8            0x4           4   
.bss._MIIMStayAssertLoo 0x20401bdc            0x4           4   
.bss._pCurrCmdN         0x20401be0            0x4           4   
.bss.printBuffPtr       0x20401be4            0x4           4   
.bss.pxCurrentTCB       0x20401be8            0x4           4   
.bss.pxDelayedTaskList  0x20401bec            0x4           4   
.bss.pxOverflowDelayedT 0x20401bf0            0x4           4   
.bss.uxCurrentNumberOfT 0x20401bf4            0x4           4   
.bss.uxDeletedTasksWait 0x20401bf8            0x4           4   
.bss.uxPendedTicks      0x20401bfc            0x4           4   
.bss.uxSchedulerSuspend 0x20401c00            0x4           4   
.bss.uxTaskNumber       0x20401c04            0x4           4   
.bss.uxTopReadyPriority 0x20401c08            0x4           4   
.bss.xIdleTaskHandle    0x20401c0c            0x4           4   
.bss.xNextTaskUnblockTi 0x20401c10            0x4           4   
.bss.xNumOfOverflows    0x20401c14            0x4           4   
.bss.xSchedulerRunning  0x20401c18            0x4           4   
.bss.xTickCount         0x20401c1c            0x4           4   
.bss.xYieldPending      0x20401c20            0x4           4   
.data.uxCriticalNesting 0x20401c24            0x4           4   
.data._impure_ptr       0x20401c28            0x4           4   
.bss.__malloc_max_sbrke 0x20401c2c            0x4           4   
.bss.__malloc_max_total 0x20401c30            0x4           4   
.bss.__malloc_top_pad   0x20401c34            0x4           4   
.data.__malloc_sbrk_bas 0x20401c38            0x4           4   
.data.__malloc_trim_thr 0x20401c3c            0x4           4   
.bss                    0x20401c40            0x4           4  Uninitialized data 
.bss.dhcpClientPort     0x20401c44            0x2           2   
.bss.dhcpClientSocket   0x20401c46            0x2           2   
.bss.dhcpServerPort     0x20401c48            0x2           2   
.data.gSysTimeTokenCoun 0x20401c4a            0x2           2   
.bss.ipv4Identifier     0x20401c4c            0x2           2   
.bss.ipv4InitCount      0x20401c4e            0x2           2   
.bss.udpDefTxSize       0x20401c50            0x2           2   
.bss.ipv4FilterType     0x20401c52            0x1           1   
.bss.tcpip_stack_status 0x20401c53            0x1           1   
.bss.state.13423        0x20401c54            0x1           1   
.bss.discard_flag.13977 0x20401c55            0x1           1   
.bss.gmac_dcpt_array    0x2045f000           0xf0         240   
.bss.printBuff          0x2045f0f0          0xa00        2560   
.data.impure_data       0x2045faf0          0x428        1064   
.bss.printBuffer        0x2045ff18           0xc8         200   
.bss.tcpip_stack_ctrl_d 0x2045ffe0           0x20          32   
         Total RAM used  :      0x2c56       11350  2.9% of 0x60000
        --------------------------------------------------------------------------
            Total Data Memory used  :      0x2c56       11350  2.9% of 0x60000
        --------------------------------------------------------------------------


Dynamic Data-Memory Reservation
section                    address  length [bytes]      (dec)  Description
-------                 ----------  -------------------------  -----------
heap                    0x20401c58        0x17ac0       96960  Reserved for heap 
stack                   0x20419730        0x458c0      284864  Reserved for stack 

        --------------------------------------------------------------------------

Discarded input sections

 .text          0x0000000000000000        0x0 /Applications/microchip/xc32/v2.15/bin/bin/../../lib/gcc/pic32c/6.2.1/v7e-m/fpv5/hard/crti.o
 .data          0x0000000000000000        0x0 /Applications/microchip/xc32/v2.15/bin/bin/../../lib/gcc/pic32c/6.2.1/v7e-m/fpv5/hard/crti.o
 .bss           0x0000000000000000        0x0 /Applications/microchip/xc32/v2.15/bin/bin/../../lib/gcc/pic32c/6.2.1/v7e-m/fpv5/hard/crti.o
 .data          0x0000000000000000        0x4 /Applications/microchip/xc32/v2.15/bin/bin/../../lib/gcc/pic32c/6.2.1/v7e-m/fpv5/hard/crtbegin.o
 .text          0x0000000000000000       0x74 /Applications/microchip/xc32/v2.15/bin/bin/../../lib/gcc/pic32c/6.2.1/../../../../pic32c/lib/v7e-m/fpv5/hard/crt0.o
 .data          0x0000000000000000        0x0 /Applications/microchip/xc32/v2.15/bin/bin/../../lib/gcc/pic32c/6.2.1/../../../../pic32c/lib/v7e-m/fpv5/hard/crt0.o
 .bss           0x0000000000000000        0x0 /Applications/microchip/xc32/v2.15/bin/bin/../../lib/gcc/pic32c/6.2.1/../../../../pic32c/lib/v7e-m/fpv5/hard/crt0.o
 .ARM.extab     0x0000000000000000        0x0 /Applications/microchip/xc32/v2.15/bin/bin/../../lib/gcc/pic32c/6.2.1/../../../../pic32c/lib/v7e-m/fpv5/hard/crt0.o
 .ARM.exidx     0x0000000000000000        0x8 /Applications/microchip/xc32/v2.15/bin/bin/../../lib/gcc/pic32c/6.2.1/../../../../pic32c/lib/v7e-m/fpv5/hard/crt0.o
 .ARM.attributes
                0x0000000000000000       0x1e /Applications/microchip/xc32/v2.15/bin/bin/../../lib/gcc/pic32c/6.2.1/../../../../pic32c/lib/v7e-m/fpv5/hard/crt0.o
 .text          0x0000000000000000        0x0 build/sam_e70_xult_freertos/production/_ext/1360937237/app_commands.o
 .data          0x0000000000000000        0x0 build/sam_e70_xult_freertos/production/_ext/1360937237/app_commands.o
 .bss           0x0000000000000000        0x0 build/sam_e70_xult_freertos/production/_ext/1360937237/app_commands.o
 .text          0x0000000000000000        0x0 build/sam_e70_xult_freertos/production/_ext/810785262/dns.o
 .data          0x0000000000000000        0x0 build/sam_e70_xult_freertos/production/_ext/810785262/dns.o
 .bss           0x0000000000000000        0x0 build/sam_e70_xult_freertos/production/_ext/810785262/dns.o
 .text.TCPIP_DNS_Send_Query
                0x0000000000000000        0xa build/sam_e70_xult_freertos/production/_ext/810785262/dns.o
 .text.TCPIP_DNS_IsNameResolved
                0x0000000000000000        0xa build/sam_e70_xult_freertos/production/_ext/810785262/dns.o
 .text.TCPIP_DNS_IsEnabled
                0x0000000000000000       0x1e build/sam_e70_xult_freertos/production/_ext/810785262/dns.o
 .text          0x0000000000000000        0x0 build/sam_e70_xult_freertos/production/_ext/810785262/icmp.o
 .data          0x0000000000000000        0x0 build/sam_e70_xult_freertos/production/_ext/810785262/icmp.o
 .bss           0x0000000000000000        0x0 build/sam_e70_xult_freertos/production/_ext/810785262/icmp.o
 .text          0x0000000000000000        0x0 build/sam_e70_xult_freertos/production/_ext/810785262/tcp.o
 .data          0x0000000000000000        0x0 build/sam_e70_xult_freertos/production/_ext/810785262/tcp.o
 .bss           0x0000000000000000        0x0 build/sam_e70_xult_freertos/production/_ext/810785262/tcp.o
 .text.TCPIP_TCP_SocketTraceSet
                0x0000000000000000        0x4 build/sam_e70_xult_freertos/production/_ext/810785262/tcp.o
 .text.TCPIP_TCP_ServerOpen
                0x0000000000000000       0xa8 build/sam_e70_xult_freertos/production/_ext/810785262/tcp.o
 .text.TCPIP_TCP_WasReset
                0x0000000000000000       0x2a build/sam_e70_xult_freertos/production/_ext/810785262/tcp.o
 .text.TCPIP_TCP_Disconnect
                0x0000000000000000       0x1a build/sam_e70_xult_freertos/production/_ext/810785262/tcp.o
 .text.TCPIP_TCP_Abort
                0x0000000000000000       0x14 build/sam_e70_xult_freertos/production/_ext/810785262/tcp.o
 .text.TCPIP_TCP_Connect
                0x0000000000000000       0x2e build/sam_e70_xult_freertos/production/_ext/810785262/tcp.o
 .text.TCPIP_TCP_SocketsNumberGet
                0x0000000000000000        0xc build/sam_e70_xult_freertos/production/_ext/810785262/tcp.o
 .text.TCPIP_TCP_Flush
                0x0000000000000000       0x24 build/sam_e70_xult_freertos/production/_ext/810785262/tcp.o
 .text.TCPIP_TCP_Put
                0x0000000000000000       0x18 build/sam_e70_xult_freertos/production/_ext/810785262/tcp.o
 .text.TCPIP_TCP_StringPut
                0x0000000000000000       0x1a build/sam_e70_xult_freertos/production/_ext/810785262/tcp.o
 .text.TCPIP_TCP_FifoTxFullGet
                0x0000000000000000       0x3c build/sam_e70_xult_freertos/production/_ext/810785262/tcp.o
 .text.TCPIP_TCP_SocketInfoGet
                0x0000000000000000       0x6e build/sam_e70_xult_freertos/production/_ext/810785262/tcp.o
 .text.TCPIP_TCP_FifoTxFreeGet
                0x0000000000000000       0x20 build/sam_e70_xult_freertos/production/_ext/810785262/tcp.o
 .text.TCPIP_TCP_Discard
                0x0000000000000000       0x26 build/sam_e70_xult_freertos/production/_ext/810785262/tcp.o
 .text.TCPIP_TCP_Get
                0x0000000000000000        0xa build/sam_e70_xult_freertos/production/_ext/810785262/tcp.o
 .text.TCPIP_TCP_FifoRxFreeGet
                0x0000000000000000       0x1e build/sam_e70_xult_freertos/production/_ext/810785262/tcp.o
 .text.TCPIP_TCP_ArrayPeek
                0x0000000000000000       0x62 build/sam_e70_xult_freertos/production/_ext/810785262/tcp.o
 .text.TCPIP_TCP_Peek
                0x0000000000000000       0x1a build/sam_e70_xult_freertos/production/_ext/810785262/tcp.o
 .text.TCPIP_TCP_ArrayFind
                0x0000000000000000      0x262 build/sam_e70_xult_freertos/production/_ext/810785262/tcp.o
 .text.TCPIP_TCP_Find
                0x0000000000000000       0x20 build/sam_e70_xult_freertos/production/_ext/810785262/tcp.o
 .text.TCPIP_TCP_FifoSizeAdjust
                0x0000000000000000      0x2fc build/sam_e70_xult_freertos/production/_ext/810785262/tcp.o
 .text.TCPIP_TCP_SocketNetSet
                0x0000000000000000       0x2a build/sam_e70_xult_freertos/production/_ext/810785262/tcp.o
 .text.TCPIP_TCP_SocketNetGet
                0x0000000000000000       0x10 build/sam_e70_xult_freertos/production/_ext/810785262/tcp.o
 .text.TCPIP_TCP_Bind
                0x0000000000000000       0xce build/sam_e70_xult_freertos/production/_ext/810785262/tcp.o
 .text.TCPIP_TCP_OptionsSet
                0x0000000000000000      0x106 build/sam_e70_xult_freertos/production/_ext/810785262/tcp.o
 .text.TCPIP_TCP_OptionsGet
                0x0000000000000000       0xb2 build/sam_e70_xult_freertos/production/_ext/810785262/tcp.o
 .text.TCPIP_TCP_DestinationIPAddressSet
                0x0000000000000000       0x4e build/sam_e70_xult_freertos/production/_ext/810785262/tcp.o
 .text.TCPIP_TCP_RemoteBind
                0x0000000000000000       0x4e build/sam_e70_xult_freertos/production/_ext/810785262/tcp.o
 .text.TCPIP_TCP_SourceIPAddressSet
                0x0000000000000000       0x2e build/sam_e70_xult_freertos/production/_ext/810785262/tcp.o
 .text.TCPIP_TCP_SignalHandlerRegister
                0x0000000000000000       0x2c build/sam_e70_xult_freertos/production/_ext/810785262/tcp.o
 .text.TCPIP_TCP_SignalHandlerDeregister
                0x0000000000000000       0x24 build/sam_e70_xult_freertos/production/_ext/810785262/tcp.o
 .text.TCPIP_TCP_IsReady
                0x0000000000000000        0x4 build/sam_e70_xult_freertos/production/_ext/810785262/tcp.o
 .text          0x0000000000000000        0x0 build/sam_e70_xult_freertos/production/_ext/810785262/dhcp.o
 .data          0x0000000000000000        0x0 build/sam_e70_xult_freertos/production/_ext/810785262/dhcp.o
 .bss           0x0000000000000000        0x0 build/sam_e70_xult_freertos/production/_ext/810785262/dhcp.o
 .text.TCPIP_DHCP_IsBound
                0x0000000000000000       0x48 build/sam_e70_xult_freertos/production/_ext/810785262/dhcp.o
 .text.TCPIP_DHCP_IsServerDetected
                0x0000000000000000       0x48 build/sam_e70_xult_freertos/production/_ext/810785262/dhcp.o
 .text.TCPIP_DHCP_RequestTimeoutSet
                0x0000000000000000       0x58 build/sam_e70_xult_freertos/production/_ext/810785262/dhcp.o
 .text.TCPIP_DHCP_HandlerRegister
                0x0000000000000000       0x34 build/sam_e70_xult_freertos/production/_ext/810785262/dhcp.o
 .text.TCPIP_DHCP_HandlerDeRegister
                0x0000000000000000       0x24 build/sam_e70_xult_freertos/production/_ext/810785262/dhcp.o
 .text.TCPIP_DHCP_HostNameCallbackRegister
                0x0000000000000000       0x54 build/sam_e70_xult_freertos/production/_ext/810785262/dhcp.o
 .text          0x0000000000000000        0x0 build/sam_e70_xult_freertos/production/_ext/810785262/arp.o
 .data          0x0000000000000000        0x0 build/sam_e70_xult_freertos/production/_ext/810785262/arp.o
 .bss           0x0000000000000000        0x0 build/sam_e70_xult_freertos/production/_ext/810785262/arp.o
 .text.TCPIP_ARP_Resolve
                0x0000000000000000       0x46 build/sam_e70_xult_freertos/production/_ext/810785262/arp.o
 .text.TCPIP_ARP_EntrySet
                0x0000000000000000       0xe4 build/sam_e70_xult_freertos/production/_ext/810785262/arp.o
 .text.TCPIP_ARP_EntryRemoveAll
                0x0000000000000000       0x84 build/sam_e70_xult_freertos/production/_ext/810785262/arp.o
 .text.TCPIP_ARP_CacheThresholdSet
                0x0000000000000000       0x50 build/sam_e70_xult_freertos/production/_ext/810785262/arp.o
 .text          0x0000000000000000        0x0 build/sam_e70_xult_freertos/production/_ext/1245453995/plib_tc0.o
 .data          0x0000000000000000        0x0 build/sam_e70_xult_freertos/production/_ext/1245453995/plib_tc0.o
 .bss           0x0000000000000000        0x0 build/sam_e70_xult_freertos/production/_ext/1245453995/plib_tc0.o
 .text.TC0_CH0_TimerPeriodGet
                0x0000000000000000        0xc build/sam_e70_xult_freertos/production/_ext/1245453995/plib_tc0.o
 .text          0x0000000000000000        0x0 build/sam_e70_xult_freertos/production/_ext/912870411/sys_time.o
 .data          0x0000000000000000        0x0 build/sam_e70_xult_freertos/production/_ext/912870411/sys_time.o
 .bss           0x0000000000000000        0x0 build/sam_e70_xult_freertos/production/_ext/912870411/sys_time.o
 .text.SYS_TIME_Deinitialize
                0x0000000000000000       0x30 build/sam_e70_xult_freertos/production/_ext/912870411/sys_time.o
 .text.SYS_TIME_Status
                0x0000000000000000       0x14 build/sam_e70_xult_freertos/production/_ext/912870411/sys_time.o
 .text.SYS_TIME_CounterGet
                0x0000000000000000        0x8 build/sam_e70_xult_freertos/production/_ext/912870411/sys_time.o
 .text.SYS_TIME_CounterSet
                0x0000000000000000       0x20 build/sam_e70_xult_freertos/production/_ext/912870411/sys_time.o
 .text.SYS_TIME_CountToUS
                0x0000000000000000       0x34 build/sam_e70_xult_freertos/production/_ext/912870411/sys_time.o
 .text.SYS_TIME_CountToMS
                0x0000000000000000       0x34 build/sam_e70_xult_freertos/production/_ext/912870411/sys_time.o
 .text.SYS_TIME_USToCount
                0x0000000000000000       0x3c build/sam_e70_xult_freertos/production/_ext/912870411/sys_time.o
 .text.SYS_TIME_TimerCreate
                0x0000000000000000       0x1c build/sam_e70_xult_freertos/production/_ext/912870411/sys_time.o
 .text.SYS_TIME_TimerReload
                0x0000000000000000       0x8c build/sam_e70_xult_freertos/production/_ext/912870411/sys_time.o
 .text.SYS_TIME_TimerStop
                0x0000000000000000       0x3c build/sam_e70_xult_freertos/production/_ext/912870411/sys_time.o
 .text.SYS_TIME_TimerCounterGet
                0x0000000000000000       0x78 build/sam_e70_xult_freertos/production/_ext/912870411/sys_time.o
 .text.SYS_TIME_TimerPeriodHasExpired
                0x0000000000000000       0x28 build/sam_e70_xult_freertos/production/_ext/912870411/sys_time.o
 .text.SYS_TIME_DelayUS
                0x0000000000000000       0x3c build/sam_e70_xult_freertos/production/_ext/912870411/sys_time.o
 .text.SYS_TIME_DelayMS
                0x0000000000000000       0x3c build/sam_e70_xult_freertos/production/_ext/912870411/sys_time.o
 .text.SYS_TIME_DelayIsComplete
                0x0000000000000000       0x18 build/sam_e70_xult_freertos/production/_ext/912870411/sys_time.o
 .text.SYS_TIME_CallbackRegisterUS
                0x0000000000000000       0x50 build/sam_e70_xult_freertos/production/_ext/912870411/sys_time.o
 .text          0x0000000000000000        0x0 build/sam_e70_xult_freertos/production/_ext/683629640/bsp.o
 .data          0x0000000000000000        0x0 build/sam_e70_xult_freertos/production/_ext/683629640/bsp.o
 .bss           0x0000000000000000        0x0 build/sam_e70_xult_freertos/production/_ext/683629640/bsp.o
 .text          0x0000000000000000        0x0 build/sam_e70_xult_freertos/production/_ext/810785262/tcpip_commands.o
 .data          0x0000000000000000        0x0 build/sam_e70_xult_freertos/production/_ext/810785262/tcpip_commands.o
 .bss           0x0000000000000000        0x0 build/sam_e70_xult_freertos/production/_ext/810785262/tcpip_commands.o
 .text          0x0000000000000000        0x0 build/sam_e70_xult_freertos/production/_ext/901805035/plib_twihs0.o
 .data          0x0000000000000000        0x0 build/sam_e70_xult_freertos/production/_ext/901805035/plib_twihs0.o
 .bss           0x0000000000000000        0x0 build/sam_e70_xult_freertos/production/_ext/901805035/plib_twihs0.o
 .text.TWIHS0_IsBusy
                0x0000000000000000       0x14 build/sam_e70_xult_freertos/production/_ext/901805035/plib_twihs0.o
 .text.TWIHS0_Write
                0x0000000000000000       0x2c build/sam_e70_xult_freertos/production/_ext/901805035/plib_twihs0.o
 .text.TWIHS0_WriteRead
                0x0000000000000000       0x2c build/sam_e70_xult_freertos/production/_ext/901805035/plib_twihs0.o
 .text          0x0000000000000000        0x0 build/sam_e70_xult_freertos/production/_ext/810785262/ipv4.o
 .data          0x0000000000000000        0x0 build/sam_e70_xult_freertos/production/_ext/810785262/ipv4.o
 .bss           0x0000000000000000        0x0 build/sam_e70_xult_freertos/production/_ext/810785262/ipv4.o
 .text.TCPIP_IPV4_PacketFilterSet
                0x0000000000000000       0x24 build/sam_e70_xult_freertos/production/_ext/810785262/ipv4.o
 .text.TCPIP_IPV4_PacketFilterClear
                0x0000000000000000       0x24 build/sam_e70_xult_freertos/production/_ext/810785262/ipv4.o
 .text.TCPIP_IPV4_PacketAlloc
                0x0000000000000000       0x7a build/sam_e70_xult_freertos/production/_ext/810785262/ipv4.o
 .text.TCPIP_IPV4_PacketOptionFieldSet
                0x0000000000000000       0x36 build/sam_e70_xult_freertos/production/_ext/810785262/ipv4.o
 .text.TCPIP_IPV4_PacketOptionListGet
                0x0000000000000000       0x62 build/sam_e70_xult_freertos/production/_ext/810785262/ipv4.o
 .text.TCPIP_IPV4_PacketOptionGet
                0x0000000000000000       0x7c build/sam_e70_xult_freertos/production/_ext/810785262/ipv4.o
 .text          0x0000000000000000        0x0 build/sam_e70_xult_freertos/production/_ext/901008055/plib_usart1.o
 .data          0x0000000000000000        0x0 build/sam_e70_xult_freertos/production/_ext/901008055/plib_usart1.o
 .bss           0x0000000000000000        0x0 build/sam_e70_xult_freertos/production/_ext/901008055/plib_usart1.o
 .text.USART1_SerialSetup
                0x0000000000000000       0x74 build/sam_e70_xult_freertos/production/_ext/901008055/plib_usart1.o
 .text.USART1_WriteIsBusy
                0x0000000000000000        0xc build/sam_e70_xult_freertos/production/_ext/901008055/plib_usart1.o
 .text.USART1_ReadIsBusy
                0x0000000000000000        0xc build/sam_e70_xult_freertos/production/_ext/901008055/plib_usart1.o
 .text.USART1_WriteCountGet
                0x0000000000000000        0xc build/sam_e70_xult_freertos/production/_ext/901008055/plib_usart1.o
 .text.USART1_ReadCountGet
                0x0000000000000000        0xc build/sam_e70_xult_freertos/production/_ext/901008055/plib_usart1.o
 .text          0x0000000000000000        0x0 build/sam_e70_xult_freertos/production/_ext/810785262/tcpip_heap_alloc.o
 .data          0x0000000000000000        0x0 build/sam_e70_xult_freertos/production/_ext/810785262/tcpip_heap_alloc.o
 .bss           0x0000000000000000        0x0 build/sam_e70_xult_freertos/production/_ext/810785262/tcpip_heap_alloc.o
 .text._TCPIP_HEAP_PointerMapCached
                0x0000000000000000        0x2 build/sam_e70_xult_freertos/production/_ext/810785262/tcpip_heap_alloc.o
 .text          0x0000000000000000        0x0 build/sam_e70_xult_freertos/production/_ext/810785262/tcpip_heap_internal.o
 .data          0x0000000000000000        0x0 build/sam_e70_xult_freertos/production/_ext/810785262/tcpip_heap_internal.o
 .bss           0x0000000000000000        0x0 build/sam_e70_xult_freertos/production/_ext/810785262/tcpip_heap_internal.o
 .text          0x0000000000000000        0x0 build/sam_e70_xult_freertos/production/_ext/810785262/helpers.o
 .data          0x0000000000000000        0x0 build/sam_e70_xult_freertos/production/_ext/810785262/helpers.o
 .bss           0x0000000000000000        0x0 build/sam_e70_xult_freertos/production/_ext/810785262/helpers.o
 .text.uitoa    0x0000000000000000       0x60 build/sam_e70_xult_freertos/production/_ext/810785262/helpers.o
 .text.strncpy_m
                0x0000000000000000       0x70 build/sam_e70_xult_freertos/production/_ext/810785262/helpers.o
 .text.stricmp  0x0000000000000000       0x6a build/sam_e70_xult_freertos/production/_ext/810785262/helpers.o
 .text          0x0000000000000000        0x0 build/sam_e70_xult_freertos/production/_ext/810785262/hash_fnv.o
 .data          0x0000000000000000        0x0 build/sam_e70_xult_freertos/production/_ext/810785262/hash_fnv.o
 .bss           0x0000000000000000        0x0 build/sam_e70_xult_freertos/production/_ext/810785262/hash_fnv.o
 .text.fnv_32a_hash
                0x0000000000000000       0x30 build/sam_e70_xult_freertos/production/_ext/810785262/hash_fnv.o
 .text          0x0000000000000000        0x0 build/sam_e70_xult_freertos/production/_ext/810785262/oahash.o
 .data          0x0000000000000000        0x0 build/sam_e70_xult_freertos/production/_ext/810785262/oahash.o
 .bss           0x0000000000000000        0x0 build/sam_e70_xult_freertos/production/_ext/810785262/oahash.o
 .text          0x0000000000000000        0x0 build/sam_e70_xult_freertos/production/_ext/810785262/tcpip_helpers.o
 .data          0x0000000000000000        0x0 build/sam_e70_xult_freertos/production/_ext/810785262/tcpip_helpers.o
 .bss           0x0000000000000000        0x0 build/sam_e70_xult_freertos/production/_ext/810785262/tcpip_helpers.o
 .text._TCPIP_Helper_SecurePortEntry
                0x0000000000000000       0x38 build/sam_e70_xult_freertos/production/_ext/810785262/tcpip_helpers.o
 .text.TCPIP_Helper_IsPrivateAddress
                0x0000000000000000       0x2c build/sam_e70_xult_freertos/production/_ext/810785262/tcpip_helpers.o
 .text.TCPIP_Helper_PowerModeToString
                0x0000000000000000       0x18 build/sam_e70_xult_freertos/production/_ext/810785262/tcpip_helpers.o
 .text.TCPIP_Helper_Base64Decode
                0x0000000000000000       0xea build/sam_e70_xult_freertos/production/_ext/810785262/tcpip_helpers.o
 .text.TCPIP_Helper_Base64Encode
                0x0000000000000000      0x104 build/sam_e70_xult_freertos/production/_ext/810785262/tcpip_helpers.o
 .text.TCPIP_Helper_FindCommonPrefix
                0x0000000000000000       0x4e build/sam_e70_xult_freertos/production/_ext/810785262/tcpip_helpers.o
 .text.TCPIP_Helper_SingleListHeadAdd
                0x0000000000000000       0x16 build/sam_e70_xult_freertos/production/_ext/810785262/tcpip_helpers.o
 .text.TCPIP_Helper_SingleListMidAdd
                0x0000000000000000        0xe build/sam_e70_xult_freertos/production/_ext/810785262/tcpip_helpers.o
 .text.TCPIP_Helper_SingleListNextRemove
                0x0000000000000000       0x26 build/sam_e70_xult_freertos/production/_ext/810785262/tcpip_helpers.o
 .text.TCPIP_Helper_SingleListFind
                0x0000000000000000       0x20 build/sam_e70_xult_freertos/production/_ext/810785262/tcpip_helpers.o
 .text.TCPIP_Helper_ProtectedSingleListHeadAdd
                0x0000000000000000       0x2a build/sam_e70_xult_freertos/production/_ext/810785262/tcpip_helpers.o
 .text.TCPIP_Helper_ProtectedSingleListMidAdd
                0x0000000000000000       0x30 build/sam_e70_xult_freertos/production/_ext/810785262/tcpip_helpers.o
 .text.TCPIP_Helper_ProtectedSingleListNextRemove
                0x0000000000000000       0x30 build/sam_e70_xult_freertos/production/_ext/810785262/tcpip_helpers.o
 .text.TCPIP_Helper_ProtectedSingleListAppend
                0x0000000000000000       0x2a build/sam_e70_xult_freertos/production/_ext/810785262/tcpip_helpers.o
 .text.TCPIP_Helper_DoubleListInitialize
                0x0000000000000000        0xa build/sam_e70_xult_freertos/production/_ext/810785262/tcpip_helpers.o
 .text.TCPIP_Helper_DoubleListHeadAdd
                0x0000000000000000       0x22 build/sam_e70_xult_freertos/production/_ext/810785262/tcpip_helpers.o
 .text.TCPIP_Helper_DoubleListTailAdd
                0x0000000000000000       0x24 build/sam_e70_xult_freertos/production/_ext/810785262/tcpip_helpers.o
 .text.TCPIP_Helper_DoubleListMidAdd
                0x0000000000000000       0x14 build/sam_e70_xult_freertos/production/_ext/810785262/tcpip_helpers.o
 .text.TCPIP_Helper_DoubleListHeadRemove
                0x0000000000000000       0x24 build/sam_e70_xult_freertos/production/_ext/810785262/tcpip_helpers.o
 .text.TCPIP_Helper_DoubleListTailRemove
                0x0000000000000000       0x24 build/sam_e70_xult_freertos/production/_ext/810785262/tcpip_helpers.o
 .text.TCPIP_Helper_DoubleListMidRemove
                0x0000000000000000       0x14 build/sam_e70_xult_freertos/production/_ext/810785262/tcpip_helpers.o
 .text.TCPIP_Helper_DoubleListNodeRemove
                0x0000000000000000       0x20 build/sam_e70_xult_freertos/production/_ext/810785262/tcpip_helpers.o
 .text.TCPIP_Helper_DoubleListFind
                0x0000000000000000       0x20 build/sam_e70_xult_freertos/production/_ext/810785262/tcpip_helpers.o
 .text.TCPIP_Helper_ProtectedDoubleListInitialize
                0x0000000000000000       0x22 build/sam_e70_xult_freertos/production/_ext/810785262/tcpip_helpers.o
 .text.TCPIP_Helper_ProtectedDoubleListDeinitialize
                0x0000000000000000       0x30 build/sam_e70_xult_freertos/production/_ext/810785262/tcpip_helpers.o
 .text.TCPIP_Helper_ProtectedDoubleListHeadAdd
                0x0000000000000000       0x2a build/sam_e70_xult_freertos/production/_ext/810785262/tcpip_helpers.o
 .text.TCPIP_Helper_ProtectedDoubleListTailAdd
                0x0000000000000000       0x2a build/sam_e70_xult_freertos/production/_ext/810785262/tcpip_helpers.o
 .text.TCPIP_Helper_ProtectedDoubleListMidAdd
                0x0000000000000000       0x2e build/sam_e70_xult_freertos/production/_ext/810785262/tcpip_helpers.o
 .text.TCPIP_Helper_ProtectedDoubleListHeadRemove
                0x0000000000000000       0x2c build/sam_e70_xult_freertos/production/_ext/810785262/tcpip_helpers.o
 .text.TCPIP_Helper_ProtectedDoubleListTailRemove
                0x0000000000000000       0x2c build/sam_e70_xult_freertos/production/_ext/810785262/tcpip_helpers.o
 .text.TCPIP_Helper_ProtectedDoubleListMidRemove
                0x0000000000000000       0x2a build/sam_e70_xult_freertos/production/_ext/810785262/tcpip_helpers.o
 .text.TCPIP_Helper_ProtectedDoubleListNodeRemove
                0x0000000000000000       0x2a build/sam_e70_xult_freertos/production/_ext/810785262/tcpip_helpers.o
 .text.TCPIP_Helper_ProtectedDoubleListRemoveAll
                0x0000000000000000       0x2a build/sam_e70_xult_freertos/production/_ext/810785262/tcpip_helpers.o
 .text.TCPIP_Helper_ProtectedDoubleListLock
                0x0000000000000000       0x14 build/sam_e70_xult_freertos/production/_ext/810785262/tcpip_helpers.o
 .text.TCPIP_Helper_ProtectedDoubleListUnlock
                0x0000000000000000       0x10 build/sam_e70_xult_freertos/production/_ext/810785262/tcpip_helpers.o
 .text.TCPIP_Helper_TCPSecurePortGet
                0x0000000000000000       0x16 build/sam_e70_xult_freertos/production/_ext/810785262/tcpip_helpers.o
 .text.TCPIP_Helper_UDPSecurePortGet
                0x0000000000000000       0x16 build/sam_e70_xult_freertos/production/_ext/810785262/tcpip_helpers.o
 .text.TCPIP_Helper_SecurePortGetByIndex
                0x0000000000000000       0x34 build/sam_e70_xult_freertos/production/_ext/810785262/tcpip_helpers.o
 .text.TCPIP_Helper_SecurePortSet
                0x0000000000000000       0x5e build/sam_e70_xult_freertos/production/_ext/810785262/tcpip_helpers.o
 .data.tcpSecurePortTbl
                0x0000000000000000       0x28 build/sam_e70_xult_freertos/production/_ext/810785262/tcpip_helpers.o
 .text          0x0000000000000000        0x0 build/sam_e70_xult_freertos/production/_ext/810785262/tcpip_manager.o
 .data          0x0000000000000000        0x0 build/sam_e70_xult_freertos/production/_ext/810785262/tcpip_manager.o
 .bss           0x0000000000000000        0x0 build/sam_e70_xult_freertos/production/_ext/810785262/tcpip_manager.o
 .text._NetConfigStringToBuffer
                0x0000000000000000       0x54 build/sam_e70_xult_freertos/production/_ext/810785262/tcpip_manager.o
 .text.TCPIP_STACK_NetMulticastGet
                0x0000000000000000        0x4 build/sam_e70_xult_freertos/production/_ext/810785262/tcpip_manager.o
 .text.TCPIP_STACK_NetMulticastSet
                0x0000000000000000        0x4 build/sam_e70_xult_freertos/production/_ext/810785262/tcpip_manager.o
 .text.TCPIP_STACK_MacToNet
                0x0000000000000000       0x3c build/sam_e70_xult_freertos/production/_ext/810785262/tcpip_manager.o
 .text.TCPIP_STACK_MacToNetIndex
                0x0000000000000000       0x44 build/sam_e70_xult_freertos/production/_ext/810785262/tcpip_manager.o
 .text.TCPIP_STACK_MACObjectGet
                0x0000000000000000        0xa build/sam_e70_xult_freertos/production/_ext/810785262/tcpip_manager.o
 .text.TCPIP_STACK_NetAddressDnsSecond
                0x0000000000000000       0x18 build/sam_e70_xult_freertos/production/_ext/810785262/tcpip_manager.o
 .text.TCPIP_STACK_NetAddressDnsSecondSet
                0x0000000000000000       0x1c build/sam_e70_xult_freertos/production/_ext/810785262/tcpip_manager.o
 .text.TCPIP_STACK_NetMACIdGet
                0x0000000000000000       0x18 build/sam_e70_xult_freertos/production/_ext/810785262/tcpip_manager.o
 .text.TCPIP_STACK_ModuleConfigGet
                0x0000000000000000       0x4c build/sam_e70_xult_freertos/production/_ext/810785262/tcpip_manager.o
 .text.TCPIP_STACK_NetConfigGet
                0x0000000000000000       0x44 build/sam_e70_xult_freertos/production/_ext/810785262/tcpip_manager.o
 .text.TCPIP_STACK_NetConfigSet
                0x0000000000000000      0x1b2 build/sam_e70_xult_freertos/production/_ext/810785262/tcpip_manager.o
 .text.TCPIP_STACK_MACIdToString
                0x0000000000000000       0x3c build/sam_e70_xult_freertos/production/_ext/810785262/tcpip_manager.o
 .text.TCPIP_STACK_EventsPendingGet
                0x0000000000000000       0x20 build/sam_e70_xult_freertos/production/_ext/810785262/tcpip_manager.o
 .text.TCPIP_STACK_NetStaticIPv6AddressGet
                0x0000000000000000        0x4 build/sam_e70_xult_freertos/production/_ext/810785262/tcpip_manager.o
 .text.TCPIP_STACK_NetDefaultIPv6GatewayGet
                0x0000000000000000        0x4 build/sam_e70_xult_freertos/production/_ext/810785262/tcpip_manager.o
 .text.TCPIP_STACK_AddressIsOfNetUp
                0x0000000000000000       0x34 build/sam_e70_xult_freertos/production/_ext/810785262/tcpip_manager.o
 .text.TCPIP_STACK_NetMACId
                0x0000000000000000        0xc build/sam_e70_xult_freertos/production/_ext/810785262/tcpip_manager.o
 .text.TCPIP_STACK_NetToMAC
                0x0000000000000000        0xa build/sam_e70_xult_freertos/production/_ext/810785262/tcpip_manager.o
 .text.TCPIP_STACK_VersionGet
                0x0000000000000000        0x8 build/sam_e70_xult_freertos/production/_ext/810785262/tcpip_manager.o
 .text.TCPIP_STACK_VersionStrGet
                0x0000000000000000        0x8 build/sam_e70_xult_freertos/production/_ext/810785262/tcpip_manager.o
 .text.TCPIP_MODULE_SignalFunctionRegister
                0x0000000000000000       0x3c build/sam_e70_xult_freertos/production/_ext/810785262/tcpip_manager.o
 .text.TCPIP_MODULE_SignalFunctionDeregister
                0x0000000000000000        0xe build/sam_e70_xult_freertos/production/_ext/810785262/tcpip_manager.o
 .text.TCPIP_MODULE_SignalGet
                0x0000000000000000       0x2c build/sam_e70_xult_freertos/production/_ext/810785262/tcpip_manager.o
 .text.TCPIP_STACK_HEAP_Size
                0x0000000000000000        0xe build/sam_e70_xult_freertos/production/_ext/810785262/tcpip_manager.o
 .text.TCPIP_STACK_HEAP_MaxSize
                0x0000000000000000        0xe build/sam_e70_xult_freertos/production/_ext/810785262/tcpip_manager.o
 .text.TCPIP_STACK_HEAP_FreeSize
                0x0000000000000000        0xe build/sam_e70_xult_freertos/production/_ext/810785262/tcpip_manager.o
 .text.TCPIP_STACK_HEAP_HighWatermark
                0x0000000000000000        0xe build/sam_e70_xult_freertos/production/_ext/810785262/tcpip_manager.o
 .text.TCPIP_STACK_HEAP_LastError
                0x0000000000000000       0x10 build/sam_e70_xult_freertos/production/_ext/810785262/tcpip_manager.o
 .text._TCPIPStackHeapConfig
                0x0000000000000000        0x8 build/sam_e70_xult_freertos/production/_ext/810785262/tcpip_manager.o
 .text          0x0000000000000000        0x0 build/sam_e70_xult_freertos/production/_ext/810785262/tcpip_notify.o
 .data          0x0000000000000000        0x0 build/sam_e70_xult_freertos/production/_ext/810785262/tcpip_notify.o
 .bss           0x0000000000000000        0x0 build/sam_e70_xult_freertos/production/_ext/810785262/tcpip_notify.o
 .text          0x0000000000000000        0x0 build/sam_e70_xult_freertos/production/_ext/810785262/tcpip_packet.o
 .data          0x0000000000000000        0x0 build/sam_e70_xult_freertos/production/_ext/810785262/tcpip_packet.o
 .bss           0x0000000000000000        0x0 build/sam_e70_xult_freertos/production/_ext/810785262/tcpip_packet.o
 .text.TCPIP_PKT_SegmentAppend
                0x0000000000000000       0x14 build/sam_e70_xult_freertos/production/_ext/810785262/tcpip_packet.o
 .text._TCPIP_PKT_SegmentAlloc
                0x0000000000000000       0x60 build/sam_e70_xult_freertos/production/_ext/810785262/tcpip_packet.o
 .text._TCPIP_PKT_SegmentFree
                0x0000000000000000       0x1c build/sam_e70_xult_freertos/production/_ext/810785262/tcpip_packet.o
 .text          0x0000000000000000        0x0 build/sam_e70_xult_freertos/production/_ext/231871610/sys_time_h2_adapter.o
 .data          0x0000000000000000        0x0 build/sam_e70_xult_freertos/production/_ext/231871610/sys_time_h2_adapter.o
 .bss           0x0000000000000000        0x0 build/sam_e70_xult_freertos/production/_ext/231871610/sys_time_h2_adapter.o
 .text          0x0000000000000000        0x0 build/sam_e70_xult_freertos/production/_ext/1775855163/sys_int.o
 .data          0x0000000000000000        0x0 build/sam_e70_xult_freertos/production/_ext/1775855163/sys_int.o
 .bss           0x0000000000000000        0x0 build/sam_e70_xult_freertos/production/_ext/1775855163/sys_int.o
 .text.SYS_INT_Enable
                0x0000000000000000        0x8 build/sam_e70_xult_freertos/production/_ext/1775855163/sys_int.o
 .text          0x0000000000000000        0x0 build/sam_e70_xult_freertos/production/_ext/992551865/sys_cache.o
 .data          0x0000000000000000        0x0 build/sam_e70_xult_freertos/production/_ext/992551865/sys_cache.o
 .bss           0x0000000000000000        0x0 build/sam_e70_xult_freertos/production/_ext/992551865/sys_cache.o
 .text.SYS_CACHE_EnableCaches
                0x0000000000000000       0xa4 build/sam_e70_xult_freertos/production/_ext/992551865/sys_cache.o
 .text.SYS_CACHE_DisableCaches
                0x0000000000000000       0x9c build/sam_e70_xult_freertos/production/_ext/992551865/sys_cache.o
 .text.SYS_CACHE_EnableICache
                0x0000000000000000       0x38 build/sam_e70_xult_freertos/production/_ext/992551865/sys_cache.o
 .text.SYS_CACHE_DisableICache
                0x0000000000000000       0x30 build/sam_e70_xult_freertos/production/_ext/992551865/sys_cache.o
 .text.SYS_CACHE_InvalidateICache
                0x0000000000000000       0x28 build/sam_e70_xult_freertos/production/_ext/992551865/sys_cache.o
 .text.SYS_CACHE_EnableDCache
                0x0000000000000000       0x74 build/sam_e70_xult_freertos/production/_ext/992551865/sys_cache.o
 .text.SYS_CACHE_DisableDCache
                0x0000000000000000       0x74 build/sam_e70_xult_freertos/production/_ext/992551865/sys_cache.o
 .text.SYS_CACHE_InvalidateDCache
                0x0000000000000000       0x68 build/sam_e70_xult_freertos/production/_ext/992551865/sys_cache.o
 .text.SYS_CACHE_CleanDCache
                0x0000000000000000       0x68 build/sam_e70_xult_freertos/production/_ext/992551865/sys_cache.o
 .text.SYS_CACHE_CleanInvalidateDCache
                0x0000000000000000       0x68 build/sam_e70_xult_freertos/production/_ext/992551865/sys_cache.o
 .text.SYS_CACHE_InvalidateDCache_by_Addr
                0x0000000000000000       0x30 build/sam_e70_xult_freertos/production/_ext/992551865/sys_cache.o
 .text.SYS_CACHE_CleanDCache_by_Addr
                0x0000000000000000       0x30 build/sam_e70_xult_freertos/production/_ext/992551865/sys_cache.o
 .text.SYS_CACHE_CleanInvalidateDCache_by_Addr
                0x0000000000000000       0x30 build/sam_e70_xult_freertos/production/_ext/992551865/sys_cache.o
 .debug_info    0x0000000000000000     0x138c build/sam_e70_xult_freertos/production/_ext/992551865/sys_cache.o
 .debug_abbrev  0x0000000000000000      0x181 build/sam_e70_xult_freertos/production/_ext/992551865/sys_cache.o
 .debug_loc     0x0000000000000000      0x4ac build/sam_e70_xult_freertos/production/_ext/992551865/sys_cache.o
 .debug_aranges
                0x0000000000000000       0x80 build/sam_e70_xult_freertos/production/_ext/992551865/sys_cache.o
 .debug_ranges  0x0000000000000000       0x70 build/sam_e70_xult_freertos/production/_ext/992551865/sys_cache.o
 .debug_line    0x0000000000000000      0x418 build/sam_e70_xult_freertos/production/_ext/992551865/sys_cache.o
 .debug_str     0x0000000000000000       0x25 build/sam_e70_xult_freertos/production/_ext/992551865/sys_cache.o
 .comment       0x0000000000000000       0x3d build/sam_e70_xult_freertos/production/_ext/992551865/sys_cache.o
 .debug_frame   0x0000000000000000      0x150 build/sam_e70_xult_freertos/production/_ext/992551865/sys_cache.o
 .ARM.attributes
                0x0000000000000000       0x37 build/sam_e70_xult_freertos/production/_ext/992551865/sys_cache.o
 .text          0x0000000000000000        0x0 build/sam_e70_xult_freertos/production/_ext/281930714/osal_freertos.o
 .data          0x0000000000000000        0x0 build/sam_e70_xult_freertos/production/_ext/281930714/osal_freertos.o
 .bss           0x0000000000000000        0x0 build/sam_e70_xult_freertos/production/_ext/281930714/osal_freertos.o
 .text.OSAL_SEM_PostISR
                0x0000000000000000       0x3c build/sam_e70_xult_freertos/production/_ext/281930714/osal_freertos.o
 .text.OSAL_SEM_GetCount
                0x0000000000000000       0x12 build/sam_e70_xult_freertos/production/_ext/281930714/osal_freertos.o
 .text.OSAL_MUTEX_Delete
                0x0000000000000000       0x1a build/sam_e70_xult_freertos/production/_ext/281930714/osal_freertos.o
 .text.OSAL_Initialize
                0x0000000000000000        0x4 build/sam_e70_xult_freertos/production/_ext/281930714/osal_freertos.o
 .text          0x0000000000000000        0x0 build/sam_e70_xult_freertos/production/_ext/1360937237/app.o
 .data          0x0000000000000000        0x0 build/sam_e70_xult_freertos/production/_ext/1360937237/app.o
 .bss           0x0000000000000000        0x0 build/sam_e70_xult_freertos/production/_ext/1360937237/app.o
 .text          0x0000000000000000        0x0 build/sam_e70_xult_freertos/production/_ext/1552905064/tasks.o
 .data          0x0000000000000000        0x0 build/sam_e70_xult_freertos/production/_ext/1552905064/tasks.o
 .bss           0x0000000000000000        0x0 build/sam_e70_xult_freertos/production/_ext/1552905064/tasks.o
 .text          0x0000000000000000        0x0 build/sam_e70_xult_freertos/production/_ext/1619526243/drv_gmac.o
 .data          0x0000000000000000        0x0 build/sam_e70_xult_freertos/production/_ext/1619526243/drv_gmac.o
 .bss           0x0000000000000000        0x0 build/sam_e70_xult_freertos/production/_ext/1619526243/drv_gmac.o
 .text          0x0000000000000000        0x0 build/sam_e70_xult_freertos/production/_ext/1619526243/drv_gmac_lib_samE7x_V7x.o
 .data          0x0000000000000000        0x0 build/sam_e70_xult_freertos/production/_ext/1619526243/drv_gmac_lib_samE7x_V7x.o
 .bss           0x0000000000000000        0x0 build/sam_e70_xult_freertos/production/_ext/1619526243/drv_gmac_lib_samE7x_V7x.o
 .text          0x0000000000000000        0x0 build/sam_e70_xult_freertos/production/_ext/1360937237/main.o
 .data          0x0000000000000000        0x0 build/sam_e70_xult_freertos/production/_ext/1360937237/main.o
 .bss           0x0000000000000000        0x0 build/sam_e70_xult_freertos/production/_ext/1360937237/main.o
 .text          0x0000000000000000        0x0 build/sam_e70_xult_freertos/production/_ext/1552905064/initialization.o
 .data          0x0000000000000000        0x0 build/sam_e70_xult_freertos/production/_ext/1552905064/initialization.o
 .bss           0x0000000000000000        0x0 build/sam_e70_xult_freertos/production/_ext/1552905064/initialization.o
 .rodata.tcpipICMPInitData
                0x0000000000000000        0x4 build/sam_e70_xult_freertos/production/_ext/1552905064/initialization.o
 .text          0x0000000000000000        0x0 build/sam_e70_xult_freertos/production/_ext/1552905064/interrupts.o
 .data          0x0000000000000000        0x0 build/sam_e70_xult_freertos/production/_ext/1552905064/interrupts.o
 .bss           0x0000000000000000        0x0 build/sam_e70_xult_freertos/production/_ext/1552905064/interrupts.o
 .text          0x0000000000000000        0x0 build/sam_e70_xult_freertos/production/_ext/1552905064/exceptions.o
 .data          0x0000000000000000        0x0 build/sam_e70_xult_freertos/production/_ext/1552905064/exceptions.o
 .bss           0x0000000000000000        0x0 build/sam_e70_xult_freertos/production/_ext/1552905064/exceptions.o
 .text          0x0000000000000000        0x0 build/sam_e70_xult_freertos/production/_ext/146190766/xc32_monitor.o
 .data          0x0000000000000000        0x0 build/sam_e70_xult_freertos/production/_ext/146190766/xc32_monitor.o
 .bss           0x0000000000000000        0x0 build/sam_e70_xult_freertos/production/_ext/146190766/xc32_monitor.o
 .text._mon_getc
                0x0000000000000000        0x4 build/sam_e70_xult_freertos/production/_ext/146190766/xc32_monitor.o
 .text._mon_putc
                0x0000000000000000        0x2 build/sam_e70_xult_freertos/production/_ext/146190766/xc32_monitor.o
 .debug_info    0x0000000000000000      0x23c build/sam_e70_xult_freertos/production/_ext/146190766/xc32_monitor.o
 .debug_abbrev  0x0000000000000000       0x75 build/sam_e70_xult_freertos/production/_ext/146190766/xc32_monitor.o
 .debug_loc     0x0000000000000000       0x21 build/sam_e70_xult_freertos/production/_ext/146190766/xc32_monitor.o
 .debug_aranges
                0x0000000000000000       0x28 build/sam_e70_xult_freertos/production/_ext/146190766/xc32_monitor.o
 .debug_ranges  0x0000000000000000       0x18 build/sam_e70_xult_freertos/production/_ext/146190766/xc32_monitor.o
 .debug_line    0x0000000000000000       0x78 build/sam_e70_xult_freertos/production/_ext/146190766/xc32_monitor.o
 .debug_str     0x0000000000000000        0x0 build/sam_e70_xult_freertos/production/_ext/146190766/xc32_monitor.o
 .comment       0x0000000000000000       0x3d build/sam_e70_xult_freertos/production/_ext/146190766/xc32_monitor.o
 .debug_frame   0x0000000000000000       0x30 build/sam_e70_xult_freertos/production/_ext/146190766/xc32_monitor.o
 .ARM.attributes
                0x0000000000000000       0x37 build/sam_e70_xult_freertos/production/_ext/146190766/xc32_monitor.o
 .text          0x0000000000000000        0x0 build/sam_e70_xult_freertos/production/_ext/45647770/plib_clk.o
 .data          0x0000000000000000        0x0 build/sam_e70_xult_freertos/production/_ext/45647770/plib_clk.o
 .bss           0x0000000000000000        0x0 build/sam_e70_xult_freertos/production/_ext/45647770/plib_clk.o
 .text          0x0000000000000000        0x0 build/sam_e70_xult_freertos/production/_ext/45635366/plib_pio.o
 .data          0x0000000000000000        0x0 build/sam_e70_xult_freertos/production/_ext/45635366/plib_pio.o
 .bss           0x0000000000000000        0x0 build/sam_e70_xult_freertos/production/_ext/45635366/plib_pio.o
 .text.PIO_PortRead
                0x0000000000000000        0x4 build/sam_e70_xult_freertos/production/_ext/45635366/plib_pio.o
 .text.PIO_PortWrite
                0x0000000000000000        0xc build/sam_e70_xult_freertos/production/_ext/45635366/plib_pio.o
 .text.PIO_PortLatchRead
                0x0000000000000000        0x4 build/sam_e70_xult_freertos/production/_ext/45635366/plib_pio.o
 .text.PIO_PortSet
                0x0000000000000000        0x4 build/sam_e70_xult_freertos/production/_ext/45635366/plib_pio.o
 .text.PIO_PortClear
                0x0000000000000000        0x4 build/sam_e70_xult_freertos/production/_ext/45635366/plib_pio.o
 .text.PIO_PortToggle
                0x0000000000000000        0x8 build/sam_e70_xult_freertos/production/_ext/45635366/plib_pio.o
 .text.PIO_PortInputEnable
                0x0000000000000000        0x4 build/sam_e70_xult_freertos/production/_ext/45635366/plib_pio.o
 .text.PIO_PortOutputEnable
                0x0000000000000000        0x4 build/sam_e70_xult_freertos/production/_ext/45635366/plib_pio.o
 .text          0x0000000000000000        0x0 build/sam_e70_xult_freertos/production/_ext/1414743522/plib_nvic.o
 .data          0x0000000000000000        0x0 build/sam_e70_xult_freertos/production/_ext/1414743522/plib_nvic.o
 .bss           0x0000000000000000        0x0 build/sam_e70_xult_freertos/production/_ext/1414743522/plib_nvic.o
 .text          0x0000000000000000        0x0 build/sam_e70_xult_freertos/production/_ext/45638026/plib_mpu.o
 .data          0x0000000000000000        0x0 build/sam_e70_xult_freertos/production/_ext/45638026/plib_mpu.o
 .bss           0x0000000000000000        0x0 build/sam_e70_xult_freertos/production/_ext/45638026/plib_mpu.o
 .text          0x0000000000000000        0x0 build/sam_e70_xult_freertos/production/_ext/1552905064/startup_xc32.o
 .data          0x0000000000000000        0x0 build/sam_e70_xult_freertos/production/_ext/1552905064/startup_xc32.o
 .bss           0x0000000000000000        0x0 build/sam_e70_xult_freertos/production/_ext/1552905064/startup_xc32.o
 .text          0x0000000000000000        0x0 build/sam_e70_xult_freertos/production/_ext/1552905064/libc_syscalls.o
 .data          0x0000000000000000        0x0 build/sam_e70_xult_freertos/production/_ext/1552905064/libc_syscalls.o
 .bss           0x0000000000000000        0x0 build/sam_e70_xult_freertos/production/_ext/1552905064/libc_syscalls.o
 .text._exit    0x0000000000000000        0x2 build/sam_e70_xult_freertos/production/_ext/1552905064/libc_syscalls.o
 .debug_info    0x0000000000000000      0xe55 build/sam_e70_xult_freertos/production/_ext/1552905064/libc_syscalls.o
 .debug_abbrev  0x0000000000000000      0x1a8 build/sam_e70_xult_freertos/production/_ext/1552905064/libc_syscalls.o
 .debug_aranges
                0x0000000000000000       0x20 build/sam_e70_xult_freertos/production/_ext/1552905064/libc_syscalls.o
 .debug_ranges  0x0000000000000000       0x10 build/sam_e70_xult_freertos/production/_ext/1552905064/libc_syscalls.o
 .debug_line    0x0000000000000000      0x1d1 build/sam_e70_xult_freertos/production/_ext/1552905064/libc_syscalls.o
 .debug_str     0x0000000000000000        0xe build/sam_e70_xult_freertos/production/_ext/1552905064/libc_syscalls.o
 .comment       0x0000000000000000       0x3d build/sam_e70_xult_freertos/production/_ext/1552905064/libc_syscalls.o
 .debug_frame   0x0000000000000000       0x20 build/sam_e70_xult_freertos/production/_ext/1552905064/libc_syscalls.o
 .ARM.attributes
                0x0000000000000000       0x37 build/sam_e70_xult_freertos/production/_ext/1552905064/libc_syscalls.o
 .text          0x0000000000000000        0x0 build/sam_e70_xult_freertos/production/_ext/810785262/udp.o
 .data          0x0000000000000000        0x0 build/sam_e70_xult_freertos/production/_ext/810785262/udp.o
 .bss           0x0000000000000000        0x0 build/sam_e70_xult_freertos/production/_ext/810785262/udp.o
 .text.TCPIP_UDP_OpenServerSkt
                0x0000000000000000       0xc8 build/sam_e70_xult_freertos/production/_ext/810785262/udp.o
 .text.TCPIP_UDP_ServerOpen
                0x0000000000000000        0xa build/sam_e70_xult_freertos/production/_ext/810785262/udp.o
 .text.TCPIP_UDP_IsConnected
                0x0000000000000000       0x2c build/sam_e70_xult_freertos/production/_ext/810785262/udp.o
 .text.TCPIP_UDP_Put
                0x0000000000000000       0x18 build/sam_e70_xult_freertos/production/_ext/810785262/udp.o
 .text.TCPIP_UDP_StringPut
                0x0000000000000000       0x2a build/sam_e70_xult_freertos/production/_ext/810785262/udp.o
 .text.TCPIP_UDP_TxCountGet
                0x0000000000000000       0x22 build/sam_e70_xult_freertos/production/_ext/810785262/udp.o
 .text.TCPIP_UDP_Get
                0x0000000000000000        0xa build/sam_e70_xult_freertos/production/_ext/810785262/udp.o
 .text.TCPIP_UDP_SocketNetGet
                0x0000000000000000       0x10 build/sam_e70_xult_freertos/production/_ext/810785262/udp.o
 .text.TCPIP_UDP_RemoteBind
                0x0000000000000000       0xa6 build/sam_e70_xult_freertos/production/_ext/810785262/udp.o
 .text.TCPIP_UDP_SetSplitPayload
                0x0000000000000000       0x56 build/sam_e70_xult_freertos/production/_ext/810785262/udp.o
 .text.TCPIP_UDP_SignalHandlerDeregister
                0x0000000000000000       0x24 build/sam_e70_xult_freertos/production/_ext/810785262/udp.o
 .text.TCPIP_UDP_SocketsNumberGet
                0x0000000000000000        0xc build/sam_e70_xult_freertos/production/_ext/810785262/udp.o
 .text          0x0000000000000000        0x0 build/sam_e70_xult_freertos/production/_ext/511568427/drv_miim.o
 .data          0x0000000000000000        0x0 build/sam_e70_xult_freertos/production/_ext/511568427/drv_miim.o
 .bss           0x0000000000000000        0x0 build/sam_e70_xult_freertos/production/_ext/511568427/drv_miim.o
 .text.Helper_SingleListInitialize
                0x0000000000000000        0xa build/sam_e70_xult_freertos/production/_ext/511568427/drv_miim.o
 .bss._MIIMStayCondLoop
                0x0000000000000000        0x4 build/sam_e70_xult_freertos/production/_ext/511568427/drv_miim.o
 .text          0x0000000000000000        0x0 build/sam_e70_xult_freertos/production/_ext/1607428259/drv_ethphy.o
 .data          0x0000000000000000        0x0 build/sam_e70_xult_freertos/production/_ext/1607428259/drv_ethphy.o
 .bss           0x0000000000000000        0x0 build/sam_e70_xult_freertos/production/_ext/1607428259/drv_ethphy.o
 .bss._PhyStayAssertLoop
                0x0000000000000000        0x4 build/sam_e70_xult_freertos/production/_ext/1607428259/drv_ethphy.o
 .bss._PhyStayCondLoop
                0x0000000000000000        0x4 build/sam_e70_xult_freertos/production/_ext/1607428259/drv_ethphy.o
 .text          0x0000000000000000        0x0 build/sam_e70_xult_freertos/production/_ext/1607428259/drv_extphy_smsc8740.o
 .data          0x0000000000000000        0x0 build/sam_e70_xult_freertos/production/_ext/1607428259/drv_extphy_smsc8740.o
 .bss           0x0000000000000000        0x0 build/sam_e70_xult_freertos/production/_ext/1607428259/drv_extphy_smsc8740.o
 .text          0x0000000000000000        0x0 build/sam_e70_xult_freertos/production/_ext/762686499/sys_console.o
 .data          0x0000000000000000        0x0 build/sam_e70_xult_freertos/production/_ext/762686499/sys_console.o
 .bss           0x0000000000000000        0x0 build/sam_e70_xult_freertos/production/_ext/762686499/sys_console.o
 .text.SYS_CONSOLE_Tasks
                0x0000000000000000       0x2c build/sam_e70_xult_freertos/production/_ext/762686499/sys_console.o
 .text.SYS_CONSOLE_RegisterCallback
                0x0000000000000000       0x28 build/sam_e70_xult_freertos/production/_ext/762686499/sys_console.o
 .text          0x0000000000000000        0x0 build/sam_e70_xult_freertos/production/_ext/762686499/sys_console_uart.o
 .data          0x0000000000000000        0x0 build/sam_e70_xult_freertos/production/_ext/762686499/sys_console_uart.o
 .bss           0x0000000000000000        0x0 build/sam_e70_xult_freertos/production/_ext/762686499/sys_console_uart.o
 .text          0x0000000000000000        0x0 build/sam_e70_xult_freertos/production/_ext/762686499/sys_debug.o
 .data          0x0000000000000000        0x0 build/sam_e70_xult_freertos/production/_ext/762686499/sys_debug.o
 .bss           0x0000000000000000        0x0 build/sam_e70_xult_freertos/production/_ext/762686499/sys_debug.o
 .text.SYS_DEBUG_Tasks
                0x0000000000000000        0x2 build/sam_e70_xult_freertos/production/_ext/762686499/sys_debug.o
 .text.SYS_DEBUG_Status
                0x0000000000000000        0xc build/sam_e70_xult_freertos/production/_ext/762686499/sys_debug.o
 .text.SYS_DEBUG_Message
                0x0000000000000000       0x1c build/sam_e70_xult_freertos/production/_ext/762686499/sys_debug.o
 .text.SYS_DEBUG_ErrorLevelSet
                0x0000000000000000        0xc build/sam_e70_xult_freertos/production/_ext/762686499/sys_debug.o
 .text          0x0000000000000000        0x0 build/sam_e70_xult_freertos/production/_ext/762686499/sys_command.o
 .data          0x0000000000000000        0x0 build/sam_e70_xult_freertos/production/_ext/762686499/sys_command.o
 .bss           0x0000000000000000        0x0 build/sam_e70_xult_freertos/production/_ext/762686499/sys_command.o
 .text.SYS_CMD_RegisterCallback
                0x0000000000000000       0x2c build/sam_e70_xult_freertos/production/_ext/762686499/sys_command.o
 .text.SYS_CMD_READY_TO_WRITE
                0x0000000000000000       0x48 build/sam_e70_xult_freertos/production/_ext/762686499/sys_command.o
 .text          0x0000000000000000        0x0 build/sam_e70_xult_freertos/production/_ext/1552905064/freertos_hooks.o
 .data          0x0000000000000000        0x0 build/sam_e70_xult_freertos/production/_ext/1552905064/freertos_hooks.o
 .bss           0x0000000000000000        0x0 build/sam_e70_xult_freertos/production/_ext/1552905064/freertos_hooks.o
 .text.vApplicationIdleHook
                0x0000000000000000        0x2 build/sam_e70_xult_freertos/production/_ext/1552905064/freertos_hooks.o
 .text.vApplicationTickHook
                0x0000000000000000        0x2 build/sam_e70_xult_freertos/production/_ext/1552905064/freertos_hooks.o
 .text.vAssertCalled
                0x0000000000000000       0x1c build/sam_e70_xult_freertos/production/_ext/1552905064/freertos_hooks.o
 .text          0x0000000000000000        0x0 build/sam_e70_xult_freertos/production/_ext/404212886/croutine.o
 .data          0x0000000000000000        0x0 build/sam_e70_xult_freertos/production/_ext/404212886/croutine.o
 .bss           0x0000000000000000        0x0 build/sam_e70_xult_freertos/production/_ext/404212886/croutine.o
 .debug_info    0x0000000000000000      0x281 build/sam_e70_xult_freertos/production/_ext/404212886/croutine.o
 .debug_abbrev  0x0000000000000000       0x1b build/sam_e70_xult_freertos/production/_ext/404212886/croutine.o
 .debug_aranges
                0x0000000000000000       0x18 build/sam_e70_xult_freertos/production/_ext/404212886/croutine.o
 .debug_line    0x0000000000000000       0x1d build/sam_e70_xult_freertos/production/_ext/404212886/croutine.o
 .debug_str     0x0000000000000000        0x0 build/sam_e70_xult_freertos/production/_ext/404212886/croutine.o
 .comment       0x0000000000000000       0x3d build/sam_e70_xult_freertos/production/_ext/404212886/croutine.o
 .ARM.attributes
                0x0000000000000000       0x37 build/sam_e70_xult_freertos/production/_ext/404212886/croutine.o
 .text          0x0000000000000000        0x0 build/sam_e70_xult_freertos/production/_ext/404212886/list.o
 .data          0x0000000000000000        0x0 build/sam_e70_xult_freertos/production/_ext/404212886/list.o
 .bss           0x0000000000000000        0x0 build/sam_e70_xult_freertos/production/_ext/404212886/list.o
 .text          0x0000000000000000        0x0 build/sam_e70_xult_freertos/production/_ext/404212886/queue.o
 .data          0x0000000000000000        0x0 build/sam_e70_xult_freertos/production/_ext/404212886/queue.o
 .bss           0x0000000000000000        0x0 build/sam_e70_xult_freertos/production/_ext/404212886/queue.o
 .text.prvCopyDataFromQueue
                0x0000000000000000       0x24 build/sam_e70_xult_freertos/production/_ext/404212886/queue.o
 .text.xQueueGenericSendFromISR
                0x0000000000000000       0x6e build/sam_e70_xult_freertos/production/_ext/404212886/queue.o
 .text.xQueueGiveFromISR
                0x0000000000000000       0x64 build/sam_e70_xult_freertos/production/_ext/404212886/queue.o
 .text.xQueueReceive
                0x0000000000000000      0x114 build/sam_e70_xult_freertos/production/_ext/404212886/queue.o
 .text.xQueuePeek
                0x0000000000000000      0x110 build/sam_e70_xult_freertos/production/_ext/404212886/queue.o
 .text.xQueueReceiveFromISR
                0x0000000000000000       0x72 build/sam_e70_xult_freertos/production/_ext/404212886/queue.o
 .text.xQueuePeekFromISR
                0x0000000000000000       0x34 build/sam_e70_xult_freertos/production/_ext/404212886/queue.o
 .text.uxQueueMessagesWaiting
                0x0000000000000000       0x12 build/sam_e70_xult_freertos/production/_ext/404212886/queue.o
 .text.uxQueueSpacesAvailable
                0x0000000000000000       0x16 build/sam_e70_xult_freertos/production/_ext/404212886/queue.o
 .text.uxQueueMessagesWaitingFromISR
                0x0000000000000000        0x4 build/sam_e70_xult_freertos/production/_ext/404212886/queue.o
 .text.xQueueIsQueueEmptyFromISR
                0x0000000000000000        0xa build/sam_e70_xult_freertos/production/_ext/404212886/queue.o
 .text.xQueueIsQueueFullFromISR
                0x0000000000000000        0xe build/sam_e70_xult_freertos/production/_ext/404212886/queue.o
 .text          0x0000000000000000        0x0 build/sam_e70_xult_freertos/production/_ext/404212886/FreeRTOS_tasks.o
 .data          0x0000000000000000        0x0 build/sam_e70_xult_freertos/production/_ext/404212886/FreeRTOS_tasks.o
 .bss           0x0000000000000000        0x0 build/sam_e70_xult_freertos/production/_ext/404212886/FreeRTOS_tasks.o
 .text.vTaskDelete
                0x0000000000000000       0xcc build/sam_e70_xult_freertos/production/_ext/404212886/FreeRTOS_tasks.o
 .text.uxTaskPriorityGet
                0x0000000000000000       0x20 build/sam_e70_xult_freertos/production/_ext/404212886/FreeRTOS_tasks.o
 .text.uxTaskPriorityGetFromISR
                0x0000000000000000       0x2c build/sam_e70_xult_freertos/production/_ext/404212886/FreeRTOS_tasks.o
 .text.vTaskPrioritySet
                0x0000000000000000       0xd0 build/sam_e70_xult_freertos/production/_ext/404212886/FreeRTOS_tasks.o
 .text.vTaskResume
                0x0000000000000000       0x88 build/sam_e70_xult_freertos/production/_ext/404212886/FreeRTOS_tasks.o
 .text.xTaskResumeFromISR
                0x0000000000000000       0xa0 build/sam_e70_xult_freertos/production/_ext/404212886/FreeRTOS_tasks.o
 .text.vTaskEndScheduler
                0x0000000000000000       0x28 build/sam_e70_xult_freertos/production/_ext/404212886/FreeRTOS_tasks.o
 .text.xTaskGetTickCount
                0x0000000000000000        0xc build/sam_e70_xult_freertos/production/_ext/404212886/FreeRTOS_tasks.o
 .text.xTaskGetTickCountFromISR
                0x0000000000000000        0xc build/sam_e70_xult_freertos/production/_ext/404212886/FreeRTOS_tasks.o
 .text.uxTaskGetNumberOfTasks
                0x0000000000000000        0xc build/sam_e70_xult_freertos/production/_ext/404212886/FreeRTOS_tasks.o
 .text.pcTaskGetName
                0x0000000000000000       0x14 build/sam_e70_xult_freertos/production/_ext/404212886/FreeRTOS_tasks.o
 .text.vTaskDelayUntil
                0x0000000000000000       0x68 build/sam_e70_xult_freertos/production/_ext/404212886/FreeRTOS_tasks.o
 .text.vTaskSuspend
                0x0000000000000000       0xd0 build/sam_e70_xult_freertos/production/_ext/404212886/FreeRTOS_tasks.o
 .text.vTaskPlaceOnUnorderedEventList
                0x0000000000000000       0x24 build/sam_e70_xult_freertos/production/_ext/404212886/FreeRTOS_tasks.o
 .text.vTaskRemoveFromUnorderedEventList
                0x0000000000000000       0x58 build/sam_e70_xult_freertos/production/_ext/404212886/FreeRTOS_tasks.o
 .text.vTaskSetTimeOutState
                0x0000000000000000       0x24 build/sam_e70_xult_freertos/production/_ext/404212886/FreeRTOS_tasks.o
 .text.xTaskGetCurrentTaskHandle
                0x0000000000000000        0xc build/sam_e70_xult_freertos/production/_ext/404212886/FreeRTOS_tasks.o
 .text.uxTaskResetEventItemValue
                0x0000000000000000       0x18 build/sam_e70_xult_freertos/production/_ext/404212886/FreeRTOS_tasks.o
 .text.ulTaskNotifyTake
                0x0000000000000000       0x78 build/sam_e70_xult_freertos/production/_ext/404212886/FreeRTOS_tasks.o
 .text.xTaskNotifyWait
                0x0000000000000000       0x98 build/sam_e70_xult_freertos/production/_ext/404212886/FreeRTOS_tasks.o
 .text.xTaskGenericNotify
                0x0000000000000000       0xb4 build/sam_e70_xult_freertos/production/_ext/404212886/FreeRTOS_tasks.o
 .text.xTaskGenericNotifyFromISR
                0x0000000000000000       0xd8 build/sam_e70_xult_freertos/production/_ext/404212886/FreeRTOS_tasks.o
 .text.vTaskNotifyGiveFromISR
                0x0000000000000000       0xa4 build/sam_e70_xult_freertos/production/_ext/404212886/FreeRTOS_tasks.o
 .text.xTaskNotifyStateClear
                0x0000000000000000       0x34 build/sam_e70_xult_freertos/production/_ext/404212886/FreeRTOS_tasks.o
 .text          0x0000000000000000        0x0 build/sam_e70_xult_freertos/production/_ext/404212886/timers.o
 .data          0x0000000000000000        0x0 build/sam_e70_xult_freertos/production/_ext/404212886/timers.o
 .bss           0x0000000000000000        0x0 build/sam_e70_xult_freertos/production/_ext/404212886/timers.o
 .debug_info    0x0000000000000000      0xdad build/sam_e70_xult_freertos/production/_ext/404212886/timers.o
 .debug_abbrev  0x0000000000000000      0x171 build/sam_e70_xult_freertos/production/_ext/404212886/timers.o
 .debug_aranges
                0x0000000000000000       0x18 build/sam_e70_xult_freertos/production/_ext/404212886/timers.o
 .debug_line    0x0000000000000000       0xfe build/sam_e70_xult_freertos/production/_ext/404212886/timers.o
 .debug_str     0x0000000000000000        0xe build/sam_e70_xult_freertos/production/_ext/404212886/timers.o
 .comment       0x0000000000000000       0x3d build/sam_e70_xult_freertos/production/_ext/404212886/timers.o
 .ARM.attributes
                0x0000000000000000       0x37 build/sam_e70_xult_freertos/production/_ext/404212886/timers.o
 .text          0x0000000000000000        0x0 build/sam_e70_xult_freertos/production/_ext/404212886/event_groups.o
 .data          0x0000000000000000        0x0 build/sam_e70_xult_freertos/production/_ext/404212886/event_groups.o
 .bss           0x0000000000000000        0x0 build/sam_e70_xult_freertos/production/_ext/404212886/event_groups.o
 .text.xEventGroupCreate
                0x0000000000000000       0x1a build/sam_e70_xult_freertos/production/_ext/404212886/event_groups.o
 .text.xEventGroupWaitBits
                0x0000000000000000       0xc0 build/sam_e70_xult_freertos/production/_ext/404212886/event_groups.o
 .text.xEventGroupClearBits
                0x0000000000000000       0x1a build/sam_e70_xult_freertos/production/_ext/404212886/event_groups.o
 .text.xEventGroupGetBitsFromISR
                0x0000000000000000       0x20 build/sam_e70_xult_freertos/production/_ext/404212886/event_groups.o
 .text.xEventGroupSetBits
                0x0000000000000000       0x74 build/sam_e70_xult_freertos/production/_ext/404212886/event_groups.o
 .text.xEventGroupSync
                0x0000000000000000       0x94 build/sam_e70_xult_freertos/production/_ext/404212886/event_groups.o
 .text.vEventGroupDelete
                0x0000000000000000       0x2a build/sam_e70_xult_freertos/production/_ext/404212886/event_groups.o
 .text.vEventGroupSetBitsCallback
                0x0000000000000000        0x8 build/sam_e70_xult_freertos/production/_ext/404212886/event_groups.o
 .text.vEventGroupClearBitsCallback
                0x0000000000000000        0x8 build/sam_e70_xult_freertos/production/_ext/404212886/event_groups.o
 .debug_info    0x0000000000000000     0x18d2 build/sam_e70_xult_freertos/production/_ext/404212886/event_groups.o
 .debug_abbrev  0x0000000000000000      0x3a8 build/sam_e70_xult_freertos/production/_ext/404212886/event_groups.o
 .debug_loc     0x0000000000000000      0x921 build/sam_e70_xult_freertos/production/_ext/404212886/event_groups.o
 .debug_aranges
                0x0000000000000000       0x60 build/sam_e70_xult_freertos/production/_ext/404212886/event_groups.o
 .debug_ranges  0x0000000000000000       0x98 build/sam_e70_xult_freertos/production/_ext/404212886/event_groups.o
 .debug_line    0x0000000000000000      0x3a3 build/sam_e70_xult_freertos/production/_ext/404212886/event_groups.o
 .debug_str     0x0000000000000000      0x1ba build/sam_e70_xult_freertos/production/_ext/404212886/event_groups.o
 .comment       0x0000000000000000       0x3d build/sam_e70_xult_freertos/production/_ext/404212886/event_groups.o
 .debug_frame   0x0000000000000000      0x100 build/sam_e70_xult_freertos/production/_ext/404212886/event_groups.o
 .ARM.attributes
                0x0000000000000000       0x37 build/sam_e70_xult_freertos/production/_ext/404212886/event_groups.o
 .text          0x0000000000000000        0x0 build/sam_e70_xult_freertos/production/_ext/404212886/stream_buffer.o
 .data          0x0000000000000000        0x0 build/sam_e70_xult_freertos/production/_ext/404212886/stream_buffer.o
 .bss           0x0000000000000000        0x0 build/sam_e70_xult_freertos/production/_ext/404212886/stream_buffer.o
 .text.prvBytesInBuffer
                0x0000000000000000       0x12 build/sam_e70_xult_freertos/production/_ext/404212886/stream_buffer.o
 .text.prvWriteBytesToBuffer
                0x0000000000000000       0x44 build/sam_e70_xult_freertos/production/_ext/404212886/stream_buffer.o
 .text.prvWriteMessageToBuffer
                0x0000000000000000       0x44 build/sam_e70_xult_freertos/production/_ext/404212886/stream_buffer.o
 .text.prvReadBytesFromBuffer
                0x0000000000000000       0x50 build/sam_e70_xult_freertos/production/_ext/404212886/stream_buffer.o
 .text.xStreamBufferGenericCreate
                0x0000000000000000       0x34 build/sam_e70_xult_freertos/production/_ext/404212886/stream_buffer.o
 .text.vStreamBufferDelete
                0x0000000000000000       0x1a build/sam_e70_xult_freertos/production/_ext/404212886/stream_buffer.o
 .text.xStreamBufferReset
                0x0000000000000000       0x44 build/sam_e70_xult_freertos/production/_ext/404212886/stream_buffer.o
 .text.xStreamBufferSetTriggerLevel
                0x0000000000000000       0x16 build/sam_e70_xult_freertos/production/_ext/404212886/stream_buffer.o
 .text.xStreamBufferSpacesAvailable
                0x0000000000000000       0x14 build/sam_e70_xult_freertos/production/_ext/404212886/stream_buffer.o
 .text.xStreamBufferBytesAvailable
                0x0000000000000000        0x8 build/sam_e70_xult_freertos/production/_ext/404212886/stream_buffer.o
 .text.xStreamBufferSend
                0x0000000000000000       0xb8 build/sam_e70_xult_freertos/production/_ext/404212886/stream_buffer.o
 .text.xStreamBufferSendFromISR
                0x0000000000000000       0x7a build/sam_e70_xult_freertos/production/_ext/404212886/stream_buffer.o
 .text.xStreamBufferReceive
                0x0000000000000000       0xbe build/sam_e70_xult_freertos/production/_ext/404212886/stream_buffer.o
 .text.xStreamBufferNextMessageLengthBytes
                0x0000000000000000       0x36 build/sam_e70_xult_freertos/production/_ext/404212886/stream_buffer.o
 .text.xStreamBufferReceiveFromISR
                0x0000000000000000       0x9e build/sam_e70_xult_freertos/production/_ext/404212886/stream_buffer.o
 .text.xStreamBufferIsEmpty
                0x0000000000000000        0xe build/sam_e70_xult_freertos/production/_ext/404212886/stream_buffer.o
 .text.xStreamBufferIsFull
                0x0000000000000000       0x18 build/sam_e70_xult_freertos/production/_ext/404212886/stream_buffer.o
 .text.xStreamBufferSendCompletedFromISR
                0x0000000000000000       0x42 build/sam_e70_xult_freertos/production/_ext/404212886/stream_buffer.o
 .text.xStreamBufferReceiveCompletedFromISR
                0x0000000000000000       0x42 build/sam_e70_xult_freertos/production/_ext/404212886/stream_buffer.o
 .debug_info    0x0000000000000000     0x245c build/sam_e70_xult_freertos/production/_ext/404212886/stream_buffer.o
 .debug_abbrev  0x0000000000000000      0x414 build/sam_e70_xult_freertos/production/_ext/404212886/stream_buffer.o
 .debug_loc     0x0000000000000000     0x15c3 build/sam_e70_xult_freertos/production/_ext/404212886/stream_buffer.o
 .debug_aranges
                0x0000000000000000       0xb0 build/sam_e70_xult_freertos/production/_ext/404212886/stream_buffer.o
 .debug_ranges  0x0000000000000000       0xe8 build/sam_e70_xult_freertos/production/_ext/404212886/stream_buffer.o
 .debug_line    0x0000000000000000      0x4fa build/sam_e70_xult_freertos/production/_ext/404212886/stream_buffer.o
 .debug_str     0x0000000000000000      0x242 build/sam_e70_xult_freertos/production/_ext/404212886/stream_buffer.o
 .comment       0x0000000000000000       0x3d build/sam_e70_xult_freertos/production/_ext/404212886/stream_buffer.o
 .debug_frame   0x0000000000000000      0x250 build/sam_e70_xult_freertos/production/_ext/404212886/stream_buffer.o
 .ARM.attributes
                0x0000000000000000       0x37 build/sam_e70_xult_freertos/production/_ext/404212886/stream_buffer.o
 .text          0x0000000000000000        0x0 build/sam_e70_xult_freertos/production/_ext/1665200909/heap_3.o
 .data          0x0000000000000000        0x0 build/sam_e70_xult_freertos/production/_ext/1665200909/heap_3.o
 .bss           0x0000000000000000        0x0 build/sam_e70_xult_freertos/production/_ext/1665200909/heap_3.o
 .text          0x0000000000000000        0x0 build/sam_e70_xult_freertos/production/_ext/977623654/port.o
 .data          0x0000000000000000        0x0 build/sam_e70_xult_freertos/production/_ext/977623654/port.o
 .bss           0x0000000000000000        0x0 build/sam_e70_xult_freertos/production/_ext/977623654/port.o
 .text.vPortEndScheduler
                0x0000000000000000        0x2 build/sam_e70_xult_freertos/production/_ext/977623654/port.o
 .text          0x0000000000000000        0x0 /Applications/microchip/xc32/v2.15/bin/bin/../../lib/gcc/pic32c/6.2.1/../../../../pic32c/lib/v7e-m/fpv5/hard/libpic32c.a(data_init.o)
 .data          0x0000000000000000        0x0 /Applications/microchip/xc32/v2.15/bin/bin/../../lib/gcc/pic32c/6.2.1/../../../../pic32c/lib/v7e-m/fpv5/hard/libpic32c.a(data_init.o)
 .bss           0x0000000000000000        0x0 /Applications/microchip/xc32/v2.15/bin/bin/../../lib/gcc/pic32c/6.2.1/../../../../pic32c/lib/v7e-m/fpv5/hard/libpic32c.a(data_init.o)
 .data          0x0000000000000000        0x0 /Applications/microchip/xc32/v2.15/bin/bin/../../lib/gcc/pic32c/6.2.1/v7e-m/fpv5/hard/libgcc.a(_aeabi_uldivmod.o)
 .bss           0x0000000000000000        0x0 /Applications/microchip/xc32/v2.15/bin/bin/../../lib/gcc/pic32c/6.2.1/v7e-m/fpv5/hard/libgcc.a(_aeabi_uldivmod.o)
 .data          0x0000000000000000        0x0 /Applications/microchip/xc32/v2.15/bin/bin/../../lib/gcc/pic32c/6.2.1/v7e-m/fpv5/hard/libgcc.a(_udivmoddi4.o)
 .bss           0x0000000000000000        0x0 /Applications/microchip/xc32/v2.15/bin/bin/../../lib/gcc/pic32c/6.2.1/v7e-m/fpv5/hard/libgcc.a(_udivmoddi4.o)
 .ARM.extab     0x0000000000000000        0x0 /Applications/microchip/xc32/v2.15/bin/bin/../../lib/gcc/pic32c/6.2.1/v7e-m/fpv5/hard/libgcc.a(_udivmoddi4.o)
 .data          0x0000000000000000        0x0 /Applications/microchip/xc32/v2.15/bin/bin/../../lib/gcc/pic32c/6.2.1/v7e-m/fpv5/hard/libgcc.a(_dvmd_tls.o)
 .bss           0x0000000000000000        0x0 /Applications/microchip/xc32/v2.15/bin/bin/../../lib/gcc/pic32c/6.2.1/v7e-m/fpv5/hard/libgcc.a(_dvmd_tls.o)
 .text          0x0000000000000000        0x0 /Applications/microchip/xc32/v2.15/bin/bin/../../lib/gcc/pic32c/6.2.1/../../../../pic32c/lib/v7e-m/fpv5/hard/libc.a(lib_a-atof.o)
 .data          0x0000000000000000        0x0 /Applications/microchip/xc32/v2.15/bin/bin/../../lib/gcc/pic32c/6.2.1/../../../../pic32c/lib/v7e-m/fpv5/hard/libc.a(lib_a-atof.o)
 .bss           0x0000000000000000        0x0 /Applications/microchip/xc32/v2.15/bin/bin/../../lib/gcc/pic32c/6.2.1/../../../../pic32c/lib/v7e-m/fpv5/hard/libc.a(lib_a-atof.o)
 .text          0x0000000000000000        0x0 /Applications/microchip/xc32/v2.15/bin/bin/../../lib/gcc/pic32c/6.2.1/../../../../pic32c/lib/v7e-m/fpv5/hard/libc.a(lib_a-atoi.o)
 .data          0x0000000000000000        0x0 /Applications/microchip/xc32/v2.15/bin/bin/../../lib/gcc/pic32c/6.2.1/../../../../pic32c/lib/v7e-m/fpv5/hard/libc.a(lib_a-atoi.o)
 .bss           0x0000000000000000        0x0 /Applications/microchip/xc32/v2.15/bin/bin/../../lib/gcc/pic32c/6.2.1/../../../../pic32c/lib/v7e-m/fpv5/hard/libc.a(lib_a-atoi.o)
 .text._atoi_r  0x0000000000000000        0x8 /Applications/microchip/xc32/v2.15/bin/bin/../../lib/gcc/pic32c/6.2.1/../../../../pic32c/lib/v7e-m/fpv5/hard/libc.a(lib_a-atoi.o)
 .text          0x0000000000000000        0x0 /Applications/microchip/xc32/v2.15/bin/bin/../../lib/gcc/pic32c/6.2.1/../../../../pic32c/lib/v7e-m/fpv5/hard/libc.a(lib_a-calloc.o)
 .data          0x0000000000000000        0x0 /Applications/microchip/xc32/v2.15/bin/bin/../../lib/gcc/pic32c/6.2.1/../../../../pic32c/lib/v7e-m/fpv5/hard/libc.a(lib_a-calloc.o)
 .bss           0x0000000000000000        0x0 /Applications/microchip/xc32/v2.15/bin/bin/../../lib/gcc/pic32c/6.2.1/../../../../pic32c/lib/v7e-m/fpv5/hard/libc.a(lib_a-calloc.o)
 .text          0x0000000000000000        0x0 /Applications/microchip/xc32/v2.15/bin/bin/../../lib/gcc/pic32c/6.2.1/../../../../pic32c/lib/v7e-m/fpv5/hard/libc.a(lib_a-callocr.o)
 .data          0x0000000000000000        0x0 /Applications/microchip/xc32/v2.15/bin/bin/../../lib/gcc/pic32c/6.2.1/../../../../pic32c/lib/v7e-m/fpv5/hard/libc.a(lib_a-callocr.o)
 .bss           0x0000000000000000        0x0 /Applications/microchip/xc32/v2.15/bin/bin/../../lib/gcc/pic32c/6.2.1/../../../../pic32c/lib/v7e-m/fpv5/hard/libc.a(lib_a-callocr.o)
 .text          0x0000000000000000        0x0 /Applications/microchip/xc32/v2.15/bin/bin/../../lib/gcc/pic32c/6.2.1/../../../../pic32c/lib/v7e-m/fpv5/hard/libc.a(lib_a-exit.o)
 .data          0x0000000000000000        0x0 /Applications/microchip/xc32/v2.15/bin/bin/../../lib/gcc/pic32c/6.2.1/../../../../pic32c/lib/v7e-m/fpv5/hard/libc.a(lib_a-exit.o)
 .bss           0x0000000000000000        0x0 /Applications/microchip/xc32/v2.15/bin/bin/../../lib/gcc/pic32c/6.2.1/../../../../pic32c/lib/v7e-m/fpv5/hard/libc.a(lib_a-exit.o)
 .text.exit     0x0000000000000000       0x20 /Applications/microchip/xc32/v2.15/bin/bin/../../lib/gcc/pic32c/6.2.1/../../../../pic32c/lib/v7e-m/fpv5/hard/libc.a(lib_a-exit.o)
 .debug_frame   0x0000000000000000       0x28 /Applications/microchip/xc32/v2.15/bin/bin/../../lib/gcc/pic32c/6.2.1/../../../../pic32c/lib/v7e-m/fpv5/hard/libc.a(lib_a-exit.o)
 .ARM.attributes
                0x0000000000000000       0x32 /Applications/microchip/xc32/v2.15/bin/bin/../../lib/gcc/pic32c/6.2.1/../../../../pic32c/lib/v7e-m/fpv5/hard/libc.a(lib_a-exit.o)
 .text          0x0000000000000000        0x0 /Applications/microchip/xc32/v2.15/bin/bin/../../lib/gcc/pic32c/6.2.1/../../../../pic32c/lib/v7e-m/fpv5/hard/libc.a(lib_a-impure.o)
 .data          0x0000000000000000        0x0 /Applications/microchip/xc32/v2.15/bin/bin/../../lib/gcc/pic32c/6.2.1/../../../../pic32c/lib/v7e-m/fpv5/hard/libc.a(lib_a-impure.o)
 .bss           0x0000000000000000        0x0 /Applications/microchip/xc32/v2.15/bin/bin/../../lib/gcc/pic32c/6.2.1/../../../../pic32c/lib/v7e-m/fpv5/hard/libc.a(lib_a-impure.o)
 .text          0x0000000000000000        0x0 /Applications/microchip/xc32/v2.15/bin/bin/../../lib/gcc/pic32c/6.2.1/../../../../pic32c/lib/v7e-m/fpv5/hard/libc.a(lib_a-init.o)
 .data          0x0000000000000000        0x0 /Applications/microchip/xc32/v2.15/bin/bin/../../lib/gcc/pic32c/6.2.1/../../../../pic32c/lib/v7e-m/fpv5/hard/libc.a(lib_a-init.o)
 .bss           0x0000000000000000        0x0 /Applications/microchip/xc32/v2.15/bin/bin/../../lib/gcc/pic32c/6.2.1/../../../../pic32c/lib/v7e-m/fpv5/hard/libc.a(lib_a-init.o)
 .text          0x0000000000000000        0x0 /Applications/microchip/xc32/v2.15/bin/bin/../../lib/gcc/pic32c/6.2.1/../../../../pic32c/lib/v7e-m/fpv5/hard/libc.a(lib_a-locale.o)
 .data          0x0000000000000000        0x0 /Applications/microchip/xc32/v2.15/bin/bin/../../lib/gcc/pic32c/6.2.1/../../../../pic32c/lib/v7e-m/fpv5/hard/libc.a(lib_a-locale.o)
 .bss           0x0000000000000000        0x0 /Applications/microchip/xc32/v2.15/bin/bin/../../lib/gcc/pic32c/6.2.1/../../../../pic32c/lib/v7e-m/fpv5/hard/libc.a(lib_a-locale.o)
 .text._setlocale_r
                0x0000000000000000       0x40 /Applications/microchip/xc32/v2.15/bin/bin/../../lib/gcc/pic32c/6.2.1/../../../../pic32c/lib/v7e-m/fpv5/hard/libc.a(lib_a-locale.o)
 .text.__locale_mb_cur_max
                0x0000000000000000       0x1c /Applications/microchip/xc32/v2.15/bin/bin/../../lib/gcc/pic32c/6.2.1/../../../../pic32c/lib/v7e-m/fpv5/hard/libc.a(lib_a-locale.o)
 .text.setlocale
                0x0000000000000000       0x10 /Applications/microchip/xc32/v2.15/bin/bin/../../lib/gcc/pic32c/6.2.1/../../../../pic32c/lib/v7e-m/fpv5/hard/libc.a(lib_a-locale.o)
 .bss._PathLocale
                0x0000000000000000        0x4 /Applications/microchip/xc32/v2.15/bin/bin/../../lib/gcc/pic32c/6.2.1/../../../../pic32c/lib/v7e-m/fpv5/hard/libc.a(lib_a-locale.o)
 .text          0x0000000000000000        0x0 /Applications/microchip/xc32/v2.15/bin/bin/../../lib/gcc/pic32c/6.2.1/../../../../pic32c/lib/v7e-m/fpv5/hard/libc.a(lib_a-malloc.o)
 .data          0x0000000000000000        0x0 /Applications/microchip/xc32/v2.15/bin/bin/../../lib/gcc/pic32c/6.2.1/../../../../pic32c/lib/v7e-m/fpv5/hard/libc.a(lib_a-malloc.o)
 .bss           0x0000000000000000        0x0 /Applications/microchip/xc32/v2.15/bin/bin/../../lib/gcc/pic32c/6.2.1/../../../../pic32c/lib/v7e-m/fpv5/hard/libc.a(lib_a-malloc.o)
 .text          0x0000000000000000        0x0 /Applications/microchip/xc32/v2.15/bin/bin/../../lib/gcc/pic32c/6.2.1/../../../../pic32c/lib/v7e-m/fpv5/hard/libc.a(lib_a-mallocr.o)
 .data          0x0000000000000000        0x0 /Applications/microchip/xc32/v2.15/bin/bin/../../lib/gcc/pic32c/6.2.1/../../../../pic32c/lib/v7e-m/fpv5/hard/libc.a(lib_a-mallocr.o)
 .bss           0x0000000000000000        0x0 /Applications/microchip/xc32/v2.15/bin/bin/../../lib/gcc/pic32c/6.2.1/../../../../pic32c/lib/v7e-m/fpv5/hard/libc.a(lib_a-mallocr.o)
 .text          0x0000000000000000        0x0 /Applications/microchip/xc32/v2.15/bin/bin/../../lib/gcc/pic32c/6.2.1/../../../../pic32c/lib/v7e-m/fpv5/hard/libc.a(lib_a-mbtowc_r.o)
 .data          0x0000000000000000        0x0 /Applications/microchip/xc32/v2.15/bin/bin/../../lib/gcc/pic32c/6.2.1/../../../../pic32c/lib/v7e-m/fpv5/hard/libc.a(lib_a-mbtowc_r.o)
 .bss           0x0000000000000000        0x0 /Applications/microchip/xc32/v2.15/bin/bin/../../lib/gcc/pic32c/6.2.1/../../../../pic32c/lib/v7e-m/fpv5/hard/libc.a(lib_a-mbtowc_r.o)
 .text._mbtowc_r
                0x0000000000000000       0x24 /Applications/microchip/xc32/v2.15/bin/bin/../../lib/gcc/pic32c/6.2.1/../../../../pic32c/lib/v7e-m/fpv5/hard/libc.a(lib_a-mbtowc_r.o)
 .text          0x0000000000000000        0x0 /Applications/microchip/xc32/v2.15/bin/bin/../../lib/gcc/pic32c/6.2.1/../../../../pic32c/lib/v7e-m/fpv5/hard/libc.a(lib_a-memcmp.o)
 .data          0x0000000000000000        0x0 /Applications/microchip/xc32/v2.15/bin/bin/../../lib/gcc/pic32c/6.2.1/../../../../pic32c/lib/v7e-m/fpv5/hard/libc.a(lib_a-memcmp.o)
 .bss           0x0000000000000000        0x0 /Applications/microchip/xc32/v2.15/bin/bin/../../lib/gcc/pic32c/6.2.1/../../../../pic32c/lib/v7e-m/fpv5/hard/libc.a(lib_a-memcmp.o)
 .data          0x0000000000000000        0x0 /Applications/microchip/xc32/v2.15/bin/bin/../../lib/gcc/pic32c/6.2.1/../../../../pic32c/lib/v7e-m/fpv5/hard/libc.a(lib_a-memcpy.o)
 .bss           0x0000000000000000        0x0 /Applications/microchip/xc32/v2.15/bin/bin/../../lib/gcc/pic32c/6.2.1/../../../../pic32c/lib/v7e-m/fpv5/hard/libc.a(lib_a-memcpy.o)
 .text          0x0000000000000000        0x0 /Applications/microchip/xc32/v2.15/bin/bin/../../lib/gcc/pic32c/6.2.1/../../../../pic32c/lib/v7e-m/fpv5/hard/libc.a(lib_a-memset.o)
 .data          0x0000000000000000        0x0 /Applications/microchip/xc32/v2.15/bin/bin/../../lib/gcc/pic32c/6.2.1/../../../../pic32c/lib/v7e-m/fpv5/hard/libc.a(lib_a-memset.o)
 .bss           0x0000000000000000        0x0 /Applications/microchip/xc32/v2.15/bin/bin/../../lib/gcc/pic32c/6.2.1/../../../../pic32c/lib/v7e-m/fpv5/hard/libc.a(lib_a-memset.o)
 .text          0x0000000000000000        0x0 /Applications/microchip/xc32/v2.15/bin/bin/../../lib/gcc/pic32c/6.2.1/../../../../pic32c/lib/v7e-m/fpv5/hard/libc.a(lib_a-mlock.o)
 .data          0x0000000000000000        0x0 /Applications/microchip/xc32/v2.15/bin/bin/../../lib/gcc/pic32c/6.2.1/../../../../pic32c/lib/v7e-m/fpv5/hard/libc.a(lib_a-mlock.o)
 .bss           0x0000000000000000        0x0 /Applications/microchip/xc32/v2.15/bin/bin/../../lib/gcc/pic32c/6.2.1/../../../../pic32c/lib/v7e-m/fpv5/hard/libc.a(lib_a-mlock.o)
 .text          0x0000000000000000        0x0 /Applications/microchip/xc32/v2.15/bin/bin/../../lib/gcc/pic32c/6.2.1/../../../../pic32c/lib/v7e-m/fpv5/hard/libc.a(lib_a-rand.o)
 .data          0x0000000000000000        0x0 /Applications/microchip/xc32/v2.15/bin/bin/../../lib/gcc/pic32c/6.2.1/../../../../pic32c/lib/v7e-m/fpv5/hard/libc.a(lib_a-rand.o)
 .bss           0x0000000000000000        0x0 /Applications/microchip/xc32/v2.15/bin/bin/../../lib/gcc/pic32c/6.2.1/../../../../pic32c/lib/v7e-m/fpv5/hard/libc.a(lib_a-rand.o)
 .text.srand    0x0000000000000000       0x14 /Applications/microchip/xc32/v2.15/bin/bin/../../lib/gcc/pic32c/6.2.1/../../../../pic32c/lib/v7e-m/fpv5/hard/libc.a(lib_a-rand.o)
 .text          0x0000000000000000        0x0 /Applications/microchip/xc32/v2.15/bin/bin/../../lib/gcc/pic32c/6.2.1/../../../../pic32c/lib/v7e-m/fpv5/hard/libc.a(lib_a-sbrkr.o)
 .data          0x0000000000000000        0x0 /Applications/microchip/xc32/v2.15/bin/bin/../../lib/gcc/pic32c/6.2.1/../../../../pic32c/lib/v7e-m/fpv5/hard/libc.a(lib_a-sbrkr.o)
 .bss           0x0000000000000000        0x0 /Applications/microchip/xc32/v2.15/bin/bin/../../lib/gcc/pic32c/6.2.1/../../../../pic32c/lib/v7e-m/fpv5/hard/libc.a(lib_a-sbrkr.o)
 .text          0x0000000000000000        0x0 /Applications/microchip/xc32/v2.15/bin/bin/../../lib/gcc/pic32c/6.2.1/../../../../pic32c/lib/v7e-m/fpv5/hard/libc.a(lib_a-snprintf.o)
 .data          0x0000000000000000        0x0 /Applications/microchip/xc32/v2.15/bin/bin/../../lib/gcc/pic32c/6.2.1/../../../../pic32c/lib/v7e-m/fpv5/hard/libc.a(lib_a-snprintf.o)
 .bss           0x0000000000000000        0x0 /Applications/microchip/xc32/v2.15/bin/bin/../../lib/gcc/pic32c/6.2.1/../../../../pic32c/lib/v7e-m/fpv5/hard/libc.a(lib_a-snprintf.o)
 .text._snprintf_r
                0x0000000000000000       0x90 /Applications/microchip/xc32/v2.15/bin/bin/../../lib/gcc/pic32c/6.2.1/../../../../pic32c/lib/v7e-m/fpv5/hard/libc.a(lib_a-snprintf.o)
 .text          0x0000000000000000        0x0 /Applications/microchip/xc32/v2.15/bin/bin/../../lib/gcc/pic32c/6.2.1/../../../../pic32c/lib/v7e-m/fpv5/hard/libc.a(lib_a-sprintf.o)
 .data          0x0000000000000000        0x0 /Applications/microchip/xc32/v2.15/bin/bin/../../lib/gcc/pic32c/6.2.1/../../../../pic32c/lib/v7e-m/fpv5/hard/libc.a(lib_a-sprintf.o)
 .bss           0x0000000000000000        0x0 /Applications/microchip/xc32/v2.15/bin/bin/../../lib/gcc/pic32c/6.2.1/../../../../pic32c/lib/v7e-m/fpv5/hard/libc.a(lib_a-sprintf.o)
 .text._sprintf_r
                0x0000000000000000       0x44 /Applications/microchip/xc32/v2.15/bin/bin/../../lib/gcc/pic32c/6.2.1/../../../../pic32c/lib/v7e-m/fpv5/hard/libc.a(lib_a-sprintf.o)
 .data          0x0000000000000000        0x0 /Applications/microchip/xc32/v2.15/bin/bin/../../lib/gcc/pic32c/6.2.1/../../../../pic32c/lib/v7e-m/fpv5/hard/libc.a(lib_a-strcmp.o)
 .bss           0x0000000000000000        0x0 /Applications/microchip/xc32/v2.15/bin/bin/../../lib/gcc/pic32c/6.2.1/../../../../pic32c/lib/v7e-m/fpv5/hard/libc.a(lib_a-strcmp.o)
 .text          0x0000000000000000        0x0 /Applications/microchip/xc32/v2.15/bin/bin/../../lib/gcc/pic32c/6.2.1/../../../../pic32c/lib/v7e-m/fpv5/hard/libc.a(lib_a-strcpy.o)
 .data          0x0000000000000000        0x0 /Applications/microchip/xc32/v2.15/bin/bin/../../lib/gcc/pic32c/6.2.1/../../../../pic32c/lib/v7e-m/fpv5/hard/libc.a(lib_a-strcpy.o)
 .bss           0x0000000000000000        0x0 /Applications/microchip/xc32/v2.15/bin/bin/../../lib/gcc/pic32c/6.2.1/../../../../pic32c/lib/v7e-m/fpv5/hard/libc.a(lib_a-strcpy.o)
 .data          0x0000000000000000        0x0 /Applications/microchip/xc32/v2.15/bin/bin/../../lib/gcc/pic32c/6.2.1/../../../../pic32c/lib/v7e-m/fpv5/hard/libc.a(lib_a-strlen.o)
 .bss           0x0000000000000000        0x0 /Applications/microchip/xc32/v2.15/bin/bin/../../lib/gcc/pic32c/6.2.1/../../../../pic32c/lib/v7e-m/fpv5/hard/libc.a(lib_a-strlen.o)
 .text          0x0000000000000000        0x0 /Applications/microchip/xc32/v2.15/bin/bin/../../lib/gcc/pic32c/6.2.1/../../../../pic32c/lib/v7e-m/fpv5/hard/libc.a(lib_a-strncat.o)
 .data          0x0000000000000000        0x0 /Applications/microchip/xc32/v2.15/bin/bin/../../lib/gcc/pic32c/6.2.1/../../../../pic32c/lib/v7e-m/fpv5/hard/libc.a(lib_a-strncat.o)
 .bss           0x0000000000000000        0x0 /Applications/microchip/xc32/v2.15/bin/bin/../../lib/gcc/pic32c/6.2.1/../../../../pic32c/lib/v7e-m/fpv5/hard/libc.a(lib_a-strncat.o)
 .text          0x0000000000000000        0x0 /Applications/microchip/xc32/v2.15/bin/bin/../../lib/gcc/pic32c/6.2.1/../../../../pic32c/lib/v7e-m/fpv5/hard/libc.a(lib_a-strncpy.o)
 .data          0x0000000000000000        0x0 /Applications/microchip/xc32/v2.15/bin/bin/../../lib/gcc/pic32c/6.2.1/../../../../pic32c/lib/v7e-m/fpv5/hard/libc.a(lib_a-strncpy.o)
 .bss           0x0000000000000000        0x0 /Applications/microchip/xc32/v2.15/bin/bin/../../lib/gcc/pic32c/6.2.1/../../../../pic32c/lib/v7e-m/fpv5/hard/libc.a(lib_a-strncpy.o)
 .text          0x0000000000000000        0x0 /Applications/microchip/xc32/v2.15/bin/bin/../../lib/gcc/pic32c/6.2.1/../../../../pic32c/lib/v7e-m/fpv5/hard/libc.a(lib_a-strstr.o)
 .data          0x0000000000000000        0x0 /Applications/microchip/xc32/v2.15/bin/bin/../../lib/gcc/pic32c/6.2.1/../../../../pic32c/lib/v7e-m/fpv5/hard/libc.a(lib_a-strstr.o)
 .bss           0x0000000000000000        0x0 /Applications/microchip/xc32/v2.15/bin/bin/../../lib/gcc/pic32c/6.2.1/../../../../pic32c/lib/v7e-m/fpv5/hard/libc.a(lib_a-strstr.o)
 .text          0x0000000000000000        0x0 /Applications/microchip/xc32/v2.15/bin/bin/../../lib/gcc/pic32c/6.2.1/../../../../pic32c/lib/v7e-m/fpv5/hard/libc.a(lib_a-strtod.o)
 .data          0x0000000000000000        0x0 /Applications/microchip/xc32/v2.15/bin/bin/../../lib/gcc/pic32c/6.2.1/../../../../pic32c/lib/v7e-m/fpv5/hard/libc.a(lib_a-strtod.o)
 .bss           0x0000000000000000        0x0 /Applications/microchip/xc32/v2.15/bin/bin/../../lib/gcc/pic32c/6.2.1/../../../../pic32c/lib/v7e-m/fpv5/hard/libc.a(lib_a-strtod.o)
 .text._strtod_r
                0x0000000000000000       0x20 /Applications/microchip/xc32/v2.15/bin/bin/../../lib/gcc/pic32c/6.2.1/../../../../pic32c/lib/v7e-m/fpv5/hard/libc.a(lib_a-strtod.o)
 .text.strtod_l
                0x0000000000000000       0x18 /Applications/microchip/xc32/v2.15/bin/bin/../../lib/gcc/pic32c/6.2.1/../../../../pic32c/lib/v7e-m/fpv5/hard/libc.a(lib_a-strtod.o)
 .text.strtof_l
                0x0000000000000000       0x30 /Applications/microchip/xc32/v2.15/bin/bin/../../lib/gcc/pic32c/6.2.1/../../../../pic32c/lib/v7e-m/fpv5/hard/libc.a(lib_a-strtod.o)
 .text.strtof   0x0000000000000000       0x3c /Applications/microchip/xc32/v2.15/bin/bin/../../lib/gcc/pic32c/6.2.1/../../../../pic32c/lib/v7e-m/fpv5/hard/libc.a(lib_a-strtod.o)
 .text          0x0000000000000000        0x0 /Applications/microchip/xc32/v2.15/bin/bin/../../lib/gcc/pic32c/6.2.1/../../../../pic32c/lib/v7e-m/fpv5/hard/libc.a(lib_a-strtok.o)
 .data          0x0000000000000000        0x0 /Applications/microchip/xc32/v2.15/bin/bin/../../lib/gcc/pic32c/6.2.1/../../../../pic32c/lib/v7e-m/fpv5/hard/libc.a(lib_a-strtok.o)
 .bss           0x0000000000000000        0x0 /Applications/microchip/xc32/v2.15/bin/bin/../../lib/gcc/pic32c/6.2.1/../../../../pic32c/lib/v7e-m/fpv5/hard/libc.a(lib_a-strtok.o)
 .text          0x0000000000000000        0x0 /Applications/microchip/xc32/v2.15/bin/bin/../../lib/gcc/pic32c/6.2.1/../../../../pic32c/lib/v7e-m/fpv5/hard/libc.a(lib_a-strtok_r.o)
 .data          0x0000000000000000        0x0 /Applications/microchip/xc32/v2.15/bin/bin/../../lib/gcc/pic32c/6.2.1/../../../../pic32c/lib/v7e-m/fpv5/hard/libc.a(lib_a-strtok_r.o)
 .bss           0x0000000000000000        0x0 /Applications/microchip/xc32/v2.15/bin/bin/../../lib/gcc/pic32c/6.2.1/../../../../pic32c/lib/v7e-m/fpv5/hard/libc.a(lib_a-strtok_r.o)
 .text.strtok_r
                0x0000000000000000        0x8 /Applications/microchip/xc32/v2.15/bin/bin/../../lib/gcc/pic32c/6.2.1/../../../../pic32c/lib/v7e-m/fpv5/hard/libc.a(lib_a-strtok_r.o)
 .text          0x0000000000000000        0x0 /Applications/microchip/xc32/v2.15/bin/bin/../../lib/gcc/pic32c/6.2.1/../../../../pic32c/lib/v7e-m/fpv5/hard/libc.a(lib_a-strtol.o)
 .data          0x0000000000000000        0x0 /Applications/microchip/xc32/v2.15/bin/bin/../../lib/gcc/pic32c/6.2.1/../../../../pic32c/lib/v7e-m/fpv5/hard/libc.a(lib_a-strtol.o)
 .bss           0x0000000000000000        0x0 /Applications/microchip/xc32/v2.15/bin/bin/../../lib/gcc/pic32c/6.2.1/../../../../pic32c/lib/v7e-m/fpv5/hard/libc.a(lib_a-strtol.o)
 .text._strtol_r
                0x0000000000000000       0x24 /Applications/microchip/xc32/v2.15/bin/bin/../../lib/gcc/pic32c/6.2.1/../../../../pic32c/lib/v7e-m/fpv5/hard/libc.a(lib_a-strtol.o)
 .text.strtol_l
                0x0000000000000000       0x20 /Applications/microchip/xc32/v2.15/bin/bin/../../lib/gcc/pic32c/6.2.1/../../../../pic32c/lib/v7e-m/fpv5/hard/libc.a(lib_a-strtol.o)
 .text          0x0000000000000000        0x0 /Applications/microchip/xc32/v2.15/bin/bin/../../lib/gcc/pic32c/6.2.1/../../../../pic32c/lib/v7e-m/fpv5/hard/libc.a(lib_a-svfprintf.o)
 .data          0x0000000000000000        0x0 /Applications/microchip/xc32/v2.15/bin/bin/../../lib/gcc/pic32c/6.2.1/../../../../pic32c/lib/v7e-m/fpv5/hard/libc.a(lib_a-svfprintf.o)
 .bss           0x0000000000000000        0x0 /Applications/microchip/xc32/v2.15/bin/bin/../../lib/gcc/pic32c/6.2.1/../../../../pic32c/lib/v7e-m/fpv5/hard/libc.a(lib_a-svfprintf.o)
 .text          0x0000000000000000        0x0 /Applications/microchip/xc32/v2.15/bin/bin/../../lib/gcc/pic32c/6.2.1/../../../../pic32c/lib/v7e-m/fpv5/hard/libc.a(lib_a-vsnprintf.o)
 .data          0x0000000000000000        0x0 /Applications/microchip/xc32/v2.15/bin/bin/../../lib/gcc/pic32c/6.2.1/../../../../pic32c/lib/v7e-m/fpv5/hard/libc.a(lib_a-vsnprintf.o)
 .bss           0x0000000000000000        0x0 /Applications/microchip/xc32/v2.15/bin/bin/../../lib/gcc/pic32c/6.2.1/../../../../pic32c/lib/v7e-m/fpv5/hard/libc.a(lib_a-vsnprintf.o)
 .text          0x0000000000000000        0x0 /Applications/microchip/xc32/v2.15/bin/bin/../../lib/gcc/pic32c/6.2.1/../../../../pic32c/lib/v7e-m/fpv5/hard/libc.a(lib_a-wctomb_r.o)
 .data          0x0000000000000000        0x0 /Applications/microchip/xc32/v2.15/bin/bin/../../lib/gcc/pic32c/6.2.1/../../../../pic32c/lib/v7e-m/fpv5/hard/libc.a(lib_a-wctomb_r.o)
 .bss           0x0000000000000000        0x0 /Applications/microchip/xc32/v2.15/bin/bin/../../lib/gcc/pic32c/6.2.1/../../../../pic32c/lib/v7e-m/fpv5/hard/libc.a(lib_a-wctomb_r.o)
 .text._wctomb_r
                0x0000000000000000       0x24 /Applications/microchip/xc32/v2.15/bin/bin/../../lib/gcc/pic32c/6.2.1/../../../../pic32c/lib/v7e-m/fpv5/hard/libc.a(lib_a-wctomb_r.o)
 .text          0x0000000000000000        0x0 /Applications/microchip/xc32/v2.15/bin/bin/../../lib/gcc/pic32c/6.2.1/../../../../pic32c/lib/v7e-m/fpv5/hard/libc.a(lib_a-__call_atexit.o)
 .data          0x0000000000000000        0x0 /Applications/microchip/xc32/v2.15/bin/bin/../../lib/gcc/pic32c/6.2.1/../../../../pic32c/lib/v7e-m/fpv5/hard/libc.a(lib_a-__call_atexit.o)
 .bss           0x0000000000000000        0x0 /Applications/microchip/xc32/v2.15/bin/bin/../../lib/gcc/pic32c/6.2.1/../../../../pic32c/lib/v7e-m/fpv5/hard/libc.a(lib_a-__call_atexit.o)
 .text.__call_exitprocs
                0x0000000000000000       0xd4 /Applications/microchip/xc32/v2.15/bin/bin/../../lib/gcc/pic32c/6.2.1/../../../../pic32c/lib/v7e-m/fpv5/hard/libc.a(lib_a-__call_atexit.o)
 .text          0x0000000000000000        0x0 /Applications/microchip/xc32/v2.15/bin/bin/../../lib/gcc/pic32c/6.2.1/../../../../pic32c/lib/v7e-m/fpv5/hard/libc.a(lib_a-atexit.o)
 .data          0x0000000000000000        0x0 /Applications/microchip/xc32/v2.15/bin/bin/../../lib/gcc/pic32c/6.2.1/../../../../pic32c/lib/v7e-m/fpv5/hard/libc.a(lib_a-atexit.o)
 .bss           0x0000000000000000        0x0 /Applications/microchip/xc32/v2.15/bin/bin/../../lib/gcc/pic32c/6.2.1/../../../../pic32c/lib/v7e-m/fpv5/hard/libc.a(lib_a-atexit.o)
 .text          0x0000000000000000        0x0 /Applications/microchip/xc32/v2.15/bin/bin/../../lib/gcc/pic32c/6.2.1/../../../../pic32c/lib/v7e-m/fpv5/hard/libc.a(lib_a-ctype_.o)
 .data          0x0000000000000000        0x0 /Applications/microchip/xc32/v2.15/bin/bin/../../lib/gcc/pic32c/6.2.1/../../../../pic32c/lib/v7e-m/fpv5/hard/libc.a(lib_a-ctype_.o)
 .bss           0x0000000000000000        0x0 /Applications/microchip/xc32/v2.15/bin/bin/../../lib/gcc/pic32c/6.2.1/../../../../pic32c/lib/v7e-m/fpv5/hard/libc.a(lib_a-ctype_.o)
 .text          0x0000000000000000        0x0 /Applications/microchip/xc32/v2.15/bin/bin/../../lib/gcc/pic32c/6.2.1/../../../../pic32c/lib/v7e-m/fpv5/hard/libc.a(lib_a-dtoa.o)
 .data          0x0000000000000000        0x0 /Applications/microchip/xc32/v2.15/bin/bin/../../lib/gcc/pic32c/6.2.1/../../../../pic32c/lib/v7e-m/fpv5/hard/libc.a(lib_a-dtoa.o)
 .bss           0x0000000000000000        0x0 /Applications/microchip/xc32/v2.15/bin/bin/../../lib/gcc/pic32c/6.2.1/../../../../pic32c/lib/v7e-m/fpv5/hard/libc.a(lib_a-dtoa.o)
 .text          0x0000000000000000        0x0 /Applications/microchip/xc32/v2.15/bin/bin/../../lib/gcc/pic32c/6.2.1/../../../../pic32c/lib/v7e-m/fpv5/hard/libc.a(lib_a-fini.o)
 .data          0x0000000000000000        0x0 /Applications/microchip/xc32/v2.15/bin/bin/../../lib/gcc/pic32c/6.2.1/../../../../pic32c/lib/v7e-m/fpv5/hard/libc.a(lib_a-fini.o)
 .bss           0x0000000000000000        0x0 /Applications/microchip/xc32/v2.15/bin/bin/../../lib/gcc/pic32c/6.2.1/../../../../pic32c/lib/v7e-m/fpv5/hard/libc.a(lib_a-fini.o)
 .text          0x0000000000000000        0x0 /Applications/microchip/xc32/v2.15/bin/bin/../../lib/gcc/pic32c/6.2.1/../../../../pic32c/lib/v7e-m/fpv5/hard/libc.a(lib_a-freer.o)
 .data          0x0000000000000000        0x0 /Applications/microchip/xc32/v2.15/bin/bin/../../lib/gcc/pic32c/6.2.1/../../../../pic32c/lib/v7e-m/fpv5/hard/libc.a(lib_a-freer.o)
 .bss           0x0000000000000000        0x0 /Applications/microchip/xc32/v2.15/bin/bin/../../lib/gcc/pic32c/6.2.1/../../../../pic32c/lib/v7e-m/fpv5/hard/libc.a(lib_a-freer.o)
 .text          0x0000000000000000        0x0 /Applications/microchip/xc32/v2.15/bin/bin/../../lib/gcc/pic32c/6.2.1/../../../../pic32c/lib/v7e-m/fpv5/hard/libc.a(lib_a-gdtoa-gethex.o)
 .data          0x0000000000000000        0x0 /Applications/microchip/xc32/v2.15/bin/bin/../../lib/gcc/pic32c/6.2.1/../../../../pic32c/lib/v7e-m/fpv5/hard/libc.a(lib_a-gdtoa-gethex.o)
 .bss           0x0000000000000000        0x0 /Applications/microchip/xc32/v2.15/bin/bin/../../lib/gcc/pic32c/6.2.1/../../../../pic32c/lib/v7e-m/fpv5/hard/libc.a(lib_a-gdtoa-gethex.o)
 .text          0x0000000000000000        0x0 /Applications/microchip/xc32/v2.15/bin/bin/../../lib/gcc/pic32c/6.2.1/../../../../pic32c/lib/v7e-m/fpv5/hard/libc.a(lib_a-gdtoa-hexnan.o)
 .data          0x0000000000000000        0x0 /Applications/microchip/xc32/v2.15/bin/bin/../../lib/gcc/pic32c/6.2.1/../../../../pic32c/lib/v7e-m/fpv5/hard/libc.a(lib_a-gdtoa-hexnan.o)
 .bss           0x0000000000000000        0x0 /Applications/microchip/xc32/v2.15/bin/bin/../../lib/gcc/pic32c/6.2.1/../../../../pic32c/lib/v7e-m/fpv5/hard/libc.a(lib_a-gdtoa-hexnan.o)
 .text          0x0000000000000000        0x0 /Applications/microchip/xc32/v2.15/bin/bin/../../lib/gcc/pic32c/6.2.1/../../../../pic32c/lib/v7e-m/fpv5/hard/libc.a(lib_a-localeconv.o)
 .data          0x0000000000000000        0x0 /Applications/microchip/xc32/v2.15/bin/bin/../../lib/gcc/pic32c/6.2.1/../../../../pic32c/lib/v7e-m/fpv5/hard/libc.a(lib_a-localeconv.o)
 .bss           0x0000000000000000        0x0 /Applications/microchip/xc32/v2.15/bin/bin/../../lib/gcc/pic32c/6.2.1/../../../../pic32c/lib/v7e-m/fpv5/hard/libc.a(lib_a-localeconv.o)
 .text.localeconv
                0x0000000000000000       0x1c /Applications/microchip/xc32/v2.15/bin/bin/../../lib/gcc/pic32c/6.2.1/../../../../pic32c/lib/v7e-m/fpv5/hard/libc.a(lib_a-localeconv.o)
 .data          0x0000000000000000        0x0 /Applications/microchip/xc32/v2.15/bin/bin/../../lib/gcc/pic32c/6.2.1/../../../../pic32c/lib/v7e-m/fpv5/hard/libc.a(lib_a-memchr.o)
 .bss           0x0000000000000000        0x0 /Applications/microchip/xc32/v2.15/bin/bin/../../lib/gcc/pic32c/6.2.1/../../../../pic32c/lib/v7e-m/fpv5/hard/libc.a(lib_a-memchr.o)
 .text          0x0000000000000000        0x0 /Applications/microchip/xc32/v2.15/bin/bin/../../lib/gcc/pic32c/6.2.1/../../../../pic32c/lib/v7e-m/fpv5/hard/libc.a(lib_a-mprec.o)
 .data          0x0000000000000000        0x0 /Applications/microchip/xc32/v2.15/bin/bin/../../lib/gcc/pic32c/6.2.1/../../../../pic32c/lib/v7e-m/fpv5/hard/libc.a(lib_a-mprec.o)
 .bss           0x0000000000000000        0x0 /Applications/microchip/xc32/v2.15/bin/bin/../../lib/gcc/pic32c/6.2.1/../../../../pic32c/lib/v7e-m/fpv5/hard/libc.a(lib_a-mprec.o)
 .text._mprec_log10
                0x0000000000000000       0x28 /Applications/microchip/xc32/v2.15/bin/bin/../../lib/gcc/pic32c/6.2.1/../../../../pic32c/lib/v7e-m/fpv5/hard/libc.a(lib_a-mprec.o)
 .rodata.__mprec_tinytens
                0x0000000000000000       0x28 /Applications/microchip/xc32/v2.15/bin/bin/../../lib/gcc/pic32c/6.2.1/../../../../pic32c/lib/v7e-m/fpv5/hard/libc.a(lib_a-mprec.o)
 .text          0x0000000000000000        0x0 /Applications/microchip/xc32/v2.15/bin/bin/../../lib/gcc/pic32c/6.2.1/../../../../pic32c/lib/v7e-m/fpv5/hard/libc.a(lib_a-reent.o)
 .data          0x0000000000000000        0x0 /Applications/microchip/xc32/v2.15/bin/bin/../../lib/gcc/pic32c/6.2.1/../../../../pic32c/lib/v7e-m/fpv5/hard/libc.a(lib_a-reent.o)
 .bss           0x0000000000000000        0x0 /Applications/microchip/xc32/v2.15/bin/bin/../../lib/gcc/pic32c/6.2.1/../../../../pic32c/lib/v7e-m/fpv5/hard/libc.a(lib_a-reent.o)
 .text.cleanup_glue
                0x0000000000000000       0x1c /Applications/microchip/xc32/v2.15/bin/bin/../../lib/gcc/pic32c/6.2.1/../../../../pic32c/lib/v7e-m/fpv5/hard/libc.a(lib_a-reent.o)
 .text._reclaim_reent
                0x0000000000000000       0x88 /Applications/microchip/xc32/v2.15/bin/bin/../../lib/gcc/pic32c/6.2.1/../../../../pic32c/lib/v7e-m/fpv5/hard/libc.a(lib_a-reent.o)
 .text          0x0000000000000000        0x0 /Applications/microchip/xc32/v2.15/bin/bin/../../lib/gcc/pic32c/6.2.1/../../../../pic32c/lib/v7e-m/fpv5/hard/libc.a(lib_a-s_frexp.o)
 .data          0x0000000000000000        0x0 /Applications/microchip/xc32/v2.15/bin/bin/../../lib/gcc/pic32c/6.2.1/../../../../pic32c/lib/v7e-m/fpv5/hard/libc.a(lib_a-s_frexp.o)
 .bss           0x0000000000000000        0x0 /Applications/microchip/xc32/v2.15/bin/bin/../../lib/gcc/pic32c/6.2.1/../../../../pic32c/lib/v7e-m/fpv5/hard/libc.a(lib_a-s_frexp.o)
 .text          0x0000000000000000        0x0 /Applications/microchip/xc32/v2.15/bin/bin/../../lib/gcc/pic32c/6.2.1/../../../../pic32c/lib/v7e-m/fpv5/hard/libc.a(lib_a-sf_nan.o)
 .data          0x0000000000000000        0x0 /Applications/microchip/xc32/v2.15/bin/bin/../../lib/gcc/pic32c/6.2.1/../../../../pic32c/lib/v7e-m/fpv5/hard/libc.a(lib_a-sf_nan.o)
 .bss           0x0000000000000000        0x0 /Applications/microchip/xc32/v2.15/bin/bin/../../lib/gcc/pic32c/6.2.1/../../../../pic32c/lib/v7e-m/fpv5/hard/libc.a(lib_a-sf_nan.o)
 .text.nanf     0x0000000000000000        0xc /Applications/microchip/xc32/v2.15/bin/bin/../../lib/gcc/pic32c/6.2.1/../../../../pic32c/lib/v7e-m/fpv5/hard/libc.a(lib_a-sf_nan.o)
 .debug_frame   0x0000000000000000       0x20 /Applications/microchip/xc32/v2.15/bin/bin/../../lib/gcc/pic32c/6.2.1/../../../../pic32c/lib/v7e-m/fpv5/hard/libc.a(lib_a-sf_nan.o)
 .ARM.attributes
                0x0000000000000000       0x32 /Applications/microchip/xc32/v2.15/bin/bin/../../lib/gcc/pic32c/6.2.1/../../../../pic32c/lib/v7e-m/fpv5/hard/libc.a(lib_a-sf_nan.o)
 .text          0x0000000000000000        0x0 /Applications/microchip/xc32/v2.15/bin/bin/../../lib/gcc/pic32c/6.2.1/../../../../pic32c/lib/v7e-m/fpv5/hard/libc.a(lib_a-strchr.o)
 .data          0x0000000000000000        0x0 /Applications/microchip/xc32/v2.15/bin/bin/../../lib/gcc/pic32c/6.2.1/../../../../pic32c/lib/v7e-m/fpv5/hard/libc.a(lib_a-strchr.o)
 .bss           0x0000000000000000        0x0 /Applications/microchip/xc32/v2.15/bin/bin/../../lib/gcc/pic32c/6.2.1/../../../../pic32c/lib/v7e-m/fpv5/hard/libc.a(lib_a-strchr.o)
 .text          0x0000000000000000        0x0 /Applications/microchip/xc32/v2.15/bin/bin/../../lib/gcc/pic32c/6.2.1/../../../../pic32c/lib/v7e-m/fpv5/hard/libc.a(lib_a-strncmp.o)
 .data          0x0000000000000000        0x0 /Applications/microchip/xc32/v2.15/bin/bin/../../lib/gcc/pic32c/6.2.1/../../../../pic32c/lib/v7e-m/fpv5/hard/libc.a(lib_a-strncmp.o)
 .bss           0x0000000000000000        0x0 /Applications/microchip/xc32/v2.15/bin/bin/../../lib/gcc/pic32c/6.2.1/../../../../pic32c/lib/v7e-m/fpv5/hard/libc.a(lib_a-strncmp.o)
 .text          0x0000000000000000        0x0 /Applications/microchip/xc32/v2.15/bin/bin/../../lib/gcc/pic32c/6.2.1/../../../../pic32c/lib/v7e-m/fpv5/hard/libc.a(lib_a-svfiprintf.o)
 .data          0x0000000000000000        0x0 /Applications/microchip/xc32/v2.15/bin/bin/../../lib/gcc/pic32c/6.2.1/../../../../pic32c/lib/v7e-m/fpv5/hard/libc.a(lib_a-svfiprintf.o)
 .bss           0x0000000000000000        0x0 /Applications/microchip/xc32/v2.15/bin/bin/../../lib/gcc/pic32c/6.2.1/../../../../pic32c/lib/v7e-m/fpv5/hard/libc.a(lib_a-svfiprintf.o)
 .text._svfiprintf_r
                0x0000000000000000      0xb28 /Applications/microchip/xc32/v2.15/bin/bin/../../lib/gcc/pic32c/6.2.1/../../../../pic32c/lib/v7e-m/fpv5/hard/libc.a(lib_a-svfiprintf.o)
 .rodata        0x0000000000000000       0x30 /Applications/microchip/xc32/v2.15/bin/bin/../../lib/gcc/pic32c/6.2.1/../../../../pic32c/lib/v7e-m/fpv5/hard/libc.a(lib_a-svfiprintf.o)
 .rodata.blanks.8331
                0x0000000000000000       0x10 /Applications/microchip/xc32/v2.15/bin/bin/../../lib/gcc/pic32c/6.2.1/../../../../pic32c/lib/v7e-m/fpv5/hard/libc.a(lib_a-svfiprintf.o)
 .rodata.zeroes.8332
                0x0000000000000000       0x10 /Applications/microchip/xc32/v2.15/bin/bin/../../lib/gcc/pic32c/6.2.1/../../../../pic32c/lib/v7e-m/fpv5/hard/libc.a(lib_a-svfiprintf.o)
 .text          0x0000000000000000        0x0 /Applications/microchip/xc32/v2.15/bin/bin/../../lib/gcc/pic32c/6.2.1/../../../../pic32c/lib/v7e-m/fpv5/hard/libc.a(lib_a-__atexit.o)
 .data          0x0000000000000000        0x0 /Applications/microchip/xc32/v2.15/bin/bin/../../lib/gcc/pic32c/6.2.1/../../../../pic32c/lib/v7e-m/fpv5/hard/libc.a(lib_a-__atexit.o)
 .bss           0x0000000000000000        0x0 /Applications/microchip/xc32/v2.15/bin/bin/../../lib/gcc/pic32c/6.2.1/../../../../pic32c/lib/v7e-m/fpv5/hard/libc.a(lib_a-__atexit.o)
 .text          0x0000000000000000        0x0 /Applications/microchip/xc32/v2.15/bin/bin/../../lib/gcc/pic32c/6.2.1/../../../../pic32c/lib/v7e-m/fpv5/hard/libc.a(lib_a-memmove.o)
 .data          0x0000000000000000        0x0 /Applications/microchip/xc32/v2.15/bin/bin/../../lib/gcc/pic32c/6.2.1/../../../../pic32c/lib/v7e-m/fpv5/hard/libc.a(lib_a-memmove.o)
 .bss           0x0000000000000000        0x0 /Applications/microchip/xc32/v2.15/bin/bin/../../lib/gcc/pic32c/6.2.1/../../../../pic32c/lib/v7e-m/fpv5/hard/libc.a(lib_a-memmove.o)
 .text          0x0000000000000000        0x0 /Applications/microchip/xc32/v2.15/bin/bin/../../lib/gcc/pic32c/6.2.1/../../../../pic32c/lib/v7e-m/fpv5/hard/libc.a(lib_a-reallocr.o)
 .data          0x0000000000000000        0x0 /Applications/microchip/xc32/v2.15/bin/bin/../../lib/gcc/pic32c/6.2.1/../../../../pic32c/lib/v7e-m/fpv5/hard/libc.a(lib_a-reallocr.o)
 .bss           0x0000000000000000        0x0 /Applications/microchip/xc32/v2.15/bin/bin/../../lib/gcc/pic32c/6.2.1/../../../../pic32c/lib/v7e-m/fpv5/hard/libc.a(lib_a-reallocr.o)
 .text          0x0000000000000000        0x0 /Applications/microchip/xc32/v2.15/bin/bin/../../lib/gcc/pic32c/6.2.1/../../../../pic32c/lib/v7e-m/fpv5/hard/libpic32c.a(sbrk.o)
 .data          0x0000000000000000        0x0 /Applications/microchip/xc32/v2.15/bin/bin/../../lib/gcc/pic32c/6.2.1/../../../../pic32c/lib/v7e-m/fpv5/hard/libpic32c.a(sbrk.o)
 .text          0x0000000000000000        0x0 /Applications/microchip/xc32/v2.15/bin/bin/../../lib/gcc/pic32c/6.2.1/v7e-m/fpv5/hard/crtend.o
 .data          0x0000000000000000        0x0 /Applications/microchip/xc32/v2.15/bin/bin/../../lib/gcc/pic32c/6.2.1/v7e-m/fpv5/hard/crtend.o
 .bss           0x0000000000000000        0x0 /Applications/microchip/xc32/v2.15/bin/bin/../../lib/gcc/pic32c/6.2.1/v7e-m/fpv5/hard/crtend.o
 .eh_frame      0x0000000000000000        0x4 /Applications/microchip/xc32/v2.15/bin/bin/../../lib/gcc/pic32c/6.2.1/v7e-m/fpv5/hard/crtend.o
 .jcr           0x0000000000000000        0x4 /Applications/microchip/xc32/v2.15/bin/bin/../../lib/gcc/pic32c/6.2.1/v7e-m/fpv5/hard/crtend.o
 .ARM.attributes
                0x0000000000000000       0x32 /Applications/microchip/xc32/v2.15/bin/bin/../../lib/gcc/pic32c/6.2.1/v7e-m/fpv5/hard/crtend.o
 .text          0x0000000000000000        0x0 /Applications/microchip/xc32/v2.15/bin/bin/../../lib/gcc/pic32c/6.2.1/v7e-m/fpv5/hard/crtn.o
 .data          0x0000000000000000        0x0 /Applications/microchip/xc32/v2.15/bin/bin/../../lib/gcc/pic32c/6.2.1/v7e-m/fpv5/hard/crtn.o
 .bss           0x0000000000000000        0x0 /Applications/microchip/xc32/v2.15/bin/bin/../../lib/gcc/pic32c/6.2.1/v7e-m/fpv5/hard/crtn.o

Memory Configuration

Name             Origin             Length             Attributes
rom              0x0000000000400000 0x0000000000200000 xr
ram              0x0000000020400000 0x0000000000060000 xrw
itcm             0x0000000000000000 0x0000000000000000 xrw
dtcm             0x0000000020000000 0x0000000000000000 xrw
*default*        0x0000000000000000 0xffffffffffffffff
tcm              0x0000000000000000 0xffffffffffffffff

Linker script and memory map

LOAD /Applications/microchip/xc32/v2.15/bin/bin/../../lib/gcc/pic32c/6.2.1/v7e-m/fpv5/hard/crti.o
LOAD /Applications/microchip/xc32/v2.15/bin/bin/../../lib/gcc/pic32c/6.2.1/v7e-m/fpv5/hard/crtbegin.o
LOAD /Applications/microchip/xc32/v2.15/bin/bin/../../lib/gcc/pic32c/6.2.1/../../../../pic32c/lib/v7e-m/fpv5/hard/crt0.o
LOAD build/sam_e70_xult_freertos/production/_ext/1360937237/app_commands.o
LOAD build/sam_e70_xult_freertos/production/_ext/810785262/dns.o
LOAD build/sam_e70_xult_freertos/production/_ext/810785262/icmp.o
LOAD build/sam_e70_xult_freertos/production/_ext/810785262/tcp.o
LOAD build/sam_e70_xult_freertos/production/_ext/810785262/dhcp.o
LOAD build/sam_e70_xult_freertos/production/_ext/810785262/arp.o
LOAD build/sam_e70_xult_freertos/production/_ext/1245453995/plib_tc0.o
LOAD build/sam_e70_xult_freertos/production/_ext/912870411/sys_time.o
LOAD build/sam_e70_xult_freertos/production/_ext/683629640/bsp.o
LOAD build/sam_e70_xult_freertos/production/_ext/810785262/tcpip_commands.o
LOAD build/sam_e70_xult_freertos/production/_ext/901805035/plib_twihs0.o
LOAD build/sam_e70_xult_freertos/production/_ext/810785262/ipv4.o
LOAD build/sam_e70_xult_freertos/production/_ext/901008055/plib_usart1.o
LOAD build/sam_e70_xult_freertos/production/_ext/810785262/tcpip_heap_alloc.o
LOAD build/sam_e70_xult_freertos/production/_ext/810785262/tcpip_heap_internal.o
LOAD build/sam_e70_xult_freertos/production/_ext/810785262/helpers.o
LOAD build/sam_e70_xult_freertos/production/_ext/810785262/hash_fnv.o
LOAD build/sam_e70_xult_freertos/production/_ext/810785262/oahash.o
LOAD build/sam_e70_xult_freertos/production/_ext/810785262/tcpip_helpers.o
LOAD build/sam_e70_xult_freertos/production/_ext/810785262/tcpip_manager.o
LOAD build/sam_e70_xult_freertos/production/_ext/810785262/tcpip_notify.o
LOAD build/sam_e70_xult_freertos/production/_ext/810785262/tcpip_packet.o
LOAD build/sam_e70_xult_freertos/production/_ext/231871610/sys_time_h2_adapter.o
LOAD build/sam_e70_xult_freertos/production/_ext/1775855163/sys_int.o
LOAD build/sam_e70_xult_freertos/production/_ext/992551865/sys_cache.o
LOAD build/sam_e70_xult_freertos/production/_ext/281930714/osal_freertos.o
LOAD build/sam_e70_xult_freertos/production/_ext/1360937237/app.o
LOAD build/sam_e70_xult_freertos/production/_ext/1552905064/tasks.o
LOAD build/sam_e70_xult_freertos/production/_ext/1619526243/drv_gmac.o
LOAD build/sam_e70_xult_freertos/production/_ext/1619526243/drv_gmac_lib_samE7x_V7x.o
LOAD build/sam_e70_xult_freertos/production/_ext/1360937237/main.o
LOAD build/sam_e70_xult_freertos/production/_ext/1552905064/initialization.o
LOAD build/sam_e70_xult_freertos/production/_ext/1552905064/interrupts.o
LOAD build/sam_e70_xult_freertos/production/_ext/1552905064/exceptions.o
LOAD build/sam_e70_xult_freertos/production/_ext/146190766/xc32_monitor.o
LOAD build/sam_e70_xult_freertos/production/_ext/45647770/plib_clk.o
LOAD build/sam_e70_xult_freertos/production/_ext/45635366/plib_pio.o
LOAD build/sam_e70_xult_freertos/production/_ext/1414743522/plib_nvic.o
LOAD build/sam_e70_xult_freertos/production/_ext/45638026/plib_mpu.o
LOAD build/sam_e70_xult_freertos/production/_ext/1552905064/startup_xc32.o
LOAD build/sam_e70_xult_freertos/production/_ext/1552905064/libc_syscalls.o
LOAD build/sam_e70_xult_freertos/production/_ext/810785262/udp.o
LOAD build/sam_e70_xult_freertos/production/_ext/511568427/drv_miim.o
LOAD build/sam_e70_xult_freertos/production/_ext/1607428259/drv_ethphy.o
LOAD build/sam_e70_xult_freertos/production/_ext/1607428259/drv_extphy_smsc8740.o
LOAD build/sam_e70_xult_freertos/production/_ext/762686499/sys_console.o
LOAD build/sam_e70_xult_freertos/production/_ext/762686499/sys_console_uart.o
LOAD build/sam_e70_xult_freertos/production/_ext/762686499/sys_debug.o
LOAD build/sam_e70_xult_freertos/production/_ext/762686499/sys_command.o
LOAD build/sam_e70_xult_freertos/production/_ext/1552905064/freertos_hooks.o
LOAD build/sam_e70_xult_freertos/production/_ext/404212886/croutine.o
LOAD build/sam_e70_xult_freertos/production/_ext/404212886/list.o
LOAD build/sam_e70_xult_freertos/production/_ext/404212886/queue.o
LOAD build/sam_e70_xult_freertos/production/_ext/404212886/FreeRTOS_tasks.o
LOAD build/sam_e70_xult_freertos/production/_ext/404212886/timers.o
LOAD build/sam_e70_xult_freertos/production/_ext/404212886/event_groups.o
LOAD build/sam_e70_xult_freertos/production/_ext/404212886/stream_buffer.o
LOAD build/sam_e70_xult_freertos/production/_ext/1665200909/heap_3.o
LOAD build/sam_e70_xult_freertos/production/_ext/977623654/port.o
                0x0000000000000001                __MPLAB_BUILD = 0x1
                0x0000000000017ac0                _min_heap_size = 0x17ac0
START GROUP
LOAD /Applications/microchip/xc32/v2.15/bin/bin/../../lib/gcc/pic32c/6.2.1/../../../../pic32c/lib/v7e-m/fpv5/hard/libpic32c.a
LOAD /Applications/microchip/xc32/v2.15/bin/bin/../../lib/gcc/pic32c/6.2.1/v7e-m/fpv5/hard/libgcc.a
LOAD /Applications/microchip/xc32/v2.15/bin/bin/../../lib/gcc/pic32c/6.2.1/../../../../pic32c/lib/v7e-m/fpv5/hard/libc.a
LOAD /Applications/microchip/xc32/v2.15/bin/bin/../../lib/gcc/pic32c/6.2.1/../../../../pic32c/lib/v7e-m/fpv5/hard/libm.a
END GROUP
LOAD /Applications/microchip/xc32/v2.15/bin/bin/../../lib/gcc/pic32c/6.2.1/v7e-m/fpv5/hard/crtend.o
LOAD /Applications/microchip/xc32/v2.15/bin/bin/../../lib/gcc/pic32c/6.2.1/v7e-m/fpv5/hard/crtn.o
                0x0000000000600000                __rom_end = (ORIGIN (rom) + LENGTH (rom))
                0x0000000020460000                __ram_end = (ORIGIN (ram) + LENGTH (ram))

.vectors        0x0000000000400000      0x168
                0x0000000000400000                . = ALIGN (0x4)
                0x0000000000400000                _sfixed = .
 *(.vectors .vectors.* .vectors_default .vectors_default.*)
 .vectors       0x0000000000400000      0x168 build/sam_e70_xult_freertos/production/_ext/1552905064/interrupts.o
                0x0000000000400000                exception_table
 *(.isr_vector)
 *(.reset*)
 *(.after_vectors)

.text           0x0000000000400168       0x24
                0x0000000000400168                . = ALIGN (0x4)
 *(.glue_7t)
 .glue_7t       0x0000000000400168        0x0 linker stubs
 *(.glue_7)
 .glue_7        0x0000000000400168        0x0 linker stubs
 *(.gnu.linkonce.r.*)
 *(.ARM.extab* .gnu.linkonce.armextab.*)
                0x0000000000400168                . = ALIGN (0x4)
 *(.init)
 .init          0x0000000000400168        0x4 /Applications/microchip/xc32/v2.15/bin/bin/../../lib/gcc/pic32c/6.2.1/v7e-m/fpv5/hard/crti.o
                0x0000000000400168                _init
 .init          0x000000000040016c        0x8 /Applications/microchip/xc32/v2.15/bin/bin/../../lib/gcc/pic32c/6.2.1/v7e-m/fpv5/hard/crtn.o
                0x0000000000400174                . = ALIGN (0x4)
                0x0000000000400174                __preinit_array_start = .
 *(.preinit_array)
                0x0000000000400174                __preinit_array_end = .
                0x0000000000400174                . = ALIGN (0x4)
                0x0000000000400174                __init_array_start = .
 *(SORT(.init_array.*))
 .init_array.00000
                0x0000000000400174        0x4 /Applications/microchip/xc32/v2.15/bin/bin/../../lib/gcc/pic32c/6.2.1/../../../../pic32c/lib/v7e-m/fpv5/hard/libc.a(lib_a-__call_atexit.o)
 *(.init_array)
 .init_array    0x0000000000400178        0x4 /Applications/microchip/xc32/v2.15/bin/bin/../../lib/gcc/pic32c/6.2.1/v7e-m/fpv5/hard/crtbegin.o
                0x000000000040017c                __init_array_end = .
                0x000000000040017c                . = ALIGN (0x4)
 *crtbegin.o(.ctors)
 *(EXCLUDE_FILE(*crtend.o) .ctors)
 *(SORT(.ctors.*))
 *crtend.o(.ctors)
                0x000000000040017c                . = ALIGN (0x4)
 *(.fini)
 .fini          0x000000000040017c        0x4 /Applications/microchip/xc32/v2.15/bin/bin/../../lib/gcc/pic32c/6.2.1/v7e-m/fpv5/hard/crti.o
                0x000000000040017c                _fini
 .fini          0x0000000000400180        0x8 /Applications/microchip/xc32/v2.15/bin/bin/../../lib/gcc/pic32c/6.2.1/v7e-m/fpv5/hard/crtn.o
                0x0000000000400188                . = ALIGN (0x4)
                0x0000000000400188                __fini_array_start = .
 *(.fini_array)
 .fini_array    0x0000000000400188        0x4 /Applications/microchip/xc32/v2.15/bin/bin/../../lib/gcc/pic32c/6.2.1/v7e-m/fpv5/hard/crtbegin.o
 *(SORT(.fini_array.*))
                0x000000000040018c                __fini_array_end = .
 *crtbegin.o(.dtors)
 *(EXCLUDE_FILE(*crtend.o) .dtors)
 *(SORT(.dtors.*))
 *crtend.o(.dtors)
                0x000000000040018c                . = ALIGN (0x4)
                0x000000000040018c                _efixed = .
                [!provide]                        PROVIDE (__exidx_start, .)

.ARM.exidx      0x000000000040018c        0x8
 *(.ARM.exidx* .gnu.linkonce.armexidx.*)
 .ARM.exidx     0x000000000040018c        0x8 /Applications/microchip/xc32/v2.15/bin/bin/../../lib/gcc/pic32c/6.2.1/v7e-m/fpv5/hard/libgcc.a(_udivmoddi4.o)
                [!provide]                        PROVIDE (__exidx_end, .)
                0x0000000000400194                . = ALIGN (0x4)
                0x0000000000400194                _etext = .

.bss            0x0000000020400000      0x60c
                0x0000000020400000                . = ALIGN (0x4)
                0x0000000020400000                __bss_start__ = .
                0x0000000020400000                _sbss = .
                0x0000000020400000                _szero = .
 *(COMMON)
 COMMON         0x0000000020400000       0xff build/sam_e70_xult_freertos/production/_ext/1360937237/app_commands.o
                0x0000000020400000                APP_URL_Buffer
 *fill*         0x00000000204000ff        0x1 
 COMMON         0x0000000020400100        0x8 build/sam_e70_xult_freertos/production/_ext/1245453995/plib_tc0.o
                0x0000000020400100                TC0_CH0_CallbackObj
 COMMON         0x0000000020400108       0x30 build/sam_e70_xult_freertos/production/_ext/901008055/plib_usart1.o
                0x0000000020400108                usart1Obj
 COMMON         0x0000000020400138      0x4ac build/sam_e70_xult_freertos/production/_ext/1360937237/app.o
                0x0000000020400138                macAddr
                0x0000000020400140                appData
                0x0000000020400150                jsonBuffer
                0x0000000020400550                macAddrString
                0x0000000020400564                cityBuffer
 COMMON         0x00000000204005e4        0x4 build/sam_e70_xult_freertos/production/_ext/1552905064/tasks.o
                0x00000000204005e4                xAPP_Tasks
 COMMON         0x00000000204005e8       0x14 build/sam_e70_xult_freertos/production/_ext/1552905064/initialization.o
                0x00000000204005e8                sysObj
 COMMON         0x00000000204005fc        0x9 build/sam_e70_xult_freertos/production/_ext/762686499/sys_debug.o
                0x00000000204005fc                sysDebugInstance
                0x0000000020400604                gblErrLvl
 *fill*         0x0000000020400605        0x3 
 COMMON         0x0000000020400608        0x4 /Applications/microchip/xc32/v2.15/bin/bin/../../lib/gcc/pic32c/6.2.1/../../../../pic32c/lib/v7e-m/fpv5/hard/libc.a(lib_a-reent.o)
                0x0000000020400608                errno
                0x000000002040060c                . = ALIGN (0x4)
                0x000000002040060c                __bss_end__ = .
                0x000000002040060c                _ebss = .
                0x000000002040060c                _ezero = .
                0x000000002040060c                . = ALIGN (0x4)
                0x000000002040060c                _end = .
                0x000000002045ffff                _ram_end_ = ((ORIGIN (ram) + LENGTH (ram)) - 0x1)
OUTPUT(dist/sam_e70_xult_freertos/production/sam_e70_xult_freertos.X.production.elf elf32-littlearm)
LOAD stack
LOAD data_init

.ARM.attributes
                0x0000000000000000       0x2e
 .ARM.attributes
                0x0000000000000000       0x20 /Applications/microchip/xc32/v2.15/bin/bin/../../lib/gcc/pic32c/6.2.1/v7e-m/fpv5/hard/crti.o
 .ARM.attributes
                0x0000000000000020       0x32 /Applications/microchip/xc32/v2.15/bin/bin/../../lib/gcc/pic32c/6.2.1/v7e-m/fpv5/hard/crtbegin.o
 .ARM.attributes
                0x0000000000000052       0x37 build/sam_e70_xult_freertos/production/_ext/1360937237/app_commands.o
 .ARM.attributes
                0x0000000000000089       0x37 build/sam_e70_xult_freertos/production/_ext/810785262/dns.o
 .ARM.attributes
                0x00000000000000c0       0x37 build/sam_e70_xult_freertos/production/_ext/810785262/icmp.o
 .ARM.attributes
                0x00000000000000f7       0x37 build/sam_e70_xult_freertos/production/_ext/810785262/tcp.o
 .ARM.attributes
                0x000000000000012e       0x37 build/sam_e70_xult_freertos/production/_ext/810785262/dhcp.o
 .ARM.attributes
                0x0000000000000165       0x37 build/sam_e70_xult_freertos/production/_ext/810785262/arp.o
 .ARM.attributes
                0x000000000000019c       0x37 build/sam_e70_xult_freertos/production/_ext/1245453995/plib_tc0.o
 .ARM.attributes
                0x00000000000001d3       0x37 build/sam_e70_xult_freertos/production/_ext/912870411/sys_time.o
 .ARM.attributes
                0x000000000000020a       0x37 build/sam_e70_xult_freertos/production/_ext/683629640/bsp.o
 .ARM.attributes
                0x0000000000000241       0x37 build/sam_e70_xult_freertos/production/_ext/810785262/tcpip_commands.o
 .ARM.attributes
                0x0000000000000278       0x37 build/sam_e70_xult_freertos/production/_ext/901805035/plib_twihs0.o
 .ARM.attributes
                0x00000000000002af       0x37 build/sam_e70_xult_freertos/production/_ext/810785262/ipv4.o
 .ARM.attributes
                0x00000000000002e6       0x37 build/sam_e70_xult_freertos/production/_ext/901008055/plib_usart1.o
 .ARM.attributes
                0x000000000000031d       0x37 build/sam_e70_xult_freertos/production/_ext/810785262/tcpip_heap_alloc.o
 .ARM.attributes
                0x0000000000000354       0x37 build/sam_e70_xult_freertos/production/_ext/810785262/tcpip_heap_internal.o
 .ARM.attributes
                0x000000000000038b       0x37 build/sam_e70_xult_freertos/production/_ext/810785262/helpers.o
 .ARM.attributes
                0x00000000000003c2       0x37 build/sam_e70_xult_freertos/production/_ext/810785262/hash_fnv.o
 .ARM.attributes
                0x00000000000003f9       0x37 build/sam_e70_xult_freertos/production/_ext/810785262/oahash.o
 .ARM.attributes
                0x0000000000000430       0x37 build/sam_e70_xult_freertos/production/_ext/810785262/tcpip_helpers.o
 .ARM.attributes
                0x0000000000000467       0x37 build/sam_e70_xult_freertos/production/_ext/810785262/tcpip_manager.o
 .ARM.attributes
                0x000000000000049e       0x37 build/sam_e70_xult_freertos/production/_ext/810785262/tcpip_notify.o
 .ARM.attributes
                0x00000000000004d5       0x37 build/sam_e70_xult_freertos/production/_ext/810785262/tcpip_packet.o
 .ARM.attributes
                0x000000000000050c       0x37 build/sam_e70_xult_freertos/production/_ext/231871610/sys_time_h2_adapter.o
 .ARM.attributes
                0x0000000000000543       0x37 build/sam_e70_xult_freertos/production/_ext/1775855163/sys_int.o
 .ARM.attributes
                0x000000000000057a       0x37 build/sam_e70_xult_freertos/production/_ext/281930714/osal_freertos.o
 .ARM.attributes
                0x00000000000005b1       0x37 build/sam_e70_xult_freertos/production/_ext/1360937237/app.o
 .ARM.attributes
                0x00000000000005e8       0x37 build/sam_e70_xult_freertos/production/_ext/1552905064/tasks.o
 .ARM.attributes
                0x000000000000061f       0x37 build/sam_e70_xult_freertos/production/_ext/1619526243/drv_gmac.o
 .ARM.attributes
                0x0000000000000656       0x37 build/sam_e70_xult_freertos/production/_ext/1619526243/drv_gmac_lib_samE7x_V7x.o
 .ARM.attributes
                0x000000000000068d       0x37 build/sam_e70_xult_freertos/production/_ext/1360937237/main.o
 .ARM.attributes
                0x00000000000006c4       0x37 build/sam_e70_xult_freertos/production/_ext/1552905064/initialization.o
 .ARM.attributes
                0x00000000000006fb       0x37 build/sam_e70_xult_freertos/production/_ext/1552905064/interrupts.o
 .ARM.attributes
                0x0000000000000732       0x37 build/sam_e70_xult_freertos/production/_ext/1552905064/exceptions.o
 .ARM.attributes
                0x0000000000000769       0x37 build/sam_e70_xult_freertos/production/_ext/45647770/plib_clk.o
 .ARM.attributes
                0x00000000000007a0       0x37 build/sam_e70_xult_freertos/production/_ext/45635366/plib_pio.o
 .ARM.attributes
                0x00000000000007d7       0x37 build/sam_e70_xult_freertos/production/_ext/1414743522/plib_nvic.o
 .ARM.attributes
                0x000000000000080e       0x37 build/sam_e70_xult_freertos/production/_ext/45638026/plib_mpu.o
 .ARM.attributes
                0x0000000000000845       0x37 build/sam_e70_xult_freertos/production/_ext/1552905064/startup_xc32.o
 .ARM.attributes
                0x000000000000087c       0x37 build/sam_e70_xult_freertos/production/_ext/810785262/udp.o
 .ARM.attributes
                0x00000000000008b3       0x37 build/sam_e70_xult_freertos/production/_ext/511568427/drv_miim.o
 .ARM.attributes
                0x00000000000008ea       0x37 build/sam_e70_xult_freertos/production/_ext/1607428259/drv_ethphy.o
 .ARM.attributes
                0x0000000000000921       0x37 build/sam_e70_xult_freertos/production/_ext/1607428259/drv_extphy_smsc8740.o
 .ARM.attributes
                0x0000000000000958       0x37 build/sam_e70_xult_freertos/production/_ext/762686499/sys_console.o
 .ARM.attributes
                0x000000000000098f       0x37 build/sam_e70_xult_freertos/production/_ext/762686499/sys_console_uart.o
 .ARM.attributes
                0x00000000000009c6       0x37 build/sam_e70_xult_freertos/production/_ext/762686499/sys_debug.o
 .ARM.attributes
                0x00000000000009fd       0x37 build/sam_e70_xult_freertos/production/_ext/762686499/sys_command.o
 .ARM.attributes
                0x0000000000000a34       0x37 build/sam_e70_xult_freertos/production/_ext/1552905064/freertos_hooks.o
 .ARM.attributes
                0x0000000000000a6b       0x37 build/sam_e70_xult_freertos/production/_ext/404212886/list.o
 .ARM.attributes
                0x0000000000000aa2       0x37 build/sam_e70_xult_freertos/production/_ext/404212886/queue.o
 .ARM.attributes
                0x0000000000000ad9       0x37 build/sam_e70_xult_freertos/production/_ext/404212886/FreeRTOS_tasks.o
 .ARM.attributes
                0x0000000000000b10       0x37 build/sam_e70_xult_freertos/production/_ext/1665200909/heap_3.o
 .ARM.attributes
                0x0000000000000b47       0x37 build/sam_e70_xult_freertos/production/_ext/977623654/port.o
 .ARM.attributes
                0x0000000000000b7e       0x32 /Applications/microchip/xc32/v2.15/bin/bin/../../lib/gcc/pic32c/6.2.1/../../../../pic32c/lib/v7e-m/fpv5/hard/libpic32c.a(data_init.o)
 .ARM.attributes
                0x0000000000000bb0       0x20 /Applications/microchip/xc32/v2.15/bin/bin/../../lib/gcc/pic32c/6.2.1/v7e-m/fpv5/hard/libgcc.a(_aeabi_uldivmod.o)
 .ARM.attributes
                0x0000000000000bd0       0x32 /Applications/microchip/xc32/v2.15/bin/bin/../../lib/gcc/pic32c/6.2.1/v7e-m/fpv5/hard/libgcc.a(_udivmoddi4.o)
 .ARM.attributes
                0x0000000000000c02       0x20 /Applications/microchip/xc32/v2.15/bin/bin/../../lib/gcc/pic32c/6.2.1/v7e-m/fpv5/hard/libgcc.a(_dvmd_tls.o)
 .ARM.attributes
                0x0000000000000c22       0x32 /Applications/microchip/xc32/v2.15/bin/bin/../../lib/gcc/pic32c/6.2.1/../../../../pic32c/lib/v7e-m/fpv5/hard/libc.a(lib_a-atof.o)
 .ARM.attributes
                0x0000000000000c54       0x32 /Applications/microchip/xc32/v2.15/bin/bin/../../lib/gcc/pic32c/6.2.1/../../../../pic32c/lib/v7e-m/fpv5/hard/libc.a(lib_a-atoi.o)
 .ARM.attributes
                0x0000000000000c86       0x32 /Applications/microchip/xc32/v2.15/bin/bin/../../lib/gcc/pic32c/6.2.1/../../../../pic32c/lib/v7e-m/fpv5/hard/libc.a(lib_a-calloc.o)
 .ARM.attributes
                0x0000000000000cb8       0x32 /Applications/microchip/xc32/v2.15/bin/bin/../../lib/gcc/pic32c/6.2.1/../../../../pic32c/lib/v7e-m/fpv5/hard/libc.a(lib_a-callocr.o)
 .ARM.attributes
                0x0000000000000cea       0x32 /Applications/microchip/xc32/v2.15/bin/bin/../../lib/gcc/pic32c/6.2.1/../../../../pic32c/lib/v7e-m/fpv5/hard/libc.a(lib_a-impure.o)
 .ARM.attributes
                0x0000000000000d1c       0x32 /Applications/microchip/xc32/v2.15/bin/bin/../../lib/gcc/pic32c/6.2.1/../../../../pic32c/lib/v7e-m/fpv5/hard/libc.a(lib_a-init.o)
 .ARM.attributes
                0x0000000000000d4e       0x32 /Applications/microchip/xc32/v2.15/bin/bin/../../lib/gcc/pic32c/6.2.1/../../../../pic32c/lib/v7e-m/fpv5/hard/libc.a(lib_a-locale.o)
 .ARM.attributes
                0x0000000000000d80       0x32 /Applications/microchip/xc32/v2.15/bin/bin/../../lib/gcc/pic32c/6.2.1/../../../../pic32c/lib/v7e-m/fpv5/hard/libc.a(lib_a-malloc.o)
 .ARM.attributes
                0x0000000000000db2       0x32 /Applications/microchip/xc32/v2.15/bin/bin/../../lib/gcc/pic32c/6.2.1/../../../../pic32c/lib/v7e-m/fpv5/hard/libc.a(lib_a-mallocr.o)
 .ARM.attributes
                0x0000000000000de4       0x32 /Applications/microchip/xc32/v2.15/bin/bin/../../lib/gcc/pic32c/6.2.1/../../../../pic32c/lib/v7e-m/fpv5/hard/libc.a(lib_a-mbtowc_r.o)
 .ARM.attributes
                0x0000000000000e16       0x32 /Applications/microchip/xc32/v2.15/bin/bin/../../lib/gcc/pic32c/6.2.1/../../../../pic32c/lib/v7e-m/fpv5/hard/libc.a(lib_a-memcmp.o)
 .ARM.attributes
                0x0000000000000e48       0x1e /Applications/microchip/xc32/v2.15/bin/bin/../../lib/gcc/pic32c/6.2.1/../../../../pic32c/lib/v7e-m/fpv5/hard/libc.a(lib_a-memcpy.o)
 .ARM.attributes
                0x0000000000000e66       0x32 /Applications/microchip/xc32/v2.15/bin/bin/../../lib/gcc/pic32c/6.2.1/../../../../pic32c/lib/v7e-m/fpv5/hard/libc.a(lib_a-memset.o)
 .ARM.attributes
                0x0000000000000e98       0x32 /Applications/microchip/xc32/v2.15/bin/bin/../../lib/gcc/pic32c/6.2.1/../../../../pic32c/lib/v7e-m/fpv5/hard/libc.a(lib_a-mlock.o)
 .ARM.attributes
                0x0000000000000eca       0x32 /Applications/microchip/xc32/v2.15/bin/bin/../../lib/gcc/pic32c/6.2.1/../../../../pic32c/lib/v7e-m/fpv5/hard/libc.a(lib_a-rand.o)
 .ARM.attributes
                0x0000000000000efc       0x32 /Applications/microchip/xc32/v2.15/bin/bin/../../lib/gcc/pic32c/6.2.1/../../../../pic32c/lib/v7e-m/fpv5/hard/libc.a(lib_a-sbrkr.o)
 .ARM.attributes
                0x0000000000000f2e       0x32 /Applications/microchip/xc32/v2.15/bin/bin/../../lib/gcc/pic32c/6.2.1/../../../../pic32c/lib/v7e-m/fpv5/hard/libc.a(lib_a-snprintf.o)
 .ARM.attributes
                0x0000000000000f60       0x32 /Applications/microchip/xc32/v2.15/bin/bin/../../lib/gcc/pic32c/6.2.1/../../../../pic32c/lib/v7e-m/fpv5/hard/libc.a(lib_a-sprintf.o)
 .ARM.attributes
                0x0000000000000f92       0x1e /Applications/microchip/xc32/v2.15/bin/bin/../../lib/gcc/pic32c/6.2.1/../../../../pic32c/lib/v7e-m/fpv5/hard/libc.a(lib_a-strcmp.o)
 .ARM.attributes
                0x0000000000000fb0       0x32 /Applications/microchip/xc32/v2.15/bin/bin/../../lib/gcc/pic32c/6.2.1/../../../../pic32c/lib/v7e-m/fpv5/hard/libc.a(lib_a-strcpy.o)
 .ARM.attributes
                0x0000000000000fe2       0x1e /Applications/microchip/xc32/v2.15/bin/bin/../../lib/gcc/pic32c/6.2.1/../../../../pic32c/lib/v7e-m/fpv5/hard/libc.a(lib_a-strlen.o)
 .ARM.attributes
                0x0000000000001000       0x32 /Applications/microchip/xc32/v2.15/bin/bin/../../lib/gcc/pic32c/6.2.1/../../../../pic32c/lib/v7e-m/fpv5/hard/libc.a(lib_a-strncat.o)
 .ARM.attributes
                0x0000000000001032       0x32 /Applications/microchip/xc32/v2.15/bin/bin/../../lib/gcc/pic32c/6.2.1/../../../../pic32c/lib/v7e-m/fpv5/hard/libc.a(lib_a-strncpy.o)
 .ARM.attributes
                0x0000000000001064       0x32 /Applications/microchip/xc32/v2.15/bin/bin/../../lib/gcc/pic32c/6.2.1/../../../../pic32c/lib/v7e-m/fpv5/hard/libc.a(lib_a-strstr.o)
 .ARM.attributes
                0x0000000000001096       0x32 /Applications/microchip/xc32/v2.15/bin/bin/../../lib/gcc/pic32c/6.2.1/../../../../pic32c/lib/v7e-m/fpv5/hard/libc.a(lib_a-strtod.o)
 .ARM.attributes
                0x00000000000010c8       0x32 /Applications/microchip/xc32/v2.15/bin/bin/../../lib/gcc/pic32c/6.2.1/../../../../pic32c/lib/v7e-m/fpv5/hard/libc.a(lib_a-strtok.o)
 .ARM.attributes
                0x00000000000010fa       0x32 /Applications/microchip/xc32/v2.15/bin/bin/../../lib/gcc/pic32c/6.2.1/../../../../pic32c/lib/v7e-m/fpv5/hard/libc.a(lib_a-strtok_r.o)
 .ARM.attributes
                0x000000000000112c       0x32 /Applications/microchip/xc32/v2.15/bin/bin/../../lib/gcc/pic32c/6.2.1/../../../../pic32c/lib/v7e-m/fpv5/hard/libc.a(lib_a-strtol.o)
 .ARM.attributes
                0x000000000000115e       0x32 /Applications/microchip/xc32/v2.15/bin/bin/../../lib/gcc/pic32c/6.2.1/../../../../pic32c/lib/v7e-m/fpv5/hard/libc.a(lib_a-svfprintf.o)
 .ARM.attributes
                0x0000000000001190       0x32 /Applications/microchip/xc32/v2.15/bin/bin/../../lib/gcc/pic32c/6.2.1/../../../../pic32c/lib/v7e-m/fpv5/hard/libc.a(lib_a-vsnprintf.o)
 .ARM.attributes
                0x00000000000011c2       0x32 /Applications/microchip/xc32/v2.15/bin/bin/../../lib/gcc/pic32c/6.2.1/../../../../pic32c/lib/v7e-m/fpv5/hard/libc.a(lib_a-wctomb_r.o)
 .ARM.attributes
                0x00000000000011f4       0x32 /Applications/microchip/xc32/v2.15/bin/bin/../../lib/gcc/pic32c/6.2.1/../../../../pic32c/lib/v7e-m/fpv5/hard/libc.a(lib_a-__call_atexit.o)
 .ARM.attributes
                0x0000000000001226       0x32 /Applications/microchip/xc32/v2.15/bin/bin/../../lib/gcc/pic32c/6.2.1/../../../../pic32c/lib/v7e-m/fpv5/hard/libc.a(lib_a-atexit.o)
 .ARM.attributes
                0x0000000000001258       0x32 /Applications/microchip/xc32/v2.15/bin/bin/../../lib/gcc/pic32c/6.2.1/../../../../pic32c/lib/v7e-m/fpv5/hard/libc.a(lib_a-ctype_.o)
 .ARM.attributes
                0x000000000000128a       0x32 /Applications/microchip/xc32/v2.15/bin/bin/../../lib/gcc/pic32c/6.2.1/../../../../pic32c/lib/v7e-m/fpv5/hard/libc.a(lib_a-dtoa.o)
 .ARM.attributes
                0x00000000000012bc       0x32 /Applications/microchip/xc32/v2.15/bin/bin/../../lib/gcc/pic32c/6.2.1/../../../../pic32c/lib/v7e-m/fpv5/hard/libc.a(lib_a-fini.o)
 .ARM.attributes
                0x00000000000012ee       0x32 /Applications/microchip/xc32/v2.15/bin/bin/../../lib/gcc/pic32c/6.2.1/../../../../pic32c/lib/v7e-m/fpv5/hard/libc.a(lib_a-freer.o)
 .ARM.attributes
                0x0000000000001320       0x32 /Applications/microchip/xc32/v2.15/bin/bin/../../lib/gcc/pic32c/6.2.1/../../../../pic32c/lib/v7e-m/fpv5/hard/libc.a(lib_a-gdtoa-gethex.o)
 .ARM.attributes
                0x0000000000001352       0x32 /Applications/microchip/xc32/v2.15/bin/bin/../../lib/gcc/pic32c/6.2.1/../../../../pic32c/lib/v7e-m/fpv5/hard/libc.a(lib_a-gdtoa-hexnan.o)
 .ARM.attributes
                0x0000000000001384       0x32 /Applications/microchip/xc32/v2.15/bin/bin/../../lib/gcc/pic32c/6.2.1/../../../../pic32c/lib/v7e-m/fpv5/hard/libc.a(lib_a-localeconv.o)
 .ARM.attributes
                0x00000000000013b6       0x1e /Applications/microchip/xc32/v2.15/bin/bin/../../lib/gcc/pic32c/6.2.1/../../../../pic32c/lib/v7e-m/fpv5/hard/libc.a(lib_a-memchr.o)
 .ARM.attributes
                0x00000000000013d4       0x32 /Applications/microchip/xc32/v2.15/bin/bin/../../lib/gcc/pic32c/6.2.1/../../../../pic32c/lib/v7e-m/fpv5/hard/libc.a(lib_a-mprec.o)
 .ARM.attributes
                0x0000000000001406       0x32 /Applications/microchip/xc32/v2.15/bin/bin/../../lib/gcc/pic32c/6.2.1/../../../../pic32c/lib/v7e-m/fpv5/hard/libc.a(lib_a-reent.o)
 .ARM.attributes
                0x0000000000001438       0x32 /Applications/microchip/xc32/v2.15/bin/bin/../../lib/gcc/pic32c/6.2.1/../../../../pic32c/lib/v7e-m/fpv5/hard/libc.a(lib_a-s_frexp.o)
 .ARM.attributes
                0x000000000000146a       0x32 /Applications/microchip/xc32/v2.15/bin/bin/../../lib/gcc/pic32c/6.2.1/../../../../pic32c/lib/v7e-m/fpv5/hard/libc.a(lib_a-strchr.o)
 .ARM.attributes
                0x000000000000149c       0x32 /Applications/microchip/xc32/v2.15/bin/bin/../../lib/gcc/pic32c/6.2.1/../../../../pic32c/lib/v7e-m/fpv5/hard/libc.a(lib_a-strncmp.o)
 .ARM.attributes
                0x00000000000014ce       0x32 /Applications/microchip/xc32/v2.15/bin/bin/../../lib/gcc/pic32c/6.2.1/../../../../pic32c/lib/v7e-m/fpv5/hard/libc.a(lib_a-svfiprintf.o)
 .ARM.attributes
                0x0000000000001500       0x32 /Applications/microchip/xc32/v2.15/bin/bin/../../lib/gcc/pic32c/6.2.1/../../../../pic32c/lib/v7e-m/fpv5/hard/libc.a(lib_a-__atexit.o)
 .ARM.attributes
                0x0000000000001532       0x32 /Applications/microchip/xc32/v2.15/bin/bin/../../lib/gcc/pic32c/6.2.1/../../../../pic32c/lib/v7e-m/fpv5/hard/libc.a(lib_a-memmove.o)
 .ARM.attributes
                0x0000000000001564       0x32 /Applications/microchip/xc32/v2.15/bin/bin/../../lib/gcc/pic32c/6.2.1/../../../../pic32c/lib/v7e-m/fpv5/hard/libc.a(lib_a-reallocr.o)
 .ARM.attributes
                0x0000000000001596       0x32 /Applications/microchip/xc32/v2.15/bin/bin/../../lib/gcc/pic32c/6.2.1/../../../../pic32c/lib/v7e-m/fpv5/hard/libpic32c.a(sbrk.o)
 .ARM.attributes
                0x00000000000015c8       0x20 /Applications/microchip/xc32/v2.15/bin/bin/../../lib/gcc/pic32c/6.2.1/v7e-m/fpv5/hard/crtn.o

.debug_info     0x0000000000000000    0xe1568
 .debug_info    0x0000000000000000     0x4b56 build/sam_e70_xult_freertos/production/_ext/1360937237/app_commands.o
 .debug_info    0x0000000000004b56     0x92bd build/sam_e70_xult_freertos/production/_ext/810785262/dns.o
 .debug_info    0x000000000000de13     0x55ae build/sam_e70_xult_freertos/production/_ext/810785262/icmp.o
 .debug_info    0x00000000000133c1     0xc943 build/sam_e70_xult_freertos/production/_ext/810785262/tcp.o
 .debug_info    0x000000000001fd04     0xaea4 build/sam_e70_xult_freertos/production/_ext/810785262/dhcp.o
 .debug_info    0x000000000002aba8     0x8683 build/sam_e70_xult_freertos/production/_ext/810785262/arp.o
 .debug_info    0x000000000003322b      0x903 build/sam_e70_xult_freertos/production/_ext/1245453995/plib_tc0.o
 .debug_info    0x0000000000033b2e     0x3489 build/sam_e70_xult_freertos/production/_ext/912870411/sys_time.o
 .debug_info    0x0000000000036fb7     0x14d7 build/sam_e70_xult_freertos/production/_ext/683629640/bsp.o
 .debug_info    0x000000000003848e     0xa46f build/sam_e70_xult_freertos/production/_ext/810785262/tcpip_commands.o
 .debug_info    0x00000000000428fd      0xbb3 build/sam_e70_xult_freertos/production/_ext/901805035/plib_twihs0.o
 .debug_info    0x00000000000434b0     0x7fe4 build/sam_e70_xult_freertos/production/_ext/810785262/ipv4.o
 .debug_info    0x000000000004b494      0xed1 build/sam_e70_xult_freertos/production/_ext/901008055/plib_usart1.o
 .debug_info    0x000000000004c365     0x4622 build/sam_e70_xult_freertos/production/_ext/810785262/tcpip_heap_alloc.o
 .debug_info    0x0000000000050987     0x4f9c build/sam_e70_xult_freertos/production/_ext/810785262/tcpip_heap_internal.o
 .debug_info    0x0000000000055923     0x11a6 build/sam_e70_xult_freertos/production/_ext/810785262/helpers.o
 .debug_info    0x0000000000056ac9      0xf0c build/sam_e70_xult_freertos/production/_ext/810785262/hash_fnv.o
 .debug_info    0x00000000000579d5     0x1586 build/sam_e70_xult_freertos/production/_ext/810785262/oahash.o
 .debug_info    0x0000000000058f5b     0x6ea3 build/sam_e70_xult_freertos/production/_ext/810785262/tcpip_helpers.o
 .debug_info    0x000000000005fdfe     0xcb7c build/sam_e70_xult_freertos/production/_ext/810785262/tcpip_manager.o
 .debug_info    0x000000000006c97a     0x44b6 build/sam_e70_xult_freertos/production/_ext/810785262/tcpip_notify.o
 .debug_info    0x0000000000070e30     0x54b6 build/sam_e70_xult_freertos/production/_ext/810785262/tcpip_packet.o
 .debug_info    0x00000000000762e6      0x508 build/sam_e70_xult_freertos/production/_ext/231871610/sys_time_h2_adapter.o
 .debug_info    0x00000000000767ee      0xc89 build/sam_e70_xult_freertos/production/_ext/1775855163/sys_int.o
 .debug_info    0x0000000000077477      0xa52 build/sam_e70_xult_freertos/production/_ext/281930714/osal_freertos.o
 .debug_info    0x0000000000077ec9     0x614f build/sam_e70_xult_freertos/production/_ext/1360937237/app.o
 .debug_info    0x000000000007e018     0x4814 build/sam_e70_xult_freertos/production/_ext/1552905064/tasks.o
 .debug_info    0x000000000008282c     0xa739 build/sam_e70_xult_freertos/production/_ext/1619526243/drv_gmac.o
 .debug_info    0x000000000008cf65     0x8d19 build/sam_e70_xult_freertos/production/_ext/1619526243/drv_gmac_lib_samE7x_V7x.o
 .debug_info    0x0000000000095c7e     0x4474 build/sam_e70_xult_freertos/production/_ext/1360937237/main.o
 .debug_info    0x000000000009a0f2     0x70d8 build/sam_e70_xult_freertos/production/_ext/1552905064/initialization.o
 .debug_info    0x00000000000a11ca     0x4f49 build/sam_e70_xult_freertos/production/_ext/1552905064/interrupts.o
 .debug_info    0x00000000000a6113     0x4522 build/sam_e70_xult_freertos/production/_ext/1552905064/exceptions.o
 .debug_info    0x00000000000aa635      0x8b1 build/sam_e70_xult_freertos/production/_ext/45647770/plib_clk.o
 .debug_info    0x00000000000aaee6      0xe8f build/sam_e70_xult_freertos/production/_ext/45635366/plib_pio.o
 .debug_info    0x00000000000abd75      0xfcc build/sam_e70_xult_freertos/production/_ext/1414743522/plib_nvic.o
 .debug_info    0x00000000000acd41      0x8af build/sam_e70_xult_freertos/production/_ext/45638026/plib_mpu.o
 .debug_info    0x00000000000ad5f0     0x4e2b build/sam_e70_xult_freertos/production/_ext/1552905064/startup_xc32.o
 .debug_info    0x00000000000b241b     0xa47c build/sam_e70_xult_freertos/production/_ext/810785262/udp.o
 .debug_info    0x00000000000bc897     0x539a build/sam_e70_xult_freertos/production/_ext/511568427/drv_miim.o
 .debug_info    0x00000000000c1c31     0x841a build/sam_e70_xult_freertos/production/_ext/1607428259/drv_ethphy.o
 .debug_info    0x00000000000ca04b     0x31ca build/sam_e70_xult_freertos/production/_ext/1607428259/drv_extphy_smsc8740.o
 .debug_info    0x00000000000cd215     0x1910 build/sam_e70_xult_freertos/production/_ext/762686499/sys_console.o
 .debug_info    0x00000000000ceb25     0x5da2 build/sam_e70_xult_freertos/production/_ext/762686499/sys_console_uart.o
 .debug_info    0x00000000000d48c7     0x1465 build/sam_e70_xult_freertos/production/_ext/762686499/sys_debug.o
 .debug_info    0x00000000000d5d2c     0x2e32 build/sam_e70_xult_freertos/production/_ext/762686499/sys_command.o
 .debug_info    0x00000000000d8b5e      0x4be build/sam_e70_xult_freertos/production/_ext/1552905064/freertos_hooks.o
 .debug_info    0x00000000000d901c     0x10d6 build/sam_e70_xult_freertos/production/_ext/404212886/list.o
 .debug_info    0x00000000000da0f2     0x28f4 build/sam_e70_xult_freertos/production/_ext/404212886/queue.o
 .debug_info    0x00000000000dc9e6     0x3592 build/sam_e70_xult_freertos/production/_ext/404212886/FreeRTOS_tasks.o
 .debug_info    0x00000000000dff78      0xf12 build/sam_e70_xult_freertos/production/_ext/1665200909/heap_3.o
 .debug_info    0x00000000000e0e8a      0x6de build/sam_e70_xult_freertos/production/_ext/977623654/port.o

.debug_abbrev   0x0000000000000000     0xb36c
 .debug_abbrev  0x0000000000000000      0x30c build/sam_e70_xult_freertos/production/_ext/1360937237/app_commands.o
 .debug_abbrev  0x000000000000030c      0x5e9 build/sam_e70_xult_freertos/production/_ext/810785262/dns.o
 .debug_abbrev  0x00000000000008f5      0x40a build/sam_e70_xult_freertos/production/_ext/810785262/icmp.o
 .debug_abbrev  0x0000000000000cff      0x5d1 build/sam_e70_xult_freertos/production/_ext/810785262/tcp.o
 .debug_abbrev  0x00000000000012d0      0x592 build/sam_e70_xult_freertos/production/_ext/810785262/dhcp.o
 .debug_abbrev  0x0000000000001862      0x54c build/sam_e70_xult_freertos/production/_ext/810785262/arp.o
 .debug_abbrev  0x0000000000001dae      0x182 build/sam_e70_xult_freertos/production/_ext/1245453995/plib_tc0.o
 .debug_abbrev  0x0000000000001f30      0x572 build/sam_e70_xult_freertos/production/_ext/912870411/sys_time.o
 .debug_abbrev  0x00000000000024a2      0x1a3 build/sam_e70_xult_freertos/production/_ext/683629640/bsp.o
 .debug_abbrev  0x0000000000002645      0x4c3 build/sam_e70_xult_freertos/production/_ext/810785262/tcpip_commands.o
 .debug_abbrev  0x0000000000002b08      0x2ab build/sam_e70_xult_freertos/production/_ext/901805035/plib_twihs0.o
 .debug_abbrev  0x0000000000002db3      0x50b build/sam_e70_xult_freertos/production/_ext/810785262/ipv4.o
 .debug_abbrev  0x00000000000032be      0x2c4 build/sam_e70_xult_freertos/production/_ext/901008055/plib_usart1.o
 .debug_abbrev  0x0000000000003582      0x299 build/sam_e70_xult_freertos/production/_ext/810785262/tcpip_heap_alloc.o
 .debug_abbrev  0x000000000000381b      0x3f2 build/sam_e70_xult_freertos/production/_ext/810785262/tcpip_heap_internal.o
 .debug_abbrev  0x0000000000003c0d      0x2ae build/sam_e70_xult_freertos/production/_ext/810785262/helpers.o
 .debug_abbrev  0x0000000000003ebb      0x1d0 build/sam_e70_xult_freertos/production/_ext/810785262/hash_fnv.o
 .debug_abbrev  0x000000000000408b      0x34c build/sam_e70_xult_freertos/production/_ext/810785262/oahash.o
 .debug_abbrev  0x00000000000043d7      0x4fc build/sam_e70_xult_freertos/production/_ext/810785262/tcpip_helpers.o
 .debug_abbrev  0x00000000000048d3      0x639 build/sam_e70_xult_freertos/production/_ext/810785262/tcpip_manager.o
 .debug_abbrev  0x0000000000004f0c      0x2eb build/sam_e70_xult_freertos/production/_ext/810785262/tcpip_notify.o
 .debug_abbrev  0x00000000000051f7      0x48f build/sam_e70_xult_freertos/production/_ext/810785262/tcpip_packet.o
 .debug_abbrev  0x0000000000005686      0x128 build/sam_e70_xult_freertos/production/_ext/231871610/sys_time_h2_adapter.o
 .debug_abbrev  0x00000000000057ae      0x200 build/sam_e70_xult_freertos/production/_ext/1775855163/sys_int.o
 .debug_abbrev  0x00000000000059ae      0x19f build/sam_e70_xult_freertos/production/_ext/281930714/osal_freertos.o
 .debug_abbrev  0x0000000000005b4d      0x3ec build/sam_e70_xult_freertos/production/_ext/1360937237/app.o
 .debug_abbrev  0x0000000000005f39      0x2ba build/sam_e70_xult_freertos/production/_ext/1552905064/tasks.o
 .debug_abbrev  0x00000000000061f3      0x618 build/sam_e70_xult_freertos/production/_ext/1619526243/drv_gmac.o
 .debug_abbrev  0x000000000000680b      0x540 build/sam_e70_xult_freertos/production/_ext/1619526243/drv_gmac_lib_samE7x_V7x.o
 .debug_abbrev  0x0000000000006d4b      0x270 build/sam_e70_xult_freertos/production/_ext/1360937237/main.o
 .debug_abbrev  0x0000000000006fbb      0x32a build/sam_e70_xult_freertos/production/_ext/1552905064/initialization.o
 .debug_abbrev  0x00000000000072e5      0x247 build/sam_e70_xult_freertos/production/_ext/1552905064/interrupts.o
 .debug_abbrev  0x000000000000752c      0x236 build/sam_e70_xult_freertos/production/_ext/1552905064/exceptions.o
 .debug_abbrev  0x0000000000007762       0xfa build/sam_e70_xult_freertos/production/_ext/45647770/plib_clk.o
 .debug_abbrev  0x000000000000785c      0x160 build/sam_e70_xult_freertos/production/_ext/45635366/plib_pio.o
 .debug_abbrev  0x00000000000079bc      0x179 build/sam_e70_xult_freertos/production/_ext/1414743522/plib_nvic.o
 .debug_abbrev  0x0000000000007b35       0xcd build/sam_e70_xult_freertos/production/_ext/45638026/plib_mpu.o
 .debug_abbrev  0x0000000000007c02      0x366 build/sam_e70_xult_freertos/production/_ext/1552905064/startup_xc32.o
 .debug_abbrev  0x0000000000007f68      0x5bc build/sam_e70_xult_freertos/production/_ext/810785262/udp.o
 .debug_abbrev  0x0000000000008524      0x683 build/sam_e70_xult_freertos/production/_ext/511568427/drv_miim.o
 .debug_abbrev  0x0000000000008ba7      0x58f build/sam_e70_xult_freertos/production/_ext/1607428259/drv_ethphy.o
 .debug_abbrev  0x0000000000009136      0x2d0 build/sam_e70_xult_freertos/production/_ext/1607428259/drv_extphy_smsc8740.o
 .debug_abbrev  0x0000000000009406      0x299 build/sam_e70_xult_freertos/production/_ext/762686499/sys_console.o
 .debug_abbrev  0x000000000000969f      0x51a build/sam_e70_xult_freertos/production/_ext/762686499/sys_console_uart.o
 .debug_abbrev  0x0000000000009bb9      0x2cb build/sam_e70_xult_freertos/production/_ext/762686499/sys_debug.o
 .debug_abbrev  0x0000000000009e84      0x4d4 build/sam_e70_xult_freertos/production/_ext/762686499/sys_command.o
 .debug_abbrev  0x000000000000a358      0x121 build/sam_e70_xult_freertos/production/_ext/1552905064/freertos_hooks.o
 .debug_abbrev  0x000000000000a479      0x231 build/sam_e70_xult_freertos/production/_ext/404212886/list.o
 .debug_abbrev  0x000000000000a6aa      0x3f1 build/sam_e70_xult_freertos/production/_ext/404212886/queue.o
 .debug_abbrev  0x000000000000aa9b      0x49e build/sam_e70_xult_freertos/production/_ext/404212886/FreeRTOS_tasks.o
 .debug_abbrev  0x000000000000af39      0x241 build/sam_e70_xult_freertos/production/_ext/1665200909/heap_3.o
 .debug_abbrev  0x000000000000b17a      0x1f2 build/sam_e70_xult_freertos/production/_ext/977623654/port.o

.debug_loc      0x0000000000000000    0x33fa8
 .debug_loc     0x0000000000000000      0x143 build/sam_e70_xult_freertos/production/_ext/1360937237/app_commands.o
 .debug_loc     0x0000000000000143     0x2cf8 build/sam_e70_xult_freertos/production/_ext/810785262/dns.o
 .debug_loc     0x0000000000002e3b      0x37c build/sam_e70_xult_freertos/production/_ext/810785262/icmp.o
 .debug_loc     0x00000000000031b7     0x65a2 build/sam_e70_xult_freertos/production/_ext/810785262/tcp.o
 .debug_loc     0x0000000000009759     0x2d25 build/sam_e70_xult_freertos/production/_ext/810785262/dhcp.o
 .debug_loc     0x000000000000c47e     0x2a93 build/sam_e70_xult_freertos/production/_ext/810785262/arp.o
 .debug_loc     0x000000000000ef11       0x42 build/sam_e70_xult_freertos/production/_ext/1245453995/plib_tc0.o
 .debug_loc     0x000000000000ef53     0x1e63 build/sam_e70_xult_freertos/production/_ext/912870411/sys_time.o
 .debug_loc     0x0000000000010db6     0x2207 build/sam_e70_xult_freertos/production/_ext/810785262/tcpip_commands.o
 .debug_loc     0x0000000000012fbd      0x3a1 build/sam_e70_xult_freertos/production/_ext/901805035/plib_twihs0.o
 .debug_loc     0x000000000001335e     0x209e build/sam_e70_xult_freertos/production/_ext/810785262/ipv4.o
 .debug_loc     0x00000000000153fc      0x4ea build/sam_e70_xult_freertos/production/_ext/901008055/plib_usart1.o
 .debug_loc     0x00000000000158e6      0x1fe build/sam_e70_xult_freertos/production/_ext/810785262/tcpip_heap_alloc.o
 .debug_loc     0x0000000000015ae4      0xad5 build/sam_e70_xult_freertos/production/_ext/810785262/tcpip_heap_internal.o
 .debug_loc     0x00000000000165b9      0x4be build/sam_e70_xult_freertos/production/_ext/810785262/helpers.o
 .debug_loc     0x0000000000016a77      0x278 build/sam_e70_xult_freertos/production/_ext/810785262/hash_fnv.o
 .debug_loc     0x0000000000016cef      0x3ce build/sam_e70_xult_freertos/production/_ext/810785262/oahash.o
 .debug_loc     0x00000000000170bd     0x2c37 build/sam_e70_xult_freertos/production/_ext/810785262/tcpip_helpers.o
 .debug_loc     0x0000000000019cf4     0x5561 build/sam_e70_xult_freertos/production/_ext/810785262/tcpip_manager.o
 .debug_loc     0x000000000001f255      0x2dc build/sam_e70_xult_freertos/production/_ext/810785262/tcpip_notify.o
 .debug_loc     0x000000000001f531      0xa29 build/sam_e70_xult_freertos/production/_ext/810785262/tcpip_packet.o
 .debug_loc     0x000000000001ff5a       0xde build/sam_e70_xult_freertos/production/_ext/231871610/sys_time_h2_adapter.o
 .debug_loc     0x0000000000020038       0xe9 build/sam_e70_xult_freertos/production/_ext/1775855163/sys_int.o
 .debug_loc     0x0000000000020121      0x5b4 build/sam_e70_xult_freertos/production/_ext/281930714/osal_freertos.o
 .debug_loc     0x00000000000206d5      0x4c8 build/sam_e70_xult_freertos/production/_ext/1360937237/app.o
 .debug_loc     0x0000000000020b9d      0x13c build/sam_e70_xult_freertos/production/_ext/1552905064/tasks.o
 .debug_loc     0x0000000000020cd9     0x1e66 build/sam_e70_xult_freertos/production/_ext/1619526243/drv_gmac.o
 .debug_loc     0x0000000000022b3f     0x1a8f build/sam_e70_xult_freertos/production/_ext/1619526243/drv_gmac_lib_samE7x_V7x.o
 .debug_loc     0x00000000000245ce       0x20 build/sam_e70_xult_freertos/production/_ext/1360937237/main.o
 .debug_loc     0x00000000000245ee       0x79 build/sam_e70_xult_freertos/production/_ext/1552905064/initialization.o
 .debug_loc     0x0000000000024667       0x84 build/sam_e70_xult_freertos/production/_ext/45635366/plib_pio.o
 .debug_loc     0x00000000000246eb      0x158 build/sam_e70_xult_freertos/production/_ext/1414743522/plib_nvic.o
 .debug_loc     0x0000000000024843       0x6d build/sam_e70_xult_freertos/production/_ext/1552905064/startup_xc32.o
 .debug_loc     0x00000000000248b0     0x3ea6 build/sam_e70_xult_freertos/production/_ext/810785262/udp.o
 .debug_loc     0x0000000000028756     0x2421 build/sam_e70_xult_freertos/production/_ext/511568427/drv_miim.o
 .debug_loc     0x000000000002ab77     0x38bc build/sam_e70_xult_freertos/production/_ext/1607428259/drv_ethphy.o
 .debug_loc     0x000000000002e433      0x29b build/sam_e70_xult_freertos/production/_ext/1607428259/drv_extphy_smsc8740.o
 .debug_loc     0x000000000002e6ce      0x676 build/sam_e70_xult_freertos/production/_ext/762686499/sys_console.o
 .debug_loc     0x000000000002ed44      0xb14 build/sam_e70_xult_freertos/production/_ext/762686499/sys_console_uart.o
 .debug_loc     0x000000000002f858      0x142 build/sam_e70_xult_freertos/production/_ext/762686499/sys_debug.o
 .debug_loc     0x000000000002f99a     0x1257 build/sam_e70_xult_freertos/production/_ext/762686499/sys_command.o
 .debug_loc     0x0000000000030bf1       0x7a build/sam_e70_xult_freertos/production/_ext/1552905064/freertos_hooks.o
 .debug_loc     0x0000000000030c6b       0x9c build/sam_e70_xult_freertos/production/_ext/404212886/list.o
 .debug_loc     0x0000000000030d07     0x1335 build/sam_e70_xult_freertos/production/_ext/404212886/queue.o
 .debug_loc     0x000000000003203c     0x1d8b build/sam_e70_xult_freertos/production/_ext/404212886/FreeRTOS_tasks.o
 .debug_loc     0x0000000000033dc7       0xbf build/sam_e70_xult_freertos/production/_ext/1665200909/heap_3.o
 .debug_loc     0x0000000000033e86      0x122 build/sam_e70_xult_freertos/production/_ext/977623654/port.o

.debug_aranges  0x0000000000000000     0x22d8
 .debug_aranges
                0x0000000000000000       0x28 build/sam_e70_xult_freertos/production/_ext/1360937237/app_commands.o
 .debug_aranges
                0x0000000000000028      0x140 build/sam_e70_xult_freertos/production/_ext/810785262/dns.o
 .debug_aranges
                0x0000000000000168       0x38 build/sam_e70_xult_freertos/production/_ext/810785262/icmp.o
 .debug_aranges
                0x00000000000001a0      0x220 build/sam_e70_xult_freertos/production/_ext/810785262/tcp.o
 .debug_aranges
                0x00000000000003c0      0x188 build/sam_e70_xult_freertos/production/_ext/810785262/dhcp.o
 .debug_aranges
                0x0000000000000548      0x110 build/sam_e70_xult_freertos/production/_ext/810785262/arp.o
 .debug_aranges
                0x0000000000000658       0x68 build/sam_e70_xult_freertos/production/_ext/1245453995/plib_tc0.o
 .debug_aranges
                0x00000000000006c0      0x130 build/sam_e70_xult_freertos/production/_ext/912870411/sys_time.o
 .debug_aranges
                0x00000000000007f0       0x20 build/sam_e70_xult_freertos/production/_ext/683629640/bsp.o
 .debug_aranges
                0x0000000000000810       0xb8 build/sam_e70_xult_freertos/production/_ext/810785262/tcpip_commands.o
 .debug_aranges
                0x00000000000008c8       0x68 build/sam_e70_xult_freertos/production/_ext/901805035/plib_twihs0.o
 .debug_aranges
                0x0000000000000930       0xc0 build/sam_e70_xult_freertos/production/_ext/810785262/ipv4.o
 .debug_aranges
                0x00000000000009f0       0x78 build/sam_e70_xult_freertos/production/_ext/901008055/plib_usart1.o
 .debug_aranges
                0x0000000000000a68       0x48 build/sam_e70_xult_freertos/production/_ext/810785262/tcpip_heap_alloc.o
 .debug_aranges
                0x0000000000000ab0       0x68 build/sam_e70_xult_freertos/production/_ext/810785262/tcpip_heap_internal.o
 .debug_aranges
                0x0000000000000b18       0x48 build/sam_e70_xult_freertos/production/_ext/810785262/helpers.o
 .debug_aranges
                0x0000000000000b60       0x28 build/sam_e70_xult_freertos/production/_ext/810785262/hash_fnv.o
 .debug_aranges
                0x0000000000000b88       0x50 build/sam_e70_xult_freertos/production/_ext/810785262/oahash.o
 .debug_aranges
                0x0000000000000bd8      0x218 build/sam_e70_xult_freertos/production/_ext/810785262/tcpip_helpers.o
 .debug_aranges
                0x0000000000000df0      0x380 build/sam_e70_xult_freertos/production/_ext/810785262/tcpip_manager.o
 .debug_aranges
                0x0000000000001170       0x40 build/sam_e70_xult_freertos/production/_ext/810785262/tcpip_notify.o
 .debug_aranges
                0x00000000000011b0       0x78 build/sam_e70_xult_freertos/production/_ext/810785262/tcpip_packet.o
 .debug_aranges
                0x0000000000001228       0x28 build/sam_e70_xult_freertos/production/_ext/231871610/sys_time_h2_adapter.o
 .debug_aranges
                0x0000000000001250       0x40 build/sam_e70_xult_freertos/production/_ext/1775855163/sys_int.o
 .debug_aranges
                0x0000000000001290       0x80 build/sam_e70_xult_freertos/production/_ext/281930714/osal_freertos.o
 .debug_aranges
                0x0000000000001310       0x38 build/sam_e70_xult_freertos/production/_ext/1360937237/app.o
 .debug_aranges
                0x0000000000001348       0x40 build/sam_e70_xult_freertos/production/_ext/1552905064/tasks.o
 .debug_aranges
                0x0000000000001388      0x280 build/sam_e70_xult_freertos/production/_ext/1619526243/drv_gmac.o
 .debug_aranges
                0x0000000000001608       0xb0 build/sam_e70_xult_freertos/production/_ext/1619526243/drv_gmac_lib_samE7x_V7x.o
 .debug_aranges
                0x00000000000016b8       0x20 build/sam_e70_xult_freertos/production/_ext/1360937237/main.o
 .debug_aranges
                0x00000000000016d8       0x28 build/sam_e70_xult_freertos/production/_ext/1552905064/initialization.o
 .debug_aranges
                0x0000000000001700       0x20 build/sam_e70_xult_freertos/production/_ext/1552905064/interrupts.o
 .debug_aranges
                0x0000000000001720       0x48 build/sam_e70_xult_freertos/production/_ext/1552905064/exceptions.o
 .debug_aranges
                0x0000000000001768       0x20 build/sam_e70_xult_freertos/production/_ext/45647770/plib_clk.o
 .debug_aranges
                0x0000000000001788       0x60 build/sam_e70_xult_freertos/production/_ext/45635366/plib_pio.o
 .debug_aranges
                0x00000000000017e8       0x20 build/sam_e70_xult_freertos/production/_ext/1414743522/plib_nvic.o
 .debug_aranges
                0x0000000000001808       0x20 build/sam_e70_xult_freertos/production/_ext/45638026/plib_mpu.o
 .debug_aranges
                0x0000000000001828       0x20 build/sam_e70_xult_freertos/production/_ext/1552905064/startup_xc32.o
 .debug_aranges
                0x0000000000001848      0x1c0 build/sam_e70_xult_freertos/production/_ext/810785262/udp.o
 .debug_aranges
                0x0000000000001a08       0xe8 build/sam_e70_xult_freertos/production/_ext/511568427/drv_miim.o
 .debug_aranges
                0x0000000000001af0      0x278 build/sam_e70_xult_freertos/production/_ext/1607428259/drv_ethphy.o
 .debug_aranges
                0x0000000000001d68       0x30 build/sam_e70_xult_freertos/production/_ext/1607428259/drv_extphy_smsc8740.o
 .debug_aranges
                0x0000000000001d98       0x50 build/sam_e70_xult_freertos/production/_ext/762686499/sys_console.o
 .debug_aranges
                0x0000000000001de8       0x78 build/sam_e70_xult_freertos/production/_ext/762686499/sys_console_uart.o
 .debug_aranges
                0x0000000000001e60       0x50 build/sam_e70_xult_freertos/production/_ext/762686499/sys_debug.o
 .debug_aranges
                0x0000000000001eb0       0xd0 build/sam_e70_xult_freertos/production/_ext/762686499/sys_command.o
 .debug_aranges
                0x0000000000001f80       0x40 build/sam_e70_xult_freertos/production/_ext/1552905064/freertos_hooks.o
 .debug_aranges
                0x0000000000001fc0       0x40 build/sam_e70_xult_freertos/production/_ext/404212886/list.o
 .debug_aranges
                0x0000000000002000       0xc8 build/sam_e70_xult_freertos/production/_ext/404212886/queue.o
 .debug_aranges
                0x00000000000020c8      0x170 build/sam_e70_xult_freertos/production/_ext/404212886/FreeRTOS_tasks.o
 .debug_aranges
                0x0000000000002238       0x28 build/sam_e70_xult_freertos/production/_ext/1665200909/heap_3.o
 .debug_aranges
                0x0000000000002260       0x78 build/sam_e70_xult_freertos/production/_ext/977623654/port.o

.debug_ranges   0x0000000000000000     0x3828
 .debug_ranges  0x0000000000000000       0x18 build/sam_e70_xult_freertos/production/_ext/1360937237/app_commands.o
 .debug_ranges  0x0000000000000018      0x238 build/sam_e70_xult_freertos/production/_ext/810785262/dns.o
 .debug_ranges  0x0000000000000250       0x40 build/sam_e70_xult_freertos/production/_ext/810785262/icmp.o
 .debug_ranges  0x0000000000000290      0x700 build/sam_e70_xult_freertos/production/_ext/810785262/tcp.o
 .debug_ranges  0x0000000000000990      0x2f0 build/sam_e70_xult_freertos/production/_ext/810785262/dhcp.o
 .debug_ranges  0x0000000000000c80      0x1c0 build/sam_e70_xult_freertos/production/_ext/810785262/arp.o
 .debug_ranges  0x0000000000000e40       0x58 build/sam_e70_xult_freertos/production/_ext/1245453995/plib_tc0.o
 .debug_ranges  0x0000000000000e98      0x168 build/sam_e70_xult_freertos/production/_ext/912870411/sys_time.o
 .debug_ranges  0x0000000000001000       0x10 build/sam_e70_xult_freertos/production/_ext/683629640/bsp.o
 .debug_ranges  0x0000000000001010      0x148 build/sam_e70_xult_freertos/production/_ext/810785262/tcpip_commands.o
 .debug_ranges  0x0000000000001158       0x58 build/sam_e70_xult_freertos/production/_ext/901805035/plib_twihs0.o
 .debug_ranges  0x00000000000011b0      0x230 build/sam_e70_xult_freertos/production/_ext/810785262/ipv4.o
 .debug_ranges  0x00000000000013e0       0x80 build/sam_e70_xult_freertos/production/_ext/901008055/plib_usart1.o
 .debug_ranges  0x0000000000001460       0x38 build/sam_e70_xult_freertos/production/_ext/810785262/tcpip_heap_alloc.o
 .debug_ranges  0x0000000000001498       0x58 build/sam_e70_xult_freertos/production/_ext/810785262/tcpip_heap_internal.o
 .debug_ranges  0x00000000000014f0       0x38 build/sam_e70_xult_freertos/production/_ext/810785262/helpers.o
 .debug_ranges  0x0000000000001528       0x18 build/sam_e70_xult_freertos/production/_ext/810785262/hash_fnv.o
 .debug_ranges  0x0000000000001540       0x40 build/sam_e70_xult_freertos/production/_ext/810785262/oahash.o
 .debug_ranges  0x0000000000001580      0x258 build/sam_e70_xult_freertos/production/_ext/810785262/tcpip_helpers.o
 .debug_ranges  0x00000000000017d8      0x6c0 build/sam_e70_xult_freertos/production/_ext/810785262/tcpip_manager.o
 .debug_ranges  0x0000000000001e98       0x30 build/sam_e70_xult_freertos/production/_ext/810785262/tcpip_notify.o
 .debug_ranges  0x0000000000001ec8       0x80 build/sam_e70_xult_freertos/production/_ext/810785262/tcpip_packet.o
 .debug_ranges  0x0000000000001f48       0x18 build/sam_e70_xult_freertos/production/_ext/231871610/sys_time_h2_adapter.o
 .debug_ranges  0x0000000000001f60       0x30 build/sam_e70_xult_freertos/production/_ext/1775855163/sys_int.o
 .debug_ranges  0x0000000000001f90       0x70 build/sam_e70_xult_freertos/production/_ext/281930714/osal_freertos.o
 .debug_ranges  0x0000000000002000       0x70 build/sam_e70_xult_freertos/production/_ext/1360937237/app.o
 .debug_ranges  0x0000000000002070       0x30 build/sam_e70_xult_freertos/production/_ext/1552905064/tasks.o
 .debug_ranges  0x00000000000020a0      0x320 build/sam_e70_xult_freertos/production/_ext/1619526243/drv_gmac.o
 .debug_ranges  0x00000000000023c0      0x118 build/sam_e70_xult_freertos/production/_ext/1619526243/drv_gmac_lib_samE7x_V7x.o
 .debug_ranges  0x00000000000024d8       0x10 build/sam_e70_xult_freertos/production/_ext/1360937237/main.o
 .debug_ranges  0x00000000000024e8       0x18 build/sam_e70_xult_freertos/production/_ext/1552905064/initialization.o
 .debug_ranges  0x0000000000002500       0x10 build/sam_e70_xult_freertos/production/_ext/1552905064/interrupts.o
 .debug_ranges  0x0000000000002510       0x38 build/sam_e70_xult_freertos/production/_ext/1552905064/exceptions.o
 .debug_ranges  0x0000000000002548       0x10 build/sam_e70_xult_freertos/production/_ext/45647770/plib_clk.o
 .debug_ranges  0x0000000000002558       0x50 build/sam_e70_xult_freertos/production/_ext/45635366/plib_pio.o
 .debug_ranges  0x00000000000025a8       0x10 build/sam_e70_xult_freertos/production/_ext/1414743522/plib_nvic.o
 .debug_ranges  0x00000000000025b8       0x10 build/sam_e70_xult_freertos/production/_ext/45638026/plib_mpu.o
 .debug_ranges  0x00000000000025c8       0x10 build/sam_e70_xult_freertos/production/_ext/1552905064/startup_xc32.o
 .debug_ranges  0x00000000000025d8      0x3f0 build/sam_e70_xult_freertos/production/_ext/810785262/udp.o
 .debug_ranges  0x00000000000029c8      0x348 build/sam_e70_xult_freertos/production/_ext/511568427/drv_miim.o
 .debug_ranges  0x0000000000002d10      0x2e0 build/sam_e70_xult_freertos/production/_ext/1607428259/drv_ethphy.o
 .debug_ranges  0x0000000000002ff0       0x20 build/sam_e70_xult_freertos/production/_ext/1607428259/drv_extphy_smsc8740.o
 .debug_ranges  0x0000000000003010       0x40 build/sam_e70_xult_freertos/production/_ext/762686499/sys_console.o
 .debug_ranges  0x0000000000003050       0xc8 build/sam_e70_xult_freertos/production/_ext/762686499/sys_console_uart.o
 .debug_ranges  0x0000000000003118       0x40 build/sam_e70_xult_freertos/production/_ext/762686499/sys_debug.o
 .debug_ranges  0x0000000000003158      0x1a8 build/sam_e70_xult_freertos/production/_ext/762686499/sys_command.o
 .debug_ranges  0x0000000000003300       0x30 build/sam_e70_xult_freertos/production/_ext/1552905064/freertos_hooks.o
 .debug_ranges  0x0000000000003330       0x30 build/sam_e70_xult_freertos/production/_ext/404212886/list.o
 .debug_ranges  0x0000000000003360      0x1b8 build/sam_e70_xult_freertos/production/_ext/404212886/queue.o
 .debug_ranges  0x0000000000003518      0x290 build/sam_e70_xult_freertos/production/_ext/404212886/FreeRTOS_tasks.o
 .debug_ranges  0x00000000000037a8       0x18 build/sam_e70_xult_freertos/production/_ext/1665200909/heap_3.o
 .debug_ranges  0x00000000000037c0       0x68 build/sam_e70_xult_freertos/production/_ext/977623654/port.o

.debug_line     0x0000000000000000    0x14454
 .debug_line    0x0000000000000000      0x3f5 build/sam_e70_xult_freertos/production/_ext/1360937237/app_commands.o
 .debug_line    0x00000000000003f5      0xb8f build/sam_e70_xult_freertos/production/_ext/810785262/dns.o
 .debug_line    0x0000000000000f84      0x491 build/sam_e70_xult_freertos/production/_ext/810785262/icmp.o
 .debug_line    0x0000000000001415     0x17f1 build/sam_e70_xult_freertos/production/_ext/810785262/tcp.o
 .debug_line    0x0000000000002c06      0xe2f build/sam_e70_xult_freertos/production/_ext/810785262/dhcp.o
 .debug_line    0x0000000000003a35      0xae5 build/sam_e70_xult_freertos/production/_ext/810785262/arp.o
 .debug_line    0x000000000000451a      0x21c build/sam_e70_xult_freertos/production/_ext/1245453995/plib_tc0.o
 .debug_line    0x0000000000004736      0x7d1 build/sam_e70_xult_freertos/production/_ext/912870411/sys_time.o
 .debug_line    0x0000000000004f07      0x200 build/sam_e70_xult_freertos/production/_ext/683629640/bsp.o
 .debug_line    0x0000000000005107      0xa28 build/sam_e70_xult_freertos/production/_ext/810785262/tcpip_commands.o
 .debug_line    0x0000000000005b2f      0x32e build/sam_e70_xult_freertos/production/_ext/901805035/plib_twihs0.o
 .debug_line    0x0000000000005e5d      0xa20 build/sam_e70_xult_freertos/production/_ext/810785262/ipv4.o
 .debug_line    0x000000000000687d      0x30f build/sam_e70_xult_freertos/production/_ext/901008055/plib_usart1.o
 .debug_line    0x0000000000006b8c      0x3ef build/sam_e70_xult_freertos/production/_ext/810785262/tcpip_heap_alloc.o
 .debug_line    0x0000000000006f7b      0x5bf build/sam_e70_xult_freertos/production/_ext/810785262/tcpip_heap_internal.o
 .debug_line    0x000000000000753a      0x275 build/sam_e70_xult_freertos/production/_ext/810785262/helpers.o
 .debug_line    0x00000000000077af      0x1d1 build/sam_e70_xult_freertos/production/_ext/810785262/hash_fnv.o
 .debug_line    0x0000000000007980      0x29c build/sam_e70_xult_freertos/production/_ext/810785262/oahash.o
 .debug_line    0x0000000000007c1c      0xc5c build/sam_e70_xult_freertos/production/_ext/810785262/tcpip_helpers.o
 .debug_line    0x0000000000008878     0x1530 build/sam_e70_xult_freertos/production/_ext/810785262/tcpip_manager.o
 .debug_line    0x0000000000009da8      0x48a build/sam_e70_xult_freertos/production/_ext/810785262/tcpip_notify.o
 .debug_line    0x000000000000a232      0x53f build/sam_e70_xult_freertos/production/_ext/810785262/tcpip_packet.o
 .debug_line    0x000000000000a771      0x19f build/sam_e70_xult_freertos/production/_ext/231871610/sys_time_h2_adapter.o
 .debug_line    0x000000000000a910      0x246 build/sam_e70_xult_freertos/production/_ext/1775855163/sys_int.o
 .debug_line    0x000000000000ab56      0x2f3 build/sam_e70_xult_freertos/production/_ext/281930714/osal_freertos.o
 .debug_line    0x000000000000ae49      0x615 build/sam_e70_xult_freertos/production/_ext/1360937237/app.o
 .debug_line    0x000000000000b45e      0x4be build/sam_e70_xult_freertos/production/_ext/1552905064/tasks.o
 .debug_line    0x000000000000b91c      0xe2a build/sam_e70_xult_freertos/production/_ext/1619526243/drv_gmac.o
 .debug_line    0x000000000000c746      0x976 build/sam_e70_xult_freertos/production/_ext/1619526243/drv_gmac_lib_samE7x_V7x.o
 .debug_line    0x000000000000d0bc      0x3a2 build/sam_e70_xult_freertos/production/_ext/1360937237/main.o
 .debug_line    0x000000000000d45e      0x77d build/sam_e70_xult_freertos/production/_ext/1552905064/initialization.o
 .debug_line    0x000000000000dbdb      0x3d0 build/sam_e70_xult_freertos/production/_ext/1552905064/interrupts.o
 .debug_line    0x000000000000dfab      0x3ef build/sam_e70_xult_freertos/production/_ext/1552905064/exceptions.o
 .debug_line    0x000000000000e39a      0x17e build/sam_e70_xult_freertos/production/_ext/45647770/plib_clk.o
 .debug_line    0x000000000000e518      0x221 build/sam_e70_xult_freertos/production/_ext/45635366/plib_pio.o
 .debug_line    0x000000000000e739      0x1a9 build/sam_e70_xult_freertos/production/_ext/1414743522/plib_nvic.o
 .debug_line    0x000000000000e8e2      0x15d build/sam_e70_xult_freertos/production/_ext/45638026/plib_mpu.o
 .debug_line    0x000000000000ea3f      0x4f4 build/sam_e70_xult_freertos/production/_ext/1552905064/startup_xc32.o
 .debug_line    0x000000000000ef33      0xf98 build/sam_e70_xult_freertos/production/_ext/810785262/udp.o
 .debug_line    0x000000000000fecb      0x8f0 build/sam_e70_xult_freertos/production/_ext/511568427/drv_miim.o
 .debug_line    0x00000000000107bb      0xebf build/sam_e70_xult_freertos/production/_ext/1607428259/drv_ethphy.o
 .debug_line    0x000000000001167a      0x358 build/sam_e70_xult_freertos/production/_ext/1607428259/drv_extphy_smsc8740.o
 .debug_line    0x00000000000119d2      0x333 build/sam_e70_xult_freertos/production/_ext/762686499/sys_console.o
 .debug_line    0x0000000000011d05      0x67f build/sam_e70_xult_freertos/production/_ext/762686499/sys_console_uart.o
 .debug_line    0x0000000000012384      0x2fc build/sam_e70_xult_freertos/production/_ext/762686499/sys_debug.o
 .debug_line    0x0000000000012680      0x61d build/sam_e70_xult_freertos/production/_ext/762686499/sys_command.o
 .debug_line    0x0000000000012c9d      0x1cd build/sam_e70_xult_freertos/production/_ext/1552905064/freertos_hooks.o
 .debug_line    0x0000000000012e6a      0x292 build/sam_e70_xult_freertos/production/_ext/404212886/list.o
 .debug_line    0x00000000000130fc      0x64d build/sam_e70_xult_freertos/production/_ext/404212886/queue.o
 .debug_line    0x0000000000013749      0x8f4 build/sam_e70_xult_freertos/production/_ext/404212886/FreeRTOS_tasks.o
 .debug_line    0x000000000001403d      0x1ac build/sam_e70_xult_freertos/production/_ext/1665200909/heap_3.o
 .debug_line    0x00000000000141e9      0x26b build/sam_e70_xult_freertos/production/_ext/977623654/port.o

.debug_str      0x0000000000000000     0x4dea
 .debug_str     0x0000000000000000       0x82 build/sam_e70_xult_freertos/production/_ext/1360937237/app_commands.o
 .debug_str     0x0000000000000082      0x4d1 build/sam_e70_xult_freertos/production/_ext/810785262/dns.o
 .debug_str     0x0000000000000553      0x14e build/sam_e70_xult_freertos/production/_ext/810785262/icmp.o
 .debug_str     0x00000000000006a1      0x40b build/sam_e70_xult_freertos/production/_ext/810785262/tcp.o
 .debug_str     0x0000000000000aac      0x632 build/sam_e70_xult_freertos/production/_ext/810785262/dhcp.o
 .debug_str     0x00000000000010de      0x4bc build/sam_e70_xult_freertos/production/_ext/810785262/arp.o
 .debug_str     0x000000000000159a        0xa build/sam_e70_xult_freertos/production/_ext/1245453995/plib_tc0.o
 .debug_str     0x00000000000015a4      0x16e build/sam_e70_xult_freertos/production/_ext/912870411/sys_time.o
 .debug_str     0x0000000000001712        0xe build/sam_e70_xult_freertos/production/_ext/683629640/bsp.o
 .debug_str     0x0000000000001720      0x7a2 build/sam_e70_xult_freertos/production/_ext/810785262/tcpip_commands.o
 .debug_str     0x0000000000001ec2       0x11 build/sam_e70_xult_freertos/production/_ext/901805035/plib_twihs0.o
 .debug_str     0x0000000000001ed3      0x568 build/sam_e70_xult_freertos/production/_ext/810785262/ipv4.o
 .debug_str     0x000000000000243b       0x10 build/sam_e70_xult_freertos/production/_ext/901008055/plib_usart1.o
 .debug_str     0x000000000000244b       0x6d build/sam_e70_xult_freertos/production/_ext/810785262/tcpip_heap_alloc.o
 .debug_str     0x00000000000024b8       0x90 build/sam_e70_xult_freertos/production/_ext/810785262/tcpip_heap_internal.o
 .debug_str     0x0000000000002548       0x21 build/sam_e70_xult_freertos/production/_ext/810785262/helpers.o
 .debug_str     0x0000000000002569        0xe build/sam_e70_xult_freertos/production/_ext/810785262/hash_fnv.o
 .debug_str     0x0000000000002577       0x18 build/sam_e70_xult_freertos/production/_ext/810785262/oahash.o
 .debug_str     0x000000000000258f      0x11e build/sam_e70_xult_freertos/production/_ext/810785262/tcpip_helpers.o
 .debug_str     0x00000000000026ad      0x51a build/sam_e70_xult_freertos/production/_ext/810785262/tcpip_manager.o
 .debug_str     0x0000000000002bc7       0xfe build/sam_e70_xult_freertos/production/_ext/810785262/tcpip_notify.o
 .debug_str     0x0000000000002cc5       0x49 build/sam_e70_xult_freertos/production/_ext/810785262/tcpip_packet.o
 .debug_str     0x0000000000002d0e       0x25 build/sam_e70_xult_freertos/production/_ext/231871610/sys_time_h2_adapter.o
 .debug_str     0x0000000000002d33       0x10 build/sam_e70_xult_freertos/production/_ext/1775855163/sys_int.o
 .debug_str     0x0000000000002d43      0x124 build/sam_e70_xult_freertos/production/_ext/281930714/osal_freertos.o
 .debug_str     0x0000000000002e67      0x29d build/sam_e70_xult_freertos/production/_ext/1360937237/app.o
 .debug_str     0x0000000000003104       0x9c build/sam_e70_xult_freertos/production/_ext/1552905064/tasks.o
 .debug_str     0x00000000000031a0      0x3af build/sam_e70_xult_freertos/production/_ext/1619526243/drv_gmac.o
 .debug_str     0x000000000000354f      0x13c build/sam_e70_xult_freertos/production/_ext/1619526243/drv_gmac_lib_samE7x_V7x.o
 .debug_str     0x000000000000368b       0x45 build/sam_e70_xult_freertos/production/_ext/1360937237/main.o
 .debug_str     0x00000000000036d0      0x1b0 build/sam_e70_xult_freertos/production/_ext/1552905064/initialization.o
 .debug_str     0x0000000000003880       0x2c build/sam_e70_xult_freertos/production/_ext/1552905064/interrupts.o
 .debug_str     0x00000000000038ac       0x2c build/sam_e70_xult_freertos/production/_ext/1552905064/exceptions.o
 .debug_str     0x00000000000038d8        0xa build/sam_e70_xult_freertos/production/_ext/45647770/plib_clk.o
 .debug_str     0x00000000000038e2       0x46 build/sam_e70_xult_freertos/production/_ext/45635366/plib_pio.o
 .debug_str     0x0000000000003928       0x28 build/sam_e70_xult_freertos/production/_ext/1414743522/plib_nvic.o
 .debug_str     0x0000000000003950        0x0 build/sam_e70_xult_freertos/production/_ext/45638026/plib_mpu.o
 .debug_str     0x0000000000003950       0xa6 build/sam_e70_xult_freertos/production/_ext/1552905064/startup_xc32.o
 .debug_str     0x00000000000039f6      0x3c9 build/sam_e70_xult_freertos/production/_ext/810785262/udp.o
 .debug_str     0x0000000000003dbf      0x2a8 build/sam_e70_xult_freertos/production/_ext/511568427/drv_miim.o
 .debug_str     0x0000000000004067      0x52c build/sam_e70_xult_freertos/production/_ext/1607428259/drv_ethphy.o
 .debug_str     0x0000000000004593       0x4d build/sam_e70_xult_freertos/production/_ext/1607428259/drv_extphy_smsc8740.o
 .debug_str     0x00000000000045e0       0x27 build/sam_e70_xult_freertos/production/_ext/762686499/sys_console.o
 .debug_str     0x0000000000004607      0x113 build/sam_e70_xult_freertos/production/_ext/762686499/sys_console_uart.o
 .debug_str     0x000000000000471a       0x2a build/sam_e70_xult_freertos/production/_ext/762686499/sys_debug.o
 .debug_str     0x0000000000004744       0xc3 build/sam_e70_xult_freertos/production/_ext/762686499/sys_command.o
 .debug_str     0x0000000000004807       0x25 build/sam_e70_xult_freertos/production/_ext/1552905064/freertos_hooks.o
 .debug_str     0x000000000000482c       0x39 build/sam_e70_xult_freertos/production/_ext/404212886/list.o
 .debug_str     0x0000000000004865      0x28d build/sam_e70_xult_freertos/production/_ext/404212886/queue.o
 .debug_str     0x0000000000004af2      0x288 build/sam_e70_xult_freertos/production/_ext/404212886/FreeRTOS_tasks.o
 .debug_str     0x0000000000004d7a       0x4a build/sam_e70_xult_freertos/production/_ext/1665200909/heap_3.o
 .debug_str     0x0000000000004dc4       0x26 build/sam_e70_xult_freertos/production/_ext/977623654/port.o

.comment        0x0000000000000000       0x3c
 .comment       0x0000000000000000       0x3c build/sam_e70_xult_freertos/production/_ext/1360937237/app_commands.o
                                         0x3d (size before relaxing)
 .comment       0x000000000000003c       0x3d build/sam_e70_xult_freertos/production/_ext/810785262/dns.o
 .comment       0x000000000000003c       0x3d build/sam_e70_xult_freertos/production/_ext/810785262/icmp.o
 .comment       0x000000000000003c       0x3d build/sam_e70_xult_freertos/production/_ext/810785262/tcp.o
 .comment       0x000000000000003c       0x3d build/sam_e70_xult_freertos/production/_ext/810785262/dhcp.o
 .comment       0x000000000000003c       0x3d build/sam_e70_xult_freertos/production/_ext/810785262/arp.o
 .comment       0x000000000000003c       0x3d build/sam_e70_xult_freertos/production/_ext/1245453995/plib_tc0.o
 .comment       0x000000000000003c       0x3d build/sam_e70_xult_freertos/production/_ext/912870411/sys_time.o
 .comment       0x000000000000003c       0x3d build/sam_e70_xult_freertos/production/_ext/683629640/bsp.o
 .comment       0x000000000000003c       0x3d build/sam_e70_xult_freertos/production/_ext/810785262/tcpip_commands.o
 .comment       0x000000000000003c       0x3d build/sam_e70_xult_freertos/production/_ext/901805035/plib_twihs0.o
 .comment       0x000000000000003c       0x3d build/sam_e70_xult_freertos/production/_ext/810785262/ipv4.o
 .comment       0x000000000000003c       0x3d build/sam_e70_xult_freertos/production/_ext/901008055/plib_usart1.o
 .comment       0x000000000000003c       0x3d build/sam_e70_xult_freertos/production/_ext/810785262/tcpip_heap_alloc.o
 .comment       0x000000000000003c       0x3d build/sam_e70_xult_freertos/production/_ext/810785262/tcpip_heap_internal.o
 .comment       0x000000000000003c       0x3d build/sam_e70_xult_freertos/production/_ext/810785262/helpers.o
 .comment       0x000000000000003c       0x3d build/sam_e70_xult_freertos/production/_ext/810785262/hash_fnv.o
 .comment       0x000000000000003c       0x3d build/sam_e70_xult_freertos/production/_ext/810785262/oahash.o
 .comment       0x000000000000003c       0x3d build/sam_e70_xult_freertos/production/_ext/810785262/tcpip_helpers.o
 .comment       0x000000000000003c       0x3d build/sam_e70_xult_freertos/production/_ext/810785262/tcpip_manager.o
 .comment       0x000000000000003c       0x3d build/sam_e70_xult_freertos/production/_ext/810785262/tcpip_notify.o
 .comment       0x000000000000003c       0x3d build/sam_e70_xult_freertos/production/_ext/810785262/tcpip_packet.o
 .comment       0x000000000000003c       0x3d build/sam_e70_xult_freertos/production/_ext/231871610/sys_time_h2_adapter.o
 .comment       0x000000000000003c       0x3d build/sam_e70_xult_freertos/production/_ext/1775855163/sys_int.o
 .comment       0x000000000000003c       0x3d build/sam_e70_xult_freertos/production/_ext/281930714/osal_freertos.o
 .comment       0x000000000000003c       0x3d build/sam_e70_xult_freertos/production/_ext/1360937237/app.o
 .comment       0x000000000000003c       0x3d build/sam_e70_xult_freertos/production/_ext/1552905064/tasks.o
 .comment       0x000000000000003c       0x3d build/sam_e70_xult_freertos/production/_ext/1619526243/drv_gmac.o
 .comment       0x000000000000003c       0x3d build/sam_e70_xult_freertos/production/_ext/1619526243/drv_gmac_lib_samE7x_V7x.o
 .comment       0x000000000000003c       0x3d build/sam_e70_xult_freertos/production/_ext/1360937237/main.o
 .comment       0x000000000000003c       0x3d build/sam_e70_xult_freertos/production/_ext/1552905064/initialization.o
 .comment       0x000000000000003c       0x3d build/sam_e70_xult_freertos/production/_ext/1552905064/interrupts.o
 .comment       0x000000000000003c       0x3d build/sam_e70_xult_freertos/production/_ext/1552905064/exceptions.o
 .comment       0x000000000000003c       0x3d build/sam_e70_xult_freertos/production/_ext/45647770/plib_clk.o
 .comment       0x000000000000003c       0x3d build/sam_e70_xult_freertos/production/_ext/45635366/plib_pio.o
 .comment       0x000000000000003c       0x3d build/sam_e70_xult_freertos/production/_ext/1414743522/plib_nvic.o
 .comment       0x000000000000003c       0x3d build/sam_e70_xult_freertos/production/_ext/45638026/plib_mpu.o
 .comment       0x000000000000003c       0x3d build/sam_e70_xult_freertos/production/_ext/1552905064/startup_xc32.o
 .comment       0x000000000000003c       0x3d build/sam_e70_xult_freertos/production/_ext/810785262/udp.o
 .comment       0x000000000000003c       0x3d build/sam_e70_xult_freertos/production/_ext/511568427/drv_miim.o
 .comment       0x000000000000003c       0x3d build/sam_e70_xult_freertos/production/_ext/1607428259/drv_ethphy.o
 .comment       0x000000000000003c       0x3d build/sam_e70_xult_freertos/production/_ext/1607428259/drv_extphy_smsc8740.o
 .comment       0x000000000000003c       0x3d build/sam_e70_xult_freertos/production/_ext/762686499/sys_console.o
 .comment       0x000000000000003c       0x3d build/sam_e70_xult_freertos/production/_ext/762686499/sys_console_uart.o
 .comment       0x000000000000003c       0x3d build/sam_e70_xult_freertos/production/_ext/762686499/sys_debug.o
 .comment       0x000000000000003c       0x3d build/sam_e70_xult_freertos/production/_ext/762686499/sys_command.o
 .comment       0x000000000000003c       0x3d build/sam_e70_xult_freertos/production/_ext/1552905064/freertos_hooks.o
 .comment       0x000000000000003c       0x3d build/sam_e70_xult_freertos/production/_ext/404212886/list.o
 .comment       0x000000000000003c       0x3d build/sam_e70_xult_freertos/production/_ext/404212886/queue.o
 .comment       0x000000000000003c       0x3d build/sam_e70_xult_freertos/production/_ext/404212886/FreeRTOS_tasks.o
 .comment       0x000000000000003c       0x3d build/sam_e70_xult_freertos/production/_ext/1665200909/heap_3.o
 .comment       0x000000000000003c       0x3d build/sam_e70_xult_freertos/production/_ext/977623654/port.o

.debug_frame    0x0000000000000000     0x7948
 .debug_frame   0x0000000000000000       0x44 build/sam_e70_xult_freertos/production/_ext/1360937237/app_commands.o
 .debug_frame   0x0000000000000044      0x490 build/sam_e70_xult_freertos/production/_ext/810785262/dns.o
 .debug_frame   0x00000000000004d4       0x84 build/sam_e70_xult_freertos/production/_ext/810785262/icmp.o
 .debug_frame   0x0000000000000558      0x76c build/sam_e70_xult_freertos/production/_ext/810785262/tcp.o
 .debug_frame   0x0000000000000cc4      0x52c build/sam_e70_xult_freertos/production/_ext/810785262/dhcp.o
 .debug_frame   0x00000000000011f0      0x4dc build/sam_e70_xult_freertos/production/_ext/810785262/arp.o
 .debug_frame   0x00000000000016cc       0xb8 build/sam_e70_xult_freertos/production/_ext/1245453995/plib_tc0.o
 .debug_frame   0x0000000000001784      0x3bc build/sam_e70_xult_freertos/production/_ext/912870411/sys_time.o
 .debug_frame   0x0000000000001b40       0x20 build/sam_e70_xult_freertos/production/_ext/683629640/bsp.o
 .debug_frame   0x0000000000001b60      0x310 build/sam_e70_xult_freertos/production/_ext/810785262/tcpip_commands.o
 .debug_frame   0x0000000000001e70       0xd8 build/sam_e70_xult_freertos/production/_ext/901805035/plib_twihs0.o
 .debug_frame   0x0000000000001f48      0x2ac build/sam_e70_xult_freertos/production/_ext/810785262/ipv4.o
 .debug_frame   0x00000000000021f4      0x114 build/sam_e70_xult_freertos/production/_ext/901008055/plib_usart1.o
 .debug_frame   0x0000000000002308       0x9c build/sam_e70_xult_freertos/production/_ext/810785262/tcpip_heap_alloc.o
 .debug_frame   0x00000000000023a4      0x138 build/sam_e70_xult_freertos/production/_ext/810785262/tcpip_heap_internal.o
 .debug_frame   0x00000000000024dc       0xd8 build/sam_e70_xult_freertos/production/_ext/810785262/helpers.o
 .debug_frame   0x00000000000025b4       0x30 build/sam_e70_xult_freertos/production/_ext/810785262/hash_fnv.o
 .debug_frame   0x00000000000025e4       0xc0 build/sam_e70_xult_freertos/production/_ext/810785262/oahash.o
 .debug_frame   0x00000000000026a4      0x6dc build/sam_e70_xult_freertos/production/_ext/810785262/tcpip_helpers.o
 .debug_frame   0x0000000000002d80      0xab0 build/sam_e70_xult_freertos/production/_ext/810785262/tcpip_manager.o
 .debug_frame   0x0000000000003830       0x94 build/sam_e70_xult_freertos/production/_ext/810785262/tcpip_notify.o
 .debug_frame   0x00000000000038c4      0x150 build/sam_e70_xult_freertos/production/_ext/810785262/tcpip_packet.o
 .debug_frame   0x0000000000003a14       0x40 build/sam_e70_xult_freertos/production/_ext/231871610/sys_time_h2_adapter.o
 .debug_frame   0x0000000000003a54       0x6c build/sam_e70_xult_freertos/production/_ext/1775855163/sys_int.o
 .debug_frame   0x0000000000003ac0      0x150 build/sam_e70_xult_freertos/production/_ext/281930714/osal_freertos.o
 .debug_frame   0x0000000000003c10       0xa4 build/sam_e70_xult_freertos/production/_ext/1360937237/app.o
 .debug_frame   0x0000000000003cb4       0x94 build/sam_e70_xult_freertos/production/_ext/1552905064/tasks.o
 .debug_frame   0x0000000000003d48      0x670 build/sam_e70_xult_freertos/production/_ext/1619526243/drv_gmac.o
 .debug_frame   0x00000000000043b8      0x230 build/sam_e70_xult_freertos/production/_ext/1619526243/drv_gmac_lib_samE7x_V7x.o
 .debug_frame   0x00000000000045e8       0x28 build/sam_e70_xult_freertos/production/_ext/1360937237/main.o
 .debug_frame   0x0000000000004610       0x44 build/sam_e70_xult_freertos/production/_ext/1552905064/initialization.o
 .debug_frame   0x0000000000004654       0x20 build/sam_e70_xult_freertos/production/_ext/1552905064/interrupts.o
 .debug_frame   0x0000000000004674       0x70 build/sam_e70_xult_freertos/production/_ext/1552905064/exceptions.o
 .debug_frame   0x00000000000046e4       0x20 build/sam_e70_xult_freertos/production/_ext/45647770/plib_clk.o
 .debug_frame   0x0000000000004704       0xa0 build/sam_e70_xult_freertos/production/_ext/45635366/plib_pio.o
 .debug_frame   0x00000000000047a4       0x20 build/sam_e70_xult_freertos/production/_ext/1414743522/plib_nvic.o
 .debug_frame   0x00000000000047c4       0x20 build/sam_e70_xult_freertos/production/_ext/45638026/plib_mpu.o
 .debug_frame   0x00000000000047e4       0x30 build/sam_e70_xult_freertos/production/_ext/1552905064/startup_xc32.o
 .debug_frame   0x0000000000004814      0x678 build/sam_e70_xult_freertos/production/_ext/810785262/udp.o
 .debug_frame   0x0000000000004e8c      0x2c8 build/sam_e70_xult_freertos/production/_ext/511568427/drv_miim.o
 .debug_frame   0x0000000000005154      0x728 build/sam_e70_xult_freertos/production/_ext/1607428259/drv_ethphy.o
 .debug_frame   0x000000000000587c       0x70 build/sam_e70_xult_freertos/production/_ext/1607428259/drv_extphy_smsc8740.o
 .debug_frame   0x00000000000058ec       0xcc build/sam_e70_xult_freertos/production/_ext/762686499/sys_console.o
 .debug_frame   0x00000000000059b8      0x174 build/sam_e70_xult_freertos/production/_ext/762686499/sys_console_uart.o
 .debug_frame   0x0000000000005b2c       0xb4 build/sam_e70_xult_freertos/production/_ext/762686499/sys_debug.o
 .debug_frame   0x0000000000005be0      0x2e0 build/sam_e70_xult_freertos/production/_ext/762686499/sys_command.o
 .debug_frame   0x0000000000005ec0       0x6c build/sam_e70_xult_freertos/production/_ext/1552905064/freertos_hooks.o
 .debug_frame   0x0000000000005f2c       0x6c build/sam_e70_xult_freertos/production/_ext/404212886/list.o
 .debug_frame   0x0000000000005f98      0x280 build/sam_e70_xult_freertos/production/_ext/404212886/queue.o
 .debug_frame   0x0000000000006218      0x478 build/sam_e70_xult_freertos/production/_ext/404212886/FreeRTOS_tasks.o
 .debug_frame   0x0000000000006690       0x44 build/sam_e70_xult_freertos/production/_ext/1665200909/heap_3.o
 .debug_frame   0x00000000000066d4       0xe8 build/sam_e70_xult_freertos/production/_ext/977623654/port.o
 .debug_frame   0x00000000000067bc       0x2c /Applications/microchip/xc32/v2.15/bin/bin/../../lib/gcc/pic32c/6.2.1/../../../../pic32c/lib/v7e-m/fpv5/hard/libpic32c.a(data_init.o)
 .debug_frame   0x00000000000067e8       0x2c /Applications/microchip/xc32/v2.15/bin/bin/../../lib/gcc/pic32c/6.2.1/v7e-m/fpv5/hard/libgcc.a(_aeabi_uldivmod.o)
 .debug_frame   0x0000000000006814       0x34 /Applications/microchip/xc32/v2.15/bin/bin/../../lib/gcc/pic32c/6.2.1/v7e-m/fpv5/hard/libgcc.a(_udivmoddi4.o)
 .debug_frame   0x0000000000006848       0x20 /Applications/microchip/xc32/v2.15/bin/bin/../../lib/gcc/pic32c/6.2.1/../../../../pic32c/lib/v7e-m/fpv5/hard/libc.a(lib_a-atof.o)
 .debug_frame   0x0000000000006868       0x30 /Applications/microchip/xc32/v2.15/bin/bin/../../lib/gcc/pic32c/6.2.1/../../../../pic32c/lib/v7e-m/fpv5/hard/libc.a(lib_a-atoi.o)
 .debug_frame   0x0000000000006898       0x20 /Applications/microchip/xc32/v2.15/bin/bin/../../lib/gcc/pic32c/6.2.1/../../../../pic32c/lib/v7e-m/fpv5/hard/libc.a(lib_a-calloc.o)
 .debug_frame   0x00000000000068b8       0x28 /Applications/microchip/xc32/v2.15/bin/bin/../../lib/gcc/pic32c/6.2.1/../../../../pic32c/lib/v7e-m/fpv5/hard/libc.a(lib_a-callocr.o)
 .debug_frame   0x00000000000068e0       0x2c /Applications/microchip/xc32/v2.15/bin/bin/../../lib/gcc/pic32c/6.2.1/../../../../pic32c/lib/v7e-m/fpv5/hard/libc.a(lib_a-init.o)
 .debug_frame   0x000000000000690c       0x6c /Applications/microchip/xc32/v2.15/bin/bin/../../lib/gcc/pic32c/6.2.1/../../../../pic32c/lib/v7e-m/fpv5/hard/libc.a(lib_a-locale.o)
 .debug_frame   0x0000000000006978       0x30 /Applications/microchip/xc32/v2.15/bin/bin/../../lib/gcc/pic32c/6.2.1/../../../../pic32c/lib/v7e-m/fpv5/hard/libc.a(lib_a-malloc.o)
 .debug_frame   0x00000000000069a8       0x58 /Applications/microchip/xc32/v2.15/bin/bin/../../lib/gcc/pic32c/6.2.1/../../../../pic32c/lib/v7e-m/fpv5/hard/libc.a(lib_a-mallocr.o)
 .debug_frame   0x0000000000006a00       0x4c /Applications/microchip/xc32/v2.15/bin/bin/../../lib/gcc/pic32c/6.2.1/../../../../pic32c/lib/v7e-m/fpv5/hard/libc.a(lib_a-mbtowc_r.o)
 .debug_frame   0x0000000000006a4c       0x3c /Applications/microchip/xc32/v2.15/bin/bin/../../lib/gcc/pic32c/6.2.1/../../../../pic32c/lib/v7e-m/fpv5/hard/libc.a(lib_a-memcmp.o)
 .debug_frame   0x0000000000006a88       0x34 /Applications/microchip/xc32/v2.15/bin/bin/../../lib/gcc/pic32c/6.2.1/../../../../pic32c/lib/v7e-m/fpv5/hard/libc.a(lib_a-memset.o)
 .debug_frame   0x0000000000006abc       0x30 /Applications/microchip/xc32/v2.15/bin/bin/../../lib/gcc/pic32c/6.2.1/../../../../pic32c/lib/v7e-m/fpv5/hard/libc.a(lib_a-mlock.o)
 .debug_frame   0x0000000000006aec       0x3c /Applications/microchip/xc32/v2.15/bin/bin/../../lib/gcc/pic32c/6.2.1/../../../../pic32c/lib/v7e-m/fpv5/hard/libc.a(lib_a-rand.o)
 .debug_frame   0x0000000000006b28       0x2c /Applications/microchip/xc32/v2.15/bin/bin/../../lib/gcc/pic32c/6.2.1/../../../../pic32c/lib/v7e-m/fpv5/hard/libc.a(lib_a-sbrkr.o)
 .debug_frame   0x0000000000006b54       0xd0 /Applications/microchip/xc32/v2.15/bin/bin/../../lib/gcc/pic32c/6.2.1/../../../../pic32c/lib/v7e-m/fpv5/hard/libc.a(lib_a-snprintf.o)
 .debug_frame   0x0000000000006c24       0x84 /Applications/microchip/xc32/v2.15/bin/bin/../../lib/gcc/pic32c/6.2.1/../../../../pic32c/lib/v7e-m/fpv5/hard/libc.a(lib_a-sprintf.o)
 .debug_frame   0x0000000000006ca8       0x68 /Applications/microchip/xc32/v2.15/bin/bin/../../lib/gcc/pic32c/6.2.1/../../../../pic32c/lib/v7e-m/fpv5/hard/libc.a(lib_a-strcmp.o)
 .debug_frame   0x0000000000006d10       0x20 /Applications/microchip/xc32/v2.15/bin/bin/../../lib/gcc/pic32c/6.2.1/../../../../pic32c/lib/v7e-m/fpv5/hard/libc.a(lib_a-strcpy.o)
 .debug_frame   0x0000000000006d30       0x30 /Applications/microchip/xc32/v2.15/bin/bin/../../lib/gcc/pic32c/6.2.1/../../../../pic32c/lib/v7e-m/fpv5/hard/libc.a(lib_a-strncat.o)
 .debug_frame   0x0000000000006d60       0x34 /Applications/microchip/xc32/v2.15/bin/bin/../../lib/gcc/pic32c/6.2.1/../../../../pic32c/lib/v7e-m/fpv5/hard/libc.a(lib_a-strncpy.o)
 .debug_frame   0x0000000000006d94       0xd8 /Applications/microchip/xc32/v2.15/bin/bin/../../lib/gcc/pic32c/6.2.1/../../../../pic32c/lib/v7e-m/fpv5/hard/libc.a(lib_a-strstr.o)
 .debug_frame   0x0000000000006e6c      0x13c /Applications/microchip/xc32/v2.15/bin/bin/../../lib/gcc/pic32c/6.2.1/../../../../pic32c/lib/v7e-m/fpv5/hard/libc.a(lib_a-strtod.o)
 .debug_frame   0x0000000000006fa8       0x20 /Applications/microchip/xc32/v2.15/bin/bin/../../lib/gcc/pic32c/6.2.1/../../../../pic32c/lib/v7e-m/fpv5/hard/libc.a(lib_a-strtok.o)
 .debug_frame   0x0000000000006fc8       0x48 /Applications/microchip/xc32/v2.15/bin/bin/../../lib/gcc/pic32c/6.2.1/../../../../pic32c/lib/v7e-m/fpv5/hard/libc.a(lib_a-strtok_r.o)
 .debug_frame   0x0000000000007010       0x98 /Applications/microchip/xc32/v2.15/bin/bin/../../lib/gcc/pic32c/6.2.1/../../../../pic32c/lib/v7e-m/fpv5/hard/libc.a(lib_a-strtol.o)
 .debug_frame   0x00000000000070a8       0x68 /Applications/microchip/xc32/v2.15/bin/bin/../../lib/gcc/pic32c/6.2.1/../../../../pic32c/lib/v7e-m/fpv5/hard/libc.a(lib_a-svfprintf.o)
 .debug_frame   0x0000000000007110       0x60 /Applications/microchip/xc32/v2.15/bin/bin/../../lib/gcc/pic32c/6.2.1/../../../../pic32c/lib/v7e-m/fpv5/hard/libc.a(lib_a-vsnprintf.o)
 .debug_frame   0x0000000000007170       0x3c /Applications/microchip/xc32/v2.15/bin/bin/../../lib/gcc/pic32c/6.2.1/../../../../pic32c/lib/v7e-m/fpv5/hard/libc.a(lib_a-wctomb_r.o)
 .debug_frame   0x00000000000071ac       0x50 /Applications/microchip/xc32/v2.15/bin/bin/../../lib/gcc/pic32c/6.2.1/../../../../pic32c/lib/v7e-m/fpv5/hard/libc.a(lib_a-__call_atexit.o)
 .debug_frame   0x00000000000071fc       0x20 /Applications/microchip/xc32/v2.15/bin/bin/../../lib/gcc/pic32c/6.2.1/../../../../pic32c/lib/v7e-m/fpv5/hard/libc.a(lib_a-atexit.o)
 .debug_frame   0x000000000000721c       0x84 /Applications/microchip/xc32/v2.15/bin/bin/../../lib/gcc/pic32c/6.2.1/../../../../pic32c/lib/v7e-m/fpv5/hard/libc.a(lib_a-dtoa.o)
 .debug_frame   0x00000000000072a0       0x34 /Applications/microchip/xc32/v2.15/bin/bin/../../lib/gcc/pic32c/6.2.1/../../../../pic32c/lib/v7e-m/fpv5/hard/libc.a(lib_a-fini.o)
 .debug_frame   0x00000000000072d4       0x74 /Applications/microchip/xc32/v2.15/bin/bin/../../lib/gcc/pic32c/6.2.1/../../../../pic32c/lib/v7e-m/fpv5/hard/libc.a(lib_a-freer.o)
 .debug_frame   0x0000000000007348       0x70 /Applications/microchip/xc32/v2.15/bin/bin/../../lib/gcc/pic32c/6.2.1/../../../../pic32c/lib/v7e-m/fpv5/hard/libc.a(lib_a-gdtoa-gethex.o)
 .debug_frame   0x00000000000073b8       0x70 /Applications/microchip/xc32/v2.15/bin/bin/../../lib/gcc/pic32c/6.2.1/../../../../pic32c/lib/v7e-m/fpv5/hard/libc.a(lib_a-gdtoa-hexnan.o)
 .debug_frame   0x0000000000007428       0x40 /Applications/microchip/xc32/v2.15/bin/bin/../../lib/gcc/pic32c/6.2.1/../../../../pic32c/lib/v7e-m/fpv5/hard/libc.a(lib_a-localeconv.o)
 .debug_frame   0x0000000000007468      0x248 /Applications/microchip/xc32/v2.15/bin/bin/../../lib/gcc/pic32c/6.2.1/../../../../pic32c/lib/v7e-m/fpv5/hard/libc.a(lib_a-mprec.o)
 .debug_frame   0x00000000000076b0       0x58 /Applications/microchip/xc32/v2.15/bin/bin/../../lib/gcc/pic32c/6.2.1/../../../../pic32c/lib/v7e-m/fpv5/hard/libc.a(lib_a-reent.o)
 .debug_frame   0x0000000000007708       0x38 /Applications/microchip/xc32/v2.15/bin/bin/../../lib/gcc/pic32c/6.2.1/../../../../pic32c/lib/v7e-m/fpv5/hard/libc.a(lib_a-s_frexp.o)
 .debug_frame   0x0000000000007740       0x50 /Applications/microchip/xc32/v2.15/bin/bin/../../lib/gcc/pic32c/6.2.1/../../../../pic32c/lib/v7e-m/fpv5/hard/libc.a(lib_a-strchr.o)
 .debug_frame   0x0000000000007790       0x54 /Applications/microchip/xc32/v2.15/bin/bin/../../lib/gcc/pic32c/6.2.1/../../../../pic32c/lib/v7e-m/fpv5/hard/libc.a(lib_a-strncmp.o)
 .debug_frame   0x00000000000077e4       0x78 /Applications/microchip/xc32/v2.15/bin/bin/../../lib/gcc/pic32c/6.2.1/../../../../pic32c/lib/v7e-m/fpv5/hard/libc.a(lib_a-svfiprintf.o)
 .debug_frame   0x000000000000785c       0x34 /Applications/microchip/xc32/v2.15/bin/bin/../../lib/gcc/pic32c/6.2.1/../../../../pic32c/lib/v7e-m/fpv5/hard/libc.a(lib_a-__atexit.o)
 .debug_frame   0x0000000000007890       0x30 /Applications/microchip/xc32/v2.15/bin/bin/../../lib/gcc/pic32c/6.2.1/../../../../pic32c/lib/v7e-m/fpv5/hard/libc.a(lib_a-memmove.o)
 .debug_frame   0x00000000000078c0       0x68 /Applications/microchip/xc32/v2.15/bin/bin/../../lib/gcc/pic32c/6.2.1/../../../../pic32c/lib/v7e-m/fpv5/hard/libc.a(lib_a-reallocr.o)
 .debug_frame   0x0000000000007928       0x20 /Applications/microchip/xc32/v2.15/bin/bin/../../lib/gcc/pic32c/6.2.1/../../../../pic32c/lib/v7e-m/fpv5/hard/libpic32c.a(sbrk.o)

.stack          0x0000000020419730      0x100
 .stack         0x0000000020419730      0x100 stack

.bss.gmac_dcpt_array%1
                0x000000002045f000       0xf0
 .bss.gmac_dcpt_array
                0x000000002045f000       0xf0 build/sam_e70_xult_freertos/production/_ext/1619526243/drv_gmac_lib_samE7x_V7x.o
                0x000000002045f000                gmac_dcpt_array

.bss.printBuff%2
                0x000000002045f0f0      0xa00
 .bss.printBuff
                0x000000002045f0f0      0xa00 build/sam_e70_xult_freertos/production/_ext/762686499/sys_command.o

.data.impure_data%3
                0x000000002045faf0      0x428
 .data.impure_data
                0x000000002045faf0      0x428 /Applications/microchip/xc32/v2.15/bin/bin/../../lib/gcc/pic32c/6.2.1/../../../../pic32c/lib/v7e-m/fpv5/hard/libc.a(lib_a-impure.o)

.data.__malloc_av_%4
                0x000000002040060c      0x408
 .data.__malloc_av_
                0x000000002040060c      0x408 /Applications/microchip/xc32/v2.15/bin/bin/../../lib/gcc/pic32c/6.2.1/../../../../pic32c/lib/v7e-m/fpv5/hard/libc.a(lib_a-mallocr.o)
                0x000000002040060c                __malloc_av_

.data._gmac_drv_dcpt%5
                0x0000000020400a14      0x304
 .data._gmac_drv_dcpt
                0x0000000020400a14      0x304 build/sam_e70_xult_freertos/production/_ext/1619526243/drv_gmac.o

.bss.TCPIP_STACK_MODULE_SIGNAL_TBL%6
                0x0000000020400d18      0x250
 .bss.TCPIP_STACK_MODULE_SIGNAL_TBL
                0x0000000020400d18      0x250 build/sam_e70_xult_freertos/production/_ext/810785262/tcpip_manager.o

.bss.sysConsole0UARTWrQueueElements%7
                0x0000000020400f68      0x208
 .bss.sysConsole0UARTWrQueueElements
                0x0000000020400f68      0x208 build/sam_e70_xult_freertos/production/_ext/1552905064/initialization.o

.data.__global_locale%8
                0x0000000020401170      0x16c
 .data.__global_locale
                0x0000000020401170      0x16c /Applications/microchip/xc32/v2.15/bin/bin/../../lib/gcc/pic32c/6.2.1/../../../../pic32c/lib/v7e-m/fpv5/hard/libc.a(lib_a-locale.o)
                0x0000000020401170                __global_locale

.bss.printBuffer%9
                0x000000002045ff18       0xc8
 .bss.printBuffer
                0x000000002045ff18       0xc8 build/sam_e70_xult_freertos/production/_ext/762686499/sys_debug.o

.bss.tmpBuf%10  0x00000000204012dc       0xc8
 .bss.tmpBuf    0x00000000204012dc       0xc8 build/sam_e70_xult_freertos/production/_ext/762686499/sys_debug.o

.bss.timers%11  0x00000000204013a4       0xa0
 .bss.timers    0x00000000204013a4       0xa0 build/sam_e70_xult_freertos/production/_ext/912870411/sys_time.o

.bss.gDrvMIIMObj%12
                0x0000000020401444       0x94
 .bss.gDrvMIIMObj
                0x0000000020401444       0x94 build/sam_e70_xult_freertos/production/_ext/511568427/drv_miim.o

.bss.TCPIP_MODULES_QUEUE_TBL%13
                0x00000000204014d8       0x90
 .bss.TCPIP_MODULES_QUEUE_TBL
                0x00000000204014d8       0x90 build/sam_e70_xult_freertos/production/_ext/810785262/tcpip_manager.o

.bss.saveCmd.7379%14
                0x0000000020401568       0x81
 .bss.saveCmd.7379
                0x0000000020401568       0x81 build/sam_e70_xult_freertos/production/_ext/762686499/sys_command.o

.bss._usrCmdTbl%15
                0x00000000204015ec       0x80
 .bss._usrCmdTbl
                0x00000000204015ec       0x80 build/sam_e70_xult_freertos/production/_ext/762686499/sys_command.o

.bss.readBuff%16
                0x000000002040166c       0x80
 .bss.readBuff  0x000000002040166c       0x80 build/sam_e70_xult_freertos/production/_ext/762686499/sys_command.o

.bss.gDrvETHPHYObj%17
                0x00000000204016ec       0x64
 .bss.gDrvETHPHYObj
                0x00000000204016ec       0x64 build/sam_e70_xult_freertos/production/_ext/1607428259/drv_ethphy.o

.bss.gConsoleUartData%18
                0x0000000020401750       0x64
 .bss.gConsoleUartData
                0x0000000020401750       0x64 build/sam_e70_xult_freertos/production/_ext/762686499/sys_console_uart.o

.bss.pxReadyTasksLists%19
                0x00000000204017b4       0x64
 .bss.pxReadyTasksLists
                0x00000000204017b4       0x64 build/sam_e70_xult_freertos/production/_ext/404212886/FreeRTOS_tasks.o

.bss.sysConsole0UARTRdQueueElements%20
                0x0000000020401818       0x58
 .bss.sysConsole0UARTRdQueueElements
                0x0000000020401818       0x58 build/sam_e70_xult_freertos/production/_ext/1552905064/initialization.o

.bss.arpMod%21  0x0000000020401870       0x48
 .bss.arpMod    0x0000000020401870       0x48 build/sam_e70_xult_freertos/production/_ext/810785262/arp.o

.bss.gSystemCounterObj%22
                0x00000000204018b8       0x38
 .bss.gSystemCounterObj
                0x00000000204018b8       0x38 build/sam_e70_xult_freertos/production/_ext/912870411/sys_time.o

.data.TCPIP_HOSTS_CONFIGURATION%23
                0x00000000204018f0       0x38
 .data.TCPIP_HOSTS_CONFIGURATION
                0x00000000204018f0       0x38 build/sam_e70_xult_freertos/production/_ext/1552905064/initialization.o
                0x00000000204018f0                TCPIP_HOSTS_CONFIGURATION

.bss.gDnsDcpt%24
                0x0000000020401928       0x28
 .bss.gDnsDcpt  0x0000000020401928       0x28 build/sam_e70_xult_freertos/production/_ext/810785262/dns.o

.bss.twihs0Obj%25
                0x0000000020401950       0x28
 .bss.twihs0Obj
                0x0000000020401950       0x28 build/sam_e70_xult_freertos/production/_ext/901805035/plib_twihs0.o

.bss.__malloc_current_mallinfo%26
                0x0000000020401978       0x28
 .bss.__malloc_current_mallinfo
                0x0000000020401978       0x28 /Applications/microchip/xc32/v2.15/bin/bin/../../lib/gcc/pic32c/6.2.1/../../../../pic32c/lib/v7e-m/fpv5/hard/libc.a(lib_a-mallocr.o)
                0x0000000020401978                __malloc_current_mallinfo

.bss.tcpip_stack_ctrl_data%27
                0x000000002045ffe0       0x20
 .bss.tcpip_stack_ctrl_data
                0x000000002045ffe0       0x20 build/sam_e70_xult_freertos/production/_ext/810785262/tcpip_manager.o

.bss.dnslookupTargetHost%28
                0x00000000204019a0       0x1f
 .bss.dnslookupTargetHost
                0x00000000204019a0       0x1f build/sam_e70_xult_freertos/production/_ext/810785262/tcpip_commands.o

.bss%29         0x00000000204019c0       0x1c
 .bss           0x00000000204019c0       0x1c /Applications/microchip/xc32/v2.15/bin/bin/../../lib/gcc/pic32c/6.2.1/v7e-m/fpv5/hard/crtbegin.o

.bss._cmdAppData%30
                0x00000000204019dc       0x18
 .bss._cmdAppData
                0x00000000204019dc       0x18 build/sam_e70_xult_freertos/production/_ext/762686499/sys_command.o

.bss.dhcpRegisteredUsers%31
                0x00000000204019f4       0x14
 .bss.dhcpRegisteredUsers
                0x00000000204019f4       0x14 build/sam_e70_xult_freertos/production/_ext/810785262/dhcp.o

.bss.cmdTcpipInitData%32
                0x0000000020401a08       0x14
 .bss.cmdTcpipInitData
                0x0000000020401a08       0x14 build/sam_e70_xult_freertos/production/_ext/810785262/tcpip_commands.o

.bss.ipv4ArpQueue%33
                0x0000000020401a1c       0x14
 .bss.ipv4ArpQueue
                0x0000000020401a1c       0x14 build/sam_e70_xult_freertos/production/_ext/810785262/ipv4.o

.bss.ipv4PacketFilters%34
                0x0000000020401a30       0x14
 .bss.ipv4PacketFilters
                0x0000000020401a30       0x14 build/sam_e70_xult_freertos/production/_ext/810785262/ipv4.o

.bss.tcpip_init_data%35
                0x0000000020401a44       0x14
 .bss.tcpip_init_data
                0x0000000020401a44       0x14 build/sam_e70_xult_freertos/production/_ext/810785262/tcpip_manager.o

.data.tcpipHeapConfig%36
                0x0000000020401a58       0x14
 .data.tcpipHeapConfig
                0x0000000020401a58       0x14 build/sam_e70_xult_freertos/production/_ext/1552905064/initialization.o
                0x0000000020401a58                tcpipHeapConfig

.bss.xDelayedTaskList1%37
                0x0000000020401a6c       0x14
 .bss.xDelayedTaskList1
                0x0000000020401a6c       0x14 build/sam_e70_xult_freertos/production/_ext/404212886/FreeRTOS_tasks.o

.bss.xDelayedTaskList2%38
                0x0000000020401a80       0x14
 .bss.xDelayedTaskList2
                0x0000000020401a80       0x14 build/sam_e70_xult_freertos/production/_ext/404212886/FreeRTOS_tasks.o

.bss.xPendingReadyList%39
                0x0000000020401a94       0x14
 .bss.xPendingReadyList
                0x0000000020401a94       0x14 build/sam_e70_xult_freertos/production/_ext/404212886/FreeRTOS_tasks.o

.bss.xSuspendedTaskList%40
                0x0000000020401aa8       0x14
 .bss.xSuspendedTaskList
                0x0000000020401aa8       0x14 build/sam_e70_xult_freertos/production/_ext/404212886/FreeRTOS_tasks.o

.bss.xTasksWaitingTermination%41
                0x0000000020401abc       0x14
 .bss.xTasksWaitingTermination
                0x0000000020401abc       0x14 build/sam_e70_xult_freertos/production/_ext/404212886/FreeRTOS_tasks.o

.bss.tcpip_heap_config%42
                0x0000000020401ad0       0x10
 .bss.tcpip_heap_config
                0x0000000020401ad0       0x10 build/sam_e70_xult_freertos/production/_ext/810785262/tcpip_manager.o

.bss.consoleDeviceInstance%43
                0x0000000020401ae0        0xc
 .bss.consoleDeviceInstance
                0x0000000020401ae0        0xc build/sam_e70_xult_freertos/production/_ext/762686499/sys_console.o

.bss.cmdIODevList%44
                0x0000000020401aec        0xc
 .bss.cmdIODevList
                0x0000000020401aec        0xc build/sam_e70_xult_freertos/production/_ext/762686499/sys_command.o

.data.dwLastIP.13438%45
                0x0000000020401af8        0x8
 .data.dwLastIP.13438
                0x0000000020401af8        0x8 build/sam_e70_xult_freertos/production/_ext/1360937237/app.o

.bss._cmdList%46
                0x0000000020401b00        0x8
 .bss._cmdList  0x0000000020401b00        0x8 build/sam_e70_xult_freertos/production/_ext/762686499/sys_command.o

.data.arpBcastAdd%47
                0x0000000020401b08        0x6
 .data.arpBcastAdd
                0x0000000020401b08        0x6 build/sam_e70_xult_freertos/production/_ext/810785262/arp.o

.bss._DNSStayAssertLoop%48
                0x0000000020401b10        0x4
 .bss._DNSStayAssertLoop
                0x0000000020401b10        0x4 build/sam_e70_xult_freertos/production/_ext/810785262/dns.o
                0x0000000020401b10                _DNSStayAssertLoop

.bss._DNSStayCondLoop%49
                0x0000000020401b14        0x4
 .bss._DNSStayCondLoop
                0x0000000020401b14        0x4 build/sam_e70_xult_freertos/production/_ext/810785262/dns.o
                0x0000000020401b14                _DNSStayCondLoop

.bss.dnsInitCount%50
                0x0000000020401b18        0x4
 .bss.dnsInitCount
                0x0000000020401b18        0x4 build/sam_e70_xult_freertos/production/_ext/810785262/dns.o

.bss.pgDnsDcpt%51
                0x0000000020401b1c        0x4
 .bss.pgDnsDcpt
                0x0000000020401b1c        0x4 build/sam_e70_xult_freertos/production/_ext/810785262/dns.o

.bss.icmpInitCount%52
                0x0000000020401b20        0x4
 .bss.icmpInitCount
                0x0000000020401b20        0x4 build/sam_e70_xult_freertos/production/_ext/810785262/icmp.o

.bss.signalHandle%53
                0x0000000020401b24        0x4
 .bss.signalHandle
                0x0000000020401b24        0x4 build/sam_e70_xult_freertos/production/_ext/810785262/icmp.o

.bss.TCBStubs%54
                0x0000000020401b28        0x4
 .bss.TCBStubs  0x0000000020401b28        0x4 build/sam_e70_xult_freertos/production/_ext/810785262/tcp.o

.bss.TcpSockets%55
                0x0000000020401b2c        0x4
 .bss.TcpSockets
                0x0000000020401b2c        0x4 build/sam_e70_xult_freertos/production/_ext/810785262/tcp.o

.bss.tcpHeapH%56
                0x0000000020401b30        0x4
 .bss.tcpHeapH  0x0000000020401b30        0x4 build/sam_e70_xult_freertos/production/_ext/810785262/tcp.o

.bss.tcpInitCount%57
                0x0000000020401b34        0x4
 .bss.tcpInitCount
                0x0000000020401b34        0x4 build/sam_e70_xult_freertos/production/_ext/810785262/tcp.o

.bss.tcpLockCount%58
                0x0000000020401b38        0x4
 .bss.tcpLockCount
                0x0000000020401b38        0x4 build/sam_e70_xult_freertos/production/_ext/810785262/tcp.o

.bss.tcpSemaphore%59
                0x0000000020401b3c        0x4
 .bss.tcpSemaphore
                0x0000000020401b3c        0x4 build/sam_e70_xult_freertos/production/_ext/810785262/tcp.o

.bss.tcpSignalHandle%60
                0x0000000020401b40        0x4
 .bss.tcpSignalHandle
                0x0000000020401b40        0x4 build/sam_e70_xult_freertos/production/_ext/810785262/tcp.o

.bss.DHCPClients%61
                0x0000000020401b44        0x4
 .bss.DHCPClients
                0x0000000020401b44        0x4 build/sam_e70_xult_freertos/production/_ext/810785262/dhcp.o

.bss.dhcpFilterHandle%62
                0x0000000020401b48        0x4
 .bss.dhcpFilterHandle
                0x0000000020401b48        0x4 build/sam_e70_xult_freertos/production/_ext/810785262/dhcp.o

.bss.dhcpInitCount%63
                0x0000000020401b4c        0x4
 .bss.dhcpInitCount
                0x0000000020401b4c        0x4 build/sam_e70_xult_freertos/production/_ext/810785262/dhcp.o

.bss.dhcpInterfaces%64
                0x0000000020401b50        0x4
 .bss.dhcpInterfaces
                0x0000000020401b50        0x4 build/sam_e70_xult_freertos/production/_ext/810785262/dhcp.o

.bss.dhcpMemH%65
                0x0000000020401b54        0x4
 .bss.dhcpMemH  0x0000000020401b54        0x4 build/sam_e70_xult_freertos/production/_ext/810785262/dhcp.o

.bss.dhcpSecondCount%66
                0x0000000020401b58        0x4
 .bss.dhcpSecondCount
                0x0000000020401b58        0x4 build/sam_e70_xult_freertos/production/_ext/810785262/dhcp.o

.bss.dhcpSignalHandle%67
                0x0000000020401b5c        0x4
 .bss.dhcpSignalHandle
                0x0000000020401b5c        0x4 build/sam_e70_xult_freertos/production/_ext/810785262/dhcp.o

.bss.dnsLookUpStartTick%68
                0x0000000020401b60        0x4
 .bss.dnsLookUpStartTick
                0x0000000020401b60        0x4 build/sam_e70_xult_freertos/production/_ext/810785262/tcpip_commands.o

.bss.dnsLookupCmdIoParam%69
                0x0000000020401b64        0x4
 .bss.dnsLookupCmdIoParam
                0x0000000020401b64        0x4 build/sam_e70_xult_freertos/production/_ext/810785262/tcpip_commands.o

.bss.initialNetIfs%70
                0x0000000020401b68        0x4
 .bss.initialNetIfs
                0x0000000020401b68        0x4 build/sam_e70_xult_freertos/production/_ext/810785262/tcpip_commands.o

.bss.pCmdTcpipInitData%71
                0x0000000020401b6c        0x4
 .bss.pCmdTcpipInitData
                0x0000000020401b6c        0x4 build/sam_e70_xult_freertos/production/_ext/810785262/tcpip_commands.o

.bss.pTcpipCmdDevice%72
                0x0000000020401b70        0x4
 .bss.pTcpipCmdDevice
                0x0000000020401b70        0x4 build/sam_e70_xult_freertos/production/_ext/810785262/tcpip_commands.o

.bss.tcpipCmdSignalHandle%73
                0x0000000020401b74        0x4
 .bss.tcpipCmdSignalHandle
                0x0000000020401b74        0x4 build/sam_e70_xult_freertos/production/_ext/810785262/tcpip_commands.o

.bss._IPv4StayAssertLoop%74
                0x0000000020401b78        0x4
 .bss._IPv4StayAssertLoop
                0x0000000020401b78        0x4 build/sam_e70_xult_freertos/production/_ext/810785262/ipv4.o
                0x0000000020401b78                _IPv4StayAssertLoop

.bss.ipv4ArpHandle%75
                0x0000000020401b7c        0x4
 .bss.ipv4ArpHandle
                0x0000000020401b7c        0x4 build/sam_e70_xult_freertos/production/_ext/810785262/ipv4.o

.bss.ipv4MemH%76
                0x0000000020401b80        0x4
 .bss.ipv4MemH  0x0000000020401b80        0x4 build/sam_e70_xult_freertos/production/_ext/810785262/ipv4.o

.bss.signalHandle%77
                0x0000000020401b84        0x4
 .bss.signalHandle
                0x0000000020401b84        0x4 build/sam_e70_xult_freertos/production/_ext/810785262/ipv4.o

.bss.newTcpipErrorEventCnt%78
                0x0000000020401b88        0x4
 .bss.newTcpipErrorEventCnt
                0x0000000020401b88        0x4 build/sam_e70_xult_freertos/production/_ext/810785262/tcpip_manager.o

.bss.newTcpipStackEventCnt%79
                0x0000000020401b8c        0x4
 .bss.newTcpipStackEventCnt
                0x0000000020401b8c        0x4 build/sam_e70_xult_freertos/production/_ext/810785262/tcpip_manager.o

.bss.newTcpipTickAvlbl%80
                0x0000000020401b90        0x4
 .bss.newTcpipTickAvlbl
                0x0000000020401b90        0x4 build/sam_e70_xult_freertos/production/_ext/810785262/tcpip_manager.o

.bss.stackAsyncSignalCount%81
                0x0000000020401b94        0x4
 .bss.stackAsyncSignalCount
                0x0000000020401b94        0x4 build/sam_e70_xult_freertos/production/_ext/810785262/tcpip_manager.o

.bss.stackTaskRate%82
                0x0000000020401b98        0x4
 .bss.stackTaskRate
                0x0000000020401b98        0x4 build/sam_e70_xult_freertos/production/_ext/810785262/tcpip_manager.o

.bss.tcpipDefIf%83
                0x0000000020401b9c        0x4
 .bss.tcpipDefIf
                0x0000000020401b9c        0x4 build/sam_e70_xult_freertos/production/_ext/810785262/tcpip_manager.o

.bss.tcpipNetIf%84
                0x0000000020401ba0        0x4
 .bss.tcpipNetIf
                0x0000000020401ba0        0x4 build/sam_e70_xult_freertos/production/_ext/810785262/tcpip_manager.o

.bss.totTcpipEventsCnt%85
                0x0000000020401ba4        0x4
 .bss.totTcpipEventsCnt
                0x0000000020401ba4        0x4 build/sam_e70_xult_freertos/production/_ext/810785262/tcpip_manager.o

.data.tcpip_stack_tickH%86
                0x0000000020401ba8        0x4
 .data.tcpip_stack_tickH
                0x0000000020401ba8        0x4 build/sam_e70_xult_freertos/production/_ext/810785262/tcpip_manager.o

.bss.pktMemH%87
                0x0000000020401bac        0x4
 .bss.pktMemH   0x0000000020401bac        0x4 build/sam_e70_xult_freertos/production/_ext/810785262/tcpip_packet.o

.bss.systemAdaptObj%88
                0x0000000020401bb0        0x4
 .bss.systemAdaptObj
                0x0000000020401bb0        0x4 build/sam_e70_xult_freertos/production/_ext/231871610/sys_time_h2_adapter.o

.bss.startTick.13443%89
                0x0000000020401bb4        0x4
 .bss.startTick.13443
                0x0000000020401bb4        0x4 build/sam_e70_xult_freertos/production/_ext/1360937237/app.o

.data.blink.13444%90
                0x0000000020401bb8        0x4
 .data.blink.13444
                0x0000000020401bb8        0x4 build/sam_e70_xult_freertos/production/_ext/1360937237/app.o

.bss._hEventMac%91
                0x0000000020401bbc        0x4
 .bss._hEventMac
                0x0000000020401bbc        0x4 build/sam_e70_xult_freertos/production/_ext/1619526243/drv_gmac.o

.bss.cmd.13430%92
                0x0000000020401bc0        0x4
 .bss.cmd.13430
                0x0000000020401bc0        0x4 build/sam_e70_xult_freertos/production/_ext/1552905064/startup_xc32.o

.bss.UDPSocketDcpt%93
                0x0000000020401bc4        0x4
 .bss.UDPSocketDcpt
                0x0000000020401bc4        0x4 build/sam_e70_xult_freertos/production/_ext/810785262/udp.o

.bss.nUdpSockets%94
                0x0000000020401bc8        0x4
 .bss.nUdpSockets
                0x0000000020401bc8        0x4 build/sam_e70_xult_freertos/production/_ext/810785262/udp.o

.bss.signalHandle%95
                0x0000000020401bcc        0x4
 .bss.signalHandle
                0x0000000020401bcc        0x4 build/sam_e70_xult_freertos/production/_ext/810785262/udp.o

.bss.udpInitCount%96
                0x0000000020401bd0        0x4
 .bss.udpInitCount
                0x0000000020401bd0        0x4 build/sam_e70_xult_freertos/production/_ext/810785262/udp.o

.bss.udpMemH%97
                0x0000000020401bd4        0x4
 .bss.udpMemH   0x0000000020401bd4        0x4 build/sam_e70_xult_freertos/production/_ext/810785262/udp.o

.bss.userSem%98
                0x0000000020401bd8        0x4
 .bss.userSem   0x0000000020401bd8        0x4 build/sam_e70_xult_freertos/production/_ext/810785262/udp.o

.bss._MIIMStayAssertLoop%99
                0x0000000020401bdc        0x4
 .bss._MIIMStayAssertLoop
                0x0000000020401bdc        0x4 build/sam_e70_xult_freertos/production/_ext/511568427/drv_miim.o
                0x0000000020401bdc                _MIIMStayAssertLoop

.bss._pCurrCmdN%100
                0x0000000020401be0        0x4
 .bss._pCurrCmdN
                0x0000000020401be0        0x4 build/sam_e70_xult_freertos/production/_ext/762686499/sys_command.o

.bss.printBuffPtr%101
                0x0000000020401be4        0x4
 .bss.printBuffPtr
                0x0000000020401be4        0x4 build/sam_e70_xult_freertos/production/_ext/762686499/sys_command.o

.bss.pxCurrentTCB%102
                0x0000000020401be8        0x4
 .bss.pxCurrentTCB
                0x0000000020401be8        0x4 build/sam_e70_xult_freertos/production/_ext/404212886/FreeRTOS_tasks.o
                0x0000000020401be8                pxCurrentTCB

.bss.pxDelayedTaskList%103
                0x0000000020401bec        0x4
 .bss.pxDelayedTaskList
                0x0000000020401bec        0x4 build/sam_e70_xult_freertos/production/_ext/404212886/FreeRTOS_tasks.o

.bss.pxOverflowDelayedTaskList%104
                0x0000000020401bf0        0x4
 .bss.pxOverflowDelayedTaskList
                0x0000000020401bf0        0x4 build/sam_e70_xult_freertos/production/_ext/404212886/FreeRTOS_tasks.o

.bss.uxCurrentNumberOfTasks%105
                0x0000000020401bf4        0x4
 .bss.uxCurrentNumberOfTasks
                0x0000000020401bf4        0x4 build/sam_e70_xult_freertos/production/_ext/404212886/FreeRTOS_tasks.o

.bss.uxDeletedTasksWaitingCleanUp%106
                0x0000000020401bf8        0x4
 .bss.uxDeletedTasksWaitingCleanUp
                0x0000000020401bf8        0x4 build/sam_e70_xult_freertos/production/_ext/404212886/FreeRTOS_tasks.o

.bss.uxPendedTicks%107
                0x0000000020401bfc        0x4
 .bss.uxPendedTicks
                0x0000000020401bfc        0x4 build/sam_e70_xult_freertos/production/_ext/404212886/FreeRTOS_tasks.o

.bss.uxSchedulerSuspended%108
                0x0000000020401c00        0x4
 .bss.uxSchedulerSuspended
                0x0000000020401c00        0x4 build/sam_e70_xult_freertos/production/_ext/404212886/FreeRTOS_tasks.o

.bss.uxTaskNumber%109
                0x0000000020401c04        0x4
 .bss.uxTaskNumber
                0x0000000020401c04        0x4 build/sam_e70_xult_freertos/production/_ext/404212886/FreeRTOS_tasks.o

.bss.uxTopReadyPriority%110
                0x0000000020401c08        0x4
 .bss.uxTopReadyPriority
                0x0000000020401c08        0x4 build/sam_e70_xult_freertos/production/_ext/404212886/FreeRTOS_tasks.o

.bss.xIdleTaskHandle%111
                0x0000000020401c0c        0x4
 .bss.xIdleTaskHandle
                0x0000000020401c0c        0x4 build/sam_e70_xult_freertos/production/_ext/404212886/FreeRTOS_tasks.o

.bss.xNextTaskUnblockTime%112
                0x0000000020401c10        0x4
 .bss.xNextTaskUnblockTime
                0x0000000020401c10        0x4 build/sam_e70_xult_freertos/production/_ext/404212886/FreeRTOS_tasks.o

.bss.xNumOfOverflows%113
                0x0000000020401c14        0x4
 .bss.xNumOfOverflows
                0x0000000020401c14        0x4 build/sam_e70_xult_freertos/production/_ext/404212886/FreeRTOS_tasks.o

.bss.xSchedulerRunning%114
                0x0000000020401c18        0x4
 .bss.xSchedulerRunning
                0x0000000020401c18        0x4 build/sam_e70_xult_freertos/production/_ext/404212886/FreeRTOS_tasks.o

.bss.xTickCount%115
                0x0000000020401c1c        0x4
 .bss.xTickCount
                0x0000000020401c1c        0x4 build/sam_e70_xult_freertos/production/_ext/404212886/FreeRTOS_tasks.o

.bss.xYieldPending%116
                0x0000000020401c20        0x4
 .bss.xYieldPending
                0x0000000020401c20        0x4 build/sam_e70_xult_freertos/production/_ext/404212886/FreeRTOS_tasks.o

.data.uxCriticalNesting%117
                0x0000000020401c24        0x4
 .data.uxCriticalNesting
                0x0000000020401c24        0x4 build/sam_e70_xult_freertos/production/_ext/977623654/port.o

.data._impure_ptr%118
                0x0000000020401c28        0x4
 .data._impure_ptr
                0x0000000020401c28        0x4 /Applications/microchip/xc32/v2.15/bin/bin/../../lib/gcc/pic32c/6.2.1/../../../../pic32c/lib/v7e-m/fpv5/hard/libc.a(lib_a-impure.o)
                0x0000000020401c28                _impure_ptr

.bss.__malloc_max_sbrked_mem%119
                0x0000000020401c2c        0x4
 .bss.__malloc_max_sbrked_mem
                0x0000000020401c2c        0x4 /Applications/microchip/xc32/v2.15/bin/bin/../../lib/gcc/pic32c/6.2.1/../../../../pic32c/lib/v7e-m/fpv5/hard/libc.a(lib_a-mallocr.o)
                0x0000000020401c2c                __malloc_max_sbrked_mem

.bss.__malloc_max_total_mem%120
                0x0000000020401c30        0x4
 .bss.__malloc_max_total_mem
                0x0000000020401c30        0x4 /Applications/microchip/xc32/v2.15/bin/bin/../../lib/gcc/pic32c/6.2.1/../../../../pic32c/lib/v7e-m/fpv5/hard/libc.a(lib_a-mallocr.o)
                0x0000000020401c30                __malloc_max_total_mem

.bss.__malloc_top_pad%121
                0x0000000020401c34        0x4
 .bss.__malloc_top_pad
                0x0000000020401c34        0x4 /Applications/microchip/xc32/v2.15/bin/bin/../../lib/gcc/pic32c/6.2.1/../../../../pic32c/lib/v7e-m/fpv5/hard/libc.a(lib_a-mallocr.o)
                0x0000000020401c34                __malloc_top_pad

.data.__malloc_sbrk_base%122
                0x0000000020401c38        0x4
 .data.__malloc_sbrk_base
                0x0000000020401c38        0x4 /Applications/microchip/xc32/v2.15/bin/bin/../../lib/gcc/pic32c/6.2.1/../../../../pic32c/lib/v7e-m/fpv5/hard/libc.a(lib_a-mallocr.o)
                0x0000000020401c38                __malloc_sbrk_base

.data.__malloc_trim_threshold%123
                0x0000000020401c3c        0x4
 .data.__malloc_trim_threshold
                0x0000000020401c3c        0x4 /Applications/microchip/xc32/v2.15/bin/bin/../../lib/gcc/pic32c/6.2.1/../../../../pic32c/lib/v7e-m/fpv5/hard/libc.a(lib_a-mallocr.o)
                0x0000000020401c3c                __malloc_trim_threshold

.bss%124        0x0000000020401c40        0x4
 .bss           0x0000000020401c40        0x4 /Applications/microchip/xc32/v2.15/bin/bin/../../lib/gcc/pic32c/6.2.1/../../../../pic32c/lib/v7e-m/fpv5/hard/libpic32c.a(sbrk.o)

.bss.tcpDefRxSize%125
                0x0000000020401b0e        0x2
 .bss.tcpDefRxSize
                0x0000000020401b0e        0x2 build/sam_e70_xult_freertos/production/_ext/810785262/tcp.o

.bss.tcpDefTxSize%126
                0x00000000204015ea        0x2
 .bss.tcpDefTxSize
                0x00000000204015ea        0x2 build/sam_e70_xult_freertos/production/_ext/810785262/tcp.o

.bss.dhcpClientPort%127
                0x0000000020401c44        0x2
 .bss.dhcpClientPort
                0x0000000020401c44        0x2 build/sam_e70_xult_freertos/production/_ext/810785262/dhcp.o

.bss.dhcpClientSocket%128
                0x0000000020401c46        0x2
 .bss.dhcpClientSocket
                0x0000000020401c46        0x2 build/sam_e70_xult_freertos/production/_ext/810785262/dhcp.o

.bss.dhcpServerPort%129
                0x0000000020401c48        0x2
 .bss.dhcpServerPort
                0x0000000020401c48        0x2 build/sam_e70_xult_freertos/production/_ext/810785262/dhcp.o

.data.gSysTimeTokenCount%130
                0x0000000020401c4a        0x2
 .data.gSysTimeTokenCount
                0x0000000020401c4a        0x2 build/sam_e70_xult_freertos/production/_ext/912870411/sys_time.o

.bss.ipv4Identifier%131
                0x0000000020401c4c        0x2
 .bss.ipv4Identifier
                0x0000000020401c4c        0x2 build/sam_e70_xult_freertos/production/_ext/810785262/ipv4.o

.bss.ipv4InitCount%132
                0x0000000020401c4e        0x2
 .bss.ipv4InitCount
                0x0000000020401c4e        0x2 build/sam_e70_xult_freertos/production/_ext/810785262/ipv4.o

.bss.udpDefTxSize%133
                0x0000000020401c50        0x2
 .bss.udpDefTxSize
                0x0000000020401c50        0x2 build/sam_e70_xult_freertos/production/_ext/810785262/udp.o

.bss.tcpipCmdStat%134
                0x00000000204019bf        0x1
 .bss.tcpipCmdStat
                0x00000000204019bf        0x1 build/sam_e70_xult_freertos/production/_ext/810785262/tcpip_commands.o

.data.dnsType%135
                0x00000000204015e9        0x1
 .data.dnsType  0x00000000204015e9        0x1 build/sam_e70_xult_freertos/production/_ext/810785262/tcpip_commands.o

.bss.ipv4FilterType%136
                0x0000000020401c52        0x1
 .bss.ipv4FilterType
                0x0000000020401c52        0x1 build/sam_e70_xult_freertos/production/_ext/810785262/ipv4.o

.bss.tcpip_stack_status%137
                0x0000000020401c53        0x1
 .bss.tcpip_stack_status
                0x0000000020401c53        0x1 build/sam_e70_xult_freertos/production/_ext/810785262/tcpip_manager.o

.bss.state.13423%138
                0x0000000020401c54        0x1
 .bss.state.13423
                0x0000000020401c54        0x1 build/sam_e70_xult_freertos/production/_ext/1360937237/app.o

.bss.discard_flag.13977%139
                0x0000000020401c55        0x1
 .bss.discard_flag.13977
                0x0000000020401c55        0x1 build/sam_e70_xult_freertos/production/_ext/1619526243/drv_gmac.o

.jcr%z1         0x0000000000000000        0x0
 .jcr           0x0000000000000000        0x0 /Applications/microchip/xc32/v2.15/bin/bin/../../lib/gcc/pic32c/6.2.1/v7e-m/fpv5/hard/crtbegin.o

.eh_frame%z2    0x0000000000000000        0x0
 .eh_frame      0x0000000000000000        0x0 /Applications/microchip/xc32/v2.15/bin/bin/../../lib/gcc/pic32c/6.2.1/v7e-m/fpv5/hard/crtbegin.o

.config_D0000000%140
                0x00000000d0000000        0x4
 .config_D0000000
                0x00000000d0000000        0x4 build/sam_e70_xult_freertos/production/_ext/1552905064/initialization.o

.text._svfprintf_r%141
                0x0000000000400198     0x18f0
 .text._svfprintf_r
                0x0000000000400198     0x18f0 /Applications/microchip/xc32/v2.15/bin/bin/../../lib/gcc/pic32c/6.2.1/../../../../pic32c/lib/v7e-m/fpv5/hard/libc.a(lib_a-svfprintf.o)
                0x0000000000400198                _svfprintf_r

.rodata%142     0x0000000000401a88     0x1684
 .rodata        0x0000000000401a88     0x1684 build/sam_e70_xult_freertos/production/_ext/810785262/tcpip_commands.o

.dinit%143      0x000000000040310c     0x1410
 .dinit         0x000000000040310c     0x1410 data_init

.text.TCPIP_TCP_Task%144
                0x000000000040451c      0xf24
 .text.TCPIP_TCP_Task
                0x000000000040451c      0xf24 build/sam_e70_xult_freertos/production/_ext/810785262/tcp.o
                0x000000000040451c                TCPIP_TCP_Task

.text._strtod_l%145
                0x0000000000405440      0xe48
 .text._strtod_l
                0x0000000000405440      0xe48 /Applications/microchip/xc32/v2.15/bin/bin/../../lib/gcc/pic32c/6.2.1/../../../../pic32c/lib/v7e-m/fpv5/hard/libc.a(lib_a-strtod.o)
                0x0000000000405440                _strtod_l

.text._dtoa_r%146
                0x0000000000406288      0xc4c
 .text._dtoa_r  0x0000000000406288      0xc4c /Applications/microchip/xc32/v2.15/bin/bin/../../lib/gcc/pic32c/6.2.1/../../../../pic32c/lib/v7e-m/fpv5/hard/libc.a(lib_a-dtoa.o)
                0x0000000000406288                _dtoa_r

.rodata.macPIC32CHwRegDcpt%147
                0x0000000000406ed4      0x708
 .rodata.macPIC32CHwRegDcpt
                0x0000000000406ed4      0x708 build/sam_e70_xult_freertos/production/_ext/1619526243/drv_gmac.o

.text.TCPIP_STACK_Task%148
                0x00000000004075dc      0x634
 .text.TCPIP_STACK_Task
                0x00000000004075dc      0x634 build/sam_e70_xult_freertos/production/_ext/810785262/tcpip_manager.o
                0x00000000004075dc                TCPIP_STACK_Task

.text._TcpSend%149
                0x0000000000407c10      0x5cc
 .text._TcpSend
                0x0000000000407c10      0x5cc build/sam_e70_xult_freertos/production/_ext/810785262/tcp.o

.text._Command_DNS_Service%150
                0x00000000004081dc      0x56c
 .text._Command_DNS_Service
                0x00000000004081dc      0x56c build/sam_e70_xult_freertos/production/_ext/810785262/tcpip_commands.o

.text._malloc_r%151
                0x0000000000408748      0x550
 .text._malloc_r
                0x0000000000408748      0x550 /Applications/microchip/xc32/v2.15/bin/bin/../../lib/gcc/pic32c/6.2.1/../../../../pic32c/lib/v7e-m/fpv5/hard/libc.a(lib_a-mallocr.o)
                0x0000000000408748                _malloc_r

.text.__gethex%152
                0x0000000000408c98      0x518
 .text.__gethex
                0x0000000000408c98      0x518 /Applications/microchip/xc32/v2.15/bin/bin/../../lib/gcc/pic32c/6.2.1/../../../../pic32c/lib/v7e-m/fpv5/hard/libc.a(lib_a-gdtoa-gethex.o)
                0x0000000000408c98                __gethex

.text.TCPIP_DHCP_Task%153
                0x00000000004091b0      0x4e4
 .text.TCPIP_DHCP_Task
                0x00000000004091b0      0x4e4 build/sam_e70_xult_freertos/production/_ext/810785262/dhcp.o
                0x00000000004091b0                TCPIP_DHCP_Task

.text.APP_Tasks%154
                0x0000000000409698      0x498
 .text.APP_Tasks
                0x0000000000409698      0x498 build/sam_e70_xult_freertos/production/_ext/1360937237/app.o
                0x0000000000409698                APP_Tasks

.rodata%155     0x0000000000409b30      0x48c
 .rodata        0x0000000000409b30      0x48c build/sam_e70_xult_freertos/production/_ext/810785262/tcpip_manager.o

.text.TCPIP_STACK_Initialize%156
                0x0000000000409fbc      0x424
 .text.TCPIP_STACK_Initialize
                0x0000000000409fbc      0x424 build/sam_e70_xult_freertos/production/_ext/810785262/tcpip_manager.o
                0x0000000000409fbc                TCPIP_STACK_Initialize

.text.DRV_PIC32CGMAC_LibRxGetPacket%157
                0x000000000040a3e0      0x3c0
 .text.DRV_PIC32CGMAC_LibRxGetPacket
                0x000000000040a3e0      0x3c0 build/sam_e70_xult_freertos/production/_ext/1619526243/drv_gmac_lib_samE7x_V7x.o
                0x000000000040a3e0                DRV_PIC32CGMAC_LibRxGetPacket

.text._realloc_r%158
                0x000000000040a7a0      0x34c
 .text._realloc_r
                0x000000000040a7a0      0x34c /Applications/microchip/xc32/v2.15/bin/bin/../../lib/gcc/pic32c/6.2.1/../../../../pic32c/lib/v7e-m/fpv5/hard/libc.a(lib_a-reallocr.o)
                0x000000000040a7a0                _realloc_r

.rodata%159     0x000000000040aaec      0x338
 .rodata        0x000000000040aaec      0x338 build/sam_e70_xult_freertos/production/_ext/1360937237/app.o

.text.SYS_CMD_Tasks%160
                0x000000000040ae24      0x314
 .text.SYS_CMD_Tasks
                0x000000000040ae24      0x314 build/sam_e70_xult_freertos/production/_ext/762686499/sys_command.o
                0x000000000040ae24                SYS_CMD_Tasks

.text.TCPIP_Helper_StringToIPv6Address%161
                0x000000000040b138      0x2e8
 .text.TCPIP_Helper_StringToIPv6Address
                0x000000000040b138      0x2e8 build/sam_e70_xult_freertos/production/_ext/810785262/tcpip_helpers.o
                0x000000000040b138                TCPIP_Helper_StringToIPv6Address

.text%162       0x000000000040b420      0x2dc
 .text          0x000000000040b420      0x2dc /Applications/microchip/xc32/v2.15/bin/bin/../../lib/gcc/pic32c/6.2.1/v7e-m/fpv5/hard/libgcc.a(_udivmoddi4.o)
                0x000000000040b420                __udivmoddi4

.text%163       0x000000000040b700      0x2dc
 .text          0x000000000040b700      0x2dc /Applications/microchip/xc32/v2.15/bin/bin/../../lib/gcc/pic32c/6.2.1/../../../../pic32c/lib/v7e-m/fpv5/hard/libc.a(lib_a-strcmp.o)
                0x000000000040b708                strcmp

.text.DRV_GMAC_Initialize%164
                0x000000000040b9dc      0x2d4
 .text.DRV_GMAC_Initialize
                0x000000000040b9dc      0x2d4 build/sam_e70_xult_freertos/production/_ext/1619526243/drv_gmac.o
                0x000000000040b9dc                DRV_GMAC_Initialize

.text.TCPIP_ARP_Task%165
                0x000000000040bcb0      0x2b8
 .text.TCPIP_ARP_Task
                0x000000000040bcb0      0x2b8 build/sam_e70_xult_freertos/production/_ext/810785262/arp.o
                0x000000000040bcb0                TCPIP_ARP_Task

.text.DRV_PIC32CGMAC_LibTxSendPacket%166
                0x000000000040bf68      0x294
 .text.DRV_PIC32CGMAC_LibTxSendPacket
                0x000000000040bf68      0x294 build/sam_e70_xult_freertos/production/_ext/1619526243/drv_gmac_lib_samE7x_V7x.o
                0x000000000040bf68                DRV_PIC32CGMAC_LibTxSendPacket

.text._CommandArp%167
                0x000000000040c1fc      0x260
 .text._CommandArp
                0x000000000040c1fc      0x260 build/sam_e70_xult_freertos/production/_ext/810785262/tcpip_commands.o

.text.TCPIP_UDP_Task%168
                0x000000000040c45c      0x24c
 .text.TCPIP_UDP_Task
                0x000000000040c45c      0x24c build/sam_e70_xult_freertos/production/_ext/810785262/udp.o
                0x000000000040c45c                TCPIP_UDP_Task

.text._TCP_Open%169
                0x000000000040c6a8      0x238
 .text._TCP_Open
                0x000000000040c6a8      0x238 build/sam_e70_xult_freertos/production/_ext/810785262/tcp.o

.text.TCPIP_UDP_Flush%170
                0x000000000040c8e0      0x22c
 .text.TCPIP_UDP_Flush
                0x000000000040c8e0      0x22c build/sam_e70_xult_freertos/production/_ext/810785262/udp.o
                0x000000000040c8e0                TCPIP_UDP_Flush

.text._CommandDhcpOptions%171
                0x000000000040cb0c      0x220
 .text._CommandDhcpOptions
                0x000000000040cb0c      0x220 build/sam_e70_xult_freertos/production/_ext/810785262/tcpip_commands.o

.text._DNS_Send_Query%172
                0x000000000040cd2c      0x218
 .text._DNS_Send_Query
                0x000000000040cd2c      0x218 build/sam_e70_xult_freertos/production/_ext/810785262/dns.o

.text.TCPIP_DNS_ClientInitialize%173
                0x000000000040cf44      0x218
 .text.TCPIP_DNS_ClientInitialize
                0x000000000040cf44      0x218 build/sam_e70_xult_freertos/production/_ext/810785262/dns.o
                0x000000000040cf44                TCPIP_DNS_ClientInitialize

.rodata%174     0x000000000040d15c      0x218
 .rodata        0x000000000040d15c      0x218 build/sam_e70_xult_freertos/production/_ext/762686499/sys_command.o

.text.strstr%175
                0x000000000040d374      0x218
 .text.strstr   0x000000000040d374      0x218 /Applications/microchip/xc32/v2.15/bin/bin/../../lib/gcc/pic32c/6.2.1/../../../../pic32c/lib/v7e-m/fpv5/hard/libc.a(lib_a-strstr.o)
                0x000000000040d374                strstr

.text.TCPIP_UDP_OptionsSet%176
                0x000000000040d58c      0x212
 .text.TCPIP_UDP_OptionsSet
                0x000000000040d58c      0x212 build/sam_e70_xult_freertos/production/_ext/810785262/udp.o
                0x000000000040d58c                TCPIP_UDP_OptionsSet

.text._Command_NetInfo%177
                0x000000000040d7a0      0x20c
 .text._Command_NetInfo
                0x000000000040d7a0      0x20c build/sam_e70_xult_freertos/production/_ext/810785262/tcpip_commands.o

.text.TCPIP_COMMAND_Task%178
                0x000000000040d9ac      0x20c
 .text.TCPIP_COMMAND_Task
                0x000000000040d9ac      0x20c build/sam_e70_xult_freertos/production/_ext/810785262/tcpip_commands.o
                0x000000000040d9ac                TCPIP_COMMAND_Task

.text.two_way_long_needle%179
                0x000000000040dbb8      0x1fc
 .text.two_way_long_needle
                0x000000000040dbb8      0x1fc /Applications/microchip/xc32/v2.15/bin/bin/../../lib/gcc/pic32c/6.2.1/../../../../pic32c/lib/v7e-m/fpv5/hard/libc.a(lib_a-strstr.o)

.text._DNS_ProcessPacket%180
                0x000000000040ddb4      0x1ec
 .text._DNS_ProcessPacket
                0x000000000040ddb4      0x1ec build/sam_e70_xult_freertos/production/_ext/810785262/dns.o

.text.TCPIP_STACK_BringNetUp%181
                0x000000000040dfa0      0x1e8
 .text.TCPIP_STACK_BringNetUp
                0x000000000040dfa0      0x1e8 build/sam_e70_xult_freertos/production/_ext/810785262/tcpip_manager.o

.text.xTaskCreate%182
                0x000000000040e188      0x1e8
 .text.xTaskCreate
                0x000000000040e188      0x1e8 build/sam_e70_xult_freertos/production/_ext/404212886/FreeRTOS_tasks.o
                0x000000000040e188                xTaskCreate

.text._DHCPReceive%183
                0x000000000040e370      0x1e0
 .text._DHCPReceive
                0x000000000040e370      0x1e0 build/sam_e70_xult_freertos/production/_ext/810785262/dhcp.o

.text.TCPIP_ARP_Initialize%184
                0x000000000040e550      0x1e0
 .text.TCPIP_ARP_Initialize
                0x000000000040e550      0x1e0 build/sam_e70_xult_freertos/production/_ext/810785262/arp.o
                0x000000000040e550                TCPIP_ARP_Initialize

.text.TCPIP_IPV4_PacketTransmit%185
                0x000000000040e730      0x1d8
 .text.TCPIP_IPV4_PacketTransmit
                0x000000000040e730      0x1d8 build/sam_e70_xult_freertos/production/_ext/810785262/ipv4.o
                0x000000000040e730                TCPIP_IPV4_PacketTransmit

.text.DRV_MIIM_Tasks%186
                0x000000000040e908      0x1cc
 .text.DRV_MIIM_Tasks
                0x000000000040e908      0x1cc build/sam_e70_xult_freertos/production/_ext/511568427/drv_miim.o
                0x000000000040e908                DRV_MIIM_Tasks

.text._free_r%187
                0x000000000040ead4      0x1cc
 .text._free_r  0x000000000040ead4      0x1cc /Applications/microchip/xc32/v2.15/bin/bin/../../lib/gcc/pic32c/6.2.1/../../../../pic32c/lib/v7e-m/fpv5/hard/libc.a(lib_a-freer.o)
                0x000000000040ead4                _free_r

.text._DHCPSend%188
                0x000000000040eca0      0x1b8
 .text._DHCPSend
                0x000000000040eca0      0x1b8 build/sam_e70_xult_freertos/production/_ext/810785262/dhcp.o

.text.ParseCmdBuffer%189
                0x000000000040ee58      0x1b8
 .text.ParseCmdBuffer
                0x000000000040ee58      0x1b8 build/sam_e70_xult_freertos/production/_ext/762686499/sys_command.o

.text.TCPIP_IPV4_Task%190
                0x000000000040f010      0x1b4
 .text.TCPIP_IPV4_Task
                0x000000000040f010      0x1b4 build/sam_e70_xult_freertos/production/_ext/810785262/ipv4.o
                0x000000000040f010                TCPIP_IPV4_Task

.text.TCPIP_DHCP_Initialize%191
                0x000000000040f1c4      0x1ac
 .text.TCPIP_DHCP_Initialize
                0x000000000040f1c4      0x1ac build/sam_e70_xult_freertos/production/_ext/810785262/dhcp.o
                0x000000000040f1c4                TCPIP_DHCP_Initialize

.text._Command_MacInfo%192
                0x000000000040f370      0x198
 .text._Command_MacInfo
                0x000000000040f370      0x198 build/sam_e70_xult_freertos/production/_ext/810785262/tcpip_commands.o

.text.TCPIP_TCP_ArrayPut%193
                0x000000000040f508      0x194
 .text.TCPIP_TCP_ArrayPut
                0x000000000040f508      0x194 build/sam_e70_xult_freertos/production/_ext/810785262/tcp.o
                0x000000000040f508                TCPIP_TCP_ArrayPut

.text.CommandHelp%194
                0x000000000040f69c      0x190
 .text.CommandHelp
                0x000000000040f69c      0x190 build/sam_e70_xult_freertos/production/_ext/762686499/sys_command.o

.text._DHCPOptionHostName%195
                0x000000000040f82c      0x18c
 .text._DHCPOptionHostName
                0x000000000040f82c      0x18c build/sam_e70_xult_freertos/production/_ext/810785262/dhcp.o

.text.__hexnan%196
                0x000000000040f9b8      0x184
 .text.__hexnan
                0x000000000040f9b8      0x184 /Applications/microchip/xc32/v2.15/bin/bin/../../lib/gcc/pic32c/6.2.1/../../../../pic32c/lib/v7e-m/fpv5/hard/libc.a(lib_a-gdtoa-hexnan.o)
                0x000000000040f9b8                __hexnan

.text.TCPIP_IPV4_PacketFormatTx%197
                0x000000000040fb3c      0x178
 .text.TCPIP_IPV4_PacketFormatTx
                0x000000000040fb3c      0x178 build/sam_e70_xult_freertos/production/_ext/810785262/ipv4.o
                0x000000000040fb3c                TCPIP_IPV4_PacketFormatTx

.text.DRV_PIC32CGMAC_LibRxFilterHash_Calculate%198
                0x000000000040fcb4      0x178
 .text.DRV_PIC32CGMAC_LibRxFilterHash_Calculate
                0x000000000040fcb4      0x178 build/sam_e70_xult_freertos/production/_ext/1619526243/drv_gmac_lib_samE7x_V7x.o
                0x000000000040fcb4                DRV_PIC32CGMAC_LibRxFilterHash_Calculate

.text.Reset_Handler%199
                0x000000000040fe2c      0x178
 .text.Reset_Handler
                0x000000000040fe2c      0x178 build/sam_e70_xult_freertos/production/_ext/1552905064/startup_xc32.o
                0x000000000040fe2c                Reset_Handler

.text.TWIHS0_InterruptHandler%200
                0x000000000040ffa4      0x174
 .text.TWIHS0_InterruptHandler
                0x000000000040ffa4      0x174 build/sam_e70_xult_freertos/production/_ext/901805035/plib_twihs0.o
                0x000000000040ffa4                TWIHS0_InterruptHandler

.text._UDPOpen%201
                0x0000000000410118      0x16c
 .text._UDPOpen
                0x0000000000410118      0x16c build/sam_e70_xult_freertos/production/_ext/810785262/udp.o

.text.xQueueSemaphoreTake%202
                0x0000000000410284      0x15c
 .text.xQueueSemaphoreTake
                0x0000000000410284      0x15c build/sam_e70_xult_freertos/production/_ext/404212886/queue.o
                0x0000000000410284                xQueueSemaphoreTake

.text.TCPIP_DNS_EntryQuery%203
                0x00000000004103e0      0x158
 .text.TCPIP_DNS_EntryQuery
                0x00000000004103e0      0x158 build/sam_e70_xult_freertos/production/_ext/810785262/dns.o
                0x00000000004103e0                TCPIP_DNS_EntryQuery

.text._MACDeinit%204
                0x0000000000410538      0x14c
 .text._MACDeinit
                0x0000000000410538      0x14c build/sam_e70_xult_freertos/production/_ext/1619526243/drv_gmac.o

.text.TCPIP_TCP_Initialize%205
                0x0000000000410684      0x144
 .text.TCPIP_TCP_Initialize
                0x0000000000410684      0x144 build/sam_e70_xult_freertos/production/_ext/810785262/tcp.o
                0x0000000000410684                TCPIP_TCP_Initialize

.text._MacTxDiscardQueues%206
                0x00000000004107c8      0x144
 .text._MacTxDiscardQueues
                0x00000000004107c8      0x144 build/sam_e70_xult_freertos/production/_ext/1619526243/drv_gmac.o

.text.TCPIP_UDP_Bind%207
                0x000000000041090c      0x13c
 .text.TCPIP_UDP_Bind
                0x000000000041090c      0x13c build/sam_e70_xult_freertos/production/_ext/810785262/udp.o
                0x000000000041090c                TCPIP_UDP_Bind

.text%208       0x0000000000410a48      0x134
 .text          0x0000000000410a48      0x134 /Applications/microchip/xc32/v2.15/bin/bin/../../lib/gcc/pic32c/6.2.1/../../../../pic32c/lib/v7e-m/fpv5/hard/libc.a(lib_a-memcpy.o)
                0x0000000000410a48                memcpy

.text._Command_StackOnOff%209
                0x0000000000410b7c      0x130
 .text._Command_StackOnOff
                0x0000000000410b7c      0x130 build/sam_e70_xult_freertos/production/_ext/810785262/tcpip_commands.o

.text._DNS_RESPONSE_HashEntryUpdate%210
                0x0000000000410cac      0x12e
 .text._DNS_RESPONSE_HashEntryUpdate
                0x0000000000410cac      0x12e build/sam_e70_xult_freertos/production/_ext/810785262/dns.o

.text._Command_NetworkOnOff%211
                0x0000000000410ddc      0x128
 .text._Command_NetworkOnOff
                0x0000000000410ddc      0x128 build/sam_e70_xult_freertos/production/_ext/810785262/tcpip_commands.o

.text.xQueueGenericSend%212
                0x0000000000410f04      0x128
 .text.xQueueGenericSend
                0x0000000000410f04      0x128 build/sam_e70_xult_freertos/production/_ext/404212886/queue.o
                0x0000000000410f04                xQueueGenericSend

.text._strtol_l.isra.0%213
                0x000000000041102c      0x128
 .text._strtol_l.isra.0
                0x000000000041102c      0x128 /Applications/microchip/xc32/v2.15/bin/bin/../../lib/gcc/pic32c/6.2.1/../../../../pic32c/lib/v7e-m/fpv5/hard/libc.a(lib_a-strtol.o)

.text.quorem%214
                0x0000000000411154      0x128
 .text.quorem   0x0000000000411154      0x128 /Applications/microchip/xc32/v2.15/bin/bin/../../lib/gcc/pic32c/6.2.1/../../../../pic32c/lib/v7e-m/fpv5/hard/libc.a(lib_a-dtoa.o)

.text._Command_AddressService%215
                0x000000000041127c      0x124
 .text._Command_AddressService
                0x000000000041127c      0x124 build/sam_e70_xult_freertos/production/_ext/810785262/tcpip_commands.o

.text.__multiply%216
                0x00000000004113a0      0x124
 .text.__multiply
                0x00000000004113a0      0x124 /Applications/microchip/xc32/v2.15/bin/bin/../../lib/gcc/pic32c/6.2.1/../../../../pic32c/lib/v7e-m/fpv5/hard/libc.a(lib_a-mprec.o)
                0x00000000004113a0                __multiply

.text.TCPIP_DNS_ClientTask%217
                0x00000000004114c4      0x120
 .text.TCPIP_DNS_ClientTask
                0x00000000004114c4      0x120 build/sam_e70_xult_freertos/production/_ext/810785262/dns.o
                0x00000000004114c4                TCPIP_DNS_ClientTask

.text.TCPIP_UDP_Deinitialize%218
                0x00000000004115e4      0x120
 .text.TCPIP_UDP_Deinitialize
                0x00000000004115e4      0x120 build/sam_e70_xult_freertos/production/_ext/810785262/udp.o
                0x00000000004115e4                TCPIP_UDP_Deinitialize

.text._DNS_Resolve%219
                0x0000000000411704      0x11c
 .text._DNS_Resolve
                0x0000000000411704      0x11c build/sam_e70_xult_freertos/production/_ext/810785262/dns.o

.text.USART1_InterruptHandler%220
                0x0000000000411820      0x11c
 .text.USART1_InterruptHandler
                0x0000000000411820      0x11c build/sam_e70_xult_freertos/production/_ext/901008055/plib_usart1.o
                0x0000000000411820                USART1_InterruptHandler

.text._DRV_ETHPHY_SetupPhaseDetect%221
                0x000000000041193c      0x11c
 .text._DRV_ETHPHY_SetupPhaseDetect
                0x000000000041193c      0x11c build/sam_e70_xult_freertos/production/_ext/1607428259/drv_ethphy.o

.text._LoadNetworkConfig%222
                0x0000000000411a58      0x11a
 .text._LoadNetworkConfig
                0x0000000000411a58      0x11a build/sam_e70_xult_freertos/production/_ext/810785262/tcpip_manager.o

.text._TCPIP_HEAP_Free%223
                0x0000000000411b72      0x114
 .text._TCPIP_HEAP_Free
                0x0000000000411b72      0x114 build/sam_e70_xult_freertos/production/_ext/810785262/tcpip_heap_internal.o

.text._Command_HeapInfo%224
                0x0000000000411c88      0x110
 .text._Command_HeapInfo
                0x0000000000411c88      0x110 build/sam_e70_xult_freertos/production/_ext/810785262/tcpip_commands.o

.text._UDPv4TxAckFnc%225
                0x0000000000411d98      0x110
 .text._UDPv4TxAckFnc
                0x0000000000411d98      0x110 build/sam_e70_xult_freertos/production/_ext/810785262/udp.o

.text.TCPIP_UDP_OptionsGet%226
                0x0000000000411ea8      0x10e
 .text.TCPIP_UDP_OptionsGet
                0x0000000000411ea8      0x10e build/sam_e70_xult_freertos/production/_ext/810785262/udp.o
                0x0000000000411ea8                TCPIP_UDP_OptionsGet

.text.__mdiff%227
                0x0000000000411fb8      0x108
 .text.__mdiff  0x0000000000411fb8      0x108 /Applications/microchip/xc32/v2.15/bin/bin/../../lib/gcc/pic32c/6.2.1/../../../../pic32c/lib/v7e-m/fpv5/hard/libc.a(lib_a-mprec.o)
                0x0000000000411fb8                __mdiff

.text.DRV_GMAC_Tasks%228
                0x00000000004120c0      0x104
 .text.DRV_GMAC_Tasks
                0x00000000004120c0      0x104 build/sam_e70_xult_freertos/production/_ext/1619526243/drv_gmac.o
                0x00000000004120c0                DRV_GMAC_Tasks

.rodata._ctype_%229
                0x00000000004121c4      0x104
 .rodata._ctype_
                0x00000000004121c4      0x104 /Applications/microchip/xc32/v2.15/bin/bin/../../lib/gcc/pic32c/6.2.1/../../../../pic32c/lib/v7e-m/fpv5/hard/libc.a(lib_a-ctype_.o)
                0x00000000004121c4                _ctype_

.text._Command_IPAddressSet%230
                0x00000000004122c8      0x100
 .text._Command_IPAddressSet
                0x00000000004122c8      0x100 build/sam_e70_xult_freertos/production/_ext/810785262/tcpip_commands.o

.text.xTaskIncrementTick%231
                0x00000000004123c8      0x100
 .text.xTaskIncrementTick
                0x00000000004123c8      0x100 build/sam_e70_xult_freertos/production/_ext/404212886/FreeRTOS_tasks.o
                0x00000000004123c8                xTaskIncrementTick

.rodata.__hexdig%232
                0x00000000004124c8      0x100
 .rodata.__hexdig
                0x00000000004124c8      0x100 /Applications/microchip/xc32/v2.15/bin/bin/../../lib/gcc/pic32c/6.2.1/../../../../pic32c/lib/v7e-m/fpv5/hard/libc.a(lib_a-gdtoa-gethex.o)
                0x00000000004124c8                __hexdig

.text._Tcpv4TxAckFnc%233
                0x00000000004125c8       0xfc
 .text._Tcpv4TxAckFnc
                0x00000000004125c8       0xfc build/sam_e70_xult_freertos/production/_ext/810785262/tcp.o

.text.TCPIP_ARP_EntryRemoveNet%234
                0x00000000004126c4       0xfc
 .text.TCPIP_ARP_EntryRemoveNet
                0x00000000004126c4       0xfc build/sam_e70_xult_freertos/production/_ext/810785262/arp.o
                0x00000000004126c4                TCPIP_ARP_EntryRemoveNet

.text.TCPIP_Helper_StringToIPAddress%235
                0x00000000004127c0       0xfc
 .text.TCPIP_Helper_StringToIPAddress
                0x00000000004127c0       0xfc build/sam_e70_xult_freertos/production/_ext/810785262/tcpip_helpers.o
                0x00000000004127c0                TCPIP_Helper_StringToIPAddress

.text.TCPIP_UDP_Initialize%236
                0x00000000004128bc       0xfc
 .text.TCPIP_UDP_Initialize
                0x00000000004128bc       0xfc build/sam_e70_xult_freertos/production/_ext/810785262/udp.o
                0x00000000004128bc                TCPIP_UDP_Initialize

.text.__ssprint_r%237
                0x00000000004129b8       0xfc
 .text.__ssprint_r
                0x00000000004129b8       0xfc /Applications/microchip/xc32/v2.15/bin/bin/../../lib/gcc/pic32c/6.2.1/../../../../pic32c/lib/v7e-m/fpv5/hard/libc.a(lib_a-svfiprintf.o)
                0x00000000004129b8                __ssprint_r

.text.DRV_PIC32CGMAC_LibTxAckPacket%238
                0x0000000000412ab4       0xfa
 .text.DRV_PIC32CGMAC_LibTxAckPacket
                0x0000000000412ab4       0xfa build/sam_e70_xult_freertos/production/_ext/1619526243/drv_gmac_lib_samE7x_V7x.o
                0x0000000000412ab4                DRV_PIC32CGMAC_LibTxAckPacket

.text._DNS_IsNameResolved%239
                0x0000000000412bb0       0xf8
 .text._DNS_IsNameResolved
                0x0000000000412bb0       0xf8 build/sam_e70_xult_freertos/production/_ext/810785262/dns.o

.text.DRV_PIC32CGMAC_LibTxInit%240
                0x0000000000412ca8       0xf8
 .text.DRV_PIC32CGMAC_LibTxInit
                0x0000000000412ca8       0xf8 build/sam_e70_xult_freertos/production/_ext/1619526243/drv_gmac_lib_samE7x_V7x.o
                0x0000000000412ca8                DRV_PIC32CGMAC_LibTxInit

.text._ARPProbeAddress%241
                0x0000000000412da0       0xec
 .text._ARPProbeAddress
                0x0000000000412da0       0xec build/sam_e70_xult_freertos/production/_ext/810785262/arp.o

.text.TCPIP_UDP_ArrayGet%242
                0x0000000000412e8c       0xec
 .text.TCPIP_UDP_ArrayGet
                0x0000000000412e8c       0xec build/sam_e70_xult_freertos/production/_ext/810785262/udp.o
                0x0000000000412e8c                TCPIP_UDP_ArrayGet

.text.TCPIP_TCP_Deinitialize%243
                0x0000000000412f78       0xe8
 .text.TCPIP_TCP_Deinitialize
                0x0000000000412f78       0xe8 build/sam_e70_xult_freertos/production/_ext/810785262/tcp.o
                0x0000000000412f78                TCPIP_TCP_Deinitialize

.text.TCPIP_TCP_ArrayGet%244
                0x0000000000413060       0xe8
 .text.TCPIP_TCP_ArrayGet
                0x0000000000413060       0xe8 build/sam_e70_xult_freertos/production/_ext/810785262/tcp.o
                0x0000000000413060                TCPIP_TCP_ArrayGet

.text.DRV_GMAC_PacketRx%245
                0x0000000000413148       0xe8
 .text.DRV_GMAC_PacketRx
                0x0000000000413148       0xe8 build/sam_e70_xult_freertos/production/_ext/1619526243/drv_gmac.o
                0x0000000000413148                DRV_GMAC_PacketRx

.text.DRV_PIC32CGMAC_LibRxBuffersAppend%246
                0x0000000000413230       0xe8
 .text.DRV_PIC32CGMAC_LibRxBuffersAppend
                0x0000000000413230       0xe8 build/sam_e70_xult_freertos/production/_ext/1619526243/drv_gmac_lib_samE7x_V7x.o
                0x0000000000413230                DRV_PIC32CGMAC_LibRxBuffersAppend

.text.xTaskResumeAll%247
                0x0000000000413318       0xe8
 .text.xTaskResumeAll
                0x0000000000413318       0xe8 build/sam_e70_xult_freertos/production/_ext/404212886/FreeRTOS_tasks.o
                0x0000000000413318                xTaskResumeAll

.text.strchr%248
                0x0000000000413400       0xe8
 .text.strchr   0x0000000000413400       0xe8 /Applications/microchip/xc32/v2.15/bin/bin/../../lib/gcc/pic32c/6.2.1/../../../../pic32c/lib/v7e-m/fpv5/hard/libc.a(lib_a-strchr.o)
                0x0000000000413400                strchr

.text.DRV_GMAC_EventMaskSet%249
                0x00000000004134e8       0xe4
 .text.DRV_GMAC_EventMaskSet
                0x00000000004134e8       0xe4 build/sam_e70_xult_freertos/production/_ext/1619526243/drv_gmac.o
                0x00000000004134e8                DRV_GMAC_EventMaskSet

.text._DRV_MIIM_StartOp%250
                0x00000000004135cc       0xe4
 .text._DRV_MIIM_StartOp
                0x00000000004135cc       0xe4 build/sam_e70_xult_freertos/production/_ext/511568427/drv_miim.o

.text.SYS_TIME_PLIBCallback%251
                0x00000000004136b0       0xe0
 .text.SYS_TIME_PLIBCallback
                0x00000000004136b0       0xe0 build/sam_e70_xult_freertos/production/_ext/912870411/sys_time.o

.text._DRV_MIIM_ClientDeallocate%252
                0x0000000000413790       0xe0
 .text._DRV_MIIM_ClientDeallocate
                0x0000000000413790       0xe0 build/sam_e70_xult_freertos/production/_ext/511568427/drv_miim.o

.text.TCPIP_ICMP_Task%253
                0x0000000000413870       0xdc
 .text.TCPIP_ICMP_Task
                0x0000000000413870       0xdc build/sam_e70_xult_freertos/production/_ext/810785262/icmp.o
                0x0000000000413870                TCPIP_ICMP_Task

.text._DRV_ETHPHY_SetupPhaseReset%254
                0x000000000041394c       0xdc
 .text._DRV_ETHPHY_SetupPhaseReset
                0x000000000041394c       0xdc build/sam_e70_xult_freertos/production/_ext/1607428259/drv_ethphy.o

.text.DRV_EXTPHY_MDIXConfigure%255
                0x0000000000413a28       0xdc
 .text.DRV_EXTPHY_MDIXConfigure
                0x0000000000413a28       0xdc build/sam_e70_xult_freertos/production/_ext/1607428259/drv_extphy_smsc8740.o

.text%256       0x0000000000413b40       0xdc
 .text          0x0000000000413b40       0xdc /Applications/microchip/xc32/v2.15/bin/bin/../../lib/gcc/pic32c/6.2.1/../../../../pic32c/lib/v7e-m/fpv5/hard/libc.a(lib_a-strlen.o)
                0x0000000000413b40                strlen

.text._DNS_GetAddresses%257
                0x0000000000413c1c       0xd8
 .text._DNS_GetAddresses
                0x0000000000413c1c       0xd8 build/sam_e70_xult_freertos/production/_ext/810785262/dns.o

.text.DRV_PIC32CGMAC_LibRxInit%258
                0x0000000000413cf4       0xd8
 .text.DRV_PIC32CGMAC_LibRxInit
                0x0000000000413cf4       0xd8 build/sam_e70_xult_freertos/production/_ext/1619526243/drv_gmac_lib_samE7x_V7x.o
                0x0000000000413cf4                DRV_PIC32CGMAC_LibRxInit

.text._TcpCloseSocket%259
                0x0000000000413dcc       0xd6
 .text._TcpCloseSocket
                0x0000000000413dcc       0xd6 build/sam_e70_xult_freertos/production/_ext/810785262/tcp.o

.text._DRV_ETHPHY_NegResultPhase_ANAD%260
                0x0000000000413ea2       0xd2
 .text._DRV_ETHPHY_NegResultPhase_ANAD
                0x0000000000413ea2       0xd2 build/sam_e70_xult_freertos/production/_ext/1607428259/drv_ethphy.o

.text._GetMaxSegSizeOption%261
                0x0000000000413f74       0xcc
 .text._GetMaxSegSizeOption
                0x0000000000413f74       0xcc build/sam_e70_xult_freertos/production/_ext/810785262/tcp.o

.text._Command_DefaultInterfaceSet%262
                0x0000000000414040       0xcc
 .text._Command_DefaultInterfaceSet
                0x0000000000414040       0xcc build/sam_e70_xult_freertos/production/_ext/810785262/tcpip_commands.o

.rodata%263     0x000000000041410c       0xc8
 .rodata        0x000000000041410c       0xc8 build/sam_e70_xult_freertos/production/_ext/1360937237/app_commands.o

.text._DHCPStartOperation%264
                0x00000000004141d4       0xc8
 .text._DHCPStartOperation
                0x00000000004141d4       0xc8 build/sam_e70_xult_freertos/production/_ext/810785262/dhcp.o

.text.TCPIP_IPV4_SelectSourceInterface%265
                0x000000000041429c       0xc8
 .text.TCPIP_IPV4_SelectSourceInterface
                0x000000000041429c       0xc8 build/sam_e70_xult_freertos/production/_ext/810785262/ipv4.o
                0x000000000041429c                TCPIP_IPV4_SelectSourceInterface

.text.TCPIP_HEAP_CreateInternal%266
                0x0000000000414364       0xc8
 .text.TCPIP_HEAP_CreateInternal
                0x0000000000414364       0xc8 build/sam_e70_xult_freertos/production/_ext/810785262/tcpip_heap_internal.o
                0x0000000000414364                TCPIP_HEAP_CreateInternal

.text.DRV_ETHPHY_Setup%267
                0x000000000041442c       0xc8
 .text.DRV_ETHPHY_Setup
                0x000000000041442c       0xc8 build/sam_e70_xult_freertos/production/_ext/1607428259/drv_ethphy.o
                0x000000000041442c                DRV_ETHPHY_Setup

.rodata.__mprec_tens%268
                0x00000000004144f8       0xc8
 .rodata.__mprec_tens
                0x00000000004144f8       0xc8 /Applications/microchip/xc32/v2.15/bin/bin/../../lib/gcc/pic32c/6.2.1/../../../../pic32c/lib/v7e-m/fpv5/hard/libc.a(lib_a-mprec.o)
                0x00000000004144f8                __mprec_tens

.text.memmove%269
                0x00000000004145c0       0xc8
 .text.memmove  0x00000000004145c0       0xc8 /Applications/microchip/xc32/v2.15/bin/bin/../../lib/gcc/pic32c/6.2.1/../../../../pic32c/lib/v7e-m/fpv5/hard/libc.a(lib_a-memmove.o)
                0x00000000004145c0                memmove

.text._DHCPProcessReceiveData%270
                0x0000000000414688       0xc4
 .text._DHCPProcessReceiveData
                0x0000000000414688       0xc4 build/sam_e70_xult_freertos/production/_ext/810785262/dhcp.o

.text.__b2d%271
                0x000000000041474c       0xc4
 .text.__b2d    0x000000000041474c       0xc4 /Applications/microchip/xc32/v2.15/bin/bin/../../lib/gcc/pic32c/6.2.1/../../../../pic32c/lib/v7e-m/fpv5/hard/libc.a(lib_a-mprec.o)
                0x000000000041474c                __b2d

.text._DRV_PHY_SMITransferDo%272
                0x0000000000414810       0xc2
 .text._DRV_PHY_SMITransferDo
                0x0000000000414810       0xc2 build/sam_e70_xult_freertos/production/_ext/1607428259/drv_ethphy.o

.rodata.tcpipCmdTbl%273
                0x00000000004148d4       0xc0
 .rodata.tcpipCmdTbl
                0x00000000004148d4       0xc0 build/sam_e70_xult_freertos/production/_ext/810785262/tcpip_commands.o

.text.DRV_EXTPHY_MIIConfigure%274
                0x0000000000414994       0xbc
 .text.DRV_EXTPHY_MIIConfigure
                0x0000000000414994       0xbc build/sam_e70_xult_freertos/production/_ext/1607428259/drv_extphy_smsc8740.o

.text.strcpy%275
                0x0000000000414a50       0xbc
 .text.strcpy   0x0000000000414a50       0xbc /Applications/microchip/xc32/v2.15/bin/bin/../../lib/gcc/pic32c/6.2.1/../../../../pic32c/lib/v7e-m/fpv5/hard/libc.a(lib_a-strcpy.o)
                0x0000000000414a50                strcpy

.text.__d2b%276
                0x0000000000414b0c       0xbc
 .text.__d2b    0x0000000000414b0c       0xbc /Applications/microchip/xc32/v2.15/bin/bin/../../lib/gcc/pic32c/6.2.1/../../../../pic32c/lib/v7e-m/fpv5/hard/libc.a(lib_a-mprec.o)
                0x0000000000414b0c                __d2b

.text.TCPIP_STACK_KillStack%277
                0x0000000000414bc8       0xb8
 .text.TCPIP_STACK_KillStack
                0x0000000000414bc8       0xb8 build/sam_e70_xult_freertos/production/_ext/810785262/tcpip_manager.o

.text.xTaskPriorityInherit%278
                0x0000000000414c80       0xb8
 .text.xTaskPriorityInherit
                0x0000000000414c80       0xb8 build/sam_e70_xult_freertos/production/_ext/404212886/FreeRTOS_tasks.o
                0x0000000000414c80                xTaskPriorityInherit

.text.critical_factorization%279
                0x0000000000414d38       0xb4
 .text.critical_factorization
                0x0000000000414d38       0xb4 /Applications/microchip/xc32/v2.15/bin/bin/../../lib/gcc/pic32c/6.2.1/../../../../pic32c/lib/v7e-m/fpv5/hard/libc.a(lib_a-strstr.o)

.text.TCPIP_Helper_IPv6AddressToString%280
                0x0000000000414dec       0xb2
 .text.TCPIP_Helper_IPv6AddressToString
                0x0000000000414dec       0xb2 build/sam_e70_xult_freertos/production/_ext/810785262/tcpip_helpers.o
                0x0000000000414dec                TCPIP_Helper_IPv6AddressToString

.text._TcpSocketSetIdleState%281
                0x0000000000414e9e       0xb0
 .text._TcpSocketSetIdleState
                0x0000000000414e9e       0xb0 build/sam_e70_xult_freertos/production/_ext/810785262/tcp.o

.text.SYS_TIME_Initialize%282
                0x0000000000414f50       0xb0
 .text.SYS_TIME_Initialize
                0x0000000000414f50       0xb0 build/sam_e70_xult_freertos/production/_ext/912870411/sys_time.o
                0x0000000000414f50                SYS_TIME_Initialize

.text.DRV_GMAC_Tasks_ISR%283
                0x0000000000415000       0xb0
 .text.DRV_GMAC_Tasks_ISR
                0x0000000000415000       0xb0 build/sam_e70_xult_freertos/production/_ext/1619526243/drv_gmac.o
                0x0000000000415000                DRV_GMAC_Tasks_ISR

.text.SYS_TIME_TimerObjectCreate%284
                0x00000000004150b0       0xac
 .text.SYS_TIME_TimerObjectCreate
                0x00000000004150b0       0xac build/sam_e70_xult_freertos/production/_ext/912870411/sys_time.o

.text._TCPIP_HEAP_Malloc%285
                0x000000000041515c       0xac
 .text._TCPIP_HEAP_Malloc
                0x000000000041515c       0xac build/sam_e70_xult_freertos/production/_ext/810785262/tcpip_heap_internal.o

.text.vTaskSwitchContext%286
                0x0000000000415208       0xac
 .text.vTaskSwitchContext
                0x0000000000415208       0xac build/sam_e70_xult_freertos/production/_ext/404212886/FreeRTOS_tasks.o
                0x0000000000415208                vTaskSwitchContext

.text._TcpDisconnect%287
                0x00000000004152b4       0xaa
 .text._TcpDisconnect
                0x00000000004152b4       0xaa build/sam_e70_xult_freertos/production/_ext/810785262/tcp.o

.text._DHCPEnable%288
                0x0000000000415360       0xa8
 .text._DHCPEnable
                0x0000000000415360       0xa8 build/sam_e70_xult_freertos/production/_ext/810785262/dhcp.o

.text._Command_MACAddressSet%289
                0x0000000000415408       0xa8
 .text._Command_MACAddressSet
                0x0000000000415408       0xa8 build/sam_e70_xult_freertos/production/_ext/810785262/tcpip_commands.o

.text.TCPIP_STACK_NetUp%290
                0x00000000004154b0       0xa8
 .text.TCPIP_STACK_NetUp
                0x00000000004154b0       0xa8 build/sam_e70_xult_freertos/production/_ext/810785262/tcpip_manager.o
                0x00000000004154b0                TCPIP_STACK_NetUp

.text._ARPSendIfPkt%291
                0x0000000000415558       0xa4
 .text._ARPSendIfPkt
                0x0000000000415558       0xa4 build/sam_e70_xult_freertos/production/_ext/810785262/arp.o

.text.TCPIP_ARP_EntryQuery%292
                0x00000000004155fc       0xa4
 .text.TCPIP_ARP_EntryQuery
                0x00000000004155fc       0xa4 build/sam_e70_xult_freertos/production/_ext/810785262/arp.o
                0x00000000004155fc                TCPIP_ARP_EntryQuery

.text.__lshift%293
                0x00000000004156a0       0xa4
 .text.__lshift
                0x00000000004156a0       0xa4 /Applications/microchip/xc32/v2.15/bin/bin/../../lib/gcc/pic32c/6.2.1/../../../../pic32c/lib/v7e-m/fpv5/hard/libc.a(lib_a-mprec.o)
                0x00000000004156a0                __lshift

.text.strncmp%294
                0x0000000000415744       0xa4
 .text.strncmp  0x0000000000415744       0xa4 /Applications/microchip/xc32/v2.15/bin/bin/../../lib/gcc/pic32c/6.2.1/../../../../pic32c/lib/v7e-m/fpv5/hard/libc.a(lib_a-strncmp.o)
                0x0000000000415744                strncmp

.text.__register_exitproc%295
                0x00000000004157e8       0xa4
 .text.__register_exitproc
                0x00000000004157e8       0xa4 /Applications/microchip/xc32/v2.15/bin/bin/../../lib/gcc/pic32c/6.2.1/../../../../pic32c/lib/v7e-m/fpv5/hard/libc.a(lib_a-__atexit.o)
                0x00000000004157e8                __register_exitproc

.text._ARPDeleteResources%296
                0x000000000041588c       0xa0
 .text._ARPDeleteResources
                0x000000000041588c       0xa0 build/sam_e70_xult_freertos/production/_ext/810785262/arp.o

.text.SYS_TIME_AddToList%297
                0x000000000041592c       0xa0
 .text.SYS_TIME_AddToList
                0x000000000041592c       0xa0 build/sam_e70_xult_freertos/production/_ext/912870411/sys_time.o

.text.DRV_GMAC_PacketTx%298
                0x00000000004159cc       0xa0
 .text.DRV_GMAC_PacketTx
                0x00000000004159cc       0xa0 build/sam_e70_xult_freertos/production/_ext/1619526243/drv_gmac.o
                0x00000000004159cc                DRV_GMAC_PacketTx

.text._UDPv4AllocateSktTxBuffer%299
                0x0000000000415a6c       0xa0
 .text._UDPv4AllocateSktTxBuffer
                0x0000000000415a6c       0xa0 build/sam_e70_xult_freertos/production/_ext/810785262/udp.o

.text.TCPIP_UDP_Disconnect%300
                0x0000000000415b0c       0xa0
 .text.TCPIP_UDP_Disconnect
                0x0000000000415b0c       0xa0 build/sam_e70_xult_freertos/production/_ext/810785262/udp.o
                0x0000000000415b0c                TCPIP_UDP_Disconnect

.text._DRV_ETHPHY_SetupPhaseNegotiate_SubPhase3%301
                0x0000000000415bac       0xa0
 .text._DRV_ETHPHY_SetupPhaseNegotiate_SubPhase3
                0x0000000000415bac       0xa0 build/sam_e70_xult_freertos/production/_ext/1607428259/drv_ethphy.o

.text._DRV_ETHPHY_NegCompletePhaseAN_Restart%302
                0x0000000000415c4c       0xa0
 .text._DRV_ETHPHY_NegCompletePhaseAN_Restart
                0x0000000000415c4c       0xa0 build/sam_e70_xult_freertos/production/_ext/1607428259/drv_ethphy.o

.text.DisplayNodeMsg%303
                0x0000000000415cec       0xa0
 .text.DisplayNodeMsg
                0x0000000000415cec       0xa0 build/sam_e70_xult_freertos/production/_ext/762686499/sys_command.o

.text%304       0x0000000000415d90       0xa0
 .text          0x0000000000415d90       0xa0 /Applications/microchip/xc32/v2.15/bin/bin/../../lib/gcc/pic32c/6.2.1/../../../../pic32c/lib/v7e-m/fpv5/hard/libc.a(lib_a-memchr.o)
                0x0000000000415d90                memchr

.text.__pow5mult%305
                0x0000000000415e30       0xa0
 .text.__pow5mult
                0x0000000000415e30       0xa0 /Applications/microchip/xc32/v2.15/bin/bin/../../lib/gcc/pic32c/6.2.1/../../../../pic32c/lib/v7e-m/fpv5/hard/libc.a(lib_a-mprec.o)
                0x0000000000415e30                __pow5mult

.text._DRV_ETHPHY_SetupPhaseNegotiate_SubPhase0%306
                0x0000000000415ed0       0x9e
 .text._DRV_ETHPHY_SetupPhaseNegotiate_SubPhase0
                0x0000000000415ed0       0x9e build/sam_e70_xult_freertos/production/_ext/1607428259/drv_ethphy.o

.text.SYS_TIME_HwTimerCompareUpdate%307
                0x0000000000415f70       0x9c
 .text.SYS_TIME_HwTimerCompareUpdate
                0x0000000000415f70       0x9c build/sam_e70_xult_freertos/production/_ext/912870411/sys_time.o

.text.DRV_MIIM_Setup%308
                0x000000000041600c       0x9c
 .text.DRV_MIIM_Setup
                0x000000000041600c       0x9c build/sam_e70_xult_freertos/production/_ext/511568427/drv_miim.o
                0x000000000041600c                DRV_MIIM_Setup

.text.DRV_MIIM_OperationResult%309
                0x00000000004160a8       0x9c
 .text.DRV_MIIM_OperationResult
                0x00000000004160a8       0x9c build/sam_e70_xult_freertos/production/_ext/511568427/drv_miim.o
                0x00000000004160a8                DRV_MIIM_OperationResult

.text.memset%310
                0x0000000000416144       0x9c
 .text.memset   0x0000000000416144       0x9c /Applications/microchip/xc32/v2.15/bin/bin/../../lib/gcc/pic32c/6.2.1/../../../../pic32c/lib/v7e-m/fpv5/hard/libc.a(lib_a-memset.o)
                0x0000000000416144                memset

.text.__s2b%311
                0x00000000004161e0       0x9c
 .text.__s2b    0x00000000004161e0       0x9c /Applications/microchip/xc32/v2.15/bin/bin/../../lib/gcc/pic32c/6.2.1/../../../../pic32c/lib/v7e-m/fpv5/hard/libc.a(lib_a-mprec.o)
                0x00000000004161e0                __s2b

.text._Command_PrimaryDNSAddressSet%312
                0x000000000041627c       0x98
 .text._Command_PrimaryDNSAddressSet
                0x000000000041627c       0x98 build/sam_e70_xult_freertos/production/_ext/810785262/tcpip_commands.o

.text.TCPIP_IPV4_ArpHandler%313
                0x0000000000416314       0x98
 .text.TCPIP_IPV4_ArpHandler
                0x0000000000416314       0x98 build/sam_e70_xult_freertos/production/_ext/810785262/ipv4.o

.text._TCPIPStackModuleRxPurge%314
                0x00000000004163ac       0x98
 .text._TCPIPStackModuleRxPurge
                0x00000000004163ac       0x98 build/sam_e70_xult_freertos/production/_ext/810785262/tcpip_manager.o
                0x00000000004163ac                _TCPIPStackModuleRxPurge

.text.snprintf%315
                0x0000000000416444       0x98
 .text.snprintf
                0x0000000000416444       0x98 /Applications/microchip/xc32/v2.15/bin/bin/../../lib/gcc/pic32c/6.2.1/../../../../pic32c/lib/v7e-m/fpv5/hard/libc.a(lib_a-snprintf.o)
                0x0000000000416444                snprintf
                0x0000000000416444                __snprintf_s
                0x0000000000416444                __snprintf_dis

.text.rshift%316
                0x00000000004164dc       0x98
 .text.rshift   0x00000000004164dc       0x98 /Applications/microchip/xc32/v2.15/bin/bin/../../lib/gcc/pic32c/6.2.1/../../../../pic32c/lib/v7e-m/fpv5/hard/libc.a(lib_a-gdtoa-gethex.o)

.text.TCPIP_DHCP_InfoGet%317
                0x0000000000416574       0x94
 .text.TCPIP_DHCP_InfoGet
                0x0000000000416574       0x94 build/sam_e70_xult_freertos/production/_ext/810785262/dhcp.o
                0x0000000000416574                TCPIP_DHCP_InfoGet

.text._Command_GatewayAddressSet%318
                0x0000000000416608       0x94
 .text._Command_GatewayAddressSet
                0x0000000000416608       0x94 build/sam_e70_xult_freertos/production/_ext/810785262/tcpip_commands.o

.text._UDPsetPacketInfo%319
                0x000000000041669c       0x94
 .text._UDPsetPacketInfo
                0x000000000041669c       0x94 build/sam_e70_xult_freertos/production/_ext/810785262/udp.o

.text.prvAddCurrentTaskToDelayedList%320
                0x0000000000416730       0x94
 .text.prvAddCurrentTaskToDelayedList
                0x0000000000416730       0x94 build/sam_e70_xult_freertos/production/_ext/404212886/FreeRTOS_tasks.o

.text._malloc_trim_r%321
                0x00000000004167c4       0x94
 .text._malloc_trim_r
                0x00000000004167c4       0x94 /Applications/microchip/xc32/v2.15/bin/bin/../../lib/gcc/pic32c/6.2.1/../../../../pic32c/lib/v7e-m/fpv5/hard/libc.a(lib_a-freer.o)
                0x00000000004167c4                _malloc_trim_r

.text.TCPIP_STACK_NetAddressSet%322
                0x0000000000416858       0x92
 .text.TCPIP_STACK_NetAddressSet
                0x0000000000416858       0x92 build/sam_e70_xult_freertos/production/_ext/810785262/tcpip_manager.o
                0x0000000000416858                TCPIP_STACK_NetAddressSet

.text.Console_UART_ResourceUnlock%323
                0x00000000004168ea       0x92
 .text.Console_UART_ResourceUnlock
                0x00000000004168ea       0x92 build/sam_e70_xult_freertos/production/_ext/762686499/sys_console_uart.o

.text.TWIHS0_InitiateTransfer%324
                0x000000000041697c       0x90
 .text.TWIHS0_InitiateTransfer
                0x000000000041697c       0x90 build/sam_e70_xult_freertos/production/_ext/901805035/plib_twihs0.o

.text.PIO_Initialize%325
                0x0000000000416a0c       0x90
 .text.PIO_Initialize
                0x0000000000416a0c       0x90 build/sam_e70_xult_freertos/production/_ext/45635366/plib_pio.o
                0x0000000000416a0c                PIO_Initialize

.text.vTaskPriorityDisinheritAfterTimeout%326
                0x0000000000416a9c       0x90
 .text.vTaskPriorityDisinheritAfterTimeout
                0x0000000000416a9c       0x90 build/sam_e70_xult_freertos/production/_ext/404212886/FreeRTOS_tasks.o
                0x0000000000416a9c                vTaskPriorityDisinheritAfterTimeout

.text._DHCPSetLeaseTimeParams%327
                0x0000000000416b2c       0x8c
 .text._DHCPSetLeaseTimeParams
                0x0000000000416b2c       0x8c build/sam_e70_xult_freertos/production/_ext/810785262/dhcp.o

.text.TCPIP_ARP_IsResolved%328
                0x0000000000416bb8       0x8c
 .text.TCPIP_ARP_IsResolved
                0x0000000000416bb8       0x8c build/sam_e70_xult_freertos/production/_ext/810785262/arp.o
                0x0000000000416bb8                TCPIP_ARP_IsResolved

.text.SYS_CMD_DELETE%329
                0x0000000000416c44       0x8c
 .text.SYS_CMD_DELETE
                0x0000000000416c44       0x8c build/sam_e70_xult_freertos/production/_ext/762686499/sys_command.o
                0x0000000000416c44                SYS_CMD_DELETE

.text._DHCPPacketFilter%330
                0x0000000000416cd0       0x88
 .text._DHCPPacketFilter
                0x0000000000416cd0       0x88 build/sam_e70_xult_freertos/production/_ext/810785262/dhcp.o

.text.TCPIP_IPV4_DeInitialize%331
                0x0000000000416d58       0x88
 .text.TCPIP_IPV4_DeInitialize
                0x0000000000416d58       0x88 build/sam_e70_xult_freertos/production/_ext/810785262/ipv4.o
                0x0000000000416d58                TCPIP_IPV4_DeInitialize

.text._OAHashFindBkt%332
                0x0000000000416de0       0x88
 .text._OAHashFindBkt
                0x0000000000416de0       0x88 build/sam_e70_xult_freertos/production/_ext/810785262/oahash.o

.text.MPU_Initialize%333
                0x0000000000416e68       0x88
 .text.MPU_Initialize
                0x0000000000416e68       0x88 build/sam_e70_xult_freertos/production/_ext/45638026/plib_mpu.o
                0x0000000000416e68                MPU_Initialize

.text._DRV_ETHPHY_ResetPhaseRead%334
                0x0000000000416ef0       0x88
 .text._DRV_ETHPHY_ResetPhaseRead
                0x0000000000416ef0       0x88 build/sam_e70_xult_freertos/production/_ext/1607428259/drv_ethphy.o

.text.SYS_CMD_Initialize%335
                0x0000000000416f78       0x88
 .text.SYS_CMD_Initialize
                0x0000000000416f78       0x88 build/sam_e70_xult_freertos/production/_ext/762686499/sys_command.o
                0x0000000000416f78                SYS_CMD_Initialize

.text.TCPIP_Commands_Initialize%336
                0x0000000000417000       0x84
 .text.TCPIP_Commands_Initialize
                0x0000000000417000       0x84 build/sam_e70_xult_freertos/production/_ext/810785262/tcpip_commands.o
                0x0000000000417000                TCPIP_Commands_Initialize

.text.TCPIP_IPV4_MacPacketSwitchTxToRx%337
                0x0000000000417084       0x82
 .text.TCPIP_IPV4_MacPacketSwitchTxToRx
                0x0000000000417084       0x82 build/sam_e70_xult_freertos/production/_ext/810785262/ipv4.o
                0x0000000000417084                TCPIP_IPV4_MacPacketSwitchTxToRx

.text._DHCPClientClose%338
                0x0000000000417108       0x80
 .text._DHCPClientClose
                0x0000000000417108       0x80 build/sam_e70_xult_freertos/production/_ext/810785262/dhcp.o

.text.TCPIP_Helper_PacketChecksum%339
                0x0000000000417188       0x80
 .text.TCPIP_Helper_PacketChecksum
                0x0000000000417188       0x80 build/sam_e70_xult_freertos/production/_ext/810785262/tcpip_helpers.o
                0x0000000000417188                TCPIP_Helper_PacketChecksum

.text.DRV_PIC32CGMAC_LibInitTransfer%340
                0x0000000000417208       0x80
 .text.DRV_PIC32CGMAC_LibInitTransfer
                0x0000000000417208       0x80 build/sam_e70_xult_freertos/production/_ext/1619526243/drv_gmac_lib_samE7x_V7x.o
                0x0000000000417208                DRV_PIC32CGMAC_LibInitTransfer

.text.DRV_MIIM_Initialize%341
                0x0000000000417288       0x80
 .text.DRV_MIIM_Initialize
                0x0000000000417288       0x80 build/sam_e70_xult_freertos/production/_ext/511568427/drv_miim.o
                0x0000000000417288                DRV_MIIM_Initialize

.text.SendCommandPrint%342
                0x0000000000417308       0x80
 .text.SendCommandPrint
                0x0000000000417308       0x80 build/sam_e70_xult_freertos/production/_ext/762686499/sys_command.o

.text.SYS_CMD_PRINT%343
                0x0000000000417388       0x80
 .text.SYS_CMD_PRINT
                0x0000000000417388       0x80 build/sam_e70_xult_freertos/production/_ext/762686499/sys_command.o
                0x0000000000417388                SYS_CMD_PRINT

.text.SYS_CMD_READY_TO_READ%344
                0x0000000000417408       0x80
 .text.SYS_CMD_READY_TO_READ
                0x0000000000417408       0x80 build/sam_e70_xult_freertos/production/_ext/762686499/sys_command.o
                0x0000000000417408                SYS_CMD_READY_TO_READ

.text.__pic32c_data_initialization%345
                0x0000000000417488       0x80
 .text.__pic32c_data_initialization
                0x0000000000417488       0x80 /Applications/microchip/xc32/v2.15/bin/bin/../../lib/gcc/pic32c/6.2.1/../../../../pic32c/lib/v7e-m/fpv5/hard/libpic32c.a(data_init.o)
                0x0000000000417488                __pic32c_data_initialization

.text.__multadd%346
                0x0000000000417508       0x80
 .text.__multadd
                0x0000000000417508       0x80 /Applications/microchip/xc32/v2.15/bin/bin/../../lib/gcc/pic32c/6.2.1/../../../../pic32c/lib/v7e-m/fpv5/hard/libc.a(lib_a-mprec.o)
                0x0000000000417508                __multadd

.text.prvUnlockQueue%347
                0x0000000000417588       0x7e
 .text.prvUnlockQueue
                0x0000000000417588       0x7e build/sam_e70_xult_freertos/production/_ext/404212886/queue.o

.text.SYS_Tasks%348
                0x0000000000417608       0x7c
 .text.SYS_Tasks
                0x0000000000417608       0x7c build/sam_e70_xult_freertos/production/_ext/1552905064/tasks.o
                0x0000000000417608                SYS_Tasks

.text.SYS_Initialize%349
                0x0000000000417684       0x7c
 .text.SYS_Initialize
                0x0000000000417684       0x7c build/sam_e70_xult_freertos/production/_ext/1552905064/initialization.o
                0x0000000000417684                SYS_Initialize

.text.DRV_MIIM_Open%350
                0x0000000000417700       0x7c
 .text.DRV_MIIM_Open
                0x0000000000417700       0x7c build/sam_e70_xult_freertos/production/_ext/511568427/drv_miim.o
                0x0000000000417700                DRV_MIIM_Open

.text._DRV_ETHPHY_SetupPhaseIdle%351
                0x000000000041777c       0x7c
 .text._DRV_ETHPHY_SetupPhaseIdle
                0x000000000041777c       0x7c build/sam_e70_xult_freertos/production/_ext/1607428259/drv_ethphy.o

.rodata.DRV_ETHPHY_OBJECT_BASE_Default%352
                0x00000000004177f8       0x7c
 .rodata.DRV_ETHPHY_OBJECT_BASE_Default
                0x00000000004177f8       0x7c build/sam_e70_xult_freertos/production/_ext/1607428259/drv_ethphy.o
                0x00000000004177f8                DRV_ETHPHY_OBJECT_BASE_Default

.text.xTaskPriorityDisinherit%353
                0x0000000000417874       0x7c
 .text.xTaskPriorityDisinherit
                0x0000000000417874       0x7c build/sam_e70_xult_freertos/production/_ext/404212886/FreeRTOS_tasks.o
                0x0000000000417874                xTaskPriorityDisinherit

.text.frexp%354
                0x00000000004178f0       0x7c
 .text.frexp    0x00000000004178f0       0x7c /Applications/microchip/xc32/v2.15/bin/bin/../../lib/gcc/pic32c/6.2.1/../../../../pic32c/lib/v7e-m/fpv5/hard/libc.a(lib_a-s_frexp.o)
                0x00000000004178f0                frexp

.text.TCPIP_Helper_StringToMACAddress%355
                0x000000000041796c       0x7a
 .text.TCPIP_Helper_StringToMACAddress
                0x000000000041796c       0x7a build/sam_e70_xult_freertos/production/_ext/810785262/tcpip_helpers.o
                0x000000000041796c                TCPIP_Helper_StringToMACAddress

.text._DNS_ValidateIf%356
                0x00000000004179e6       0x78
 .text._DNS_ValidateIf
                0x00000000004179e6       0x78 build/sam_e70_xult_freertos/production/_ext/810785262/dns.o

.text._DHCPCleanup%357
                0x0000000000417a60       0x78
 .text._DHCPCleanup
                0x0000000000417a60       0x78 build/sam_e70_xult_freertos/production/_ext/810785262/dhcp.o

.text.CLK_Initialize%358
                0x0000000000417ad8       0x78
 .text.CLK_Initialize
                0x0000000000417ad8       0x78 build/sam_e70_xult_freertos/production/_ext/45647770/plib_clk.o
                0x0000000000417ad8                CLK_Initialize

.text._DRV_ETHPHY_NegCompletePhaseRead2%359
                0x0000000000417b50       0x78
 .text._DRV_ETHPHY_NegCompletePhaseRead2
                0x0000000000417b50       0x78 build/sam_e70_xult_freertos/production/_ext/1607428259/drv_ethphy.o

.text.Console_UART_ResourceLock%360
                0x0000000000417bc8       0x78
 .text.Console_UART_ResourceLock
                0x0000000000417bc8       0x78 build/sam_e70_xult_freertos/production/_ext/762686499/sys_console_uart.o

.text.SYS_DEBUG_Print%361
                0x0000000000417c40       0x78
 .text.SYS_DEBUG_Print
                0x0000000000417c40       0x78 build/sam_e70_xult_freertos/production/_ext/762686499/sys_debug.o
                0x0000000000417c40                SYS_DEBUG_Print

.text.xTaskRemoveFromEventList%362
                0x0000000000417cb8       0x78
 .text.xTaskRemoveFromEventList
                0x0000000000417cb8       0x78 build/sam_e70_xult_freertos/production/_ext/404212886/FreeRTOS_tasks.o
                0x0000000000417cb8                xTaskRemoveFromEventList

.text._DRV_GMAC_LinkStateNegResult%363
                0x0000000000417d30       0x76
 .text._DRV_GMAC_LinkStateNegResult
                0x0000000000417d30       0x76 build/sam_e70_xult_freertos/production/_ext/1619526243/drv_gmac.o

.text.TCPIP_DHCP_ConnectionHandler%364
                0x0000000000417da8       0x74
 .text.TCPIP_DHCP_ConnectionHandler
                0x0000000000417da8       0x74 build/sam_e70_xult_freertos/production/_ext/810785262/dhcp.o
                0x0000000000417da8                TCPIP_DHCP_ConnectionHandler

.text._ARPUpdateEntry%365
                0x0000000000417e1c       0x74
 .text._ARPUpdateEntry
                0x0000000000417e1c       0x74 build/sam_e70_xult_freertos/production/_ext/810785262/arp.o

.text.TCPIP_ARP_EntryRemove%366
                0x0000000000417e90       0x74
 .text.TCPIP_ARP_EntryRemove
                0x0000000000417e90       0x74 build/sam_e70_xult_freertos/production/_ext/810785262/arp.o
                0x0000000000417e90                TCPIP_ARP_EntryRemove

.text._Command_BIOSNameSet%367
                0x0000000000417f04       0x74
 .text._Command_BIOSNameSet
                0x0000000000417f04       0x74 build/sam_e70_xult_freertos/production/_ext/810785262/tcpip_commands.o

.text.TCPIP_STACK_BringNetDown%368
                0x0000000000417f78       0x74
 .text.TCPIP_STACK_BringNetDown
                0x0000000000417f78       0x74 build/sam_e70_xult_freertos/production/_ext/810785262/tcpip_manager.o

.text._TCPIP_PKT_PacketAlloc%369
                0x0000000000417fec       0x74
 .text._TCPIP_PKT_PacketAlloc
                0x0000000000417fec       0x74 build/sam_e70_xult_freertos/production/_ext/810785262/tcpip_packet.o
                0x0000000000417fec                _TCPIP_PKT_PacketAlloc

.text._DRV_ETHPHY_NegResultPhase_BMSTAT%370
                0x0000000000418060       0x74
 .text._DRV_ETHPHY_NegResultPhase_BMSTAT
                0x0000000000418060       0x74 build/sam_e70_xult_freertos/production/_ext/1607428259/drv_ethphy.o

.text.Console_UART_Read%371
                0x00000000004180d4       0x74
 .text.Console_UART_Read
                0x00000000004180d4       0x74 build/sam_e70_xult_freertos/production/_ext/762686499/sys_console_uart.o
                0x00000000004180d4                Console_UART_Read

.text.Console_UART_Write%372
                0x0000000000418148       0x74
 .text.Console_UART_Write
                0x0000000000418148       0x74 build/sam_e70_xult_freertos/production/_ext/762686499/sys_console_uart.o
                0x0000000000418148                Console_UART_Write

.text._vsnprintf_r%373
                0x00000000004181bc       0x74
 .text._vsnprintf_r
                0x00000000004181bc       0x74 /Applications/microchip/xc32/v2.15/bin/bin/../../lib/gcc/pic32c/6.2.1/../../../../pic32c/lib/v7e-m/fpv5/hard/libc.a(lib_a-vsnprintf.o)
                0x00000000004181bc                _vsnprintf_r

.text._TCPIP_StackSyncFunction%374
                0x0000000000418230       0x72
 .text._TCPIP_StackSyncFunction
                0x0000000000418230       0x72 build/sam_e70_xult_freertos/production/_ext/810785262/tcpip_manager.o

.text.TCPIP_PKT_DataSegmentGet%375
                0x00000000004182a2       0x72
 .text.TCPIP_PKT_DataSegmentGet
                0x00000000004182a2       0x72 build/sam_e70_xult_freertos/production/_ext/810785262/tcpip_packet.o
                0x00000000004182a2                TCPIP_PKT_DataSegmentGet

.text.prvCopyDataToQueue%376
                0x0000000000418314       0x72
 .text.prvCopyDataToQueue
                0x0000000000418314       0x72 build/sam_e70_xult_freertos/production/_ext/404212886/queue.o

.text.TCPIP_IPV4_Initialize%377
                0x0000000000418388       0x70
 .text.TCPIP_IPV4_Initialize
                0x0000000000418388       0x70 build/sam_e70_xult_freertos/production/_ext/810785262/ipv4.o
                0x0000000000418388                TCPIP_IPV4_Initialize

.text.DRV_GMAC_LibDescriptorsPoolAdd%378
                0x00000000004183f8       0x70
 .text.DRV_GMAC_LibDescriptorsPoolAdd
                0x00000000004183f8       0x70 build/sam_e70_xult_freertos/production/_ext/1619526243/drv_gmac_lib_samE7x_V7x.o
                0x00000000004183f8                DRV_GMAC_LibDescriptorsPoolAdd

.text.DRV_ETHPHY_Open%379
                0x0000000000418468       0x70
 .text.DRV_ETHPHY_Open
                0x0000000000418468       0x70 build/sam_e70_xult_freertos/production/_ext/1607428259/drv_ethphy.o
                0x0000000000418468                DRV_ETHPHY_Open

.text._DRV_ETHPHY_ResetPhaseWrite%380
                0x00000000004184d8       0x70
 .text._DRV_ETHPHY_ResetPhaseWrite
                0x00000000004184d8       0x70 build/sam_e70_xult_freertos/production/_ext/1607428259/drv_ethphy.o

.text.Console_UART_Initialize%381
                0x0000000000418548       0x70
 .text.Console_UART_Initialize
                0x0000000000418548       0x70 build/sam_e70_xult_freertos/production/_ext/762686499/sys_console_uart.o
                0x0000000000418548                Console_UART_Initialize

.text.SYS_CMD_ADDGRP%382
                0x00000000004185b8       0x70
 .text.SYS_CMD_ADDGRP
                0x00000000004185b8       0x70 build/sam_e70_xult_freertos/production/_ext/762686499/sys_command.o
                0x00000000004185b8                SYS_CMD_ADDGRP

.text.xQueueGenericReset%383
                0x0000000000418628       0x70
 .text.xQueueGenericReset
                0x0000000000418628       0x70 build/sam_e70_xult_freertos/production/_ext/404212886/queue.o
                0x0000000000418628                xQueueGenericReset

.text.prvIdleTask%384
                0x0000000000418698       0x70
 .text.prvIdleTask
                0x0000000000418698       0x70 build/sam_e70_xult_freertos/production/_ext/404212886/FreeRTOS_tasks.o

.text%385       0x0000000000418708       0x6c
 .text          0x0000000000418708       0x6c /Applications/microchip/xc32/v2.15/bin/bin/../../lib/gcc/pic32c/6.2.1/v7e-m/fpv5/hard/crtbegin.o

.text.TCPIP_DNS_Disable%386
                0x0000000000418774       0x6c
 .text.TCPIP_DNS_Disable
                0x0000000000418774       0x6c build/sam_e70_xult_freertos/production/_ext/810785262/dns.o
                0x0000000000418774                TCPIP_DNS_Disable

.text._TcpCleanup%387
                0x00000000004187e0       0x6c
 .text._TcpCleanup
                0x00000000004187e0       0x6c build/sam_e70_xult_freertos/production/_ext/810785262/tcp.o

.text._DNS_AddSelectionIf%388
                0x000000000041884c       0x6a
 .text._DNS_AddSelectionIf
                0x000000000041884c       0x6a build/sam_e70_xult_freertos/production/_ext/810785262/dns.o

.text.TCPIP_Helper_PacketCopy%389
                0x00000000004188b6       0x6a
 .text.TCPIP_Helper_PacketCopy
                0x00000000004188b6       0x6a build/sam_e70_xult_freertos/production/_ext/810785262/tcpip_helpers.o
                0x00000000004188b6                TCPIP_Helper_PacketCopy

.text._MacTxPendingPackets%390
                0x0000000000418920       0x6a
 .text._MacTxPendingPackets
                0x0000000000418920       0x6a build/sam_e70_xult_freertos/production/_ext/1619526243/drv_gmac.o

.text._TcpSwapHeader%391
                0x000000000041898a       0x68
 .text._TcpSwapHeader
                0x000000000041898a       0x68 build/sam_e70_xult_freertos/production/_ext/810785262/tcp.o

.text._TcpClientSocketConnect%392
                0x00000000004189f4       0x68
 .text._TcpClientSocketConnect
                0x00000000004189f4       0x68 build/sam_e70_xult_freertos/production/_ext/810785262/tcp.o

.text.TCPIP_ARP_CacheEntriesNoGet%393
                0x0000000000418a5c       0x68
 .text.TCPIP_ARP_CacheEntriesNoGet
                0x0000000000418a5c       0x68 build/sam_e70_xult_freertos/production/_ext/810785262/arp.o
                0x0000000000418a5c                TCPIP_ARP_CacheEntriesNoGet

.text.TCPIP_OAHASH_EntryLookup%394
                0x0000000000418ac4       0x68
 .text.TCPIP_OAHASH_EntryLookup
                0x0000000000418ac4       0x68 build/sam_e70_xult_freertos/production/_ext/810785262/oahash.o
                0x0000000000418ac4                TCPIP_OAHASH_EntryLookup

.text.TCPIP_OAHASH_EntryLookupOrInsert%395
                0x0000000000418b2c       0x68
 .text.TCPIP_OAHASH_EntryLookupOrInsert
                0x0000000000418b2c       0x68 build/sam_e70_xult_freertos/production/_ext/810785262/oahash.o
                0x0000000000418b2c                TCPIP_OAHASH_EntryLookupOrInsert

.text._TCPIPStackInsertRxPacket%396
                0x0000000000418b94       0x68
 .text._TCPIPStackInsertRxPacket
                0x0000000000418b94       0x68 build/sam_e70_xult_freertos/production/_ext/810785262/tcpip_manager.o
                0x0000000000418b94                _TCPIPStackInsertRxPacket

.text._DRV_GMAC_LinkStateWaitLinkUp%397
                0x0000000000418bfc       0x68
 .text._DRV_GMAC_LinkStateWaitLinkUp
                0x0000000000418bfc       0x68 build/sam_e70_xult_freertos/production/_ext/1619526243/drv_gmac.o

.text.DRV_PIC32CGMAC_LibMACOpen%398
                0x0000000000418c64       0x68
 .text.DRV_PIC32CGMAC_LibMACOpen
                0x0000000000418c64       0x68 build/sam_e70_xult_freertos/production/_ext/1619526243/drv_gmac_lib_samE7x_V7x.o
                0x0000000000418c64                DRV_PIC32CGMAC_LibMACOpen

.rodata%399     0x0000000000418ccc       0x68
 .rodata        0x0000000000418ccc       0x68 build/sam_e70_xult_freertos/production/_ext/1552905064/initialization.o

.text.vTaskStartScheduler%400
                0x0000000000418d34       0x68
 .text.vTaskStartScheduler
                0x0000000000418d34       0x68 build/sam_e70_xult_freertos/production/_ext/404212886/FreeRTOS_tasks.o
                0x0000000000418d34                vTaskStartScheduler

.text.TCPIP_Helper_CalcIPChecksum%401
                0x0000000000418d9c       0x66
 .text.TCPIP_Helper_CalcIPChecksum
                0x0000000000418d9c       0x66 build/sam_e70_xult_freertos/production/_ext/810785262/tcpip_helpers.o
                0x0000000000418d9c                TCPIP_Helper_CalcIPChecksum

.text.TCPIP_DHCP_Disable%402
                0x0000000000418e04       0x64
 .text.TCPIP_DHCP_Disable
                0x0000000000418e04       0x64 build/sam_e70_xult_freertos/production/_ext/810785262/dhcp.o
                0x0000000000418e04                TCPIP_DHCP_Disable

.text.TCPIP_IPV4_MacPacketTransmit%403
                0x0000000000418e68       0x64
 .text.TCPIP_IPV4_MacPacketTransmit
                0x0000000000418e68       0x64 build/sam_e70_xult_freertos/production/_ext/810785262/ipv4.o
                0x0000000000418e68                TCPIP_IPV4_MacPacketTransmit

.text._DRV_ETHPHY_SetupPhaseNegotiate_SubPhase6%404
                0x0000000000418ecc       0x64
 .text._DRV_ETHPHY_SetupPhaseNegotiate_SubPhase6
                0x0000000000418ecc       0x64 build/sam_e70_xult_freertos/production/_ext/1607428259/drv_ethphy.o

.text.SYS_CMDIO_ADD%405
                0x0000000000418f30       0x64
 .text.SYS_CMDIO_ADD
                0x0000000000418f30       0x64 build/sam_e70_xult_freertos/production/_ext/762686499/sys_command.o
                0x0000000000418f30                SYS_CMDIO_ADD

.text.xPortPendSVHandler%406
                0x0000000000418fa0       0x64
 .text.xPortPendSVHandler
                0x0000000000418fa0       0x64 build/sam_e70_xult_freertos/production/_ext/977623654/port.o
                0x0000000000418fa0                xPortPendSVHandler

.text.strncpy%407
                0x0000000000419004       0x64
 .text.strncpy  0x0000000000419004       0x64 /Applications/microchip/xc32/v2.15/bin/bin/../../lib/gcc/pic32c/6.2.1/../../../../pic32c/lib/v7e-m/fpv5/hard/libc.a(lib_a-strncpy.o)
                0x0000000000419004                strncpy

.text.__strtok_r%408
                0x0000000000419068       0x64
 .text.__strtok_r
                0x0000000000419068       0x64 /Applications/microchip/xc32/v2.15/bin/bin/../../lib/gcc/pic32c/6.2.1/../../../../pic32c/lib/v7e-m/fpv5/hard/libc.a(lib_a-strtok_r.o)
                0x0000000000419068                __strtok_r

.text.TCPIP_ARP_EntryGet%409
                0x00000000004190cc       0x62
 .text.TCPIP_ARP_EntryGet
                0x00000000004190cc       0x62 build/sam_e70_xult_freertos/production/_ext/810785262/arp.o
                0x00000000004190cc                TCPIP_ARP_EntryGet

.text.Console_UART_PLIBReadHandler%410
                0x000000000041912e       0x62
 .text.Console_UART_PLIBReadHandler
                0x000000000041912e       0x62 build/sam_e70_xult_freertos/production/_ext/762686499/sys_console_uart.o

.text.TCPIP_DNS_ClientDeinitialize%411
                0x0000000000419190       0x60
 .text.TCPIP_DNS_ClientDeinitialize
                0x0000000000419190       0x60 build/sam_e70_xult_freertos/production/_ext/810785262/dns.o
                0x0000000000419190                TCPIP_DNS_ClientDeinitialize

.text.TCPIP_DNS_GetIPAddressesNumber%412
                0x00000000004191f0       0x60
 .text.TCPIP_DNS_GetIPAddressesNumber
                0x00000000004191f0       0x60 build/sam_e70_xult_freertos/production/_ext/810785262/dns.o
                0x00000000004191f0                TCPIP_DNS_GetIPAddressesNumber

.text._TCPIP_SelectDefaultNet%413
                0x0000000000419250       0x60
 .text._TCPIP_SelectDefaultNet
                0x0000000000419250       0x60 build/sam_e70_xult_freertos/production/_ext/810785262/tcpip_manager.o

.rodata.TCPIP_STACK_MODULE_ENTRY_TBL%414
                0x00000000004192b0       0x60
 .rodata.TCPIP_STACK_MODULE_ENTRY_TBL
                0x00000000004192b0       0x60 build/sam_e70_xult_freertos/production/_ext/810785262/tcpip_manager.o

.text.TCPIP_UDP_SocketInfoGet%415
                0x0000000000419310       0x60
 .text.TCPIP_UDP_SocketInfoGet
                0x0000000000419310       0x60 build/sam_e70_xult_freertos/production/_ext/810785262/udp.o
                0x0000000000419310                TCPIP_UDP_SocketInfoGet

.text._calloc_r%416
                0x0000000000419370       0x60
 .text._calloc_r
                0x0000000000419370       0x60 /Applications/microchip/xc32/v2.15/bin/bin/../../lib/gcc/pic32c/6.2.1/../../../../pic32c/lib/v7e-m/fpv5/hard/libc.a(lib_a-callocr.o)
                0x0000000000419370                _calloc_r

.text.memcmp%417
                0x00000000004193d0       0x60
 .text.memcmp   0x00000000004193d0       0x60 /Applications/microchip/xc32/v2.15/bin/bin/../../lib/gcc/pic32c/6.2.1/../../../../pic32c/lib/v7e-m/fpv5/hard/libc.a(lib_a-memcmp.o)
                0x00000000004193d0                memcmp

.text.__lo0bits%418
                0x0000000000419430       0x60
 .text.__lo0bits
                0x0000000000419430       0x60 /Applications/microchip/xc32/v2.15/bin/bin/../../lib/gcc/pic32c/6.2.1/../../../../pic32c/lib/v7e-m/fpv5/hard/libc.a(lib_a-mprec.o)
                0x0000000000419430                __lo0bits

.text.__ratio%419
                0x0000000000419490       0x60
 .text.__ratio  0x0000000000419490       0x60 /Applications/microchip/xc32/v2.15/bin/bin/../../lib/gcc/pic32c/6.2.1/../../../../pic32c/lib/v7e-m/fpv5/hard/libc.a(lib_a-mprec.o)
                0x0000000000419490                __ratio

.text.__any_on%420
                0x00000000004194f0       0x60
 .text.__any_on
                0x00000000004194f0       0x60 /Applications/microchip/xc32/v2.15/bin/bin/../../lib/gcc/pic32c/6.2.1/../../../../pic32c/lib/v7e-m/fpv5/hard/libc.a(lib_a-mprec.o)
                0x00000000004194f0                __any_on

.text._TCPIPStackIpAddFromAnyNet%421
                0x0000000000419550       0x5c
 .text._TCPIPStackIpAddFromAnyNet
                0x0000000000419550       0x5c build/sam_e70_xult_freertos/production/_ext/810785262/tcpip_manager.o
                0x0000000000419550                _TCPIPStackIpAddFromAnyNet

.text.DRV_ETHPHY_Initialize%422
                0x00000000004195ac       0x5c
 .text.DRV_ETHPHY_Initialize
                0x00000000004195ac       0x5c build/sam_e70_xult_freertos/production/_ext/1607428259/drv_ethphy.o
                0x00000000004195ac                DRV_ETHPHY_Initialize

.text.strncat%423
                0x0000000000419608       0x5c
 .text.strncat  0x0000000000419608       0x5c /Applications/microchip/xc32/v2.15/bin/bin/../../lib/gcc/pic32c/6.2.1/../../../../pic32c/lib/v7e-m/fpv5/hard/libc.a(lib_a-strncat.o)
                0x0000000000419608                strncat

.text._DHCPOptionProcessDns%424
                0x0000000000419664       0x5a
 .text._DHCPOptionProcessDns
                0x0000000000419664       0x5a build/sam_e70_xult_freertos/production/_ext/810785262/dhcp.o

.text.DRV_GMAC_StatisticsGet%425
                0x00000000004196be       0x5a
 .text.DRV_GMAC_StatisticsGet
                0x00000000004196be       0x5a build/sam_e70_xult_freertos/production/_ext/1619526243/drv_gmac.o
                0x00000000004196be                DRV_GMAC_StatisticsGet

.text.TCPIP_UDP_BcastIPV4AddressSet%426
                0x0000000000419718       0x5a
 .text.TCPIP_UDP_BcastIPV4AddressSet
                0x0000000000419718       0x5a build/sam_e70_xult_freertos/production/_ext/810785262/udp.o
                0x0000000000419718                TCPIP_UDP_BcastIPV4AddressSet

.text._DNS_Enable%427
                0x0000000000419774       0x58
 .text._DNS_Enable
                0x0000000000419774       0x58 build/sam_e70_xult_freertos/production/_ext/810785262/dns.o

.text._DNS_CleanCacheEntry%428
                0x00000000004197cc       0x58
 .text._DNS_CleanCacheEntry
                0x00000000004197cc       0x58 build/sam_e70_xult_freertos/production/_ext/810785262/dns.o

.text.SYS_TIME_TimerStart%429
                0x0000000000419824       0x58
 .text.SYS_TIME_TimerStart
                0x0000000000419824       0x58 build/sam_e70_xult_freertos/production/_ext/912870411/sys_time.o
                0x0000000000419824                SYS_TIME_TimerStart

.text.TCPIP_STACK_StringToMACId%430
                0x000000000041987c       0x58
 .text.TCPIP_STACK_StringToMACId
                0x000000000041987c       0x58 build/sam_e70_xult_freertos/production/_ext/810785262/tcpip_manager.o
                0x000000000041987c                TCPIP_STACK_StringToMACId

.text._TCPIPStackAnyNetLinked%431
                0x00000000004198d4       0x58
 .text._TCPIPStackAnyNetLinked
                0x00000000004198d4       0x58 build/sam_e70_xult_freertos/production/_ext/810785262/tcpip_manager.o
                0x00000000004198d4                _TCPIPStackAnyNetLinked

.text._TCPIPStackModuleSignalRequest%432
                0x000000000041992c       0x58
 .text._TCPIPStackModuleSignalRequest
                0x000000000041992c       0x58 build/sam_e70_xult_freertos/production/_ext/810785262/tcpip_manager.o
                0x000000000041992c                _TCPIPStackModuleSignalRequest

.text.OSAL_SEM_Create%433
                0x0000000000419984       0x58
 .text.OSAL_SEM_Create
                0x0000000000419984       0x58 build/sam_e70_xult_freertos/production/_ext/281930714/osal_freertos.o
                0x0000000000419984                OSAL_SEM_Create

.rodata.DRV_GMAC_Object%434
                0x00000000004199dc       0x58
 .rodata.DRV_GMAC_Object
                0x00000000004199dc       0x58 build/sam_e70_xult_freertos/production/_ext/1619526243/drv_gmac.o
                0x00000000004199dc                DRV_GMAC_Object

.text.DRV_PIC32CGMAC_LibInit%435
                0x0000000000419a34       0x58
 .text.DRV_PIC32CGMAC_LibInit
                0x0000000000419a34       0x58 build/sam_e70_xult_freertos/production/_ext/1619526243/drv_gmac_lib_samE7x_V7x.o
                0x0000000000419a34                DRV_PIC32CGMAC_LibInit

.text._DRV_MIIM_ReleaseOpDcpt%436
                0x0000000000419a8c       0x58
 .text._DRV_MIIM_ReleaseOpDcpt
                0x0000000000419a8c       0x58 build/sam_e70_xult_freertos/production/_ext/511568427/drv_miim.o

.text.DRV_ETHPHY_VendorSMIReadStart%437
                0x0000000000419ae4       0x58
 .text.DRV_ETHPHY_VendorSMIReadStart
                0x0000000000419ae4       0x58 build/sam_e70_xult_freertos/production/_ext/1607428259/drv_ethphy.o
                0x0000000000419ae4                DRV_ETHPHY_VendorSMIReadStart

.text.DRV_ETHPHY_VendorSMIWriteStart%438
                0x0000000000419b3c       0x58
 .text.DRV_ETHPHY_VendorSMIWriteStart
                0x0000000000419b3c       0x58 build/sam_e70_xult_freertos/production/_ext/1607428259/drv_ethphy.o
                0x0000000000419b3c                DRV_ETHPHY_VendorSMIWriteStart

.text.xTaskCheckForTimeOut%439
                0x0000000000419b94       0x58
 .text.xTaskCheckForTimeOut
                0x0000000000419b94       0x58 build/sam_e70_xult_freertos/production/_ext/404212886/FreeRTOS_tasks.o
                0x0000000000419b94                xTaskCheckForTimeOut

.text.TCPIP_ARP_Probe%440
                0x0000000000419bec       0x56
 .text.TCPIP_ARP_Probe
                0x0000000000419bec       0x56 build/sam_e70_xult_freertos/production/_ext/810785262/arp.o
                0x0000000000419bec                TCPIP_ARP_Probe

.text._DRV_ETHPHY_LinkStatPhaseRead%441
                0x0000000000419c42       0x56
 .text._DRV_ETHPHY_LinkStatPhaseRead
                0x0000000000419c42       0x56 build/sam_e70_xult_freertos/production/_ext/1607428259/drv_ethphy.o

.text._DNS_DeleteHash%442
                0x0000000000419c98       0x54
 .text._DNS_DeleteHash
                0x0000000000419c98       0x54 build/sam_e70_xult_freertos/production/_ext/810785262/dns.o

.text.TCPIP_DNS_RemoveAll%443
                0x0000000000419cec       0x54
 .text.TCPIP_DNS_RemoveAll
                0x0000000000419cec       0x54 build/sam_e70_xult_freertos/production/_ext/810785262/dns.o
                0x0000000000419cec                TCPIP_DNS_RemoveAll

.text._DHCPOptionWriteSrvIdent%444
                0x0000000000419d40       0x54
 .text._DHCPOptionWriteSrvIdent
                0x0000000000419d40       0x54 build/sam_e70_xult_freertos/production/_ext/810785262/dhcp.o

.text._ARPNotifyClients%445
                0x0000000000419d94       0x54
 .text._ARPNotifyClients
                0x0000000000419d94       0x54 build/sam_e70_xult_freertos/production/_ext/810785262/arp.o

.text.SYS_TIME_RemoveFromList%446
                0x0000000000419de8       0x54
 .text.SYS_TIME_RemoveFromList
                0x0000000000419de8       0x54 build/sam_e70_xult_freertos/production/_ext/912870411/sys_time.o

.rodata%447     0x0000000000419e3c       0x54
 .rodata        0x0000000000419e3c       0x54 build/sam_e70_xult_freertos/production/_ext/810785262/ipv4.o

.text.DRV_GMAC_EventAcknowledge%448
                0x0000000000419e90       0x54
 .text.DRV_GMAC_EventAcknowledge
                0x0000000000419e90       0x54 build/sam_e70_xult_freertos/production/_ext/1619526243/drv_gmac.o
                0x0000000000419e90                DRV_GMAC_EventAcknowledge

.rodata.tcpipMACPIC32CINTInitData%449
                0x0000000000419ee4       0x54
 .rodata.tcpipMACPIC32CINTInitData
                0x0000000000419ee4       0x54 build/sam_e70_xult_freertos/production/_ext/1552905064/initialization.o
                0x0000000000419ee4                tcpipMACPIC32CINTInitData

.text.NVIC_Initialize%450
                0x0000000000419f38       0x54
 .text.NVIC_Initialize
                0x0000000000419f38       0x54 build/sam_e70_xult_freertos/production/_ext/1414743522/plib_nvic.o
                0x0000000000419f38                NVIC_Initialize

.text._DRV_ETHPHY_NegCompletePhaseAN_Complete%451
                0x0000000000419f8c       0x54
 .text._DRV_ETHPHY_NegCompletePhaseAN_Complete
                0x0000000000419f8c       0x54 build/sam_e70_xult_freertos/production/_ext/1607428259/drv_ethphy.o

.text.__ulp%452
                0x0000000000419fe0       0x54
 .text.__ulp    0x0000000000419fe0       0x54 /Applications/microchip/xc32/v2.15/bin/bin/../../lib/gcc/pic32c/6.2.1/../../../../pic32c/lib/v7e-m/fpv5/hard/libc.a(lib_a-mprec.o)
                0x0000000000419fe0                __ulp

.text._TcpAbort%453
                0x000000000041a034       0x52
 .text._TcpAbort
                0x000000000041a034       0x52 build/sam_e70_xult_freertos/production/_ext/810785262/tcp.o

.text._XtlEventsTcp2Eth%454
                0x000000000041a086       0x52
 .text._XtlEventsTcp2Eth
                0x000000000041a086       0x52 build/sam_e70_xult_freertos/production/_ext/1619526243/drv_gmac.o

.text.TCPIP_DNS_OAHASH_DeleteEntry%455
                0x000000000041a0d8       0x50
 .text.TCPIP_DNS_OAHASH_DeleteEntry
                0x000000000041a0d8       0x50 build/sam_e70_xult_freertos/production/_ext/810785262/dns.o

.rodata%456     0x000000000041a128       0x50
 .rodata        0x000000000041a128       0x50 build/sam_e70_xult_freertos/production/_ext/810785262/tcp.o

.text._DHCPOptionWriteIPRequest%457
                0x000000000041a178       0x50
 .text._DHCPOptionWriteIPRequest
                0x000000000041a178       0x50 build/sam_e70_xult_freertos/production/_ext/810785262/dhcp.o

.text.SYS_TIME_CallbackRegisterMS%458
                0x000000000041a1c8       0x50
 .text.SYS_TIME_CallbackRegisterMS
                0x000000000041a1c8       0x50 build/sam_e70_xult_freertos/production/_ext/912870411/sys_time.o
                0x000000000041a1c8                SYS_TIME_CallbackRegisterMS

.text.TCPIP_Helper_IPAddressToString%459
                0x000000000041a218       0x50
 .text.TCPIP_Helper_IPAddressToString
                0x000000000041a218       0x50 build/sam_e70_xult_freertos/production/_ext/810785262/tcpip_helpers.o
                0x000000000041a218                TCPIP_Helper_IPAddressToString

.text._DRV_MIIM_GetClientAndLock%460
                0x000000000041a268       0x50
 .text._DRV_MIIM_GetClientAndLock
                0x000000000041a268       0x50 build/sam_e70_xult_freertos/production/_ext/511568427/drv_miim.o

.text.SYS_CONSOLE_Initialize%461
                0x000000000041a2b8       0x50
 .text.SYS_CONSOLE_Initialize
                0x000000000041a2b8       0x50 build/sam_e70_xult_freertos/production/_ext/762686499/sys_console.o
                0x000000000041a2b8                SYS_CONSOLE_Initialize

.text.SYS_CONSOLE_Status%462
                0x000000000041a308       0x50
 .text.SYS_CONSOLE_Status
                0x000000000041a308       0x50 build/sam_e70_xult_freertos/production/_ext/762686499/sys_console.o
                0x000000000041a308                SYS_CONSOLE_Status

.text.__libc_init_array%463
                0x000000000041a358       0x50
 .text.__libc_init_array
                0x000000000041a358       0x50 /Applications/microchip/xc32/v2.15/bin/bin/../../lib/gcc/pic32c/6.2.1/../../../../pic32c/lib/v7e-m/fpv5/hard/libc.a(lib_a-init.o)
                0x000000000041a358                __libc_init_array

.text.TCPIP_Helper_FormatNetBIOSName%464
                0x000000000041a3a8       0x4e
 .text.TCPIP_Helper_FormatNetBIOSName
                0x000000000041a3a8       0x4e build/sam_e70_xult_freertos/production/_ext/810785262/tcpip_helpers.o
                0x000000000041a3a8                TCPIP_Helper_FormatNetBIOSName

.text.TCPIP_IPV4_Cleanup%465
                0x000000000041a3f8       0x4c
 .text.TCPIP_IPV4_Cleanup
                0x000000000041a3f8       0x4c build/sam_e70_xult_freertos/production/_ext/810785262/ipv4.o

.text._TCPIP_MacEventCB%466
                0x000000000041a444       0x4c
 .text._TCPIP_MacEventCB
                0x000000000041a444       0x4c build/sam_e70_xult_freertos/production/_ext/810785262/tcpip_manager.o

.text._DRV_GMAC_LinkStateGetLink%467
                0x000000000041a490       0x4c
 .text._DRV_GMAC_LinkStateGetLink
                0x000000000041a490       0x4c build/sam_e70_xult_freertos/production/_ext/1619526243/drv_gmac.o

.text._UDPClose%468
                0x000000000041a4dc       0x4c
 .text._UDPClose
                0x000000000041a4dc       0x4c build/sam_e70_xult_freertos/production/_ext/810785262/udp.o

.text.TCPIP_UDP_PutIsReady%469
                0x000000000041a528       0x4c
 .text.TCPIP_UDP_PutIsReady
                0x000000000041a528       0x4c build/sam_e70_xult_freertos/production/_ext/810785262/udp.o
                0x000000000041a528                TCPIP_UDP_PutIsReady

.text.DRV_MIIM_OperationAbort%470
                0x000000000041a574       0x4c
 .text.DRV_MIIM_OperationAbort
                0x000000000041a574       0x4c build/sam_e70_xult_freertos/production/_ext/511568427/drv_miim.o
                0x000000000041a574                DRV_MIIM_OperationAbort

.text.Console_UART_PLIBWriteHandler%471
                0x000000000041a5c0       0x4c
 .text.Console_UART_PLIBWriteHandler
                0x000000000041a5c0       0x4c build/sam_e70_xult_freertos/production/_ext/762686499/sys_console_uart.o

.text.sprintf%472
                0x000000000041a60c       0x4c
 .text.sprintf  0x000000000041a60c       0x4c /Applications/microchip/xc32/v2.15/bin/bin/../../lib/gcc/pic32c/6.2.1/../../../../pic32c/lib/v7e-m/fpv5/hard/libc.a(lib_a-sprintf.o)
                0x000000000041a60c                __sprintf_di
                0x000000000041a60c                __sprintf_s
                0x000000000041a60c                sprintf
                0x000000000041a60c                __sprintf_oxX

.text._Balloc%473
                0x000000000041a658       0x4c
 .text._Balloc  0x000000000041a658       0x4c /Applications/microchip/xc32/v2.15/bin/bin/../../lib/gcc/pic32c/6.2.1/../../../../pic32c/lib/v7e-m/fpv5/hard/libc.a(lib_a-mprec.o)
                0x000000000041a658                _Balloc

.text.TCPIP_UDP_DestinationIPAddressSet%474
                0x000000000041a6a4       0x4a
 .text.TCPIP_UDP_DestinationIPAddressSet
                0x000000000041a6a4       0x4a build/sam_e70_xult_freertos/production/_ext/810785262/udp.o
                0x000000000041a6a4                TCPIP_UDP_DestinationIPAddressSet

.text._TCPSendWinIncUpdate%475
                0x000000000041a6ee       0x48
 .text._TCPSendWinIncUpdate
                0x000000000041a6ee       0x48 build/sam_e70_xult_freertos/production/_ext/810785262/tcp.o

.text.TCPIP_DHCP_IsEnabled%476
                0x000000000041a738       0x48
 .text.TCPIP_DHCP_IsEnabled
                0x000000000041a738       0x48 build/sam_e70_xult_freertos/production/_ext/810785262/dhcp.o
                0x000000000041a738                TCPIP_DHCP_IsEnabled

.rodata._DHCPOptProcTbl%477
                0x000000000041a780       0x48
 .rodata._DHCPOptProcTbl
                0x000000000041a780       0x48 build/sam_e70_xult_freertos/production/_ext/810785262/dhcp.o

.text.TCPIP_ARP_Deinitialize%478
                0x000000000041a7c8       0x48
 .text.TCPIP_ARP_Deinitialize
                0x000000000041a7c8       0x48 build/sam_e70_xult_freertos/production/_ext/810785262/arp.o
                0x000000000041a7c8                TCPIP_ARP_Deinitialize

.text.USART1_Write%479
                0x000000000041a810       0x48
 .text.USART1_Write
                0x000000000041a810       0x48 build/sam_e70_xult_freertos/production/_ext/901008055/plib_usart1.o
                0x000000000041a810                USART1_Write

.text.TCPIP_Helper_MACAddressToString%480
                0x000000000041a858       0x48
 .text.TCPIP_Helper_MACAddressToString
                0x000000000041a858       0x48 build/sam_e70_xult_freertos/production/_ext/810785262/tcpip_helpers.o
                0x000000000041a858                TCPIP_Helper_MACAddressToString

.text.TCPIP_STACK_MACIdToNet%481
                0x000000000041a8a0       0x48
 .text.TCPIP_STACK_MACIdToNet
                0x000000000041a8a0       0x48 build/sam_e70_xult_freertos/production/_ext/810785262/tcpip_manager.o
                0x000000000041a8a0                TCPIP_STACK_MACIdToNet

.text._TCPIPStackSignalHandlerRegister%482
                0x000000000041a8e8       0x48
 .text._TCPIPStackSignalHandlerRegister
                0x000000000041a8e8       0x48 build/sam_e70_xult_freertos/production/_ext/810785262/tcpip_manager.o
                0x000000000041a8e8                _TCPIPStackSignalHandlerRegister

.text.DRV_GMAC_RegisterStatisticsGet%483
                0x000000000041a930       0x48
 .text.DRV_GMAC_RegisterStatisticsGet
                0x000000000041a930       0x48 build/sam_e70_xult_freertos/production/_ext/1619526243/drv_gmac.o
                0x000000000041a930                DRV_GMAC_RegisterStatisticsGet

.rodata.TCPIP_STACK_MODULE_CONFIG_TBL%484
                0x000000000041a978       0x48
 .rodata.TCPIP_STACK_MODULE_CONFIG_TBL
                0x000000000041a978       0x48 build/sam_e70_xult_freertos/production/_ext/1552905064/initialization.o
                0x000000000041a978                TCPIP_STACK_MODULE_CONFIG_TBL

.text._DRV_ETHPHY_SetupPhaseNegotiate_SubPhase1%485
                0x000000000041a9c0       0x48
 .text._DRV_ETHPHY_SetupPhaseNegotiate_SubPhase1
                0x000000000041a9c0       0x48 build/sam_e70_xult_freertos/production/_ext/1607428259/drv_ethphy.o

.text.DRV_ETHPHY_VendorSMIReadResultGet%486
                0x000000000041aa08       0x48
 .text.DRV_ETHPHY_VendorSMIReadResultGet
                0x000000000041aa08       0x48 build/sam_e70_xult_freertos/production/_ext/1607428259/drv_ethphy.o
                0x000000000041aa08                DRV_ETHPHY_VendorSMIReadResultGet

.text.CommandCleanup%487
                0x000000000041aa50       0x48
 .text.CommandCleanup
                0x000000000041aa50       0x48 build/sam_e70_xult_freertos/production/_ext/762686499/sys_command.o

.text.xPortStartScheduler%488
                0x000000000041aa98       0x48
 .text.xPortStartScheduler
                0x000000000041aa98       0x48 build/sam_e70_xult_freertos/production/_ext/977623654/port.o
                0x000000000041aa98                xPortStartScheduler

.text.__copybits%489
                0x000000000041aae0       0x48
 .text.__copybits
                0x000000000041aae0       0x48 /Applications/microchip/xc32/v2.15/bin/bin/../../lib/gcc/pic32c/6.2.1/../../../../pic32c/lib/v7e-m/fpv5/hard/libc.a(lib_a-mprec.o)
                0x000000000041aae0                __copybits

.text._TCPIP_HEAP_Delete%490
                0x000000000041ab28       0x46
 .text._TCPIP_HEAP_Delete
                0x000000000041ab28       0x46 build/sam_e70_xult_freertos/production/_ext/810785262/tcpip_heap_internal.o

.text.TCPIP_STACK_AddressServiceEvent%491
                0x000000000041ab6e       0x46
 .text.TCPIP_STACK_AddressServiceEvent
                0x000000000041ab6e       0x46 build/sam_e70_xult_freertos/production/_ext/810785262/tcpip_manager.o
                0x000000000041ab6e                TCPIP_STACK_AddressServiceEvent

.text.TCPIP_UDP_ArrayPut%492
                0x000000000041abb4       0x46
 .text.TCPIP_UDP_ArrayPut
                0x000000000041abb4       0x46 build/sam_e70_xult_freertos/production/_ext/810785262/udp.o
                0x000000000041abb4                TCPIP_UDP_ArrayPut

.text._APP_Commands_requestWeather%493
                0x000000000041abfc       0x44
 .text._APP_Commands_requestWeather
                0x000000000041abfc       0x44 build/sam_e70_xult_freertos/production/_ext/1360937237/app_commands.o

.text.APP_Commands_Init%494
                0x000000000041ac40       0x44
 .text.APP_Commands_Init
                0x000000000041ac40       0x44 build/sam_e70_xult_freertos/production/_ext/1360937237/app_commands.o
                0x000000000041ac40                APP_Commands_Init

.text.TCPIP_ICMP_Initialize%495
                0x000000000041ac84       0x44
 .text.TCPIP_ICMP_Initialize
                0x000000000041ac84       0x44 build/sam_e70_xult_freertos/production/_ext/810785262/icmp.o
                0x000000000041ac84                TCPIP_ICMP_Initialize

.text._DHCPSetTimeout%496
                0x000000000041acc8       0x44
 .text._DHCPSetTimeout
                0x000000000041acc8       0x44 build/sam_e70_xult_freertos/production/_ext/810785262/dhcp.o

.text._TCPIP_HEAP_MaxSize%497
                0x000000000041ad0c       0x44
 .text._TCPIP_HEAP_MaxSize
                0x000000000041ad0c       0x44 build/sam_e70_xult_freertos/production/_ext/810785262/tcpip_heap_internal.o

.text.hexatob%498
                0x000000000041ad50       0x44
 .text.hexatob  0x000000000041ad50       0x44 build/sam_e70_xult_freertos/production/_ext/810785262/helpers.o
                0x000000000041ad50                hexatob

.text.TCPIP_Helper_SingleListNodeRemove%499
                0x000000000041ad94       0x44
 .text.TCPIP_Helper_SingleListNodeRemove
                0x000000000041ad94       0x44 build/sam_e70_xult_freertos/production/_ext/810785262/tcpip_helpers.o
                0x000000000041ad94                TCPIP_Helper_SingleListNodeRemove

.text.TCPIP_STACK_NetByAddress%500
                0x000000000041add8       0x44
 .text.TCPIP_STACK_NetByAddress
                0x000000000041add8       0x44 build/sam_e70_xult_freertos/production/_ext/810785262/tcpip_manager.o
                0x000000000041add8                TCPIP_STACK_NetByAddress

.text._TCPIPStackModuleRxInsert%501
                0x000000000041ae1c       0x44
 .text._TCPIPStackModuleRxInsert
                0x000000000041ae1c       0x44 build/sam_e70_xult_freertos/production/_ext/810785262/tcpip_manager.o
                0x000000000041ae1c                _TCPIPStackModuleRxInsert

.text.SYS_INT_SourceDisable%502
                0x000000000041ae60       0x44
 .text.SYS_INT_SourceDisable
                0x000000000041ae60       0x44 build/sam_e70_xult_freertos/production/_ext/1775855163/sys_int.o
                0x000000000041ae60                SYS_INT_SourceDisable

.text.DRV_GMAC_RxFilterHashTableEntrySet%503
                0x000000000041aea4       0x44
 .text.DRV_GMAC_RxFilterHashTableEntrySet
                0x000000000041aea4       0x44 build/sam_e70_xult_freertos/production/_ext/1619526243/drv_gmac.o
                0x000000000041aea4                DRV_GMAC_RxFilterHashTableEntrySet

.text._UDPSetNewRxPacket%504
                0x000000000041aee8       0x44
 .text._UDPSetNewRxPacket
                0x000000000041aee8       0x44 build/sam_e70_xult_freertos/production/_ext/810785262/udp.o

.rodata%505     0x000000000041af2c       0x44
 .rodata        0x000000000041af2c       0x44 build/sam_e70_xult_freertos/production/_ext/810785262/udp.o

.text.Helper_SingleListNodeRemove%506
                0x000000000041af70       0x44
 .text.Helper_SingleListNodeRemove
                0x000000000041af70       0x44 build/sam_e70_xult_freertos/production/_ext/511568427/drv_miim.o
                0x000000000041af70                Helper_SingleListNodeRemove

.rodata%507     0x000000000041afb4       0x44
 .rodata        0x000000000041afb4       0x44 /Applications/microchip/xc32/v2.15/bin/bin/../../lib/gcc/pic32c/6.2.1/../../../../pic32c/lib/v7e-m/fpv5/hard/libc.a(lib_a-svfprintf.o)

.text._TcpSocketSetSourceInterface%508
                0x000000000041aff8       0x42
 .text._TcpSocketSetSourceInterface
                0x000000000041aff8       0x42 build/sam_e70_xult_freertos/production/_ext/810785262/tcp.o

.text._DHCPOptionClientId%509
                0x000000000041b03a       0x42
 .text._DHCPOptionClientId
                0x000000000041b03a       0x42 build/sam_e70_xult_freertos/production/_ext/810785262/dhcp.o

.text._DRV_GMAC_LinkStateNegComplete%510
                0x000000000041b07c       0x42
 .text._DRV_GMAC_LinkStateNegComplete
                0x000000000041b07c       0x42 build/sam_e70_xult_freertos/production/_ext/1619526243/drv_gmac.o

.text.TCPIP_DNS_RemoveEntry%511
                0x000000000041b0c0       0x40
 .text.TCPIP_DNS_RemoveEntry
                0x000000000041b0c0       0x40 build/sam_e70_xult_freertos/production/_ext/810785262/dns.o
                0x000000000041b0c0                TCPIP_DNS_RemoveEntry

.rodata%512     0x000000000041b100       0x40
 .rodata        0x000000000041b100       0x40 build/sam_e70_xult_freertos/production/_ext/810785262/dns.o

.text._TCP_PortIsAvailable%513
                0x000000000041b140       0x40
 .text._TCP_PortIsAvailable
                0x000000000041b140       0x40 build/sam_e70_xult_freertos/production/_ext/810785262/tcp.o

.text._DHCPSetRunFail%514
                0x000000000041b180       0x40
 .text._DHCPSetRunFail
                0x000000000041b180       0x40 build/sam_e70_xult_freertos/production/_ext/810785262/dhcp.o

.text.TCPIP_DHCP_Deinitialize%515
                0x000000000041b1c0       0x40
 .text.TCPIP_DHCP_Deinitialize
                0x000000000041b1c0       0x40 build/sam_e70_xult_freertos/production/_ext/810785262/dhcp.o
                0x000000000041b1c0                TCPIP_DHCP_Deinitialize

.text.SYS_TIME_TimerAdd%516
                0x000000000041b200       0x40
 .text.SYS_TIME_TimerAdd
                0x000000000041b200       0x40 build/sam_e70_xult_freertos/production/_ext/912870411/sys_time.o

.rodata%517     0x000000000041b240       0x40
 .rodata        0x000000000041b240       0x40 build/sam_e70_xult_freertos/production/_ext/810785262/tcpip_helpers.o

.text.TCPIP_STACK_NetAliasNameGet%518
                0x000000000041b280       0x40
 .text.TCPIP_STACK_NetAliasNameGet
                0x000000000041b280       0x40 build/sam_e70_xult_freertos/production/_ext/810785262/tcpip_manager.o
                0x000000000041b280                TCPIP_STACK_NetAliasNameGet

.text.TCPIP_STACK_NetHandleGet%519
                0x000000000041b2c0       0x40
 .text.TCPIP_STACK_NetHandleGet
                0x000000000041b2c0       0x40 build/sam_e70_xult_freertos/production/_ext/810785262/tcpip_manager.o
                0x000000000041b2c0                TCPIP_STACK_NetHandleGet

.rodata%520     0x000000000041b300       0x40
 .rodata        0x000000000041b300       0x40 build/sam_e70_xult_freertos/production/_ext/1552905064/tasks.o

.text._UDPIsAvailablePort%521
                0x000000000041b340       0x40
 .text._UDPIsAvailablePort
                0x000000000041b340       0x40 build/sam_e70_xult_freertos/production/_ext/810785262/udp.o

.text.TCPIP_UDP_SocketNetSet%522
                0x000000000041b380       0x40
 .text.TCPIP_UDP_SocketNetSet
                0x000000000041b380       0x40 build/sam_e70_xult_freertos/production/_ext/810785262/udp.o
                0x000000000041b380                TCPIP_UDP_SocketNetSet

.text.TCPIP_UDP_SourceIPAddressSet%523
                0x000000000041b3c0       0x40
 .text.TCPIP_UDP_SourceIPAddressSet
                0x000000000041b3c0       0x40 build/sam_e70_xult_freertos/production/_ext/810785262/udp.o
                0x000000000041b3c0                TCPIP_UDP_SourceIPAddressSet

.rodata.DRV_MIIM_OBJECT_BASE_Default%524
                0x000000000041b400       0x40
 .rodata.DRV_MIIM_OBJECT_BASE_Default
                0x000000000041b400       0x40 build/sam_e70_xult_freertos/production/_ext/511568427/drv_miim.o
                0x000000000041b400                DRV_MIIM_OBJECT_BASE_Default

.text._DRV_ETHPHY_NegRestartPhaseRead%525
                0x000000000041b440       0x40
 .text._DRV_ETHPHY_NegRestartPhaseRead
                0x000000000041b440       0x40 build/sam_e70_xult_freertos/production/_ext/1607428259/drv_ethphy.o

.text._DRV_ETHPHY_SetupPhaseNegotiate_SubPhase5%526
                0x000000000041b480       0x40
 .text._DRV_ETHPHY_SetupPhaseNegotiate_SubPhase5
                0x000000000041b480       0x40 build/sam_e70_xult_freertos/production/_ext/1607428259/drv_ethphy.o

.text.rand%527  0x000000000041b4c0       0x40
 .text.rand     0x000000000041b4c0       0x40 /Applications/microchip/xc32/v2.15/bin/bin/../../lib/gcc/pic32c/6.2.1/../../../../pic32c/lib/v7e-m/fpv5/hard/libc.a(lib_a-rand.o)
                0x000000000041b4c0                rand

.text.__hi0bits%528
                0x000000000041b500       0x40
 .text.__hi0bits
                0x000000000041b500       0x40 /Applications/microchip/xc32/v2.15/bin/bin/../../lib/gcc/pic32c/6.2.1/../../../../pic32c/lib/v7e-m/fpv5/hard/libc.a(lib_a-mprec.o)
                0x000000000041b500                __hi0bits

.text._DNSDiscardName%529
                0x000000000041b540       0x3e
 .text._DNSDiscardName
                0x000000000041b540       0x3e build/sam_e70_xult_freertos/production/_ext/810785262/dns.o

.text._TCPSetHalfFlushFlag%530
                0x000000000041b57e       0x3e
 .text._TCPSetHalfFlushFlag
                0x000000000041b57e       0x3e build/sam_e70_xult_freertos/production/_ext/810785262/tcp.o

.text._DHCPOptionProcessSubNet%531
                0x000000000041b5bc       0x3e
 .text._DHCPOptionProcessSubNet
                0x000000000041b5bc       0x3e build/sam_e70_xult_freertos/production/_ext/810785262/dhcp.o

.text.TCPIP_UDP_TxOffsetSet%532
                0x000000000041b5fa       0x3e
 .text.TCPIP_UDP_TxOffsetSet
                0x000000000041b5fa       0x3e build/sam_e70_xult_freertos/production/_ext/810785262/udp.o
                0x000000000041b5fa                TCPIP_UDP_TxOffsetSet

.text._TcpSocketKill%533
                0x0000000000413b04       0x3c
 .text._TcpSocketKill
                0x0000000000413b04       0x3c build/sam_e70_xult_freertos/production/_ext/810785262/tcp.o

.text._TCP_EphemeralPortAllocate%534
                0x000000000041b638       0x3c
 .text._TCP_EphemeralPortAllocate
                0x000000000041b638       0x3c build/sam_e70_xult_freertos/production/_ext/810785262/tcp.o

.text.TCPIP_TCP_Close%535
                0x000000000041b674       0x3c
 .text.TCPIP_TCP_Close
                0x000000000041b674       0x3c build/sam_e70_xult_freertos/production/_ext/810785262/tcp.o
                0x000000000041b674                TCPIP_TCP_Close

.text._DHCPOptionProcessRouter%536
                0x000000000041b6b0       0x3c
 .text._DHCPOptionProcessRouter
                0x000000000041b6b0       0x3c build/sam_e70_xult_freertos/production/_ext/810785262/dhcp.o

.text._DHCPNotifyClients%537
                0x000000000041b6ec       0x3c
 .text._DHCPNotifyClients
                0x000000000041b6ec       0x3c build/sam_e70_xult_freertos/production/_ext/810785262/dhcp.o

.text.SYS_TIME_GetTimerObject%538
                0x000000000041b728       0x3c
 .text.SYS_TIME_GetTimerObject
                0x000000000041b728       0x3c build/sam_e70_xult_freertos/production/_ext/912870411/sys_time.o

.text.SYS_TIME_ResourceUnlock%539
                0x000000000041b764       0x3c
 .text.SYS_TIME_ResourceUnlock
                0x000000000041b764       0x3c build/sam_e70_xult_freertos/production/_ext/912870411/sys_time.o

.text.SYS_TIME_Counter64Get%540
                0x000000000041b7a0       0x3c
 .text.SYS_TIME_Counter64Get
                0x000000000041b7a0       0x3c build/sam_e70_xult_freertos/production/_ext/912870411/sys_time.o
                0x000000000041b7a0                SYS_TIME_Counter64Get

.text.SYS_TIME_MSToCount%541
                0x000000000041b7e0       0x3c
 .text.SYS_TIME_MSToCount
                0x000000000041b7e0       0x3c build/sam_e70_xult_freertos/production/_ext/912870411/sys_time.o
                0x000000000041b7e0                SYS_TIME_MSToCount

.text.SYS_TIME_TimerDestroy%542
                0x000000000041b81c       0x3c
 .text.SYS_TIME_TimerDestroy
                0x000000000041b81c       0x3c build/sam_e70_xult_freertos/production/_ext/912870411/sys_time.o
                0x000000000041b81c                SYS_TIME_TimerDestroy

.text.TWIHS0_Initialize%543
                0x000000000041b858       0x3c
 .text.TWIHS0_Initialize
                0x000000000041b858       0x3c build/sam_e70_xult_freertos/production/_ext/901805035/plib_twihs0.o
                0x000000000041b858                TWIHS0_Initialize

.text.USART1_Initialize%544
                0x000000000041b894       0x3c
 .text.USART1_Initialize
                0x000000000041b894       0x3c build/sam_e70_xult_freertos/production/_ext/901008055/plib_usart1.o
                0x000000000041b894                USART1_Initialize

.text.USART1_Read%545
                0x000000000041b8d0       0x3c
 .text.USART1_Read
                0x000000000041b8d0       0x3c build/sam_e70_xult_freertos/production/_ext/901008055/plib_usart1.o
                0x000000000041b8d0                USART1_Read

.text._TCPIPStackModuleSignalGet%546
                0x000000000041b90c       0x3c
 .text._TCPIPStackModuleSignalGet
                0x000000000041b90c       0x3c build/sam_e70_xult_freertos/production/_ext/810785262/tcpip_manager.o
                0x000000000041b90c                _TCPIPStackModuleSignalGet

.text._TCPIP_PKT_PacketFree%547
                0x000000000041b948       0x3c
 .text._TCPIP_PKT_PacketFree
                0x000000000041b948       0x3c build/sam_e70_xult_freertos/production/_ext/810785262/tcpip_packet.o
                0x000000000041b948                _TCPIP_PKT_PacketFree

.text.APP_Initialize%548
                0x000000000041b984       0x3c
 .text.APP_Initialize
                0x000000000041b984       0x3c build/sam_e70_xult_freertos/production/_ext/1360937237/app.o
                0x000000000041b984                APP_Initialize

.text.DRV_GMAC_Open%549
                0x000000000041b9c0       0x3c
 .text.DRV_GMAC_Open
                0x000000000041b9c0       0x3c build/sam_e70_xult_freertos/production/_ext/1619526243/drv_gmac.o
                0x000000000041b9c0                DRV_GMAC_Open

.text.DRV_GMAC_Process%550
                0x000000000041b9fc       0x3c
 .text.DRV_GMAC_Process
                0x000000000041b9fc       0x3c build/sam_e70_xult_freertos/production/_ext/1619526243/drv_gmac.o
                0x000000000041b9fc                DRV_GMAC_Process

.text._UDPAllocateEphemeralPort%551
                0x000000000041ba38       0x3c
 .text._UDPAllocateEphemeralPort
                0x000000000041ba38       0x3c build/sam_e70_xult_freertos/production/_ext/810785262/udp.o

.text.TCPIP_UDP_OpenClientSkt%552
                0x000000000041ba74       0x3c
 .text.TCPIP_UDP_OpenClientSkt
                0x000000000041ba74       0x3c build/sam_e70_xult_freertos/production/_ext/810785262/udp.o
                0x000000000041ba74                TCPIP_UDP_OpenClientSkt

.text._DRV_MIIM_GetOpDcpt%553
                0x000000000041bab0       0x3c
 .text._DRV_MIIM_GetOpDcpt
                0x000000000041bab0       0x3c build/sam_e70_xult_freertos/production/_ext/511568427/drv_miim.o

.text._DRV_ETHPHY_SetupPhaseNegotiate_SubPhase2%554
                0x000000000041baec       0x3c
 .text._DRV_ETHPHY_SetupPhaseNegotiate_SubPhase2
                0x000000000041baec       0x3c build/sam_e70_xult_freertos/production/_ext/1607428259/drv_ethphy.o

.text._DRV_ETHPHY_NegCompletePhaseRead1%555
                0x000000000041bb28       0x3c
 .text._DRV_ETHPHY_NegCompletePhaseRead1
                0x000000000041bb28       0x3c build/sam_e70_xult_freertos/production/_ext/1607428259/drv_ethphy.o

.text.CommandQuit%556
                0x000000000041bb64       0x3c
 .text.CommandQuit
                0x000000000041bb64       0x3c build/sam_e70_xult_freertos/production/_ext/762686499/sys_command.o

.text._DHCPOptionProcessMsgType%557
                0x000000000041bba0       0x3a
 .text._DHCPOptionProcessMsgType
                0x000000000041bba0       0x3a build/sam_e70_xult_freertos/production/_ext/810785262/dhcp.o

.text.DRV_MIIM_RegisterCallback%558
                0x000000000041bbda       0x3a
 .text.DRV_MIIM_RegisterCallback
                0x000000000041bbda       0x3a build/sam_e70_xult_freertos/production/_ext/511568427/drv_miim.o
                0x000000000041bbda                DRV_MIIM_RegisterCallback

.text.DRV_MIIM_Deinitialize%559
                0x000000000041bc14       0x3a
 .text.DRV_MIIM_Deinitialize
                0x000000000041bc14       0x3a build/sam_e70_xult_freertos/production/_ext/511568427/drv_miim.o
                0x000000000041bc14                DRV_MIIM_Deinitialize

.text.TCPIP_DNS_ClientInfoGet%560
                0x000000000041bc50       0x38
 .text.TCPIP_DNS_ClientInfoGet
                0x000000000041bc50       0x38 build/sam_e70_xult_freertos/production/_ext/810785262/dns.o
                0x000000000041bc50                TCPIP_DNS_ClientInfoGet

.text._TCPSetSourceAddress%561
                0x000000000041bc88       0x38
 .text._TCPSetSourceAddress
                0x000000000041bc88       0x38 build/sam_e70_xult_freertos/production/_ext/810785262/tcp.o

.text.TCPIP_DHCP_IsActive%562
                0x000000000041bcc0       0x38
 .text.TCPIP_DHCP_IsActive
                0x000000000041bcc0       0x38 build/sam_e70_xult_freertos/production/_ext/810785262/dhcp.o
                0x000000000041bcc0                TCPIP_DHCP_IsActive

.text.SYS_TIME_ResourceLock%563
                0x000000000041bcf8       0x38
 .text.SYS_TIME_ResourceLock
                0x000000000041bcf8       0x38 build/sam_e70_xult_freertos/production/_ext/912870411/sys_time.o

.text.TCPIP_PKT_PacketMACFormat%564
                0x000000000041bd30       0x38
 .text.TCPIP_PKT_PacketMACFormat
                0x000000000041bd30       0x38 build/sam_e70_xult_freertos/production/_ext/810785262/tcpip_packet.o
                0x000000000041bd30                TCPIP_PKT_PacketMACFormat

.text.DRV_PIC32CGMAC_LibGetMacAddr%565
                0x000000000041bd68       0x38
 .text.DRV_PIC32CGMAC_LibGetMacAddr
                0x000000000041bd68       0x38 build/sam_e70_xult_freertos/production/_ext/1619526243/drv_gmac_lib_samE7x_V7x.o
                0x000000000041bd68                DRV_PIC32CGMAC_LibGetMacAddr

.text.DRV_ETHPHY_LinkStatusGet%566
                0x000000000041bda0       0x38
 .text.DRV_ETHPHY_LinkStatusGet
                0x000000000041bda0       0x38 build/sam_e70_xult_freertos/production/_ext/1607428259/drv_ethphy.o
                0x000000000041bda0                DRV_ETHPHY_LinkStatusGet

.text._DRV_PHY_NegCompleteSetOperResult%567
                0x000000000041bdd8       0x38
 .text._DRV_PHY_NegCompleteSetOperResult
                0x000000000041bdd8       0x38 build/sam_e70_xult_freertos/production/_ext/1607428259/drv_ethphy.o

.text._DRV_ETHPHY_LinkStatPhaseRefresh%568
                0x000000000041be10       0x38
 .text._DRV_ETHPHY_LinkStatPhaseRefresh
                0x000000000041be10       0x38 build/sam_e70_xult_freertos/production/_ext/1607428259/drv_ethphy.o

.text.SYS_CONSOLE_Read%569
                0x000000000041be48       0x38
 .text.SYS_CONSOLE_Read
                0x000000000041be48       0x38 build/sam_e70_xult_freertos/production/_ext/762686499/sys_console.o
                0x000000000041be48                SYS_CONSOLE_Read

.text.__mcmp%570
                0x000000000041be80       0x38
 .text.__mcmp   0x000000000041be80       0x38 /Applications/microchip/xc32/v2.15/bin/bin/../../lib/gcc/pic32c/6.2.1/../../../../pic32c/lib/v7e-m/fpv5/hard/libc.a(lib_a-mprec.o)
                0x000000000041be80                __mcmp

.text._TCPIPStackSetConfigAddress%571
                0x000000000041beb8       0x36
 .text._TCPIPStackSetConfigAddress
                0x000000000041beb8       0x36 build/sam_e70_xult_freertos/production/_ext/810785262/tcpip_manager.o
                0x000000000041beb8                _TCPIPStackSetConfigAddress

.text.TCPIP_UDP_RxOffsetSet%572
                0x000000000041beee       0x36
 .text.TCPIP_UDP_RxOffsetSet
                0x000000000041beee       0x36 build/sam_e70_xult_freertos/production/_ext/810785262/udp.o
                0x000000000041beee                TCPIP_UDP_RxOffsetSet

.text.DRV_ETHPHY_NegotiationResultGet%573
                0x000000000041bf24       0x36
 .text.DRV_ETHPHY_NegotiationResultGet
                0x000000000041bf24       0x36 build/sam_e70_xult_freertos/production/_ext/1607428259/drv_ethphy.o
                0x000000000041bf24                DRV_ETHPHY_NegotiationResultGet

.text.Console_UART_PopQueue%574
                0x000000000041bf5a       0x36
 .text.Console_UART_PopQueue
                0x000000000041bf5a       0x36 build/sam_e70_xult_freertos/production/_ext/762686499/sys_console_uart.o

.text.TCPIP_DNS_OAHASH_KeyCopy%575
                0x000000000041bf90       0x34
 .text.TCPIP_DNS_OAHASH_KeyCopy
                0x000000000041bf90       0x34 build/sam_e70_xult_freertos/production/_ext/810785262/dns.o

.rodata%576     0x000000000041bfc4       0x34
 .rodata        0x000000000041bfc4       0x34 build/sam_e70_xult_freertos/production/_ext/810785262/dhcp.o

.text._ARPSetEntry%577
                0x000000000041bff8       0x34
 .text._ARPSetEntry
                0x000000000041bff8       0x34 build/sam_e70_xult_freertos/production/_ext/810785262/arp.o

.text.TCPIP_ARP_HashEntryDelete%578
                0x000000000041c02c       0x34
 .text.TCPIP_ARP_HashEntryDelete
                0x000000000041c02c       0x34 build/sam_e70_xult_freertos/production/_ext/810785262/arp.o
                0x000000000041c02c                TCPIP_ARP_HashEntryDelete

.text.TCPIP_ARP_HandlerRegister%579
                0x000000000041c060       0x34
 .text.TCPIP_ARP_HandlerRegister
                0x000000000041c060       0x34 build/sam_e70_xult_freertos/production/_ext/810785262/arp.o
                0x000000000041c060                TCPIP_ARP_HandlerRegister

.text.TWIHS0_InitiateRead%580
                0x000000000041c094       0x34
 .text.TWIHS0_InitiateRead
                0x000000000041c094       0x34 build/sam_e70_xult_freertos/production/_ext/901805035/plib_twihs0.o

.text.TCPIP_Helper_StringToPowerMode%581
                0x000000000041c0c8       0x34
 .text.TCPIP_Helper_StringToPowerMode
                0x000000000041c0c8       0x34 build/sam_e70_xult_freertos/production/_ext/810785262/tcpip_helpers.o
                0x000000000041c0c8                TCPIP_Helper_StringToPowerMode

.text.TCPIP_STACK_NetDown%582
                0x000000000041c0fc       0x34
 .text.TCPIP_STACK_NetDown
                0x000000000041c0fc       0x34 build/sam_e70_xult_freertos/production/_ext/810785262/tcpip_manager.o
                0x000000000041c0fc                TCPIP_STACK_NetDown

.text._TCPIP_PKT_PacketAcknowledge%583
                0x000000000041c130       0x34
 .text._TCPIP_PKT_PacketAcknowledge
                0x000000000041c130       0x34 build/sam_e70_xult_freertos/production/_ext/810785262/tcpip_packet.o
                0x000000000041c130                _TCPIP_PKT_PacketAcknowledge

.text._APP_PumpDNS%584
                0x000000000041c164       0x34
 .text._APP_PumpDNS
                0x000000000041c164       0x34 build/sam_e70_xult_freertos/production/_ext/1360937237/app.o
                0x000000000041c164                _APP_PumpDNS

.text.vListInsert%585
                0x000000000041c198       0x34
 .text.vListInsert
                0x000000000041c198       0x34 build/sam_e70_xult_freertos/production/_ext/404212886/list.o
                0x000000000041c198                vListInsert

.text.vTaskDelay%586
                0x000000000041c1cc       0x34
 .text.vTaskDelay
                0x000000000041c1cc       0x34 build/sam_e70_xult_freertos/production/_ext/404212886/FreeRTOS_tasks.o
                0x000000000041c1cc                vTaskDelay

.text.sulp%587  0x000000000041c200       0x34
 .text.sulp     0x000000000041c200       0x34 /Applications/microchip/xc32/v2.15/bin/bin/../../lib/gcc/pic32c/6.2.1/../../../../pic32c/lib/v7e-m/fpv5/hard/libc.a(lib_a-strtod.o)

.text.__libc_fini_array%588
                0x000000000041c234       0x34
 .text.__libc_fini_array
                0x000000000041c234       0x34 /Applications/microchip/xc32/v2.15/bin/bin/../../lib/gcc/pic32c/6.2.1/../../../../pic32c/lib/v7e-m/fpv5/hard/libc.a(lib_a-fini.o)
                0x000000000041c234                __libc_fini_array

.text._DNS_NetIsValid%589
                0x000000000041c268       0x32
 .text._DNS_NetIsValid
                0x000000000041c268       0x32 build/sam_e70_xult_freertos/production/_ext/810785262/dns.o

.text.TCPIP_STACK_NetBiosNameSet%590
                0x000000000041c29a       0x32
 .text.TCPIP_STACK_NetBiosNameSet
                0x000000000041c29a       0x32 build/sam_e70_xult_freertos/production/_ext/810785262/tcpip_manager.o
                0x000000000041c29a                TCPIP_STACK_NetBiosNameSet

.text._MacPacketAck%591
                0x000000000041c2cc       0x32
 .text._MacPacketAck
                0x000000000041c2cc       0x32 build/sam_e70_xult_freertos/production/_ext/1619526243/drv_gmac_lib_samE7x_V7x.o

.text._TCPSocketTxFreeSize%592
                0x000000000041c2fe       0x30
 .text._TCPSocketTxFreeSize
                0x000000000041c2fe       0x30 build/sam_e70_xult_freertos/production/_ext/810785262/tcp.o

.text.SYS_TIME_UpdateTimerList%593
                0x000000000041c330       0x30
 .text.SYS_TIME_UpdateTimerList
                0x000000000041c330       0x30 build/sam_e70_xult_freertos/production/_ext/912870411/sys_time.o

.text.TCPIP_IPV4_CheckPktTx%594
                0x000000000041c360       0x30
 .text.TCPIP_IPV4_CheckPktTx
                0x000000000041c360       0x30 build/sam_e70_xult_freertos/production/_ext/810785262/ipv4.o

.text.IPv4RegisterFilter%595
                0x000000000041c390       0x30
 .text.IPv4RegisterFilter
                0x000000000041c390       0x30 build/sam_e70_xult_freertos/production/_ext/810785262/ipv4.o
                0x000000000041c390                IPv4RegisterFilter

.text.USART1_ErrorGet%596
                0x000000000041c3c0       0x30
 .text.USART1_ErrorGet
                0x000000000041c3c0       0x30 build/sam_e70_xult_freertos/production/_ext/901008055/plib_usart1.o
                0x000000000041c3c0                USART1_ErrorGet

.text.fnv_32_hash%597
                0x000000000041c3f0       0x30
 .text.fnv_32_hash
                0x000000000041c3f0       0x30 build/sam_e70_xult_freertos/production/_ext/810785262/hash_fnv.o
                0x000000000041c3f0                fnv_32_hash

.text.TCPIP_OAHASH_EntriesRemoveAll%598
                0x000000000041c420       0x30
 .text.TCPIP_OAHASH_EntriesRemoveAll
                0x000000000041c420       0x30 build/sam_e70_xult_freertos/production/_ext/810785262/oahash.o
                0x000000000041c420                TCPIP_OAHASH_EntriesRemoveAll

.text.TCPIP_Helper_ProtectedSingleListDeinitialize%599
                0x000000000041c450       0x30
 .text.TCPIP_Helper_ProtectedSingleListDeinitialize
                0x000000000041c450       0x30 build/sam_e70_xult_freertos/production/_ext/810785262/tcpip_helpers.o
                0x000000000041c450                TCPIP_Helper_ProtectedSingleListDeinitialize

.text.TCPIP_Helper_ProtectedSingleListNodeRemove%600
                0x000000000041c480       0x30
 .text.TCPIP_Helper_ProtectedSingleListNodeRemove
                0x000000000041c480       0x30 build/sam_e70_xult_freertos/production/_ext/810785262/tcpip_helpers.o
                0x000000000041c480                TCPIP_Helper_ProtectedSingleListNodeRemove

.text.TCPIP_PKT_Initialize%601
                0x000000000041c4b0       0x30
 .text.TCPIP_PKT_Initialize
                0x000000000041c4b0       0x30 build/sam_e70_xult_freertos/production/_ext/810785262/tcpip_packet.o
                0x000000000041c4b0                TCPIP_PKT_Initialize

.text.DRV_GMAC_ParametersGet%602
                0x000000000041c4e0       0x30
 .text.DRV_GMAC_ParametersGet
                0x000000000041c4e0       0x30 build/sam_e70_xult_freertos/production/_ext/1619526243/drv_gmac.o
                0x000000000041c4e0                DRV_GMAC_ParametersGet

.text.DRV_PIC32CGMAC_LibSetMacAddr%603
                0x000000000041c510       0x30
 .text.DRV_PIC32CGMAC_LibSetMacAddr
                0x000000000041c510       0x30 build/sam_e70_xult_freertos/production/_ext/1619526243/drv_gmac_lib_samE7x_V7x.o
                0x000000000041c510                DRV_PIC32CGMAC_LibSetMacAddr

.text.TCPIP_UDP_Close%604
                0x000000000041c540       0x30
 .text.TCPIP_UDP_Close
                0x000000000041c540       0x30 build/sam_e70_xult_freertos/production/_ext/810785262/udp.o
                0x000000000041c540                TCPIP_UDP_Close

.text.xQueueGenericCreate%605
                0x000000000041c570       0x30
 .text.xQueueGenericCreate
                0x000000000041c570       0x30 build/sam_e70_xult_freertos/production/_ext/404212886/queue.o
                0x000000000041c570                xQueueGenericCreate

.text.xPortSysTickHandler%606
                0x000000000041c5a0       0x30
 .text.xPortSysTickHandler
                0x000000000041c5a0       0x30 build/sam_e70_xult_freertos/production/_ext/977623654/port.o
                0x000000000041c5a0                xPortSysTickHandler

.text%607       0x000000000041c5d0       0x30
 .text          0x000000000041c5d0       0x30 /Applications/microchip/xc32/v2.15/bin/bin/../../lib/gcc/pic32c/6.2.1/v7e-m/fpv5/hard/libgcc.a(_aeabi_uldivmod.o)
                0x000000000041c5d0                __aeabi_uldivmod

.text.__match%608
                0x000000000041c600       0x30
 .text.__match  0x000000000041c600       0x30 /Applications/microchip/xc32/v2.15/bin/bin/../../lib/gcc/pic32c/6.2.1/../../../../pic32c/lib/v7e-m/fpv5/hard/libc.a(lib_a-gdtoa-hexnan.o)
                0x000000000041c600                __match

.text._DHCPOptionProcessLease%609
                0x000000000041c630       0x2e
 .text._DHCPOptionProcessLease
                0x000000000041c630       0x2e build/sam_e70_xult_freertos/production/_ext/810785262/dhcp.o

.text._DHCPOptionProcessRenewT%610
                0x000000000041c65e       0x2e
 .text._DHCPOptionProcessRenewT
                0x000000000041c65e       0x2e build/sam_e70_xult_freertos/production/_ext/810785262/dhcp.o

.text._DHCPOptionProcessRebindT%611
                0x000000000041c68c       0x2e
 .text._DHCPOptionProcessRebindT
                0x000000000041c68c       0x2e build/sam_e70_xult_freertos/production/_ext/810785262/dhcp.o

.text._ARPRemoveEntry%612
                0x000000000041c6ba       0x2e
 .text._ARPRemoveEntry
                0x000000000041c6ba       0x2e build/sam_e70_xult_freertos/production/_ext/810785262/arp.o

.text.TCPIP_STACK_DNSServiceCanStart%613
                0x000000000041c6e8       0x2e
 .text.TCPIP_STACK_DNSServiceCanStart
                0x000000000041c6e8       0x2e build/sam_e70_xult_freertos/production/_ext/810785262/tcpip_manager.o
                0x000000000041c6e8                TCPIP_STACK_DNSServiceCanStart

.text._TxSktGetLockedV4Pkt%614
                0x000000000041c716       0x2e
 .text._TxSktGetLockedV4Pkt
                0x000000000041c716       0x2e build/sam_e70_xult_freertos/production/_ext/810785262/udp.o

.text.DRV_MIIM_DeregisterCallback%615
                0x000000000041c744       0x2e
 .text.DRV_MIIM_DeregisterCallback
                0x000000000041c744       0x2e build/sam_e70_xult_freertos/production/_ext/511568427/drv_miim.o
                0x000000000041c744                DRV_MIIM_DeregisterCallback

.text.DRV_ETHPHY_Reset%616
                0x000000000041c772       0x2e
 .text.DRV_ETHPHY_Reset
                0x000000000041c772       0x2e build/sam_e70_xult_freertos/production/_ext/1607428259/drv_ethphy.o
                0x000000000041c772                DRV_ETHPHY_Reset

.text.DRV_ETHPHY_NegotiationIsComplete%617
                0x000000000041c7a0       0x2e
 .text.DRV_ETHPHY_NegotiationIsComplete
                0x000000000041c7a0       0x2e build/sam_e70_xult_freertos/production/_ext/1607428259/drv_ethphy.o
                0x000000000041c7a0                DRV_ETHPHY_NegotiationIsComplete

.text._DNSClientCleanup%618
                0x000000000041c7ce       0x2c
 .text._DNSClientCleanup
                0x000000000041c7ce       0x2c build/sam_e70_xult_freertos/production/_ext/810785262/dns.o

.text.TWIHS0_Read%619
                0x000000000041c7fc       0x2c
 .text.TWIHS0_Read
                0x000000000041c7fc       0x2c build/sam_e70_xult_freertos/production/_ext/901805035/plib_twihs0.o
                0x000000000041c7fc                TWIHS0_Read

.text.TCPIP_Helper_ProtectedSingleListHeadRemove%620
                0x000000000041c828       0x2c
 .text.TCPIP_Helper_ProtectedSingleListHeadRemove
                0x000000000041c828       0x2c build/sam_e70_xult_freertos/production/_ext/810785262/tcpip_helpers.o
                0x000000000041c828                TCPIP_Helper_ProtectedSingleListHeadRemove

.text.TCPIP_STACK_InitializeDataGet%621
                0x000000000041c854       0x2c
 .text.TCPIP_STACK_InitializeDataGet
                0x000000000041c854       0x2c build/sam_e70_xult_freertos/production/_ext/810785262/tcpip_manager.o
                0x000000000041c854                TCPIP_STACK_InitializeDataGet

.text.TCPIP_STACK_AddressServiceDefaultSet%622
                0x000000000041c880       0x2c
 .text.TCPIP_STACK_AddressServiceDefaultSet
                0x000000000041c880       0x2c build/sam_e70_xult_freertos/production/_ext/810785262/tcpip_manager.o
                0x000000000041c880                TCPIP_STACK_AddressServiceDefaultSet

.text.TCPIP_STACK_IsBcastAddress%623
                0x000000000041c8ac       0x2c
 .text.TCPIP_STACK_IsBcastAddress
                0x000000000041c8ac       0x2c build/sam_e70_xult_freertos/production/_ext/810785262/tcpip_manager.o
                0x000000000041c8ac                TCPIP_STACK_IsBcastAddress

.text._TCPIPStackModuleRxExtract%624
                0x000000000041c8d8       0x2c
 .text._TCPIPStackModuleRxExtract
                0x000000000041c8d8       0x2c build/sam_e70_xult_freertos/production/_ext/810785262/tcpip_manager.o
                0x000000000041c8d8                _TCPIPStackModuleRxExtract

.text._DRV_GMAC_LinkStateDown%625
                0x000000000041c904       0x2c
 .text._DRV_GMAC_LinkStateDown
                0x000000000041c904       0x2c build/sam_e70_xult_freertos/production/_ext/1619526243/drv_gmac.o

.text.TCPIP_STACK_Init%626
                0x000000000041c930       0x2c
 .text.TCPIP_STACK_Init
                0x000000000041c930       0x2c build/sam_e70_xult_freertos/production/_ext/1552905064/initialization.o
                0x000000000041c930                TCPIP_STACK_Init

.text._DRV_ETHPHY_ClientOpSetup%627
                0x000000000041c95c       0x2c
 .text._DRV_ETHPHY_ClientOpSetup
                0x000000000041c95c       0x2c build/sam_e70_xult_freertos/production/_ext/1607428259/drv_ethphy.o

.text.DRV_ETHPHY_RestartNegotiation%628
                0x000000000041c988       0x2c
 .text.DRV_ETHPHY_RestartNegotiation
                0x000000000041c988       0x2c build/sam_e70_xult_freertos/production/_ext/1607428259/drv_ethphy.o
                0x000000000041c988                DRV_ETHPHY_RestartNegotiation

.text._DRV_ETHPHY_ClientOpReset%629
                0x000000000041c9b4       0x2c
 .text._DRV_ETHPHY_ClientOpReset
                0x000000000041c9b4       0x2c build/sam_e70_xult_freertos/production/_ext/1607428259/drv_ethphy.o

.text._DRV_ETHPHY_ClientOpLinkStat%630
                0x000000000041c9e0       0x2c
 .text._DRV_ETHPHY_ClientOpLinkStat
                0x000000000041c9e0       0x2c build/sam_e70_xult_freertos/production/_ext/1607428259/drv_ethphy.o

.text._DRV_ETHPHY_ClientOpNegResult%631
                0x000000000041ca0c       0x2c
 .text._DRV_ETHPHY_ClientOpNegResult
                0x000000000041ca0c       0x2c build/sam_e70_xult_freertos/production/_ext/1607428259/drv_ethphy.o

.text._DRV_ETHPHY_ClientOpNegComplete%632
                0x000000000041ca38       0x2c
 .text._DRV_ETHPHY_ClientOpNegComplete
                0x000000000041ca38       0x2c build/sam_e70_xult_freertos/production/_ext/1607428259/drv_ethphy.o

.text._DRV_ETHPHY_ClientOpNegRestart%633
                0x000000000041ca64       0x2c
 .text._DRV_ETHPHY_ClientOpNegRestart
                0x000000000041ca64       0x2c build/sam_e70_xult_freertos/production/_ext/1607428259/drv_ethphy.o

.text._DRV_ETHPHY_SetupPhaseNegotiate%634
                0x000000000041ca90       0x2c
 .text._DRV_ETHPHY_SetupPhaseNegotiate
                0x000000000041ca90       0x2c build/sam_e70_xult_freertos/production/_ext/1607428259/drv_ethphy.o

.text.SYS_CONSOLE_Write%635
                0x000000000041cabc       0x2c
 .text.SYS_CONSOLE_Write
                0x000000000041cabc       0x2c build/sam_e70_xult_freertos/production/_ext/762686499/sys_console.o
                0x000000000041cabc                SYS_CONSOLE_Write

.text.prvResetNextTaskUnblockTime%636
                0x000000000041cae8       0x2c
 .text.prvResetNextTaskUnblockTime
                0x000000000041cae8       0x2c build/sam_e70_xult_freertos/production/_ext/404212886/FreeRTOS_tasks.o

.text.pxPortInitialiseStack%637
                0x000000000041cb14       0x2c
 .text.pxPortInitialiseStack
                0x000000000041cb14       0x2c build/sam_e70_xult_freertos/production/_ext/977623654/port.o
                0x000000000041cb14                pxPortInitialiseStack

.text.__ascii_mbtowc%638
                0x000000000041cb40       0x2c
 .text.__ascii_mbtowc
                0x000000000041cb40       0x2c /Applications/microchip/xc32/v2.15/bin/bin/../../lib/gcc/pic32c/6.2.1/../../../../pic32c/lib/v7e-m/fpv5/hard/libc.a(lib_a-mbtowc_r.o)
                0x000000000041cb40                __ascii_mbtowc

.text.strtol%639
                0x000000000041cb6c       0x2c
 .text.strtol   0x000000000041cb6c       0x2c /Applications/microchip/xc32/v2.15/bin/bin/../../lib/gcc/pic32c/6.2.1/../../../../pic32c/lib/v7e-m/fpv5/hard/libc.a(lib_a-strtol.o)
                0x000000000041cb6c                strtol

.text._sbrk%640
                0x000000000041cb98       0x2c
 .text._sbrk    0x000000000041cb98       0x2c /Applications/microchip/xc32/v2.15/bin/bin/../../lib/gcc/pic32c/6.2.1/../../../../pic32c/lib/v7e-m/fpv5/hard/libpic32c.a(sbrk.o)
                0x000000000041cb98                _sbrk

.text.TCPIP_Helper_ProtectedSingleListTailAdd%641
                0x000000000041cbc4       0x2a
 .text.TCPIP_Helper_ProtectedSingleListTailAdd
                0x000000000041cbc4       0x2a build/sam_e70_xult_freertos/production/_ext/810785262/tcpip_helpers.o
                0x000000000041cbc4                TCPIP_Helper_ProtectedSingleListTailAdd

.text.TCPIP_Helper_ProtectedSingleListRemoveAll%642
                0x000000000041cbee       0x2a
 .text.TCPIP_Helper_ProtectedSingleListRemoveAll
                0x000000000041cbee       0x2a build/sam_e70_xult_freertos/production/_ext/810785262/tcpip_helpers.o
                0x000000000041cbee                TCPIP_Helper_ProtectedSingleListRemoveAll

.text._DRV_GMAC_LinkStateStartLink%643
                0x000000000041cc18       0x2a
 .text._DRV_GMAC_LinkStateStartLink
                0x000000000041cc18       0x2a build/sam_e70_xult_freertos/production/_ext/1619526243/drv_gmac.o

.text._DRV_MIIM_GetObjectAndLock%644
                0x000000000041cc42       0x2a
 .text._DRV_MIIM_GetObjectAndLock
                0x000000000041cc42       0x2a build/sam_e70_xult_freertos/production/_ext/511568427/drv_miim.o

.text._DNSGetData%645
                0x000000000041cc6c       0x28
 .text._DNSGetData
                0x000000000041cc6c       0x28 build/sam_e70_xult_freertos/production/_ext/810785262/dns.o

.text.TCPIP_ICMP_Deinitialize%646
                0x000000000041cc94       0x28
 .text.TCPIP_ICMP_Deinitialize
                0x000000000041cc94       0x28 build/sam_e70_xult_freertos/production/_ext/810785262/icmp.o
                0x000000000041cc94                TCPIP_ICMP_Deinitialize

.text._TcpSocketChk%647
                0x000000000041ccbc       0x28
 .text._TcpSocketChk
                0x000000000041ccbc       0x28 build/sam_e70_xult_freertos/production/_ext/810785262/tcp.o

.text._TcpFlush%648
                0x000000000041cce4       0x28
 .text._TcpFlush
                0x000000000041cce4       0x28 build/sam_e70_xult_freertos/production/_ext/810785262/tcp.o

.text._DHCPOptionWriteParamRequest%649
                0x000000000041cd0c       0x28
 .text._DHCPOptionWriteParamRequest
                0x000000000041cd0c       0x28 build/sam_e70_xult_freertos/production/_ext/810785262/dhcp.o

.text.TC0_CH0_TimerInitialize%650
                0x000000000041cd34       0x28
 .text.TC0_CH0_TimerInitialize
                0x000000000041cd34       0x28 build/sam_e70_xult_freertos/production/_ext/1245453995/plib_tc0.o
                0x000000000041cd34                TC0_CH0_TimerInitialize

.text._TCPIP_STACK_TickHandler%651
                0x000000000041cd5c       0x28
 .text._TCPIP_STACK_TickHandler
                0x000000000041cd5c       0x28 build/sam_e70_xult_freertos/production/_ext/810785262/tcpip_manager.o

.text._TCPIPSignalEntrySetNotify%652
                0x000000000041cd84       0x28
 .text._TCPIPSignalEntrySetNotify
                0x000000000041cd84       0x28 build/sam_e70_xult_freertos/production/_ext/810785262/tcpip_manager.o

.text.TCPIP_STACK_NetMACStatisticsGet%653
                0x000000000041cdac       0x28
 .text.TCPIP_STACK_NetMACStatisticsGet
                0x000000000041cdac       0x28 build/sam_e70_xult_freertos/production/_ext/810785262/tcpip_manager.o
                0x000000000041cdac                TCPIP_STACK_NetMACStatisticsGet

.text.TCPIP_STACK_NetMACRegisterStatisticsGet%654
                0x000000000041cdd4       0x28
 .text.TCPIP_STACK_NetMACRegisterStatisticsGet
                0x000000000041cdd4       0x28 build/sam_e70_xult_freertos/production/_ext/810785262/tcpip_manager.o
                0x000000000041cdd4                TCPIP_STACK_NetMACRegisterStatisticsGet

.text.TCPIP_STACK_NetIsBcastAddress%655
                0x000000000041cdfc       0x28
 .text.TCPIP_STACK_NetIsBcastAddress
                0x000000000041cdfc       0x28 build/sam_e70_xult_freertos/production/_ext/810785262/tcpip_manager.o
                0x000000000041cdfc                TCPIP_STACK_NetIsBcastAddress

.text._TCPIPStackSignalHandlerSetParams%656
                0x000000000041ce24       0x28
 .text._TCPIPStackSignalHandlerSetParams
                0x000000000041ce24       0x28 build/sam_e70_xult_freertos/production/_ext/810785262/tcpip_manager.o
                0x000000000041ce24                _TCPIPStackSignalHandlerSetParams

.text._TCPIP_PKT_SocketAlloc%657
                0x000000000041ce4c       0x28
 .text._TCPIP_PKT_SocketAlloc
                0x000000000041ce4c       0x28 build/sam_e70_xult_freertos/production/_ext/810785262/tcpip_packet.o
                0x000000000041ce4c                _TCPIP_PKT_SocketAlloc

.text.DRV_GMAC_ConfigGet%658
                0x000000000041ce74       0x28
 .text.DRV_GMAC_ConfigGet
                0x000000000041ce74       0x28 build/sam_e70_xult_freertos/production/_ext/1619526243/drv_gmac.o
                0x000000000041ce74                DRV_GMAC_ConfigGet

.text.DRV_GMAC_LinkCheck%659
                0x000000000041ce9c       0x28
 .text.DRV_GMAC_LinkCheck
                0x000000000041ce9c       0x28 build/sam_e70_xult_freertos/production/_ext/1619526243/drv_gmac.o
                0x000000000041ce9c                DRV_GMAC_LinkCheck

.rodata.tcpipARPInitData%660
                0x000000000041cec4       0x28
 .rodata.tcpipARPInitData
                0x000000000041cec4       0x28 build/sam_e70_xult_freertos/production/_ext/1552905064/initialization.o
                0x000000000041cec4                tcpipARPInitData

.text._UDPSocketDcpt%661
                0x000000000041ceec       0x28
 .text._UDPSocketDcpt
                0x000000000041ceec       0x28 build/sam_e70_xult_freertos/production/_ext/810785262/udp.o

.text._UDPFreeTxResources%662
                0x000000000041cf14       0x28
 .text._UDPFreeTxResources
                0x000000000041cf14       0x28 build/sam_e70_xult_freertos/production/_ext/810785262/udp.o

.text._UDPUpdatePacketLock%663
                0x000000000041cf3c       0x28
 .text._UDPUpdatePacketLock
                0x000000000041cf3c       0x28 build/sam_e70_xult_freertos/production/_ext/810785262/udp.o

.text.TCPIP_UDP_GetIsReady%664
                0x000000000041cf64       0x28
 .text.TCPIP_UDP_GetIsReady
                0x000000000041cf64       0x28 build/sam_e70_xult_freertos/production/_ext/810785262/udp.o
                0x000000000041cf64                TCPIP_UDP_GetIsReady

.text.TCPIP_UDP_SignalHandlerRegister%665
                0x000000000041cf8c       0x28
 .text.TCPIP_UDP_SignalHandlerRegister
                0x000000000041cf8c       0x28 build/sam_e70_xult_freertos/production/_ext/810785262/udp.o
                0x000000000041cf8c                TCPIP_UDP_SignalHandlerRegister

.text.DRV_MIIM_Status%666
                0x000000000041cfb4       0x28
 .text.DRV_MIIM_Status
                0x000000000041cfb4       0x28 build/sam_e70_xult_freertos/production/_ext/511568427/drv_miim.o
                0x000000000041cfb4                DRV_MIIM_Status

.text._DRV_ETHPHY_ClientOpSmiRead%667
                0x000000000041cfdc       0x28
 .text._DRV_ETHPHY_ClientOpSmiRead
                0x000000000041cfdc       0x28 build/sam_e70_xult_freertos/production/_ext/1607428259/drv_ethphy.o

.rodata._DRV_PHY_ClientOpTbl%668
                0x000000000041d004       0x28
 .rodata._DRV_PHY_ClientOpTbl
                0x000000000041d004       0x28 build/sam_e70_xult_freertos/production/_ext/1607428259/drv_ethphy.o

.text.SYS_CONSOLE_Flush%669
                0x000000000041d02c       0x28
 .text.SYS_CONSOLE_Flush
                0x000000000041d02c       0x28 build/sam_e70_xult_freertos/production/_ext/762686499/sys_console.o
                0x000000000041d02c                SYS_CONSOLE_Flush

.text.Console_UART_Status%670
                0x000000000041d054       0x28
 .text.Console_UART_Status
                0x000000000041d054       0x28 build/sam_e70_xult_freertos/production/_ext/762686499/sys_console_uart.o
                0x000000000041d054                Console_UART_Status

.text.ReadCommandCharacter%671
                0x000000000041d07c       0x28
 .text.ReadCommandCharacter
                0x000000000041d07c       0x28 build/sam_e70_xult_freertos/production/_ext/762686499/sys_command.o

.text.SendCommandCharacter%672
                0x000000000041d0a4       0x28
 .text.SendCommandCharacter
                0x000000000041d0a4       0x28 build/sam_e70_xult_freertos/production/_ext/762686499/sys_command.o

.text.uxListRemove%673
                0x000000000041d0cc       0x28
 .text.uxListRemove
                0x000000000041d0cc       0x28 build/sam_e70_xult_freertos/production/_ext/404212886/list.o
                0x000000000041d0cc                uxListRemove

.text.prvPortStartFirstTask%674
                0x000000000041d0f4       0x28
 .text.prvPortStartFirstTask
                0x000000000041d0f4       0x28 build/sam_e70_xult_freertos/production/_ext/977623654/port.o

.text.vPortSetupTimerInterrupt%675
                0x000000000041d11c       0x28
 .text.vPortSetupTimerInterrupt
                0x000000000041d11c       0x28 build/sam_e70_xult_freertos/production/_ext/977623654/port.o
                0x000000000041d11c                vPortSetupTimerInterrupt

.rodata.tinytens%676
                0x000000000041d148       0x28
 .rodata.tinytens
                0x000000000041d148       0x28 /Applications/microchip/xc32/v2.15/bin/bin/../../lib/gcc/pic32c/6.2.1/../../../../pic32c/lib/v7e-m/fpv5/hard/libc.a(lib_a-strtod.o)

.rodata.__mprec_bigtens%677
                0x000000000041d170       0x28
 .rodata.__mprec_bigtens
                0x000000000041d170       0x28 /Applications/microchip/xc32/v2.15/bin/bin/../../lib/gcc/pic32c/6.2.1/../../../../pic32c/lib/v7e-m/fpv5/hard/libc.a(lib_a-mprec.o)
                0x000000000041d170                __mprec_bigtens

.text.TCPIP_STACK_DNSServiceSelect%678
                0x000000000041d198       0x26
 .text.TCPIP_STACK_DNSServiceSelect
                0x000000000041d198       0x26 build/sam_e70_xult_freertos/production/_ext/810785262/tcpip_manager.o
                0x000000000041d198                TCPIP_STACK_DNSServiceSelect

.text.TCPIP_STACK_AddressServiceSelect%679
                0x000000000041d1be       0x26
 .text.TCPIP_STACK_AddressServiceSelect
                0x000000000041d1be       0x26 build/sam_e70_xult_freertos/production/_ext/810785262/tcpip_manager.o
                0x000000000041d1be                TCPIP_STACK_AddressServiceSelect

.text._UDPFreeRxQueue%680
                0x000000000041d1e4       0x26
 .text._UDPFreeRxQueue
                0x000000000041d1e4       0x26 build/sam_e70_xult_freertos/production/_ext/810785262/udp.o

.text._DHCPOptionProcessSrvIdent%681
                0x000000000041d20a       0x24
 .text._DHCPOptionProcessSrvIdent
                0x000000000041d20a       0x24 build/sam_e70_xult_freertos/production/_ext/810785262/dhcp.o

.text._DHCPOptionWriteMsgType%682
                0x000000000041d22e       0x24
 .text._DHCPOptionWriteMsgType
                0x000000000041d22e       0x24 build/sam_e70_xult_freertos/production/_ext/810785262/dhcp.o

.text.TCPIP_DHCP_Request%683
                0x000000000041d252       0x24
 .text.TCPIP_DHCP_Request
                0x000000000041d252       0x24 build/sam_e70_xult_freertos/production/_ext/810785262/dhcp.o
                0x000000000041d252                TCPIP_DHCP_Request

.text._ARPAllocateTxPacket%684
                0x000000000041d278       0x24
 .text._ARPAllocateTxPacket
                0x000000000041d278       0x24 build/sam_e70_xult_freertos/production/_ext/810785262/arp.o

.text._ARPRemoveCacheEntries%685
                0x000000000041d29c       0x24
 .text._ARPRemoveCacheEntries
                0x000000000041d29c       0x24 build/sam_e70_xult_freertos/production/_ext/810785262/arp.o

.text.TCPIP_ARP_HandlerDeRegister%686
                0x000000000041d2c0       0x24
 .text.TCPIP_ARP_HandlerDeRegister
                0x000000000041d2c0       0x24 build/sam_e70_xult_freertos/production/_ext/810785262/arp.o
                0x000000000041d2c0                TCPIP_ARP_HandlerDeRegister

.text.TC0_CH0_InterruptHandler%687
                0x000000000041d2e4       0x24
 .text.TC0_CH0_InterruptHandler
                0x000000000041d2e4       0x24 build/sam_e70_xult_freertos/production/_ext/1245453995/plib_tc0.o
                0x000000000041d2e4                TC0_CH0_InterruptHandler

.text.TCPIP_Commands_Deinitialize%688
                0x000000000041d308       0x24
 .text.TCPIP_Commands_Deinitialize
                0x000000000041d308       0x24 build/sam_e70_xult_freertos/production/_ext/810785262/tcpip_commands.o
                0x000000000041d308                TCPIP_Commands_Deinitialize

.text.Ipv4DeRegisterFilter%689
                0x000000000041d32c       0x24
 .text.Ipv4DeRegisterFilter
                0x000000000041d32c       0x24 build/sam_e70_xult_freertos/production/_ext/810785262/ipv4.o
                0x000000000041d32c                Ipv4DeRegisterFilter

.rodata._tcpip_heap_object%690
                0x000000000041d350       0x24
 .rodata._tcpip_heap_object
                0x000000000041d350       0x24 build/sam_e70_xult_freertos/production/_ext/810785262/tcpip_heap_internal.o

.text.TCPIP_OAHASH_Initialize%691
                0x000000000041d374       0x24
 .text.TCPIP_OAHASH_Initialize
                0x000000000041d374       0x24 build/sam_e70_xult_freertos/production/_ext/810785262/oahash.o
                0x000000000041d374                TCPIP_OAHASH_Initialize

.text.TCPIP_STACK_IPAddToNet%692
                0x000000000041d398       0x24
 .text.TCPIP_STACK_IPAddToNet
                0x000000000041d398       0x24 build/sam_e70_xult_freertos/production/_ext/810785262/tcpip_manager.o
                0x000000000041d398                TCPIP_STACK_IPAddToNet

.text._TCPIPStackHandleToNetLinked%693
                0x000000000041d3bc       0x24
 .text._TCPIPStackHandleToNetLinked
                0x000000000041d3bc       0x24 build/sam_e70_xult_freertos/production/_ext/810785262/tcpip_manager.o
                0x000000000041d3bc                _TCPIPStackHandleToNetLinked

.rodata%694     0x000000000041d3e0       0x24
 .rodata        0x000000000041d3e0       0x24 build/sam_e70_xult_freertos/production/_ext/1619526243/drv_gmac.o

.text.DRV_PIC32CGMAC_LibClose%695
                0x000000000041d404       0x24
 .text.DRV_PIC32CGMAC_LibClose
                0x000000000041d404       0x24 build/sam_e70_xult_freertos/production/_ext/1619526243/drv_gmac_lib_samE7x_V7x.o
                0x000000000041d404                DRV_PIC32CGMAC_LibClose

.text.DRV_ETHPHY_HWConfigFlagsGet%696
                0x000000000041d428       0x24
 .text.DRV_ETHPHY_HWConfigFlagsGet
                0x000000000041d428       0x24 build/sam_e70_xult_freertos/production/_ext/1607428259/drv_ethphy.o
                0x000000000041d428                DRV_ETHPHY_HWConfigFlagsGet

.text._DRV_ETHPHY_NegResultPhase_ANLPAD%697
                0x000000000041d44c       0x24
 .text._DRV_ETHPHY_NegResultPhase_ANLPAD
                0x000000000041d44c       0x24 build/sam_e70_xult_freertos/production/_ext/1607428259/drv_ethphy.o

.text._DRV_ETHPHY_NegResultPhase_ANEXP%698
                0x000000000041d470       0x24
 .text._DRV_ETHPHY_NegResultPhase_ANEXP
                0x000000000041d470       0x24 build/sam_e70_xult_freertos/production/_ext/1607428259/drv_ethphy.o

.text.Console_UART_Flush%699
                0x000000000041d494       0x24
 .text.Console_UART_Flush
                0x000000000041d494       0x24 build/sam_e70_xult_freertos/production/_ext/762686499/sys_console_uart.o
                0x000000000041d494                Console_UART_Flush

.text.SYS_CMDIO_GET_HANDLE%700
                0x000000000041d4b8       0x24
 .text.SYS_CMDIO_GET_HANDLE
                0x000000000041d4b8       0x24 build/sam_e70_xult_freertos/production/_ext/762686499/sys_command.o
                0x000000000041d4b8                SYS_CMDIO_GET_HANDLE

.rodata._builtinCmdTbl%701
                0x000000000041d4dc       0x24
 .rodata._builtinCmdTbl
                0x000000000041d4dc       0x24 build/sam_e70_xult_freertos/production/_ext/762686499/sys_command.o

.text.xQueueCreateMutex%702
                0x000000000041d500       0x24
 .text.xQueueCreateMutex
                0x000000000041d500       0x24 build/sam_e70_xult_freertos/production/_ext/404212886/queue.o
                0x000000000041d500                xQueueCreateMutex

.text.prvTaskExitError%703
                0x000000000041d524       0x24
 .text.prvTaskExitError
                0x000000000041d524       0x24 build/sam_e70_xult_freertos/production/_ext/977623654/port.o

.text.vPortSVCHandler%704
                0x000000000041d550       0x24
 .text.vPortSVCHandler
                0x000000000041d550       0x24 build/sam_e70_xult_freertos/production/_ext/977623654/port.o
                0x000000000041d550                vPortSVCHandler

.text.vPortEnterCritical%705
                0x000000000041d574       0x24
 .text.vPortEnterCritical
                0x000000000041d574       0x24 build/sam_e70_xult_freertos/production/_ext/977623654/port.o
                0x000000000041d574                vPortEnterCritical

.text._sbrk_r%706
                0x000000000041d598       0x24
 .text._sbrk_r  0x000000000041d598       0x24 /Applications/microchip/xc32/v2.15/bin/bin/../../lib/gcc/pic32c/6.2.1/../../../../pic32c/lib/v7e-m/fpv5/hard/libc.a(lib_a-sbrkr.o)
                0x000000000041d598                _sbrk_r

.text.strtod%707
                0x000000000041d5bc       0x24
 .text.strtod   0x000000000041d5bc       0x24 /Applications/microchip/xc32/v2.15/bin/bin/../../lib/gcc/pic32c/6.2.1/../../../../pic32c/lib/v7e-m/fpv5/hard/libc.a(lib_a-strtod.o)
                0x000000000041d5bc                strtod

.text.TCPIP_TCP_IsConnected%708
                0x000000000041d5e0       0x22
 .text.TCPIP_TCP_IsConnected
                0x000000000041d5e0       0x22 build/sam_e70_xult_freertos/production/_ext/810785262/tcp.o
                0x000000000041d5e0                TCPIP_TCP_IsConnected

.text._TCPIP_HEAP_LastError%709
                0x000000000041d602       0x22
 .text._TCPIP_HEAP_LastError
                0x000000000041d602       0x22 build/sam_e70_xult_freertos/production/_ext/810785262/tcpip_heap_internal.o

.text.TCPIP_Helper_ProtectedSingleListInitialize%710
                0x000000000041d624       0x22
 .text.TCPIP_Helper_ProtectedSingleListInitialize
                0x000000000041d624       0x22 build/sam_e70_xult_freertos/production/_ext/810785262/tcpip_helpers.o
                0x000000000041d624                TCPIP_Helper_ProtectedSingleListInitialize

.text.TCPIP_STACK_NetAddressDnsPrimarySet%711
                0x000000000041d646       0x22
 .text.TCPIP_STACK_NetAddressDnsPrimarySet
                0x000000000041d646       0x22 build/sam_e70_xult_freertos/production/_ext/810785262/tcpip_manager.o
                0x000000000041d646                TCPIP_STACK_NetAddressDnsPrimarySet

.text.TCPIP_STACK_NetAddressMacSet%712
                0x000000000041d668       0x22
 .text.TCPIP_STACK_NetAddressMacSet
                0x000000000041d668       0x22 build/sam_e70_xult_freertos/production/_ext/810785262/tcpip_manager.o
                0x000000000041d668                TCPIP_STACK_NetAddressMacSet

.text.TCPIP_UDP_Discard%713
                0x000000000041d68a       0x22
 .text.TCPIP_UDP_Discard
                0x000000000041d68a       0x22 build/sam_e70_xult_freertos/production/_ext/810785262/udp.o
                0x000000000041d68a                TCPIP_UDP_Discard

.text.DRV_ETHPHY_Reinitialize%714
                0x000000000041d6ac       0x22
 .text.DRV_ETHPHY_Reinitialize
                0x000000000041d6ac       0x22 build/sam_e70_xult_freertos/production/_ext/1607428259/drv_ethphy.o
                0x000000000041d6ac                DRV_ETHPHY_Reinitialize

.text.TCPIP_DNS_OAHASH_KeyHash%715
                0x000000000041d6ce       0x20
 .text.TCPIP_DNS_OAHASH_KeyHash
                0x000000000041d6ce       0x20 build/sam_e70_xult_freertos/production/_ext/810785262/dns.o

.text.TCPIP_DHCP_Enable%716
                0x000000000041d6ee       0x20
 .text.TCPIP_DHCP_Enable
                0x000000000041d6ee       0x20 build/sam_e70_xult_freertos/production/_ext/810785262/dhcp.o
                0x000000000041d6ee                TCPIP_DHCP_Enable

.text.TCPIP_DHCP_Renew%717
                0x000000000041d70e       0x20
 .text.TCPIP_DHCP_Renew
                0x000000000041d70e       0x20 build/sam_e70_xult_freertos/production/_ext/810785262/dhcp.o
                0x000000000041d70e                TCPIP_DHCP_Renew

.text._SwapARPPacket%718
                0x000000000041d72e       0x20
 .text._SwapARPPacket
                0x000000000041d72e       0x20 build/sam_e70_xult_freertos/production/_ext/810785262/arp.o

.text.SYS_TIME_GetElapsedCount%719
                0x000000000041d750       0x20
 .text.SYS_TIME_GetElapsedCount
                0x000000000041d750       0x20 build/sam_e70_xult_freertos/production/_ext/912870411/sys_time.o

.text.TCPIP_Helper_SingleListHeadRemove%720
                0x000000000041d770       0x20
 .text.TCPIP_Helper_SingleListHeadRemove
                0x000000000041d770       0x20 build/sam_e70_xult_freertos/production/_ext/810785262/tcpip_helpers.o
                0x000000000041d770                TCPIP_Helper_SingleListHeadRemove

.text.TCPIP_Helper_ProtectedSingleListLock%721
                0x000000000041d790       0x20
 .text.TCPIP_Helper_ProtectedSingleListLock
                0x000000000041d790       0x20 build/sam_e70_xult_freertos/production/_ext/810785262/tcpip_helpers.o
                0x000000000041d790                TCPIP_Helper_ProtectedSingleListLock

.rodata.TCPIP_MAC_POWER_TBL%722
                0x000000000041d7b0       0x20
 .rodata.TCPIP_MAC_POWER_TBL
                0x000000000041d7b0       0x20 build/sam_e70_xult_freertos/production/_ext/810785262/tcpip_helpers.o

.text.TCPIP_STACK_NetDefaultSet%723
                0x000000000041d7d0       0x20
 .text.TCPIP_STACK_NetDefaultSet
                0x000000000041d7d0       0x20 build/sam_e70_xult_freertos/production/_ext/810785262/tcpip_manager.o
                0x000000000041d7d0                TCPIP_STACK_NetDefaultSet

.text.TCPIP_STACK_IndexToNet%724
                0x000000000041d7f0       0x20
 .text.TCPIP_STACK_IndexToNet
                0x000000000041d7f0       0x20 build/sam_e70_xult_freertos/production/_ext/810785262/tcpip_manager.o
                0x000000000041d7f0                TCPIP_STACK_IndexToNet

.text.TCPIP_STACK_Deinitialize%725
                0x000000000041d810       0x20
 .text.TCPIP_STACK_Deinitialize
                0x000000000041d810       0x20 build/sam_e70_xult_freertos/production/_ext/810785262/tcpip_manager.o
                0x000000000041d810                TCPIP_STACK_Deinitialize

.text.TCPIP_Notification_Remove%726
                0x000000000041d830       0x20
 .text.TCPIP_Notification_Remove
                0x000000000041d830       0x20 build/sam_e70_xult_freertos/production/_ext/810785262/tcpip_notify.o
                0x000000000041d830                TCPIP_Notification_Remove

.rodata%727     0x000000000041d850       0x20
 .rodata        0x000000000041d850       0x20 build/sam_e70_xult_freertos/production/_ext/810785262/tcpip_packet.o

.text.SYS_INT_SourceRestore%728
                0x000000000041d870       0x20
 .text.SYS_INT_SourceRestore
                0x000000000041d870       0x20 build/sam_e70_xult_freertos/production/_ext/1775855163/sys_int.o
                0x000000000041d870                SYS_INT_SourceRestore

.text.DRV_PIC32CGMAC_LibTransferEnable%729
                0x000000000041d890       0x20
 .text.DRV_PIC32CGMAC_LibTransferEnable
                0x000000000041d890       0x20 build/sam_e70_xult_freertos/production/_ext/1619526243/drv_gmac_lib_samE7x_V7x.o
                0x000000000041d890                DRV_PIC32CGMAC_LibTransferEnable

.text.DRV_PIC32CGMAC_SingleListHeadRemove%730
                0x000000000041d8b0       0x20
 .text.DRV_PIC32CGMAC_SingleListHeadRemove
                0x000000000041d8b0       0x20 build/sam_e70_xult_freertos/production/_ext/1619526243/drv_gmac_lib_samE7x_V7x.o
                0x000000000041d8b0                DRV_PIC32CGMAC_SingleListHeadRemove

.rodata.tcpipPhyInitData%731
                0x000000000041d8d0       0x20
 .rodata.tcpipPhyInitData
                0x000000000041d8d0       0x20 build/sam_e70_xult_freertos/production/_ext/1552905064/initialization.o
                0x000000000041d8d0                tcpipPhyInitData

.text.TCPIP_UDP_DestinationPortSet%732
                0x000000000041d8f0       0x20
 .text.TCPIP_UDP_DestinationPortSet
                0x000000000041d8f0       0x20 build/sam_e70_xult_freertos/production/_ext/810785262/udp.o
                0x000000000041d8f0                TCPIP_UDP_DestinationPortSet

.text.Helper_SingleListHeadRemove%733
                0x000000000041d910       0x20
 .text.Helper_SingleListHeadRemove
                0x000000000041d910       0x20 build/sam_e70_xult_freertos/production/_ext/511568427/drv_miim.o
                0x000000000041d910                Helper_SingleListHeadRemove

.text.DRV_ETHPHY_Tasks%734
                0x000000000041d930       0x20
 .text.DRV_ETHPHY_Tasks
                0x000000000041d930       0x20 build/sam_e70_xult_freertos/production/_ext/1607428259/drv_ethphy.o
                0x000000000041d930                DRV_ETHPHY_Tasks

.text.DRV_ETHPHY_Close%735
                0x000000000041d950       0x20
 .text.DRV_ETHPHY_Close
                0x000000000041d950       0x20 build/sam_e70_xult_freertos/production/_ext/1607428259/drv_ethphy.o
                0x000000000041d950                DRV_ETHPHY_Close

.text._DRV_ETHPHY_ClientOpSmiWrite%736
                0x000000000041d970       0x20
 .text._DRV_ETHPHY_ClientOpSmiWrite
                0x000000000041d970       0x20 build/sam_e70_xult_freertos/production/_ext/1607428259/drv_ethphy.o

.text._DRV_ETHPHY_NegRestartPhaseWrite%737
                0x000000000041d990       0x20
 .text._DRV_ETHPHY_NegRestartPhaseWrite
                0x000000000041d990       0x20 build/sam_e70_xult_freertos/production/_ext/1607428259/drv_ethphy.o

.text._DRV_ETHPHY_SetupPhaseNegotiate_SubPhase4%738
                0x000000000041d9b0       0x20
 .text._DRV_ETHPHY_SetupPhaseNegotiate_SubPhase4
                0x000000000041d9b0       0x20 build/sam_e70_xult_freertos/production/_ext/1607428259/drv_ethphy.o

.rodata.sysConsoleUARTDevDesc%739
                0x000000000041d9d0       0x20
 .rodata.sysConsoleUARTDevDesc
                0x000000000041d9d0       0x20 build/sam_e70_xult_freertos/production/_ext/762686499/sys_console_uart.o
                0x000000000041d9d0                sysConsoleUARTDevDesc

.text.SYS_DEBUG_Initialize%740
                0x000000000041d9f0       0x20
 .text.SYS_DEBUG_Initialize
                0x000000000041d9f0       0x20 build/sam_e70_xult_freertos/production/_ext/762686499/sys_debug.o
                0x000000000041d9f0                SYS_DEBUG_Initialize

.text.pvPortMalloc%741
                0x000000000041da10       0x20
 .text.pvPortMalloc
                0x000000000041da10       0x20 build/sam_e70_xult_freertos/production/_ext/1665200909/heap_3.o
                0x000000000041da10                pvPortMalloc

.text.vsnprintf%742
                0x000000000041da30       0x20
 .text.vsnprintf
                0x000000000041da30       0x20 /Applications/microchip/xc32/v2.15/bin/bin/../../lib/gcc/pic32c/6.2.1/../../../../pic32c/lib/v7e-m/fpv5/hard/libc.a(lib_a-vsnprintf.o)
                0x000000000041da30                vsnprintf

.text._TCPIsGetReady%743
                0x000000000041da50       0x1e
 .text._TCPIsGetReady
                0x000000000041da50       0x1e build/sam_e70_xult_freertos/production/_ext/810785262/tcp.o

.text.TCPIP_STACK_NetAddressBcast%744
                0x000000000041da6e       0x1e
 .text.TCPIP_STACK_NetAddressBcast
                0x000000000041da6e       0x1e build/sam_e70_xult_freertos/production/_ext/810785262/tcpip_manager.o
                0x000000000041da6e                TCPIP_STACK_NetAddressBcast

.text.TCPIP_STACK_NetworkIsLinked%745
                0x000000000041da8c       0x1e
 .text.TCPIP_STACK_NetworkIsLinked
                0x000000000041da8c       0x1e build/sam_e70_xult_freertos/production/_ext/810785262/tcpip_manager.o
                0x000000000041da8c                TCPIP_STACK_NetworkIsLinked

.text.TCPIP_PKT_PayloadLen%746
                0x000000000041daaa       0x1e
 .text.TCPIP_PKT_PayloadLen
                0x000000000041daaa       0x1e build/sam_e70_xult_freertos/production/_ext/810785262/tcpip_packet.o
                0x000000000041daaa                TCPIP_PKT_PayloadLen

.text.OSAL_SEM_Pend%747
                0x000000000041dac8       0x1e
 .text.OSAL_SEM_Pend
                0x000000000041dac8       0x1e build/sam_e70_xult_freertos/production/_ext/281930714/osal_freertos.o
                0x000000000041dac8                OSAL_SEM_Pend

.text.OSAL_MUTEX_Lock%748
                0x000000000041dae6       0x1e
 .text.OSAL_MUTEX_Lock
                0x000000000041dae6       0x1e build/sam_e70_xult_freertos/production/_ext/281930714/osal_freertos.o
                0x000000000041dae6                OSAL_MUTEX_Lock

.text.DRV_ETHPHY_ClientOperationAbort%749
                0x000000000041db04       0x1e
 .text.DRV_ETHPHY_ClientOperationAbort
                0x000000000041db04       0x1e build/sam_e70_xult_freertos/production/_ext/1607428259/drv_ethphy.o
                0x000000000041db04                DRV_ETHPHY_ClientOperationAbort

.text.TCPIP_DNS_IsResolved%750
                0x000000000041db22       0x1c
 .text.TCPIP_DNS_IsResolved
                0x000000000041db22       0x1c build/sam_e70_xult_freertos/production/_ext/810785262/dns.o
                0x000000000041db22                TCPIP_DNS_IsResolved

.rodata._DHCPOptWriteTbl%751
                0x000000000041db40       0x1c
 .rodata._DHCPOptWriteTbl
                0x000000000041db40       0x1c build/sam_e70_xult_freertos/production/_ext/810785262/dhcp.o

.text._ARPTxAckFnc%752
                0x000000000041db5c       0x1c
 .text._ARPTxAckFnc
                0x000000000041db5c       0x1c build/sam_e70_xult_freertos/production/_ext/810785262/arp.o

.text.SYS_TIME_Counter64Update%753
                0x000000000041db78       0x1c
 .text.SYS_TIME_Counter64Update
                0x000000000041db78       0x1c build/sam_e70_xult_freertos/production/_ext/912870411/sys_time.o

.text.TCPIP_IPV4_MaxDatagramDataSizeGet%754
                0x000000000041db94       0x1c
 .text.TCPIP_IPV4_MaxDatagramDataSizeGet
                0x000000000041db94       0x1c build/sam_e70_xult_freertos/production/_ext/810785262/ipv4.o
                0x000000000041db94                TCPIP_IPV4_MaxDatagramDataSizeGet

.rodata.__func__.14091%755
                0x000000000041dbb0       0x1c
 .rodata.__func__.14091
                0x000000000041dbb0       0x1c build/sam_e70_xult_freertos/production/_ext/810785262/ipv4.o

.text._TCPIP_HEAP_FreeSize%756
                0x000000000041dbcc       0x1c
 .text._TCPIP_HEAP_FreeSize
                0x000000000041dbcc       0x1c build/sam_e70_xult_freertos/production/_ext/810785262/tcpip_heap_internal.o

.text._TCPIP_HEAP_Calloc%757
                0x000000000041dbe8       0x1c
 .text._TCPIP_HEAP_Calloc
                0x000000000041dbe8       0x1c build/sam_e70_xult_freertos/production/_ext/810785262/tcpip_heap_internal.o

.text.TCPIP_Helper_SingleListAppend%758
                0x000000000041dc04       0x1c
 .text.TCPIP_Helper_SingleListAppend
                0x000000000041dc04       0x1c build/sam_e70_xult_freertos/production/_ext/810785262/tcpip_helpers.o
                0x000000000041dc04                TCPIP_Helper_SingleListAppend

.text.TCPIP_Helper_ProtectedSingleListUnlock%759
                0x000000000041dc20       0x1c
 .text.TCPIP_Helper_ProtectedSingleListUnlock
                0x000000000041dc20       0x1c build/sam_e70_xult_freertos/production/_ext/810785262/tcpip_helpers.o
                0x000000000041dc20                TCPIP_Helper_ProtectedSingleListUnlock

.text._TCPIPSignalEntryNotify%760
                0x000000000041dc3c       0x1c
 .text._TCPIPSignalEntryNotify
                0x000000000041dc3c       0x1c build/sam_e70_xult_freertos/production/_ext/810785262/tcpip_manager.o

.text.TCPIP_STACK_Status%761
                0x000000000041dc58       0x1c
 .text.TCPIP_STACK_Status
                0x000000000041dc58       0x1c build/sam_e70_xult_freertos/production/_ext/810785262/tcpip_manager.o
                0x000000000041dc58                TCPIP_STACK_Status

.text.TCPIP_STACK_NetAddressGatewaySet%762
                0x000000000041dc74       0x1c
 .text.TCPIP_STACK_NetAddressGatewaySet
                0x000000000041dc74       0x1c build/sam_e70_xult_freertos/production/_ext/810785262/tcpip_manager.o
                0x000000000041dc74                TCPIP_STACK_NetAddressGatewaySet

.text.TCPIP_STACK_NetIsUp%763
                0x000000000041dc90       0x1c
 .text.TCPIP_STACK_NetIsUp
                0x000000000041dc90       0x1c build/sam_e70_xult_freertos/production/_ext/810785262/tcpip_manager.o
                0x000000000041dc90                TCPIP_STACK_NetIsUp

.text.TCPIP_STACK_NetAddress%764
                0x000000000041dcac       0x1c
 .text.TCPIP_STACK_NetAddress
                0x000000000041dcac       0x1c build/sam_e70_xult_freertos/production/_ext/810785262/tcpip_manager.o
                0x000000000041dcac                TCPIP_STACK_NetAddress

.text.TCPIP_STACK_NetMask%765
                0x000000000041dcc8       0x1c
 .text.TCPIP_STACK_NetMask
                0x000000000041dcc8       0x1c build/sam_e70_xult_freertos/production/_ext/810785262/tcpip_manager.o
                0x000000000041dcc8                TCPIP_STACK_NetMask

.text.TCPIP_STACK_NetIsLinked%766
                0x000000000041dce4       0x1c
 .text.TCPIP_STACK_NetIsLinked
                0x000000000041dce4       0x1c build/sam_e70_xult_freertos/production/_ext/810785262/tcpip_manager.o
                0x000000000041dce4                TCPIP_STACK_NetIsLinked

.text.TCPIP_STACK_NetAddressMac%767
                0x000000000041dd00       0x1c
 .text.TCPIP_STACK_NetAddressMac
                0x000000000041dd00       0x1c build/sam_e70_xult_freertos/production/_ext/810785262/tcpip_manager.o
                0x000000000041dd00                TCPIP_STACK_NetAddressMac

.text.TCPIP_Notification_Add%768
                0x000000000041dd1c       0x1c
 .text.TCPIP_Notification_Add
                0x000000000041dd1c       0x1c build/sam_e70_xult_freertos/production/_ext/810785262/tcpip_notify.o
                0x000000000041dd1c                TCPIP_Notification_Add

.text.TCPIP_Notification_RemoveAll%769
                0x000000000041dd38       0x1c
 .text.TCPIP_Notification_RemoveAll
                0x000000000041dd38       0x1c build/sam_e70_xult_freertos/production/_ext/810785262/tcpip_notify.o
                0x000000000041dd38                TCPIP_Notification_RemoveAll

.text.SYS_TMR_CallbackPeriodic%770
                0x000000000041dd54       0x1c
 .text.SYS_TMR_CallbackPeriodic
                0x000000000041dd54       0x1c build/sam_e70_xult_freertos/production/_ext/231871610/sys_time_h2_adapter.o
                0x000000000041dd54                SYS_TMR_CallbackPeriodic

.rodata.sysTimePlibAPI%771
                0x000000000041dd70       0x1c
 .rodata.sysTimePlibAPI
                0x000000000041dd70       0x1c build/sam_e70_xult_freertos/production/_ext/1552905064/initialization.o
                0x000000000041dd70                sysTimePlibAPI

.text.TCPIP_UDP_TxPointerGet%772
                0x000000000041dd8c       0x1c
 .text.TCPIP_UDP_TxPointerGet
                0x000000000041dd8c       0x1c build/sam_e70_xult_freertos/production/_ext/810785262/udp.o
                0x000000000041dd8c                TCPIP_UDP_TxPointerGet

.rodata._DRV_PHY_SetupPhaseNegotiateSubPhaseTbl%773
                0x000000000041dda8       0x1c
 .rodata._DRV_PHY_SetupPhaseNegotiateSubPhaseTbl
                0x000000000041dda8       0x1c build/sam_e70_xult_freertos/production/_ext/1607428259/drv_ethphy.o

.text.vTaskPlaceOnEventList%774
                0x000000000041ddc4       0x1c
 .text.vTaskPlaceOnEventList
                0x000000000041ddc4       0x1c build/sam_e70_xult_freertos/production/_ext/404212886/FreeRTOS_tasks.o
                0x000000000041ddc4                vTaskPlaceOnEventList

.text.pvTaskIncrementMutexHeldCount%775
                0x000000000041dde0       0x1c
 .text.pvTaskIncrementMutexHeldCount
                0x000000000041dde0       0x1c build/sam_e70_xult_freertos/production/_ext/404212886/FreeRTOS_tasks.o
                0x000000000041dde0                pvTaskIncrementMutexHeldCount

.text.__locale_ctype_ptr%776
                0x000000000041ddfc       0x1c
 .text.__locale_ctype_ptr
                0x000000000041ddfc       0x1c /Applications/microchip/xc32/v2.15/bin/bin/../../lib/gcc/pic32c/6.2.1/../../../../pic32c/lib/v7e-m/fpv5/hard/libc.a(lib_a-locale.o)
                0x000000000041ddfc                __locale_ctype_ptr

.text.__ascii_wctomb%777
                0x000000000041de18       0x1c
 .text.__ascii_wctomb
                0x000000000041de18       0x1c /Applications/microchip/xc32/v2.15/bin/bin/../../lib/gcc/pic32c/6.2.1/../../../../pic32c/lib/v7e-m/fpv5/hard/libc.a(lib_a-wctomb_r.o)
                0x000000000041de18                __ascii_wctomb

.text._localeconv_r%778
                0x000000000041de34       0x1c
 .text._localeconv_r
                0x000000000041de34       0x1c /Applications/microchip/xc32/v2.15/bin/bin/../../lib/gcc/pic32c/6.2.1/../../../../pic32c/lib/v7e-m/fpv5/hard/libc.a(lib_a-localeconv.o)
                0x000000000041de34                _localeconv_r

.text.TCPIP_TCP_ClientOpen%779
                0x000000000041de50       0x1a
 .text.TCPIP_TCP_ClientOpen
                0x000000000041de50       0x1a build/sam_e70_xult_freertos/production/_ext/810785262/tcp.o
                0x000000000041de50                TCPIP_TCP_ClientOpen

.text.TCPIP_TCP_PutIsReady%780
                0x000000000041de6a       0x1a
 .text.TCPIP_TCP_PutIsReady
                0x000000000041de6a       0x1a build/sam_e70_xult_freertos/production/_ext/810785262/tcp.o
                0x000000000041de6a                TCPIP_TCP_PutIsReady

.text.TCPIP_Helper_SingleListTailAdd%781
                0x000000000041de84       0x1a
 .text.TCPIP_Helper_SingleListTailAdd
                0x000000000041de84       0x1a build/sam_e70_xult_freertos/production/_ext/810785262/tcpip_helpers.o
                0x000000000041de84                TCPIP_Helper_SingleListTailAdd

.text.TCPIP_STACK_NetIsReady%782
                0x000000000041de9e       0x1a
 .text.TCPIP_STACK_NetIsReady
                0x000000000041de9e       0x1a build/sam_e70_xult_freertos/production/_ext/810785262/tcpip_manager.o
                0x000000000041de9e                TCPIP_STACK_NetIsReady

.text.AT24_MacAddr_Read_Callback%783
                0x000000000041deb8       0x1a
 .text.AT24_MacAddr_Read_Callback
                0x000000000041deb8       0x1a build/sam_e70_xult_freertos/production/_ext/1360937237/app.o
                0x000000000041deb8                AT24_MacAddr_Read_Callback

.text.DRV_PIC32CGMAC_SingleListTailAdd%784
                0x000000000041ded2       0x1a
 .text.DRV_PIC32CGMAC_SingleListTailAdd
                0x000000000041ded2       0x1a build/sam_e70_xult_freertos/production/_ext/1619526243/drv_gmac_lib_samE7x_V7x.o
                0x000000000041ded2                DRV_PIC32CGMAC_SingleListTailAdd

.text._UDPTxPktValid%785
                0x000000000041deec       0x1a
 .text._UDPTxPktValid
                0x000000000041deec       0x1a build/sam_e70_xult_freertos/production/_ext/810785262/udp.o

.text.Helper_SingleListTailAdd%786
                0x000000000041df06       0x1a
 .text.Helper_SingleListTailAdd
                0x000000000041df06       0x1a build/sam_e70_xult_freertos/production/_ext/511568427/drv_miim.o
                0x000000000041df06                Helper_SingleListTailAdd

.text.DRV_MIIM_Read%787
                0x000000000041df20       0x1a
 .text.DRV_MIIM_Read
                0x000000000041df20       0x1a build/sam_e70_xult_freertos/production/_ext/511568427/drv_miim.o
                0x000000000041df20                DRV_MIIM_Read

.text.DRV_MIIM_Write%788
                0x000000000041df3a       0x1a
 .text.DRV_MIIM_Write
                0x000000000041df3a       0x1a build/sam_e70_xult_freertos/production/_ext/511568427/drv_miim.o
                0x000000000041df3a                DRV_MIIM_Write

.text.DRV_MIIM_Scan%789
                0x000000000041df54       0x1a
 .text.DRV_MIIM_Scan
                0x000000000041df54       0x1a build/sam_e70_xult_freertos/production/_ext/511568427/drv_miim.o
                0x000000000041df54                DRV_MIIM_Scan

.text._DRV_ETHPHY_NegCompletePhaseResultNoWait%790
                0x000000000041df6e       0x1a
 .text._DRV_ETHPHY_NegCompletePhaseResultNoWait
                0x000000000041df6e       0x1a build/sam_e70_xult_freertos/production/_ext/1607428259/drv_ethphy.o

.rodata.appCmdTbl%791
                0x000000000041df88       0x18
 .rodata.appCmdTbl
                0x000000000041df88       0x18 build/sam_e70_xult_freertos/production/_ext/1360937237/app_commands.o

.rodata.__func__.14126%792
                0x000000000041dfa0       0x18
 .rodata.__func__.14126
                0x000000000041dfa0       0x18 build/sam_e70_xult_freertos/production/_ext/810785262/dns.o

.rodata.__func__.14144%793
                0x000000000041dfb8       0x18
 .rodata.__func__.14144
                0x000000000041dfb8       0x18 build/sam_e70_xult_freertos/production/_ext/810785262/dns.o

.rodata.__func__.14395%794
                0x000000000041dfd0       0x18
 .rodata.__func__.14395
                0x000000000041dfd0       0x18 build/sam_e70_xult_freertos/production/_ext/810785262/dns.o

.text.TCPIP_ICMP_Cleanup%795
                0x000000000041dfe8       0x18
 .text.TCPIP_ICMP_Cleanup
                0x000000000041dfe8       0x18 build/sam_e70_xult_freertos/production/_ext/810785262/icmp.o

.text.TCPIP_ARP_HashKeyHash%796
                0x000000000041e000       0x18
 .text.TCPIP_ARP_HashKeyHash
                0x000000000041e000       0x18 build/sam_e70_xult_freertos/production/_ext/810785262/arp.o
                0x000000000041e000                TCPIP_ARP_HashKeyHash

.text.TCPIP_HEAP_Create%797
                0x000000000041e018       0x18
 .text.TCPIP_HEAP_Create
                0x000000000041e018       0x18 build/sam_e70_xult_freertos/production/_ext/810785262/tcpip_heap_alloc.o
                0x000000000041e018                TCPIP_HEAP_Create

.text.TCPIP_OAHASH_EntryRemove%798
                0x000000000041e030       0x18
 .text.TCPIP_OAHASH_EntryRemove
                0x000000000041e030       0x18 build/sam_e70_xult_freertos/production/_ext/810785262/oahash.o
                0x000000000041e030                TCPIP_OAHASH_EntryRemove

.text.TCPIP_STACK_NetAddressGateway%799
                0x000000000041e048       0x18
 .text.TCPIP_STACK_NetAddressGateway
                0x000000000041e048       0x18 build/sam_e70_xult_freertos/production/_ext/810785262/tcpip_manager.o
                0x000000000041e048                TCPIP_STACK_NetAddressGateway

.text.TCPIP_STACK_NetAddressDnsPrimary%800
                0x000000000041e060       0x18
 .text.TCPIP_STACK_NetAddressDnsPrimary
                0x000000000041e060       0x18 build/sam_e70_xult_freertos/production/_ext/810785262/tcpip_manager.o
                0x000000000041e060                TCPIP_STACK_NetAddressDnsPrimary

.text.TCPIP_STACK_NetAddressGet%801
                0x000000000041e078       0x18
 .text.TCPIP_STACK_NetAddressGet
                0x000000000041e078       0x18 build/sam_e70_xult_freertos/production/_ext/810785262/tcpip_manager.o
                0x000000000041e078                TCPIP_STACK_NetAddressGet

.text.TCPIP_STACK_NetMaskGet%802
                0x000000000041e090       0x18
 .text.TCPIP_STACK_NetMaskGet
                0x000000000041e090       0x18 build/sam_e70_xult_freertos/production/_ext/810785262/tcpip_manager.o
                0x000000000041e090                TCPIP_STACK_NetMaskGet

.text.TCPIP_STACK_NetMACAddressGet%803
                0x000000000041e0a8       0x18
 .text.TCPIP_STACK_NetMACAddressGet
                0x000000000041e0a8       0x18 build/sam_e70_xult_freertos/production/_ext/810785262/tcpip_manager.o
                0x000000000041e0a8                TCPIP_STACK_NetMACAddressGet

.text.TCPIP_STACK_HeapHandleGet%804
                0x000000000041e0c0       0x18
 .text.TCPIP_STACK_HeapHandleGet
                0x000000000041e0c0       0x18 build/sam_e70_xult_freertos/production/_ext/810785262/tcpip_manager.o
                0x000000000041e0c0                TCPIP_STACK_HeapHandleGet

.rodata.TCPIP_FRAME_PROCESS_TBL%805
                0x000000000041e0d8       0x18
 .rodata.TCPIP_FRAME_PROCESS_TBL
                0x000000000041e0d8       0x18 build/sam_e70_xult_freertos/production/_ext/810785262/tcpip_manager.o

.text.OSAL_CRIT_Enter%806
                0x000000000041e0f0       0x18
 .text.OSAL_CRIT_Enter
                0x000000000041e0f0       0x18 build/sam_e70_xult_freertos/production/_ext/281930714/osal_freertos.o
                0x000000000041e0f0                OSAL_CRIT_Enter

.text.OSAL_SEM_Post%807
                0x000000000041e108       0x18
 .text.OSAL_SEM_Post
                0x000000000041e108       0x18 build/sam_e70_xult_freertos/production/_ext/281930714/osal_freertos.o
                0x000000000041e108                OSAL_SEM_Post

.text.OSAL_MUTEX_Create%808
                0x000000000041e120       0x18
 .text.OSAL_MUTEX_Create
                0x000000000041e120       0x18 build/sam_e70_xult_freertos/production/_ext/281930714/osal_freertos.o
                0x000000000041e120                OSAL_MUTEX_Create

.text.OSAL_MUTEX_Unlock%809
                0x000000000041e138       0x18
 .text.OSAL_MUTEX_Unlock
                0x000000000041e138       0x18 build/sam_e70_xult_freertos/production/_ext/281930714/osal_freertos.o
                0x000000000041e138                OSAL_MUTEX_Unlock

.text._TCPIP_STACK_Task%810
                0x000000000041e150       0x18
 .text._TCPIP_STACK_Task
                0x000000000041e150       0x18 build/sam_e70_xult_freertos/production/_ext/1552905064/tasks.o
                0x000000000041e150                _TCPIP_STACK_Task

.text._DRV_MIIM_Task%811
                0x000000000041e168       0x18
 .text._DRV_MIIM_Task
                0x000000000041e168       0x18 build/sam_e70_xult_freertos/production/_ext/1552905064/tasks.o
                0x000000000041e168                _DRV_MIIM_Task

.text.DRV_PIC32CGMAC_SingleListHeadAdd%812
                0x000000000041e180       0x18
 .text.DRV_PIC32CGMAC_SingleListHeadAdd
                0x000000000041e180       0x18 build/sam_e70_xult_freertos/production/_ext/1619526243/drv_gmac_lib_samE7x_V7x.o
                0x000000000041e180                DRV_PIC32CGMAC_SingleListHeadAdd

.rodata.sysConsole0UARTInitData%813
                0x000000000041e198       0x18
 .rodata.sysConsole0UARTInitData
                0x000000000041e198       0x18 build/sam_e70_xult_freertos/production/_ext/1552905064/initialization.o
                0x000000000041e198                sysConsole0UARTInitData

.rodata.tcpipDNSClientInitData%814
                0x000000000041e1b0       0x18
 .rodata.tcpipDNSClientInitData
                0x000000000041e1b0       0x18 build/sam_e70_xult_freertos/production/_ext/1552905064/initialization.o
                0x000000000041e1b0                tcpipDNSClientInitData

.text.DRV_MIIM_Close%815
                0x000000000041e1c8       0x18
 .text.DRV_MIIM_Close
                0x000000000041e1c8       0x18 build/sam_e70_xult_freertos/production/_ext/511568427/drv_miim.o
                0x000000000041e1c8                DRV_MIIM_Close

.text.DRV_ETHPHY_PhyAddressGet%816
                0x000000000041e1e0       0x18
 .text.DRV_ETHPHY_PhyAddressGet
                0x000000000041e1e0       0x18 build/sam_e70_xult_freertos/production/_ext/1607428259/drv_ethphy.o
                0x000000000041e1e0                DRV_ETHPHY_PhyAddressGet

.text._DRV_PHY_SMIReadStart%817
                0x000000000041e1f8       0x18
 .text._DRV_PHY_SMIReadStart
                0x000000000041e1f8       0x18 build/sam_e70_xult_freertos/production/_ext/1607428259/drv_ethphy.o

.text._DRV_PHY_SMIWriteStart%818
                0x000000000041e210       0x18
 .text._DRV_PHY_SMIWriteStart
                0x000000000041e210       0x18 build/sam_e70_xult_freertos/production/_ext/1607428259/drv_ethphy.o

.text._DRV_ETHPHY_ResetPhaseIdle%819
                0x000000000041e228       0x18
 .text._DRV_ETHPHY_ResetPhaseIdle
                0x000000000041e228       0x18 build/sam_e70_xult_freertos/production/_ext/1607428259/drv_ethphy.o

.rodata._DRV_PHY_NegCompletePhasesTbl%820
                0x000000000041e240       0x18
 .rodata._DRV_PHY_NegCompletePhasesTbl
                0x000000000041e240       0x18 build/sam_e70_xult_freertos/production/_ext/1607428259/drv_ethphy.o

.text.Console_UART_RegisterCallback%821
                0x000000000041e258       0x18
 .text.Console_UART_RegisterCallback
                0x000000000041e258       0x18 build/sam_e70_xult_freertos/production/_ext/762686499/sys_console_uart.o
                0x000000000041e258                Console_UART_RegisterCallback

.text.CommandReset%822
                0x000000000041e270       0x18
 .text.CommandReset
                0x000000000041e270       0x18 build/sam_e70_xult_freertos/production/_ext/762686499/sys_command.o

.text.SendCommandMessage%823
                0x000000000041e288       0x18
 .text.SendCommandMessage
                0x000000000041e288       0x18 build/sam_e70_xult_freertos/production/_ext/762686499/sys_command.o

.rodata.sysConsoleApi%824
                0x000000000041e2a0       0x18
 .rodata.sysConsoleApi
                0x000000000041e2a0       0x18 build/sam_e70_xult_freertos/production/_ext/762686499/sys_command.o
                0x000000000041e2a0                sysConsoleApi

.text.vListInsertEnd%825
                0x000000000041e2b8       0x18
 .text.vListInsertEnd
                0x000000000041e2b8       0x18 build/sam_e70_xult_freertos/production/_ext/404212886/list.o
                0x000000000041e2b8                vListInsertEnd

.text.vTaskInternalSetTimeOutState%826
                0x000000000041e2d0       0x18
 .text.vTaskInternalSetTimeOutState
                0x000000000041e2d0       0x18 build/sam_e70_xult_freertos/production/_ext/404212886/FreeRTOS_tasks.o
                0x000000000041e2d0                vTaskInternalSetTimeOutState

.text.vPortFree%827
                0x000000000041e2e8       0x18
 .text.vPortFree
                0x000000000041e2e8       0x18 build/sam_e70_xult_freertos/production/_ext/1665200909/heap_3.o
                0x000000000041e2e8                vPortFree

.text._DNSSocketRxSignalHandler%828
                0x000000000041e300       0x16
 .text._DNSSocketRxSignalHandler
                0x000000000041e300       0x16 build/sam_e70_xult_freertos/production/_ext/810785262/dns.o

.text._TCP_TxPktValid%829
                0x000000000041e316       0x16
 .text._TCP_TxPktValid
                0x000000000041e316       0x16 build/sam_e70_xult_freertos/production/_ext/810785262/tcp.o

.text._DHCPSocketRxSignalHandler%830
                0x000000000041e32c       0x16
 .text._DHCPSocketRxSignalHandler
                0x000000000041e32c       0x16 build/sam_e70_xult_freertos/production/_ext/810785262/dhcp.o

.text._TCPIP_HEAP_Size%831
                0x000000000041e342       0x16
 .text._TCPIP_HEAP_Size
                0x000000000041e342       0x16 build/sam_e70_xult_freertos/production/_ext/810785262/tcpip_heap_internal.o

.text._TCPIP_HEAP_HighWatermark%832
                0x000000000041e358       0x16
 .text._TCPIP_HEAP_HighWatermark
                0x000000000041e358       0x16 build/sam_e70_xult_freertos/production/_ext/810785262/tcpip_heap_internal.o

.text.TCPIP_STACK_AddressServiceCanStart%833
                0x000000000041e36e       0x16
 .text.TCPIP_STACK_AddressServiceCanStart
                0x000000000041e36e       0x16 build/sam_e70_xult_freertos/production/_ext/810785262/tcpip_manager.o
                0x000000000041e36e                TCPIP_STACK_AddressServiceCanStart

.text._TCPIPStackPacketTx%834
                0x000000000041e384       0x16
 .text._TCPIPStackPacketTx
                0x000000000041e384       0x16 build/sam_e70_xult_freertos/production/_ext/810785262/tcpip_manager.o
                0x000000000041e384                _TCPIPStackPacketTx

.text.OSAL_CRIT_Leave%835
                0x000000000041e39a       0x16
 .text.OSAL_CRIT_Leave
                0x000000000041e39a       0x16 build/sam_e70_xult_freertos/production/_ext/281930714/osal_freertos.o
                0x000000000041e39a                OSAL_CRIT_Leave

.text.DRV_MIIM_ClientStatus%836
                0x000000000041e3b0       0x16
 .text.DRV_MIIM_ClientStatus
                0x000000000041e3b0       0x16 build/sam_e70_xult_freertos/production/_ext/511568427/drv_miim.o
                0x000000000041e3b0                DRV_MIIM_ClientStatus

.text.DRV_ETHPHY_VendorDataGet%837
                0x000000000041e3c6       0x16
 .text.DRV_ETHPHY_VendorDataGet
                0x000000000041e3c6       0x16 build/sam_e70_xult_freertos/production/_ext/1607428259/drv_ethphy.o
                0x000000000041e3c6                DRV_ETHPHY_VendorDataGet

.text.vApplicationStackOverflowHook%838
                0x000000000041e3dc       0x16
 .text.vApplicationStackOverflowHook
                0x000000000041e3dc       0x16 build/sam_e70_xult_freertos/production/_ext/1552905064/freertos_hooks.o
                0x000000000041e3dc                vApplicationStackOverflowHook

.text.vApplicationMallocFailedHook%839
                0x000000000041e3f2       0x16
 .text.vApplicationMallocFailedHook
                0x000000000041e3f2       0x16 build/sam_e70_xult_freertos/production/_ext/1552905064/freertos_hooks.o
                0x000000000041e3f2                vApplicationMallocFailedHook

.text.vListInitialise%840
                0x000000000041e408       0x16
 .text.vListInitialise
                0x000000000041e408       0x16 build/sam_e70_xult_freertos/production/_ext/404212886/list.o
                0x000000000041e408                vListInitialise

.text.prvIsQueueEmpty%841
                0x000000000041e41e       0x16
 .text.prvIsQueueEmpty
                0x000000000041e41e       0x16 build/sam_e70_xult_freertos/production/_ext/404212886/queue.o

.text.xQueueCreateCountingSemaphore%842
                0x000000000041e434       0x16
 .text.xQueueCreateCountingSemaphore
                0x000000000041e434       0x16 build/sam_e70_xult_freertos/production/_ext/404212886/queue.o
                0x000000000041e434                xQueueCreateCountingSemaphore

.text._DHCPOptionWriteEnd%843
                0x000000000041e44a       0x14
 .text._DHCPOptionWriteEnd
                0x000000000041e44a       0x14 build/sam_e70_xult_freertos/production/_ext/810785262/dhcp.o

.text.TCPIP_OAHASH_EntryGet%844
                0x000000000041e45e       0x14
 .text.TCPIP_OAHASH_EntryGet
                0x000000000041e45e       0x14 build/sam_e70_xult_freertos/production/_ext/810785262/oahash.o
                0x000000000041e45e                TCPIP_OAHASH_EntryGet

.rodata._DRV_GMAC_LinkStateTbl%845
                0x000000000041e474       0x14
 .rodata._DRV_GMAC_LinkStateTbl
                0x000000000041e474       0x14 build/sam_e70_xult_freertos/production/_ext/1619526243/drv_gmac.o

.rodata.sysConsole0UARTInterruptSources%846
                0x000000000041e488       0x14
 .rodata.sysConsole0UARTInterruptSources
                0x000000000041e488       0x14 build/sam_e70_xult_freertos/production/_ext/1552905064/initialization.o
                0x000000000041e488                sysConsole0UARTInterruptSources

.rodata.sysConsole0UARTPlibAPI%847
                0x000000000041e49c       0x14
 .rodata.sysConsole0UARTPlibAPI
                0x000000000041e49c       0x14 build/sam_e70_xult_freertos/production/_ext/1552905064/initialization.o
                0x000000000041e49c                sysConsole0UARTPlibAPI

.text._DRV_ETHPHY_NegRestartPhaseIdle%848
                0x000000000041e4b0       0x14
 .text._DRV_ETHPHY_NegRestartPhaseIdle
                0x000000000041e4b0       0x14 build/sam_e70_xult_freertos/production/_ext/1607428259/drv_ethphy.o

.text._DRV_ETHPHY_NegResultPhaseIdle%849
                0x000000000041e4c4       0x14
 .text._DRV_ETHPHY_NegResultPhaseIdle
                0x000000000041e4c4       0x14 build/sam_e70_xult_freertos/production/_ext/1607428259/drv_ethphy.o

.text._DRV_ETHPHY_NegCompletePhaseIdle%850
                0x000000000041e4d8       0x14
 .text._DRV_ETHPHY_NegCompletePhaseIdle
                0x000000000041e4d8       0x14 build/sam_e70_xult_freertos/production/_ext/1607428259/drv_ethphy.o

.text._DRV_ETHPHY_LinkStatPhaseIdle%851
                0x000000000041e4ec       0x14
 .text._DRV_ETHPHY_LinkStatPhaseIdle
                0x000000000041e4ec       0x14 build/sam_e70_xult_freertos/production/_ext/1607428259/drv_ethphy.o

.rodata._DRV_PHY_NegResultPhasesTbl%852
                0x000000000041e500       0x14
 .rodata._DRV_PHY_NegResultPhasesTbl
                0x000000000041e500       0x14 build/sam_e70_xult_freertos/production/_ext/1607428259/drv_ethphy.o

.text.vPortEnableVFP%853
                0x000000000041e514       0x14
 .text.vPortEnableVFP
                0x000000000041e514       0x14 build/sam_e70_xult_freertos/production/_ext/977623654/port.o

.text.vPortExitCritical%854
                0x000000000041e528       0x14
 .text.vPortExitCritical
                0x000000000041e528       0x14 build/sam_e70_xult_freertos/production/_ext/977623654/port.o
                0x000000000041e528                vPortExitCritical

.rodata%855     0x000000000041e53c       0x14
 .rodata        0x000000000041e53c       0x14 /Applications/microchip/xc32/v2.15/bin/bin/../../lib/gcc/pic32c/6.2.1/../../../../pic32c/lib/v7e-m/fpv5/hard/libc.a(lib_a-locale.o)

.rodata.fpi.7265%856
                0x000000000041e550       0x14
 .rodata.fpi.7265
                0x000000000041e550       0x14 /Applications/microchip/xc32/v2.15/bin/bin/../../lib/gcc/pic32c/6.2.1/../../../../pic32c/lib/v7e-m/fpv5/hard/libc.a(lib_a-strtod.o)

.rodata.fpinan.7301%857
                0x000000000041e564       0x14
 .rodata.fpinan.7301
                0x000000000041e564       0x14 /Applications/microchip/xc32/v2.15/bin/bin/../../lib/gcc/pic32c/6.2.1/../../../../pic32c/lib/v7e-m/fpv5/hard/libc.a(lib_a-strtod.o)

.text.register_fini%858
                0x000000000041e578       0x14
 .text.register_fini
                0x000000000041e578       0x14 /Applications/microchip/xc32/v2.15/bin/bin/../../lib/gcc/pic32c/6.2.1/../../../../pic32c/lib/v7e-m/fpv5/hard/libc.a(lib_a-__call_atexit.o)

.rodata%859     0x000000000041e58c       0x14
 .rodata        0x000000000041e58c       0x14 /Applications/microchip/xc32/v2.15/bin/bin/../../lib/gcc/pic32c/6.2.1/../../../../pic32c/lib/v7e-m/fpv5/hard/libc.a(lib_a-dtoa.o)

.text._Bfree%860
                0x000000000041e5a0       0x14
 .text._Bfree   0x000000000041e5a0       0x14 /Applications/microchip/xc32/v2.15/bin/bin/../../lib/gcc/pic32c/6.2.1/../../../../pic32c/lib/v7e-m/fpv5/hard/libc.a(lib_a-mprec.o)
                0x000000000041e5a0                _Bfree

.text.__i2b%861
                0x000000000041e5b4       0x14
 .text.__i2b    0x000000000041e5b4       0x14 /Applications/microchip/xc32/v2.15/bin/bin/../../lib/gcc/pic32c/6.2.1/../../../../pic32c/lib/v7e-m/fpv5/hard/libc.a(lib_a-mprec.o)
                0x000000000041e5b4                __i2b

.text.TCPIP_TCP_GetIsReady%862
                0x000000000041e5c8       0x12
 .text.TCPIP_TCP_GetIsReady
                0x000000000041e5c8       0x12 build/sam_e70_xult_freertos/production/_ext/810785262/tcp.o
                0x000000000041e5c8                TCPIP_TCP_GetIsReady

.text.TCPIP_STACK_NetNameGet%863
                0x000000000041e5da       0x12
 .text.TCPIP_STACK_NetNameGet
                0x000000000041e5da       0x12 build/sam_e70_xult_freertos/production/_ext/810785262/tcpip_manager.o
                0x000000000041e5da                TCPIP_STACK_NetNameGet

.text.SYS_INT_Disable%864
                0x000000000041e5ec       0x12
 .text.SYS_INT_Disable
                0x000000000041e5ec       0x12 build/sam_e70_xult_freertos/production/_ext/1775855163/sys_int.o
                0x000000000041e5ec                SYS_INT_Disable

.text.SYS_INT_Restore%865
                0x000000000041e5fe       0x12
 .text.SYS_INT_Restore
                0x000000000041e5fe       0x12 build/sam_e70_xult_freertos/production/_ext/1775855163/sys_int.o
                0x000000000041e5fe                SYS_INT_Restore

.text.OSAL_SEM_Delete%866
                0x000000000041e610       0x12
 .text.OSAL_SEM_Delete
                0x000000000041e610       0x12 build/sam_e70_xult_freertos/production/_ext/281930714/osal_freertos.o
                0x000000000041e610                OSAL_SEM_Delete

.text.DRV_GMAC_Status%867
                0x000000000041e622       0x12
 .text.DRV_GMAC_Status
                0x000000000041e622       0x12 build/sam_e70_xult_freertos/production/_ext/1619526243/drv_gmac.o
                0x000000000041e622                DRV_GMAC_Status

.text.DRV_GMAC_Close%868
                0x000000000041e634       0x12
 .text.DRV_GMAC_Close
                0x000000000041e634       0x12 build/sam_e70_xult_freertos/production/_ext/1619526243/drv_gmac.o
                0x000000000041e634                DRV_GMAC_Close

.text.DRV_GMAC_Deinitialize%869
                0x000000000041e646       0x12
 .text.DRV_GMAC_Deinitialize
                0x000000000041e646       0x12 build/sam_e70_xult_freertos/production/_ext/1619526243/drv_gmac.o
                0x000000000041e646                DRV_GMAC_Deinitialize

.text.IsCommandReady%870
                0x000000000041e658       0x12
 .text.IsCommandReady
                0x000000000041e658       0x12 build/sam_e70_xult_freertos/production/_ext/762686499/sys_command.o

.text.TCPIP_DNS_GetIPv4Addresses%871
                0x000000000041e66a       0x10
 .text.TCPIP_DNS_GetIPv4Addresses
                0x000000000041e66a       0x10 build/sam_e70_xult_freertos/production/_ext/810785262/dns.o
                0x000000000041e66a                TCPIP_DNS_GetIPv4Addresses

.text.TCPIP_DNS_GetIPv6Addresses%872
                0x000000000041e67a       0x10
 .text.TCPIP_DNS_GetIPv6Addresses
                0x000000000041e67a       0x10 build/sam_e70_xult_freertos/production/_ext/810785262/dns.o
                0x000000000041e67a                TCPIP_DNS_GetIPv6Addresses

.text.BSP_Initialize%873
                0x000000000041e68c       0x10
 .text.BSP_Initialize
                0x000000000041e68c       0x10 build/sam_e70_xult_freertos/production/_ext/683629640/bsp.o
                0x000000000041e68c                BSP_Initialize

.text.TWIHS0_CallbackRegister%874
                0x000000000041e69c       0x10
 .text.TWIHS0_CallbackRegister
                0x000000000041e69c       0x10 build/sam_e70_xult_freertos/production/_ext/901805035/plib_twihs0.o
                0x000000000041e69c                TWIHS0_CallbackRegister

.text.TWIHS0_ErrorGet%875
                0x000000000041e6ac       0x10
 .text.TWIHS0_ErrorGet
                0x000000000041e6ac       0x10 build/sam_e70_xult_freertos/production/_ext/901805035/plib_twihs0.o
                0x000000000041e6ac                TWIHS0_ErrorGet

.text.TCPIP_Notification_Deinitialize%876
                0x000000000041e6bc       0x10
 .text.TCPIP_Notification_Deinitialize
                0x000000000041e6bc       0x10 build/sam_e70_xult_freertos/production/_ext/810785262/tcpip_notify.o
                0x000000000041e6bc                TCPIP_Notification_Deinitialize

.text.sy_time_h2_adapter_callback%877
                0x000000000041e6cc       0x10
 .text.sy_time_h2_adapter_callback
                0x000000000041e6cc       0x10 build/sam_e70_xult_freertos/production/_ext/231871610/sys_time_h2_adapter.o
                0x000000000041e6cc                sy_time_h2_adapter_callback

.text._APP_Tasks%878
                0x000000000041e6dc       0x10
 .text._APP_Tasks
                0x000000000041e6dc       0x10 build/sam_e70_xult_freertos/production/_ext/1552905064/tasks.o
                0x000000000041e6dc                _APP_Tasks

.text._SYS_CMD_Tasks%879
                0x000000000041e6ec       0x10
 .text._SYS_CMD_Tasks
                0x000000000041e6ec       0x10 build/sam_e70_xult_freertos/production/_ext/1552905064/tasks.o
                0x000000000041e6ec                _SYS_CMD_Tasks

.rodata.tcpipDHCPInitData%880
                0x000000000041e6fc       0x10
 .rodata.tcpipDHCPInitData
                0x000000000041e6fc       0x10 build/sam_e70_xult_freertos/production/_ext/1552905064/initialization.o
                0x000000000041e6fc                tcpipDHCPInitData

.rodata._DRV_PHY_SetupPhasesTbl%881
                0x000000000041e70c       0x10
 .rodata._DRV_PHY_SetupPhasesTbl
                0x000000000041e70c       0x10 build/sam_e70_xult_freertos/production/_ext/1607428259/drv_ethphy.o

.rodata.DRV_ETHPHY_OBJECT_SMSC_LAN8740%882
                0x000000000041e71c       0x10
 .rodata.DRV_ETHPHY_OBJECT_SMSC_LAN8740
                0x000000000041e71c       0x10 build/sam_e70_xult_freertos/production/_ext/1607428259/drv_extphy_smsc8740.o
                0x000000000041e71c                DRV_ETHPHY_OBJECT_SMSC_LAN8740

.text.vTaskSuspendAll%883
                0x000000000041e72c       0x10
 .text.vTaskSuspendAll
                0x000000000041e72c       0x10 build/sam_e70_xult_freertos/production/_ext/404212886/FreeRTOS_tasks.o
                0x000000000041e72c                vTaskSuspendAll

.text.calloc%884
                0x000000000041e73c       0x10
 .text.calloc   0x000000000041e73c       0x10 /Applications/microchip/xc32/v2.15/bin/bin/../../lib/gcc/pic32c/6.2.1/../../../../pic32c/lib/v7e-m/fpv5/hard/libc.a(lib_a-calloc.o)
                0x000000000041e73c                calloc

.text.malloc%885
                0x000000000041e74c       0x10
 .text.malloc   0x000000000041e74c       0x10 /Applications/microchip/xc32/v2.15/bin/bin/../../lib/gcc/pic32c/6.2.1/../../../../pic32c/lib/v7e-m/fpv5/hard/libc.a(lib_a-malloc.o)
                0x000000000041e74c                malloc

.text.free%886  0x000000000041e75c       0x10
 .text.free     0x000000000041e75c       0x10 /Applications/microchip/xc32/v2.15/bin/bin/../../lib/gcc/pic32c/6.2.1/../../../../pic32c/lib/v7e-m/fpv5/hard/libc.a(lib_a-malloc.o)
                0x000000000041e75c                free

.rodata%887     0x000000000041e76c       0x10
 .rodata        0x000000000041e76c       0x10 /Applications/microchip/xc32/v2.15/bin/bin/../../lib/gcc/pic32c/6.2.1/../../../../pic32c/lib/v7e-m/fpv5/hard/libc.a(lib_a-strtod.o)

.text.strtok%888
                0x000000000041e77c       0x10
 .text.strtok   0x000000000041e77c       0x10 /Applications/microchip/xc32/v2.15/bin/bin/../../lib/gcc/pic32c/6.2.1/../../../../pic32c/lib/v7e-m/fpv5/hard/libc.a(lib_a-strtok.o)
                0x000000000041e77c                strtok

.rodata.blanks.8352%889
                0x000000000041e78c       0x10
 .rodata.blanks.8352
                0x000000000041e78c       0x10 /Applications/microchip/xc32/v2.15/bin/bin/../../lib/gcc/pic32c/6.2.1/../../../../pic32c/lib/v7e-m/fpv5/hard/libc.a(lib_a-svfprintf.o)

.rodata.zeroes.8353%890
                0x000000000041e79c       0x10
 .rodata.zeroes.8353
                0x000000000041e79c       0x10 /Applications/microchip/xc32/v2.15/bin/bin/../../lib/gcc/pic32c/6.2.1/../../../../pic32c/lib/v7e-m/fpv5/hard/libc.a(lib_a-svfprintf.o)

.text.btohexa_low%891
                0x000000000041e7ac        0xe
 .text.btohexa_low
                0x000000000041e7ac        0xe build/sam_e70_xult_freertos/production/_ext/810785262/helpers.o
                0x000000000041e7ac                btohexa_low

.text.TCPIP_Helper_ChecksumFold%892
                0x000000000041e7ba        0xe
 .text.TCPIP_Helper_ChecksumFold
                0x000000000041e7ba        0xe build/sam_e70_xult_freertos/production/_ext/810785262/tcpip_helpers.o
                0x000000000041e7ba                TCPIP_Helper_ChecksumFold

.text.TCPIP_STACK_NetIndexGet%893
                0x000000000041e7c8        0xe
 .text.TCPIP_STACK_NetIndexGet
                0x000000000041e7c8        0xe build/sam_e70_xult_freertos/production/_ext/810785262/tcpip_manager.o
                0x000000000041e7c8                TCPIP_STACK_NetIndexGet

.text.TCPIP_STACK_NetIxGet%894
                0x000000000041e7d6        0xe
 .text.TCPIP_STACK_NetIxGet
                0x000000000041e7d6        0xe build/sam_e70_xult_freertos/production/_ext/810785262/tcpip_manager.o
                0x000000000041e7d6                TCPIP_STACK_NetIxGet

.text._TCPIPStackSignalHandlerDeregister%895
                0x000000000041e7e4        0xe
 .text._TCPIPStackSignalHandlerDeregister
                0x000000000041e7e4        0xe build/sam_e70_xult_freertos/production/_ext/810785262/tcpip_manager.o
                0x000000000041e7e4                _TCPIPStackSignalHandlerDeregister

.text.main%896  0x000000000041e7f2        0xe
 .text.main     0x000000000041e7f2        0xe build/sam_e70_xult_freertos/production/_ext/1360937237/main.o
                0x000000000041e7f2                main

.text.DRV_ETHPHY_Status%897
                0x000000000041e800        0xe
 .text.DRV_ETHPHY_Status
                0x000000000041e800        0xe build/sam_e70_xult_freertos/production/_ext/1607428259/drv_ethphy.o
                0x000000000041e800                DRV_ETHPHY_Status

.text.DRV_ETHPHY_ClientStatus%898
                0x000000000041e80e        0xe
 .text.DRV_ETHPHY_ClientStatus
                0x000000000041e80e        0xe build/sam_e70_xult_freertos/production/_ext/1607428259/drv_ethphy.o
                0x000000000041e80e                DRV_ETHPHY_ClientStatus

.text.DRV_ETHPHY_ClientOperationResult%899
                0x000000000041e81c        0xe
 .text.DRV_ETHPHY_ClientOperationResult
                0x000000000041e81c        0xe build/sam_e70_xult_freertos/production/_ext/1607428259/drv_ethphy.o
                0x000000000041e81c                DRV_ETHPHY_ClientOperationResult

.text.DRV_ETHPHY_VendorDataSet%900
                0x000000000041e82a        0xe
 .text.DRV_ETHPHY_VendorDataSet
                0x000000000041e82a        0xe build/sam_e70_xult_freertos/production/_ext/1607428259/drv_ethphy.o
                0x000000000041e82a                DRV_ETHPHY_VendorDataSet

.text.TCPIP_DNS_OAHASH_KeyCompare%901
                0x0000000000418f94        0xc
 .text.TCPIP_DNS_OAHASH_KeyCompare
                0x0000000000418f94        0xc build/sam_e70_xult_freertos/production/_ext/810785262/dns.o

.text.TCPIP_DNS_Enable%902
                0x000000000041e838        0xc
 .text.TCPIP_DNS_Enable
                0x000000000041e838        0xc build/sam_e70_xult_freertos/production/_ext/810785262/dns.o
                0x000000000041e838                TCPIP_DNS_Enable

.text.TCPIP_ARP_HashKeyCompare%903
                0x000000000041e844        0xc
 .text.TCPIP_ARP_HashKeyCompare
                0x000000000041e844        0xc build/sam_e70_xult_freertos/production/_ext/810785262/arp.o
                0x000000000041e844                TCPIP_ARP_HashKeyCompare

.text.TC0_CH0_TimerStart%904
                0x000000000041e850        0xc
 .text.TC0_CH0_TimerStart
                0x000000000041e850        0xc build/sam_e70_xult_freertos/production/_ext/1245453995/plib_tc0.o
                0x000000000041e850                TC0_CH0_TimerStart

.text.TC0_CH0_TimerStop%905
                0x000000000041e85c        0xc
 .text.TC0_CH0_TimerStop
                0x000000000041e85c        0xc build/sam_e70_xult_freertos/production/_ext/1245453995/plib_tc0.o
                0x000000000041e85c                TC0_CH0_TimerStop

.text.TC0_CH0_TimerPeriodSet%906
                0x000000000041e868        0xc
 .text.TC0_CH0_TimerPeriodSet
                0x000000000041e868        0xc build/sam_e70_xult_freertos/production/_ext/1245453995/plib_tc0.o
                0x000000000041e868                TC0_CH0_TimerPeriodSet

.text.TC0_CH0_TimerCompareSet%907
                0x000000000041e874        0xc
 .text.TC0_CH0_TimerCompareSet
                0x000000000041e874        0xc build/sam_e70_xult_freertos/production/_ext/1245453995/plib_tc0.o
                0x000000000041e874                TC0_CH0_TimerCompareSet

.text.TC0_CH0_TimerCounterGet%908
                0x000000000041e880        0xc
 .text.TC0_CH0_TimerCounterGet
                0x000000000041e880        0xc build/sam_e70_xult_freertos/production/_ext/1245453995/plib_tc0.o
                0x000000000041e880                TC0_CH0_TimerCounterGet

.text.TC0_CH0_TimerCallbackRegister%909
                0x000000000041e88c        0xc
 .text.TC0_CH0_TimerCallbackRegister
                0x000000000041e88c        0xc build/sam_e70_xult_freertos/production/_ext/1245453995/plib_tc0.o
                0x000000000041e88c                TC0_CH0_TimerCallbackRegister

.text.SYS_TIME_FrequencyGet%910
                0x000000000041e898        0xc
 .text.SYS_TIME_FrequencyGet
                0x000000000041e898        0xc build/sam_e70_xult_freertos/production/_ext/912870411/sys_time.o
                0x000000000041e898                SYS_TIME_FrequencyGet

.text.USART1_WriteCallbackRegister%911
                0x000000000041e8a4        0xc
 .text.USART1_WriteCallbackRegister
                0x000000000041e8a4        0xc build/sam_e70_xult_freertos/production/_ext/901008055/plib_usart1.o
                0x000000000041e8a4                USART1_WriteCallbackRegister

.text.USART1_ReadCallbackRegister%912
                0x000000000041e8b0        0xc
 .text.USART1_ReadCallbackRegister
                0x000000000041e8b0        0xc build/sam_e70_xult_freertos/production/_ext/901008055/plib_usart1.o
                0x000000000041e8b0                USART1_ReadCallbackRegister

.text.btohexa_high%913
                0x000000000041e8bc        0xc
 .text.btohexa_high
                0x000000000041e8bc        0xc build/sam_e70_xult_freertos/production/_ext/810785262/helpers.o
                0x000000000041e8bc                btohexa_high

.text.TCPIP_STACK_NetDefaultGet%914
                0x000000000041e8c8        0xc
 .text.TCPIP_STACK_NetDefaultGet
                0x000000000041e8c8        0xc build/sam_e70_xult_freertos/production/_ext/810785262/tcpip_manager.o
                0x000000000041e8c8                TCPIP_STACK_NetDefaultGet

.text.TCPIP_STACK_NumberOfNetworksGet%915
                0x000000000041e8d4        0xc
 .text.TCPIP_STACK_NumberOfNetworksGet
                0x000000000041e8d4        0xc build/sam_e70_xult_freertos/production/_ext/810785262/tcpip_manager.o
                0x000000000041e8d4                TCPIP_STACK_NumberOfNetworksGet

.rodata.TCPIP_STACK_IF_ALIAS_NAME_TBL%916
                0x000000000041e8e0        0xc
 .rodata.TCPIP_STACK_IF_ALIAS_NAME_TBL
                0x000000000041e8e0        0xc build/sam_e70_xult_freertos/production/_ext/810785262/tcpip_manager.o

.text.TCPIP_PKT_Deinitialize%917
                0x000000000041e8ec        0xc
 .text.TCPIP_PKT_Deinitialize
                0x000000000041e8ec        0xc build/sam_e70_xult_freertos/production/_ext/810785262/tcpip_packet.o
                0x000000000041e8ec                TCPIP_PKT_Deinitialize

.text._DRV_GMAC_GetTxOctetLow%918
                0x000000000041e8f8        0xc
 .text._DRV_GMAC_GetTxOctetLow
                0x000000000041e8f8        0xc build/sam_e70_xult_freertos/production/_ext/1619526243/drv_gmac.o

.text._DRV_GMAC_GetTxOctetHigh%919
                0x000000000041e904        0xc
 .text._DRV_GMAC_GetTxOctetHigh
                0x000000000041e904        0xc build/sam_e70_xult_freertos/production/_ext/1619526243/drv_gmac.o

.text._DRV_GMAC_GetTxFrameCount%920
                0x000000000041e910        0xc
 .text._DRV_GMAC_GetTxFrameCount
                0x000000000041e910        0xc build/sam_e70_xult_freertos/production/_ext/1619526243/drv_gmac.o

.text._DRV_GMAC_GetTxBCastFrameCount%921
                0x000000000041e91c        0xc
 .text._DRV_GMAC_GetTxBCastFrameCount
                0x000000000041e91c        0xc build/sam_e70_xult_freertos/production/_ext/1619526243/drv_gmac.o

.text._DRV_GMAC_GetTxMCastFrameCount%922
                0x000000000041e928        0xc
 .text._DRV_GMAC_GetTxMCastFrameCount
                0x000000000041e928        0xc build/sam_e70_xult_freertos/production/_ext/1619526243/drv_gmac.o

.text._DRV_GMAC_GetTxPauseFrameCount%923
                0x000000000041e934        0xc
 .text._DRV_GMAC_GetTxPauseFrameCount
                0x000000000041e934        0xc build/sam_e70_xult_freertos/production/_ext/1619526243/drv_gmac.o

.text._DRV_GMAC_GetTx64ByteFrameCount%924
                0x000000000041e940        0xc
 .text._DRV_GMAC_GetTx64ByteFrameCount
                0x000000000041e940        0xc build/sam_e70_xult_freertos/production/_ext/1619526243/drv_gmac.o

.text._DRV_GMAC_GetTx127ByteFrameCount%925
                0x000000000041e94c        0xc
 .text._DRV_GMAC_GetTx127ByteFrameCount
                0x000000000041e94c        0xc build/sam_e70_xult_freertos/production/_ext/1619526243/drv_gmac.o

.text._DRV_GMAC_GetTx255ByteFrameCount%926
                0x000000000041e958        0xc
 .text._DRV_GMAC_GetTx255ByteFrameCount
                0x000000000041e958        0xc build/sam_e70_xult_freertos/production/_ext/1619526243/drv_gmac.o

.text._DRV_GMAC_GetTx511ByteFrameCount%927
                0x000000000041e964        0xc
 .text._DRV_GMAC_GetTx511ByteFrameCount
                0x000000000041e964        0xc build/sam_e70_xult_freertos/production/_ext/1619526243/drv_gmac.o

.text._DRV_GMAC_GetTx1023ByteFrameCount%928
                0x000000000041e970        0xc
 .text._DRV_GMAC_GetTx1023ByteFrameCount
                0x000000000041e970        0xc build/sam_e70_xult_freertos/production/_ext/1619526243/drv_gmac.o

.text._DRV_GMAC_GetTx1518ByteFrameCount%929
                0x000000000041e97c        0xc
 .text._DRV_GMAC_GetTx1518ByteFrameCount
                0x000000000041e97c        0xc build/sam_e70_xult_freertos/production/_ext/1619526243/drv_gmac.o

.text._DRV_GMAC_GetTxGT1518ByteFrameCount%930
                0x000000000041e988        0xc
 .text._DRV_GMAC_GetTxGT1518ByteFrameCount
                0x000000000041e988        0xc build/sam_e70_xult_freertos/production/_ext/1619526243/drv_gmac.o

.text._DRV_GMAC_GetTxUnderRunFrameCount%931
                0x000000000041e994        0xc
 .text._DRV_GMAC_GetTxUnderRunFrameCount
                0x000000000041e994        0xc build/sam_e70_xult_freertos/production/_ext/1619526243/drv_gmac.o

.text._DRV_GMAC_GetTxSingleCollFrameCount%932
                0x000000000041e9a0        0xc
 .text._DRV_GMAC_GetTxSingleCollFrameCount
                0x000000000041e9a0        0xc build/sam_e70_xult_freertos/production/_ext/1619526243/drv_gmac.o

.text._DRV_GMAC_GetTxMultiCollFrameCount%933
                0x000000000041e9ac        0xc
 .text._DRV_GMAC_GetTxMultiCollFrameCount
                0x000000000041e9ac        0xc build/sam_e70_xult_freertos/production/_ext/1619526243/drv_gmac.o

.text._DRV_GMAC_GetTxExcessCollFrameCount%934
                0x000000000041e9b8        0xc
 .text._DRV_GMAC_GetTxExcessCollFrameCount
                0x000000000041e9b8        0xc build/sam_e70_xult_freertos/production/_ext/1619526243/drv_gmac.o

.text._DRV_GMAC_GetTxLateCollFrameCount%935
                0x000000000041e9c4        0xc
 .text._DRV_GMAC_GetTxLateCollFrameCount
                0x000000000041e9c4        0xc build/sam_e70_xult_freertos/production/_ext/1619526243/drv_gmac.o

.text._DRV_GMAC_GetTxDeferFrameCount%936
                0x000000000041e9d0        0xc
 .text._DRV_GMAC_GetTxDeferFrameCount
                0x000000000041e9d0        0xc build/sam_e70_xult_freertos/production/_ext/1619526243/drv_gmac.o

.text._DRV_GMAC_GetTxCSErrorFrameCount%937
                0x000000000041e9dc        0xc
 .text._DRV_GMAC_GetTxCSErrorFrameCount
                0x000000000041e9dc        0xc build/sam_e70_xult_freertos/production/_ext/1619526243/drv_gmac.o

.text._DRV_GMAC_GetRxOctetLow%938
                0x000000000041e9e8        0xc
 .text._DRV_GMAC_GetRxOctetLow
                0x000000000041e9e8        0xc build/sam_e70_xult_freertos/production/_ext/1619526243/drv_gmac.o

.text._DRV_GMAC_GetRxOctetHigh%939
                0x000000000041e9f4        0xc
 .text._DRV_GMAC_GetRxOctetHigh
                0x000000000041e9f4        0xc build/sam_e70_xult_freertos/production/_ext/1619526243/drv_gmac.o

.text._DRV_GMAC_GetRxFrameCount%940
                0x000000000041ea00        0xc
 .text._DRV_GMAC_GetRxFrameCount
                0x000000000041ea00        0xc build/sam_e70_xult_freertos/production/_ext/1619526243/drv_gmac.o

.text._DRV_GMAC_GetRxBCastFrameCount%941
                0x000000000041ea0c        0xc
 .text._DRV_GMAC_GetRxBCastFrameCount
                0x000000000041ea0c        0xc build/sam_e70_xult_freertos/production/_ext/1619526243/drv_gmac.o

.text._DRV_GMAC_GetRxMCastFrameCount%942
                0x000000000041ea18        0xc
 .text._DRV_GMAC_GetRxMCastFrameCount
                0x000000000041ea18        0xc build/sam_e70_xult_freertos/production/_ext/1619526243/drv_gmac.o

.text._DRV_GMAC_GetRxPauseFrameCount%943
                0x000000000041ea24        0xc
 .text._DRV_GMAC_GetRxPauseFrameCount
                0x000000000041ea24        0xc build/sam_e70_xult_freertos/production/_ext/1619526243/drv_gmac.o

.text._DRV_GMAC_GetRx64ByteFrameCount%944
                0x000000000041ea30        0xc
 .text._DRV_GMAC_GetRx64ByteFrameCount
                0x000000000041ea30        0xc build/sam_e70_xult_freertos/production/_ext/1619526243/drv_gmac.o

.text._DRV_GMAC_GetRx127ByteFrameCount%945
                0x000000000041ea3c        0xc
 .text._DRV_GMAC_GetRx127ByteFrameCount
                0x000000000041ea3c        0xc build/sam_e70_xult_freertos/production/_ext/1619526243/drv_gmac.o

.text._DRV_GMAC_GetRx255ByteFrameCount%946
                0x000000000041ea48        0xc
 .text._DRV_GMAC_GetRx255ByteFrameCount
                0x000000000041ea48        0xc build/sam_e70_xult_freertos/production/_ext/1619526243/drv_gmac.o

.text._DRV_GMAC_GetRx511ByteFrameCount%947
                0x000000000041ea54        0xc
 .text._DRV_GMAC_GetRx511ByteFrameCount
                0x000000000041ea54        0xc build/sam_e70_xult_freertos/production/_ext/1619526243/drv_gmac.o

.text._DRV_GMAC_GetRx1023ByteFrameCount%948
                0x000000000041ea60        0xc
 .text._DRV_GMAC_GetRx1023ByteFrameCount
                0x000000000041ea60        0xc build/sam_e70_xult_freertos/production/_ext/1619526243/drv_gmac.o

.text._DRV_GMAC_GetRx1518ByteFrameCount%949
                0x000000000041ea6c        0xc
 .text._DRV_GMAC_GetRx1518ByteFrameCount
                0x000000000041ea6c        0xc build/sam_e70_xult_freertos/production/_ext/1619526243/drv_gmac.o

.text._DRV_GMAC_GetRxGT1518ByteFrameCount%950
                0x000000000041ea78        0xc
 .text._DRV_GMAC_GetRxGT1518ByteFrameCount
                0x000000000041ea78        0xc build/sam_e70_xult_freertos/production/_ext/1619526243/drv_gmac.o

.text._DRV_GMAC_GetRxUnderSizeFrameCount%951
                0x000000000041ea84        0xc
 .text._DRV_GMAC_GetRxUnderSizeFrameCount
                0x000000000041ea84        0xc build/sam_e70_xult_freertos/production/_ext/1619526243/drv_gmac.o

.text._DRV_GMAC_GetRxOverSizeFrameCount%952
                0x000000000041ea90        0xc
 .text._DRV_GMAC_GetRxOverSizeFrameCount
                0x000000000041ea90        0xc build/sam_e70_xult_freertos/production/_ext/1619526243/drv_gmac.o

.text._DRV_GMAC_GetRxJabberFrameCount%953
                0x000000000041ea9c        0xc
 .text._DRV_GMAC_GetRxJabberFrameCount
                0x000000000041ea9c        0xc build/sam_e70_xult_freertos/production/_ext/1619526243/drv_gmac.o

.text._DRV_GMAC_GetRxFCSErrorFrameCount%954
                0x000000000041eaa8        0xc
 .text._DRV_GMAC_GetRxFCSErrorFrameCount
                0x000000000041eaa8        0xc build/sam_e70_xult_freertos/production/_ext/1619526243/drv_gmac.o

.text._DRV_GMAC_GetRxLFErrorFrameCount%955
                0x000000000041eab4        0xc
 .text._DRV_GMAC_GetRxLFErrorFrameCount
                0x000000000041eab4        0xc build/sam_e70_xult_freertos/production/_ext/1619526243/drv_gmac.o

.text._DRV_GMAC_GetRxSymErrorFrameCount%956
                0x000000000041eac0        0xc
 .text._DRV_GMAC_GetRxSymErrorFrameCount
                0x000000000041eac0        0xc build/sam_e70_xult_freertos/production/_ext/1619526243/drv_gmac.o

.text._DRV_GMAC_GetRxAlignErrorFrameCount%957
                0x000000000041eacc        0xc
 .text._DRV_GMAC_GetRxAlignErrorFrameCount
                0x000000000041eacc        0xc build/sam_e70_xult_freertos/production/_ext/1619526243/drv_gmac.o

.text._DRV_GMAC_GetRxResErrorFrameCount%958
                0x000000000041ead8        0xc
 .text._DRV_GMAC_GetRxResErrorFrameCount
                0x000000000041ead8        0xc build/sam_e70_xult_freertos/production/_ext/1619526243/drv_gmac.o

.text._DRV_GMAC_GetRxOverRunFrameCount%959
                0x000000000041eae4        0xc
 .text._DRV_GMAC_GetRxOverRunFrameCount
                0x000000000041eae4        0xc build/sam_e70_xult_freertos/production/_ext/1619526243/drv_gmac.o

.text._DRV_GMAC_GetRxIPHdrCSErrorFrameCount%960
                0x000000000041eaf0        0xc
 .text._DRV_GMAC_GetRxIPHdrCSErrorFrameCount
                0x000000000041eaf0        0xc build/sam_e70_xult_freertos/production/_ext/1619526243/drv_gmac.o

.text._DRV_GMAC_GetRxTCPCSErrorFrameCount%961
                0x000000000041eafc        0xc
 .text._DRV_GMAC_GetRxTCPCSErrorFrameCount
                0x000000000041eafc        0xc build/sam_e70_xult_freertos/production/_ext/1619526243/drv_gmac.o

.text._DRV_GMAC_GetRxUDPCSErrorFrameCount%962
                0x000000000041eb08        0xc
 .text._DRV_GMAC_GetRxUDPCSErrorFrameCount
                0x000000000041eb08        0xc build/sam_e70_xult_freertos/production/_ext/1619526243/drv_gmac.o

.rodata.sysConsole0Init%963
                0x000000000041eb14        0xc
 .rodata.sysConsole0Init
                0x000000000041eb14        0xc build/sam_e70_xult_freertos/production/_ext/1552905064/initialization.o
                0x000000000041eb14                sysConsole0Init

.text.DRV_ETHPHY_Deinitialize%964
                0x000000000041eb20        0xc
 .text.DRV_ETHPHY_Deinitialize
                0x000000000041eb20        0xc build/sam_e70_xult_freertos/production/_ext/1607428259/drv_ethphy.o
                0x000000000041eb20                DRV_ETHPHY_Deinitialize

.rodata._DRV_PHY_LinkStatPhasesTbl%965
                0x000000000041eb2c        0xc
 .rodata._DRV_PHY_LinkStatPhasesTbl
                0x000000000041eb2c        0xc build/sam_e70_xult_freertos/production/_ext/1607428259/drv_ethphy.o

.rodata._DRV_PHY_NegRestartPhasesTbl%966
                0x000000000041eb38        0xc
 .rodata._DRV_PHY_NegRestartPhasesTbl
                0x000000000041eb38        0xc build/sam_e70_xult_freertos/production/_ext/1607428259/drv_ethphy.o

.rodata._DRV_PHY_ResetPhasesTbl%967
                0x000000000041eb44        0xc
 .rodata._DRV_PHY_ResetPhasesTbl
                0x000000000041eb44        0xc build/sam_e70_xult_freertos/production/_ext/1607428259/drv_ethphy.o

.text.SYS_DEBUG_ErrorLevelGet%968
                0x000000000041eb50        0xc
 .text.SYS_DEBUG_ErrorLevelGet
                0x000000000041eb50        0xc build/sam_e70_xult_freertos/production/_ext/762686499/sys_debug.o
                0x000000000041eb50                SYS_DEBUG_ErrorLevelGet

.text.SYS_CMD_MESSAGE%969
                0x000000000041eb5c        0xc
 .text.SYS_CMD_MESSAGE
                0x000000000041eb5c        0xc build/sam_e70_xult_freertos/production/_ext/762686499/sys_command.o
                0x000000000041eb5c                SYS_CMD_MESSAGE

.text.vTaskMissedYield%970
                0x000000000041eb68        0xc
 .text.vTaskMissedYield
                0x000000000041eb68        0xc build/sam_e70_xult_freertos/production/_ext/404212886/FreeRTOS_tasks.o
                0x000000000041eb68                vTaskMissedYield

.text.atexit%971
                0x000000000041eb74        0xc
 .text.atexit   0x000000000041eb74        0xc /Applications/microchip/xc32/v2.15/bin/bin/../../lib/gcc/pic32c/6.2.1/../../../../pic32c/lib/v7e-m/fpv5/hard/libc.a(lib_a-atexit.o)
                0x000000000041eb74                atexit

.rodata.p05.7179%972
                0x000000000041eb80        0xc
 .rodata.p05.7179
                0x000000000041eb80        0xc /Applications/microchip/xc32/v2.15/bin/bin/../../lib/gcc/pic32c/6.2.1/../../../../pic32c/lib/v7e-m/fpv5/hard/libc.a(lib_a-mprec.o)

.text.TCPIP_DNS_Resolve%973
                0x000000000041eb8c        0xa
 .text.TCPIP_DNS_Resolve
                0x000000000041eb8c        0xa build/sam_e70_xult_freertos/production/_ext/810785262/dns.o
                0x000000000041eb8c                TCPIP_DNS_Resolve

.text._Command_ZcllOnOff%974
                0x000000000041eb96        0xa
 .text._Command_ZcllOnOff
                0x000000000041eb96        0xa build/sam_e70_xult_freertos/production/_ext/810785262/tcpip_commands.o

.text._Command_DHCPSOnOff%975
                0x000000000041eba0        0xa
 .text._Command_DHCPSOnOff
                0x000000000041eba0        0xa build/sam_e70_xult_freertos/production/_ext/810785262/tcpip_commands.o

.text.TCPIP_Helper_SingleListInitialize%976
                0x000000000041ebaa        0xa
 .text.TCPIP_Helper_SingleListInitialize
                0x000000000041ebaa        0xa build/sam_e70_xult_freertos/production/_ext/810785262/tcpip_helpers.o
                0x000000000041ebaa                TCPIP_Helper_SingleListInitialize

.text.TCPIP_STACK_NetBIOSName%977
                0x000000000041ebb4        0xa
 .text.TCPIP_STACK_NetBIOSName
                0x000000000041ebb4        0xa build/sam_e70_xult_freertos/production/_ext/810785262/tcpip_manager.o
                0x000000000041ebb4                TCPIP_STACK_NetBIOSName

.text._TCPIPStackAddressServiceIsRunning%978
                0x000000000041ebbe        0xa
 .text._TCPIPStackAddressServiceIsRunning
                0x000000000041ebbe        0xa build/sam_e70_xult_freertos/production/_ext/810785262/tcpip_manager.o
                0x000000000041ebbe                _TCPIPStackAddressServiceIsRunning

.text.GMAC_InterruptHandler%979
                0x000000000041ebc8        0xa
 .text.GMAC_InterruptHandler
                0x000000000041ebc8        0xa build/sam_e70_xult_freertos/production/_ext/1619526243/drv_gmac.o
                0x000000000041ebc8                GMAC_InterruptHandler

.text.TCPIP_UDP_ClientOpen%980
                0x000000000041ebd2        0xa
 .text.TCPIP_UDP_ClientOpen
                0x000000000041ebd2        0xa build/sam_e70_xult_freertos/production/_ext/810785262/udp.o
                0x000000000041ebd2                TCPIP_UDP_ClientOpen

.text.TC0_CH0_TimerFrequencyGet%981
                0x000000000041d548        0x8
 .text.TC0_CH0_TimerFrequencyGet
                0x000000000041d548        0x8 build/sam_e70_xult_freertos/production/_ext/1245453995/plib_tc0.o
                0x000000000041d548                TC0_CH0_TimerFrequencyGet

.text.TCPIP_HEAP_MallocOutline%982
                0x000000000041ebdc        0x8
 .text.TCPIP_HEAP_MallocOutline
                0x000000000041ebdc        0x8 build/sam_e70_xult_freertos/production/_ext/810785262/tcpip_heap_alloc.o
                0x000000000041ebdc                TCPIP_HEAP_MallocOutline

.text.TCPIP_HEAP_CallocOutline%983
                0x000000000041ebe4        0x8
 .text.TCPIP_HEAP_CallocOutline
                0x000000000041ebe4        0x8 build/sam_e70_xult_freertos/production/_ext/810785262/tcpip_heap_alloc.o
                0x000000000041ebe4                TCPIP_HEAP_CallocOutline

.text.TCPIP_HEAP_FreeOutline%984
                0x000000000041ebec        0x8
 .text.TCPIP_HEAP_FreeOutline
                0x000000000041ebec        0x8 build/sam_e70_xult_freertos/production/_ext/810785262/tcpip_heap_alloc.o
                0x000000000041ebec                TCPIP_HEAP_FreeOutline

.text.TCPIP_STACK_GatewayAddressSet%985
                0x000000000041ebf4        0x8
 .text.TCPIP_STACK_GatewayAddressSet
                0x000000000041ebf4        0x8 build/sam_e70_xult_freertos/production/_ext/810785262/tcpip_manager.o
                0x000000000041ebf4                TCPIP_STACK_GatewayAddressSet

.text.TCPIP_STACK_PrimaryDNSAddressSet%986
                0x000000000041ebfc        0x8
 .text.TCPIP_STACK_PrimaryDNSAddressSet
                0x000000000041ebfc        0x8 build/sam_e70_xult_freertos/production/_ext/810785262/tcpip_manager.o
                0x000000000041ebfc                TCPIP_STACK_PrimaryDNSAddressSet

.text.TCPIP_STACK_SecondaryDNSAddressSet%987
                0x000000000041ec04        0x8
 .text.TCPIP_STACK_SecondaryDNSAddressSet
                0x000000000041ec04        0x8 build/sam_e70_xult_freertos/production/_ext/810785262/tcpip_manager.o
                0x000000000041ec04                TCPIP_STACK_SecondaryDNSAddressSet

.text.TCPIP_STACK_NetGetType%988
                0x000000000041ec0c        0x8
 .text.TCPIP_STACK_NetGetType
                0x000000000041ec0c        0x8 build/sam_e70_xult_freertos/production/_ext/810785262/tcpip_manager.o
                0x000000000041ec0c                TCPIP_STACK_NetGetType

.text.TCPIP_Notification_Initialize%989
                0x000000000041ec14        0x8
 .text.TCPIP_Notification_Initialize
                0x000000000041ec14        0x8 build/sam_e70_xult_freertos/production/_ext/810785262/tcpip_notify.o
                0x000000000041ec14                TCPIP_Notification_Initialize

.text.DRV_GMAC_EventPendingGet%990
                0x000000000041ec1c        0x8
 .text.DRV_GMAC_EventPendingGet
                0x000000000041ec1c        0x8 build/sam_e70_xult_freertos/production/_ext/1619526243/drv_gmac.o
                0x000000000041ec1c                DRV_GMAC_EventPendingGet

.rodata.drvMiimInitData%991
                0x000000000041ec24        0x8
 .rodata.drvMiimInitData
                0x000000000041ec24        0x8 build/sam_e70_xult_freertos/production/_ext/1552905064/initialization.o

.rodata.sysTimeInitData%992
                0x000000000041ec2c        0x8
 .rodata.sysTimeInitData
                0x000000000041ec2c        0x8 build/sam_e70_xult_freertos/production/_ext/1552905064/initialization.o
                0x000000000041ec2c                sysTimeInitData

.rodata.tcpipTCPInitData%993
                0x000000000041ec34        0x8
 .rodata.tcpipTCPInitData
                0x000000000041ec34        0x8 build/sam_e70_xult_freertos/production/_ext/1552905064/initialization.o
                0x000000000041ec34                tcpipTCPInitData

.rodata.tcpipUDPInitData%994
                0x000000000041ec3c        0x8
 .rodata.tcpipUDPInitData
                0x000000000041ec3c        0x8 build/sam_e70_xult_freertos/production/_ext/1552905064/initialization.o
                0x000000000041ec3c                tcpipUDPInitData

.text.TCPIP_UDP_TxPutIsReady%995
                0x000000000041ec44        0x8
 .text.TCPIP_UDP_TxPutIsReady
                0x000000000041ec44        0x8 build/sam_e70_xult_freertos/production/_ext/810785262/udp.o
                0x000000000041ec44                TCPIP_UDP_TxPutIsReady

.text._DRV_ETHPHY_ClientOpSmiScan%996
                0x000000000041ec4c        0x8
 .text._DRV_ETHPHY_ClientOpSmiScan
                0x000000000041ec4c        0x8 build/sam_e70_xult_freertos/production/_ext/1607428259/drv_ethphy.o

.text.DRV_EXTPHY_SMIClockGet%997
                0x000000000041ec54        0x8
 .text.DRV_EXTPHY_SMIClockGet
                0x000000000041ec54        0x8 build/sam_e70_xult_freertos/production/_ext/1607428259/drv_extphy_smsc8740.o

.text.vQueueDelete%998
                0x000000000041ec5c        0x8
 .text.vQueueDelete
                0x000000000041ec5c        0x8 build/sam_e70_xult_freertos/production/_ext/404212886/queue.o
                0x000000000041ec5c                vQueueDelete

.rodata%999     0x000000000041ec64        0x8
 .rodata        0x000000000041ec64        0x8 build/sam_e70_xult_freertos/production/_ext/404212886/FreeRTOS_tasks.o

.text.atof%1000
                0x000000000041ec6c        0x8
 .text.atof     0x000000000041ec6c        0x8 /Applications/microchip/xc32/v2.15/bin/bin/../../lib/gcc/pic32c/6.2.1/../../../../pic32c/lib/v7e-m/fpv5/hard/libc.a(lib_a-atof.o)
                0x000000000041ec6c                atof

.text.atoi%1001
                0x000000000041ec74        0x8
 .text.atoi     0x000000000041ec74        0x8 /Applications/microchip/xc32/v2.15/bin/bin/../../lib/gcc/pic32c/6.2.1/../../../../pic32c/lib/v7e-m/fpv5/hard/libc.a(lib_a-atoi.o)
                0x000000000041ec74                atoi

.text.__locale_ctype_ptr_l%1002
                0x000000000041ec7c        0x8
 .text.__locale_ctype_ptr_l
                0x000000000041ec7c        0x8 /Applications/microchip/xc32/v2.15/bin/bin/../../lib/gcc/pic32c/6.2.1/../../../../pic32c/lib/v7e-m/fpv5/hard/libc.a(lib_a-locale.o)
                0x000000000041ec7c                __locale_ctype_ptr_l

.text.TCPIP_ARP_HashKeyCopy%1003
                0x000000000041ec84        0x6
 .text.TCPIP_ARP_HashKeyCopy
                0x000000000041ec84        0x6 build/sam_e70_xult_freertos/production/_ext/810785262/arp.o
                0x000000000041ec84                TCPIP_ARP_HashKeyCopy

.text.DRV_ETHPHY_SMIRead%1004
                0x000000000041ec8a        0x6
 .text.DRV_ETHPHY_SMIRead
                0x000000000041ec8a        0x6 build/sam_e70_xult_freertos/production/_ext/1607428259/drv_ethphy.o
                0x000000000041ec8a                DRV_ETHPHY_SMIRead

.text.DRV_ETHPHY_SMIWrite%1005
                0x000000000041ec90        0x6
 .text.DRV_ETHPHY_SMIWrite
                0x000000000041ec90        0x6 build/sam_e70_xult_freertos/production/_ext/1607428259/drv_ethphy.o
                0x000000000041ec90                DRV_ETHPHY_SMIWrite

.text.DRV_ETHPHY_SMIScanStart%1006
                0x000000000041ec96        0x6
 .text.DRV_ETHPHY_SMIScanStart
                0x000000000041ec96        0x6 build/sam_e70_xult_freertos/production/_ext/1607428259/drv_ethphy.o
                0x000000000041ec96                DRV_ETHPHY_SMIScanStart

.text.DRV_ETHPHY_SMIScanStop%1007
                0x000000000041ec9c        0x6
 .text.DRV_ETHPHY_SMIScanStop
                0x000000000041ec9c        0x6 build/sam_e70_xult_freertos/production/_ext/1607428259/drv_ethphy.o
                0x000000000041ec9c                DRV_ETHPHY_SMIScanStop

.text.DRV_ETHPHY_SMIScanStatusGet%1008
                0x000000000041eca2        0x6
 .text.DRV_ETHPHY_SMIScanStatusGet
                0x000000000041eca2        0x6 build/sam_e70_xult_freertos/production/_ext/1607428259/drv_ethphy.o
                0x000000000041eca2                DRV_ETHPHY_SMIScanStatusGet

.text.DRV_ETHPHY_SMIScanDataGet%1009
                0x000000000041eca8        0x6
 .text.DRV_ETHPHY_SMIScanDataGet
                0x000000000041eca8        0x6 build/sam_e70_xult_freertos/production/_ext/1607428259/drv_ethphy.o
                0x000000000041eca8                DRV_ETHPHY_SMIScanDataGet

.text.DRV_ETHPHY_SMIStatus%1010
                0x000000000041ecae        0x6
 .text.DRV_ETHPHY_SMIStatus
                0x000000000041ecae        0x6 build/sam_e70_xult_freertos/production/_ext/1607428259/drv_ethphy.o
                0x000000000041ecae                DRV_ETHPHY_SMIStatus

.text.DRV_ETHPHY_SMIClockSet%1011
                0x000000000041ecb4        0x6
 .text.DRV_ETHPHY_SMIClockSet
                0x000000000041ecb4        0x6 build/sam_e70_xult_freertos/production/_ext/1607428259/drv_ethphy.o
                0x000000000041ecb4                DRV_ETHPHY_SMIClockSet

.text.vListInitialiseItem%1012
                0x000000000041ecba        0x6
 .text.vListInitialiseItem
                0x000000000041ecba        0x6 build/sam_e70_xult_freertos/production/_ext/404212886/list.o
                0x000000000041ecba                vListInitialiseItem

.text._DHCPOptionProcessEnd%1013
                0x0000000000400194        0x4
 .text._DHCPOptionProcessEnd
                0x0000000000400194        0x4 build/sam_e70_xult_freertos/production/_ext/810785262/dhcp.o

.rodata._DHCPRequestParamsTbl%1014
                0x0000000000409694        0x4
 .rodata._DHCPRequestParamsTbl
                0x0000000000409694        0x4 build/sam_e70_xult_freertos/production/_ext/810785262/dhcp.o

.rodata.dhcpMagicCookie%1015
                0x000000000040b6fc        0x4
 .rodata.dhcpMagicCookie
                0x000000000040b6fc        0x4 build/sam_e70_xult_freertos/production/_ext/810785262/dhcp.o

.text.TCPIP_IPV4_IsFragmentationEnabled%1016
                0x00000000004144f4        0x4
 .text.TCPIP_IPV4_IsFragmentationEnabled
                0x00000000004144f4        0x4 build/sam_e70_xult_freertos/production/_ext/810785262/ipv4.o
                0x00000000004144f4                TCPIP_IPV4_IsFragmentationEnabled

.text.DRV_GMAC_PowerMode%1017
                0x0000000000415d8c        0x4
 .text.DRV_GMAC_PowerMode
                0x0000000000415d8c        0x4 build/sam_e70_xult_freertos/production/_ext/1619526243/drv_gmac.o
                0x0000000000415d8c                DRV_GMAC_PowerMode

.rodata.debugInit%1018
                0x000000000041b7dc        0x4
 .rodata.debugInit
                0x000000000041b7dc        0x4 build/sam_e70_xult_freertos/production/_ext/1552905064/initialization.o
                0x000000000041b7dc                debugInit

.rodata.sysCmdInit%1019
                0x000000000041d144        0x4
 .rodata.sysCmdInit
                0x000000000041d144        0x4 build/sam_e70_xult_freertos/production/_ext/1552905064/initialization.o
                0x000000000041d144                sysCmdInit

.text.GetCommandCharacter%1020
                0x000000000041ecc0        0x4
 .text.GetCommandCharacter
                0x000000000041ecc0        0x4 build/sam_e70_xult_freertos/production/_ext/762686499/sys_command.o

.rodata._seqDownArrow%1021
                0x000000000041ecc4        0x4
 .rodata._seqDownArrow
                0x000000000041ecc4        0x4 build/sam_e70_xult_freertos/production/_ext/762686499/sys_command.o

.rodata._seqLeftArrow%1022
                0x000000000041ecc8        0x4
 .rodata._seqLeftArrow
                0x000000000041ecc8        0x4 build/sam_e70_xult_freertos/production/_ext/762686499/sys_command.o

.rodata._seqRightArrow%1023
                0x000000000041eccc        0x4
 .rodata._seqRightArrow
                0x000000000041eccc        0x4 build/sam_e70_xult_freertos/production/_ext/762686499/sys_command.o

.rodata._seqUpArrow%1024
                0x000000000041ecd0        0x4
 .rodata._seqUpArrow
                0x000000000041ecd0        0x4 build/sam_e70_xult_freertos/production/_ext/762686499/sys_command.o

.text%1025      0x000000000041ecd4        0x4
 .text          0x000000000041ecd4        0x4 /Applications/microchip/xc32/v2.15/bin/bin/../../lib/gcc/pic32c/6.2.1/v7e-m/fpv5/hard/libgcc.a(_dvmd_tls.o)
                0x000000000041ecd4                __aeabi_ldiv0
                0x000000000041ecd4                __aeabi_idiv0

.rodata._global_impure_ptr%1026
                0x000000000041ecd8        0x4
 .rodata._global_impure_ptr
                0x000000000041ecd8        0x4 /Applications/microchip/xc32/v2.15/bin/bin/../../lib/gcc/pic32c/6.2.1/../../../../pic32c/lib/v7e-m/fpv5/hard/libc.a(lib_a-impure.o)
                0x000000000041ecd8                _global_impure_ptr

.text.__malloc_lock%1027
                0x000000000041ecdc        0x4
 .text.__malloc_lock
                0x000000000041ecdc        0x4 /Applications/microchip/xc32/v2.15/bin/bin/../../lib/gcc/pic32c/6.2.1/../../../../pic32c/lib/v7e-m/fpv5/hard/libc.a(lib_a-mlock.o)
                0x000000000041ecdc                __malloc_lock

.text.__malloc_unlock%1028
                0x000000000041ece0        0x4
 .text.__malloc_unlock
                0x000000000041ece0        0x4 /Applications/microchip/xc32/v2.15/bin/bin/../../lib/gcc/pic32c/6.2.1/../../../../pic32c/lib/v7e-m/fpv5/hard/libc.a(lib_a-mlock.o)
                0x000000000041ece0                __malloc_unlock

.text.__localeconv_l%1029
                0x000000000041ece4        0x4
 .text.__localeconv_l
                0x000000000041ece4        0x4 /Applications/microchip/xc32/v2.15/bin/bin/../../lib/gcc/pic32c/6.2.1/../../../../pic32c/lib/v7e-m/fpv5/hard/libc.a(lib_a-localeconv.o)
                0x000000000041ece4                __localeconv_l

.text._TCPIP_HEAP_BufferMapNonCached%1030
                0x000000000040d79e        0x2
 .text._TCPIP_HEAP_BufferMapNonCached
                0x000000000040d79e        0x2 build/sam_e70_xult_freertos/production/_ext/810785262/tcpip_heap_alloc.o
                0x000000000040d79e                _TCPIP_HEAP_BufferMapNonCached

.text.DRV_GMAC_Reinitialize%1031
                0x0000000000410dda        0x2
 .text.DRV_GMAC_Reinitialize
                0x0000000000410dda        0x2 build/sam_e70_xult_freertos/production/_ext/1619526243/drv_gmac.o
                0x0000000000410dda                DRV_GMAC_Reinitialize

.text.Dummy_Handler%1032
                0x0000000000411c86        0x2
 .text.Dummy_Handler
                0x0000000000411c86        0x2 build/sam_e70_xult_freertos/production/_ext/1552905064/interrupts.o
                0x0000000000411c86                SPI0_Handler
                0x0000000000411c86                TC0_CH2_Handler
                0x0000000000411c86                TC3_CH1_Handler
                0x0000000000411c86                UART3_Handler
                0x0000000000411c86                UART2_Handler
                0x0000000000411c86                TRNG_Handler
                0x0000000000411c86                AFEC1_Handler
                0x0000000000411c86                TC0_CH1_Handler
                0x0000000000411c86                QSPI_Handler
                0x0000000000411c86                ISI_Handler
                0x0000000000411c86                MCAN0_INT0_Handler
                0x0000000000411c86                RSWDT_Handler
                0x0000000000411c86                USART0_Handler
                0x0000000000411c86                TC1_CH2_Handler
                0x0000000000411c86                RTT_Handler
                0x0000000000411c86                USBHS_Handler
                0x0000000000411c86                IXC_Handler
                0x0000000000411c86                CCF_Handler
                0x0000000000411c86                PIOB_Handler
                0x0000000000411c86                RTC_Handler
                0x0000000000411c86                WDT_Handler
                0x0000000000411c86                MCAN1_INT1_Handler
                0x0000000000411c86                HSMCI_Handler
                0x0000000000411c86                UART1_Handler
                0x0000000000411c86                Dummy_Handler
                0x0000000000411c86                TWIHS1_Handler
                0x0000000000411c86                TC3_CH2_Handler
                0x0000000000411c86                XDMAC_Handler
                0x0000000000411c86                UART4_Handler
                0x0000000000411c86                TC2_CH0_Handler
                0x0000000000411c86                PWM1_Handler
                0x0000000000411c86                PWM0_Handler
                0x0000000000411c86                PIOA_Handler
                0x0000000000411c86                AFEC0_Handler
                0x0000000000411c86                CCW_Handler
                0x0000000000411c86                TC3_CH0_Handler
                0x0000000000411c86                SSC_Handler
                0x0000000000411c86                TC1_CH0_Handler
                0x0000000000411c86                ACC_Handler
                0x0000000000411c86                PMC_Handler
                0x0000000000411c86                TC2_CH2_Handler
                0x0000000000411c86                MCAN0_INT1_Handler
                0x0000000000411c86                GMAC_Q5_Handler
                0x0000000000411c86                SUPC_Handler
                0x0000000000411c86                TC2_CH1_Handler
                0x0000000000411c86                MCAN1_INT0_Handler
                0x0000000000411c86                EFC_Handler
                0x0000000000411c86                GMAC_Q1_Handler
                0x0000000000411c86                USART2_Handler
                0x0000000000411c86                SDRAMC_Handler
                0x0000000000411c86                GMAC_Q2_Handler
                0x0000000000411c86                PIOE_Handler
                0x0000000000411c86                SPI1_Handler
                0x0000000000411c86                TC1_CH1_Handler
                0x0000000000411c86                GMAC_Q3_Handler
                0x0000000000411c86                PIOD_Handler
                0x0000000000411c86                TWIHS2_Handler
                0x0000000000411c86                I2SC0_Handler
                0x0000000000411c86                UART0_Handler
                0x0000000000411c86                I2SC1_Handler
                0x0000000000411c86                PIOC_Handler
                0x0000000000411c86                GMAC_Q4_Handler
                0x0000000000411c86                FPU_Handler
                0x0000000000411c86                RSTC_Handler
                0x0000000000411c86                ICM_Handler
                0x0000000000411c86                AES_Handler
                0x0000000000411c86                DACC_Handler

.text.NonMaskableInt_Handler%1033
                0x0000000000411fb6        0x2
 .text.NonMaskableInt_Handler
                0x0000000000411fb6        0x2 build/sam_e70_xult_freertos/production/_ext/1552905064/exceptions.o
                0x0000000000411fb6                NonMaskableInt_Handler

.text.HardFault_Handler%1034
                0x0000000000412bae        0x2
 .text.HardFault_Handler
                0x0000000000412bae        0x2 build/sam_e70_xult_freertos/production/_ext/1552905064/exceptions.o
                0x0000000000412bae                HardFault_Handler

.text.DebugMonitor_Handler%1035
                0x00000000004148d2        0x2
 .text.DebugMonitor_Handler
                0x00000000004148d2        0x2 build/sam_e70_xult_freertos/production/_ext/1552905064/exceptions.o
                0x00000000004148d2                DebugMonitor_Handler

.text.MemoryManagement_Handler%1036
                0x0000000000414f4e        0x2
 .text.MemoryManagement_Handler
                0x0000000000414f4e        0x2 build/sam_e70_xult_freertos/production/_ext/1552905064/exceptions.o
                0x0000000000414f4e                MemoryManagement_Handler

.text.BusFault_Handler%1037
                0x000000000041535e        0x2
 .text.BusFault_Handler
                0x000000000041535e        0x2 build/sam_e70_xult_freertos/production/_ext/1552905064/exceptions.o
                0x000000000041535e                BusFault_Handler

.text.UsageFault_Handler%1038
                0x0000000000415f6e        0x2
 .text.UsageFault_Handler
                0x0000000000415f6e        0x2 build/sam_e70_xult_freertos/production/_ext/1552905064/exceptions.o
                0x0000000000415f6e                UsageFault_Handler

.text.DRV_MIIM_Reinitialize%1039
                0x0000000000417106        0x2
 .text.DRV_MIIM_Reinitialize
                0x0000000000417106        0x2 build/sam_e70_xult_freertos/production/_ext/511568427/drv_miim.o
                0x0000000000417106                DRV_MIIM_Reinitialize

.text._DRV_ETHPHY_ClientOpNone%1040
                0x0000000000417606        0x2
 .text._DRV_ETHPHY_ClientOpNone
                0x0000000000417606        0x2 build/sam_e70_xult_freertos/production/_ext/1607428259/drv_ethphy.o

.text.Console_UART_Tasks%1041
                0x0000000000417a5e        0x2
 .text.Console_UART_Tasks
                0x0000000000417a5e        0x2 build/sam_e70_xult_freertos/production/_ext/762686499/sys_console_uart.o
                0x0000000000417a5e                Console_UART_Tasks
